ARM GAS  /var/folders/y7/g6pkzsp12sx54x3s3mvyn15r0000gn/T//ccVTo1ct.s 			page 1


   1              		.cpu cortex-m7
   2              		.arch armv7e-m
   3              		.fpu fpv5-d16
   4              		.eabi_attribute 28, 1
   5              		.eabi_attribute 20, 1
   6              		.eabi_attribute 21, 1
   7              		.eabi_attribute 23, 3
   8              		.eabi_attribute 24, 1
   9              		.eabi_attribute 25, 1
  10              		.eabi_attribute 26, 1
  11              		.eabi_attribute 30, 4
  12              		.eabi_attribute 34, 1
  13              		.eabi_attribute 18, 4
  14              		.file	"chord_engine.cc"
  15              		.text
  16              	.Ltext0:
  17              		.cfi_sections	.debug_frame
  18              		.file 1 "../eurorack/plaits/dsp/engine/chord_engine.cc"
  19              		.section	.text._ZN6plaits11ChordEngine12LoadUserDataEPKh,"axG",%progbits,_ZN6plaits11ChordEngine12
  20              		.align	1
  21              		.weak	_ZN6plaits11ChordEngine12LoadUserDataEPKh
  22              		.syntax unified
  23              		.thumb
  24              		.thumb_func
  26              	_ZN6plaits11ChordEngine12LoadUserDataEPKh:
  27              	.LVL0:
  28              	.LFB1339:
  29              		.file 2 "../eurorack/plaits/dsp/engine/chord_engine.h"
   1:../eurorack/plaits/dsp/engine/chord_engine.h **** // Copyright 2016 Emilie Gillet.
   2:../eurorack/plaits/dsp/engine/chord_engine.h **** //
   3:../eurorack/plaits/dsp/engine/chord_engine.h **** // Author: Emilie Gillet (emilie.o.gillet@gmail.com)
   4:../eurorack/plaits/dsp/engine/chord_engine.h **** //
   5:../eurorack/plaits/dsp/engine/chord_engine.h **** // Permission is hereby granted, free of charge, to any person obtaining a copy
   6:../eurorack/plaits/dsp/engine/chord_engine.h **** // of this software and associated documentation files (the "Software"), to deal
   7:../eurorack/plaits/dsp/engine/chord_engine.h **** // in the Software without restriction, including without limitation the rights
   8:../eurorack/plaits/dsp/engine/chord_engine.h **** // to use, copy, modify, merge, publish, distribute, sublicense, and/or sell
   9:../eurorack/plaits/dsp/engine/chord_engine.h **** // copies of the Software, and to permit persons to whom the Software is
  10:../eurorack/plaits/dsp/engine/chord_engine.h **** // furnished to do so, subject to the following conditions:
  11:../eurorack/plaits/dsp/engine/chord_engine.h **** // 
  12:../eurorack/plaits/dsp/engine/chord_engine.h **** // The above copyright notice and this permission notice shall be included in
  13:../eurorack/plaits/dsp/engine/chord_engine.h **** // all copies or substantial portions of the Software.
  14:../eurorack/plaits/dsp/engine/chord_engine.h **** // 
  15:../eurorack/plaits/dsp/engine/chord_engine.h **** // THE SOFTWARE IS PROVIDED "AS IS", WITHOUT WARRANTY OF ANY KIND, EXPRESS OR
  16:../eurorack/plaits/dsp/engine/chord_engine.h **** // IMPLIED, INCLUDING BUT NOT LIMITED TO THE WARRANTIES OF MERCHANTABILITY,
  17:../eurorack/plaits/dsp/engine/chord_engine.h **** // FITNESS FOR A PARTICULAR PURPOSE AND NONINFRINGEMENT. IN NO EVENT SHALL THE
  18:../eurorack/plaits/dsp/engine/chord_engine.h **** // AUTHORS OR COPYRIGHT HOLDERS BE LIABLE FOR ANY CLAIM, DAMAGES OR OTHER
  19:../eurorack/plaits/dsp/engine/chord_engine.h **** // LIABILITY, WHETHER IN AN ACTION OF CONTRACT, TORT OR OTHERWISE, ARISING FROM,
  20:../eurorack/plaits/dsp/engine/chord_engine.h **** // OUT OF OR IN CONNECTION WITH THE SOFTWARE OR THE USE OR OTHER DEALINGS IN
  21:../eurorack/plaits/dsp/engine/chord_engine.h **** // THE SOFTWARE.
  22:../eurorack/plaits/dsp/engine/chord_engine.h **** // 
  23:../eurorack/plaits/dsp/engine/chord_engine.h **** // See http://creativecommons.org/licenses/MIT/ for more information.
  24:../eurorack/plaits/dsp/engine/chord_engine.h **** //
  25:../eurorack/plaits/dsp/engine/chord_engine.h **** // -----------------------------------------------------------------------------
  26:../eurorack/plaits/dsp/engine/chord_engine.h **** //
  27:../eurorack/plaits/dsp/engine/chord_engine.h **** // Chords: wavetable and divide-down organ/string machine.
  28:../eurorack/plaits/dsp/engine/chord_engine.h **** 
  29:../eurorack/plaits/dsp/engine/chord_engine.h **** #ifndef PLAITS_DSP_ENGINE_CHORD_ENGINE_H_
ARM GAS  /var/folders/y7/g6pkzsp12sx54x3s3mvyn15r0000gn/T//ccVTo1ct.s 			page 2


  30:../eurorack/plaits/dsp/engine/chord_engine.h **** #define PLAITS_DSP_ENGINE_CHORD_ENGINE_H_
  31:../eurorack/plaits/dsp/engine/chord_engine.h **** 
  32:../eurorack/plaits/dsp/engine/chord_engine.h **** #include "plaits/dsp/chords/chord_bank.h"
  33:../eurorack/plaits/dsp/engine/chord_engine.h **** #include "plaits/dsp/engine/engine.h"
  34:../eurorack/plaits/dsp/engine/chord_engine.h **** #include "plaits/dsp/oscillator/string_synth_oscillator.h"
  35:../eurorack/plaits/dsp/engine/chord_engine.h **** #include "plaits/dsp/oscillator/wavetable_oscillator.h"
  36:../eurorack/plaits/dsp/engine/chord_engine.h **** 
  37:../eurorack/plaits/dsp/engine/chord_engine.h **** namespace plaits {
  38:../eurorack/plaits/dsp/engine/chord_engine.h **** 
  39:../eurorack/plaits/dsp/engine/chord_engine.h **** const int kChordNumHarmonics = 3;
  40:../eurorack/plaits/dsp/engine/chord_engine.h **** 
  41:../eurorack/plaits/dsp/engine/chord_engine.h **** class ChordEngine : public Engine {
  42:../eurorack/plaits/dsp/engine/chord_engine.h ****  public:
  43:../eurorack/plaits/dsp/engine/chord_engine.h ****   ChordEngine() { }
  44:../eurorack/plaits/dsp/engine/chord_engine.h ****   ~ChordEngine() { }
  45:../eurorack/plaits/dsp/engine/chord_engine.h ****   
  46:../eurorack/plaits/dsp/engine/chord_engine.h ****   virtual void Init(stmlib::BufferAllocator* allocator);
  47:../eurorack/plaits/dsp/engine/chord_engine.h ****   virtual void Reset();
  48:../eurorack/plaits/dsp/engine/chord_engine.h ****   virtual void LoadUserData(const uint8_t* user_data) { }
  30              		.loc 2 48 16 view -0
  31              		.cfi_startproc
  32              		@ args = 0, pretend = 0, frame = 0
  33              		@ frame_needed = 0, uses_anonymous_args = 0
  34              		@ link register save eliminated.
  35              		.loc 2 48 57 is_stmt 0 view .LVU1
  36 0000 7047     		bx	lr
  37              		.cfi_endproc
  38              	.LFE1339:
  40              		.section	.text._ZN6plaits11ChordEngine4InitEPN6stmlib15BufferAllocatorE,"ax",%progbits
  41              		.align	1
  42              		.global	_ZN6plaits11ChordEngine4InitEPN6stmlib15BufferAllocatorE
  43              		.syntax unified
  44              		.thumb
  45              		.thumb_func
  47              	_ZN6plaits11ChordEngine4InitEPN6stmlib15BufferAllocatorE:
  48              	.LVL1:
  49              	.LFB1340:
   1:../eurorack/plaits/dsp/engine/chord_engine.cc **** // Copyright 2016 Emilie Gillet.
   2:../eurorack/plaits/dsp/engine/chord_engine.cc **** //
   3:../eurorack/plaits/dsp/engine/chord_engine.cc **** // Author: Emilie Gillet (emilie.o.gillet@gmail.com)
   4:../eurorack/plaits/dsp/engine/chord_engine.cc **** //
   5:../eurorack/plaits/dsp/engine/chord_engine.cc **** // Permission is hereby granted, free of charge, to any person obtaining a copy
   6:../eurorack/plaits/dsp/engine/chord_engine.cc **** // of this software and associated documentation files (the "Software"), to deal
   7:../eurorack/plaits/dsp/engine/chord_engine.cc **** // in the Software without restriction, including without limitation the rights
   8:../eurorack/plaits/dsp/engine/chord_engine.cc **** // to use, copy, modify, merge, publish, distribute, sublicense, and/or sell
   9:../eurorack/plaits/dsp/engine/chord_engine.cc **** // copies of the Software, and to permit persons to whom the Software is
  10:../eurorack/plaits/dsp/engine/chord_engine.cc **** // furnished to do so, subject to the following conditions:
  11:../eurorack/plaits/dsp/engine/chord_engine.cc **** // 
  12:../eurorack/plaits/dsp/engine/chord_engine.cc **** // The above copyright notice and this permission notice shall be included in
  13:../eurorack/plaits/dsp/engine/chord_engine.cc **** // all copies or substantial portions of the Software.
  14:../eurorack/plaits/dsp/engine/chord_engine.cc **** // 
  15:../eurorack/plaits/dsp/engine/chord_engine.cc **** // THE SOFTWARE IS PROVIDED "AS IS", WITHOUT WARRANTY OF ANY KIND, EXPRESS OR
  16:../eurorack/plaits/dsp/engine/chord_engine.cc **** // IMPLIED, INCLUDING BUT NOT LIMITED TO THE WARRANTIES OF MERCHANTABILITY,
  17:../eurorack/plaits/dsp/engine/chord_engine.cc **** // FITNESS FOR A PARTICULAR PURPOSE AND NONINFRINGEMENT. IN NO EVENT SHALL THE
  18:../eurorack/plaits/dsp/engine/chord_engine.cc **** // AUTHORS OR COPYRIGHT HOLDERS BE LIABLE FOR ANY CLAIM, DAMAGES OR OTHER
  19:../eurorack/plaits/dsp/engine/chord_engine.cc **** // LIABILITY, WHETHER IN AN ACTION OF CONTRACT, TORT OR OTHERWISE, ARISING FROM,
  20:../eurorack/plaits/dsp/engine/chord_engine.cc **** // OUT OF OR IN CONNECTION WITH THE SOFTWARE OR THE USE OR OTHER DEALINGS IN
ARM GAS  /var/folders/y7/g6pkzsp12sx54x3s3mvyn15r0000gn/T//ccVTo1ct.s 			page 3


  21:../eurorack/plaits/dsp/engine/chord_engine.cc **** // THE SOFTWARE.
  22:../eurorack/plaits/dsp/engine/chord_engine.cc **** // 
  23:../eurorack/plaits/dsp/engine/chord_engine.cc **** // See http://creativecommons.org/licenses/MIT/ for more information.
  24:../eurorack/plaits/dsp/engine/chord_engine.cc **** //
  25:../eurorack/plaits/dsp/engine/chord_engine.cc **** // -----------------------------------------------------------------------------
  26:../eurorack/plaits/dsp/engine/chord_engine.cc **** //
  27:../eurorack/plaits/dsp/engine/chord_engine.cc **** // Chords: wavetable and divide-down organ/string machine.
  28:../eurorack/plaits/dsp/engine/chord_engine.cc **** 
  29:../eurorack/plaits/dsp/engine/chord_engine.cc **** #include "plaits/dsp/engine/chord_engine.h"
  30:../eurorack/plaits/dsp/engine/chord_engine.cc **** 
  31:../eurorack/plaits/dsp/engine/chord_engine.cc **** #include <algorithm>
  32:../eurorack/plaits/dsp/engine/chord_engine.cc **** 
  33:../eurorack/plaits/dsp/engine/chord_engine.cc **** #include "plaits/resources.h"
  34:../eurorack/plaits/dsp/engine/chord_engine.cc **** 
  35:../eurorack/plaits/dsp/engine/chord_engine.cc **** namespace plaits {
  36:../eurorack/plaits/dsp/engine/chord_engine.cc **** 
  37:../eurorack/plaits/dsp/engine/chord_engine.cc **** using namespace std;
  38:../eurorack/plaits/dsp/engine/chord_engine.cc **** using namespace stmlib;
  39:../eurorack/plaits/dsp/engine/chord_engine.cc **** 
  40:../eurorack/plaits/dsp/engine/chord_engine.cc **** void ChordEngine::Init(BufferAllocator* allocator) {
  50              		.loc 1 40 52 is_stmt 1 view -0
  51              		.cfi_startproc
  52              		@ args = 0, pretend = 0, frame = 0
  53              		@ frame_needed = 0, uses_anonymous_args = 0
  41:../eurorack/plaits/dsp/engine/chord_engine.cc ****   for (int i = 0; i < kChordNumVoices; ++i) {
  54              		.loc 1 41 3 view .LVU3
  55              	.LBB144:
  56              		.loc 1 41 21 discriminator 1 view .LVU4
  57              	.LBE144:
  40:../eurorack/plaits/dsp/engine/chord_engine.cc ****   for (int i = 0; i < kChordNumVoices; ++i) {
  58              		.loc 1 40 52 is_stmt 0 view .LVU5
  59 0000 70B5     		push	{r4, r5, r6, lr}
  60              		.cfi_def_cfa_offset 16
  61              		.cfi_offset 4, -16
  62              		.cfi_offset 5, -12
  63              		.cfi_offset 6, -8
  64              		.cfi_offset 14, -4
  40:../eurorack/plaits/dsp/engine/chord_engine.cc ****   for (int i = 0; i < kChordNumVoices; ++i) {
  65              		.loc 1 40 52 view .LVU6
  66 0002 0546     		mov	r5, r0
  67 0004 0346     		mov	r3, r0
  68 0006 A030     		adds	r0, r0, #160
  69              	.LVL2:
  40:../eurorack/plaits/dsp/engine/chord_engine.cc ****   for (int i = 0; i < kChordNumVoices; ++i) {
  70              		.loc 1 40 52 view .LVU7
  71 0008 2A46     		mov	r2, r5
  72              	.LVL3:
  73              	.L3:
  74              	.LBB154:
  42:../eurorack/plaits/dsp/engine/chord_engine.cc ****     divide_down_voice_[i].Init();
  75              		.loc 1 42 5 is_stmt 1 view .LVU8
  76              	.LBB145:
  77              	.LBI145:
  78              		.file 3 "../eurorack/plaits/dsp/oscillator/string_synth_oscillator.h"
   1:../eurorack/plaits/dsp/oscillator/string_synth_oscillator.h **** // Copyright 2016 Emilie Gillet.
   2:../eurorack/plaits/dsp/oscillator/string_synth_oscillator.h **** //
   3:../eurorack/plaits/dsp/oscillator/string_synth_oscillator.h **** // Author: Emilie Gillet (emilie.o.gillet@gmail.com)
ARM GAS  /var/folders/y7/g6pkzsp12sx54x3s3mvyn15r0000gn/T//ccVTo1ct.s 			page 4


   4:../eurorack/plaits/dsp/oscillator/string_synth_oscillator.h **** //
   5:../eurorack/plaits/dsp/oscillator/string_synth_oscillator.h **** // Permission is hereby granted, free of charge, to any person obtaining a copy
   6:../eurorack/plaits/dsp/oscillator/string_synth_oscillator.h **** // of this software and associated documentation files (the "Software"), to deal
   7:../eurorack/plaits/dsp/oscillator/string_synth_oscillator.h **** // in the Software without restriction, including without limitation the rights
   8:../eurorack/plaits/dsp/oscillator/string_synth_oscillator.h **** // to use, copy, modify, merge, publish, distribute, sublicense, and/or sell
   9:../eurorack/plaits/dsp/oscillator/string_synth_oscillator.h **** // copies of the Software, and to permit persons to whom the Software is
  10:../eurorack/plaits/dsp/oscillator/string_synth_oscillator.h **** // furnished to do so, subject to the following conditions:
  11:../eurorack/plaits/dsp/oscillator/string_synth_oscillator.h **** // 
  12:../eurorack/plaits/dsp/oscillator/string_synth_oscillator.h **** // The above copyright notice and this permission notice shall be included in
  13:../eurorack/plaits/dsp/oscillator/string_synth_oscillator.h **** // all copies or substantial portions of the Software.
  14:../eurorack/plaits/dsp/oscillator/string_synth_oscillator.h **** // 
  15:../eurorack/plaits/dsp/oscillator/string_synth_oscillator.h **** // THE SOFTWARE IS PROVIDED "AS IS", WITHOUT WARRANTY OF ANY KIND, EXPRESS OR
  16:../eurorack/plaits/dsp/oscillator/string_synth_oscillator.h **** // IMPLIED, INCLUDING BUT NOT LIMITED TO THE WARRANTIES OF MERCHANTABILITY,
  17:../eurorack/plaits/dsp/oscillator/string_synth_oscillator.h **** // FITNESS FOR A PARTICULAR PURPOSE AND NONINFRINGEMENT. IN NO EVENT SHALL THE
  18:../eurorack/plaits/dsp/oscillator/string_synth_oscillator.h **** // AUTHORS OR COPYRIGHT HOLDERS BE LIABLE FOR ANY CLAIM, DAMAGES OR OTHER
  19:../eurorack/plaits/dsp/oscillator/string_synth_oscillator.h **** // LIABILITY, WHETHER IN AN ACTION OF CONTRACT, TORT OR OTHERWISE, ARISING FROM,
  20:../eurorack/plaits/dsp/oscillator/string_synth_oscillator.h **** // OUT OF OR IN CONNECTION WITH THE SOFTWARE OR THE USE OR OTHER DEALINGS IN
  21:../eurorack/plaits/dsp/oscillator/string_synth_oscillator.h **** // THE SOFTWARE.
  22:../eurorack/plaits/dsp/oscillator/string_synth_oscillator.h **** // 
  23:../eurorack/plaits/dsp/oscillator/string_synth_oscillator.h **** // See http://creativecommons.org/licenses/MIT/ for more information.
  24:../eurorack/plaits/dsp/oscillator/string_synth_oscillator.h **** //
  25:../eurorack/plaits/dsp/oscillator/string_synth_oscillator.h **** // -----------------------------------------------------------------------------
  26:../eurorack/plaits/dsp/oscillator/string_synth_oscillator.h **** //
  27:../eurorack/plaits/dsp/oscillator/string_synth_oscillator.h **** // A mixture of 7 sawtooth and square waveforms in the style of divide-down
  28:../eurorack/plaits/dsp/oscillator/string_synth_oscillator.h **** // organs:
  29:../eurorack/plaits/dsp/oscillator/string_synth_oscillator.h **** //
  30:../eurorack/plaits/dsp/oscillator/string_synth_oscillator.h **** // [0]     [1]        [2]     [3]        [4]     [5]        [6]
  31:../eurorack/plaits/dsp/oscillator/string_synth_oscillator.h **** // Saw 8', Square 8', Saw 4', Square 4', Saw 2', Square 2', Saw 1'
  32:../eurorack/plaits/dsp/oscillator/string_synth_oscillator.h **** //
  33:../eurorack/plaits/dsp/oscillator/string_synth_oscillator.h **** // Internally, this renders 4 band-limited sawtooths, from 8' to 1' from a
  34:../eurorack/plaits/dsp/oscillator/string_synth_oscillator.h **** // single phase counter. The square waveforms are obtained by algebraic
  35:../eurorack/plaits/dsp/oscillator/string_synth_oscillator.h **** // manipulations on the sawtooths, using the identity:
  36:../eurorack/plaits/dsp/oscillator/string_synth_oscillator.h **** // Square 16' = 2 Sawtooth 16' - Sawtooth 8'
  37:../eurorack/plaits/dsp/oscillator/string_synth_oscillator.h **** 
  38:../eurorack/plaits/dsp/oscillator/string_synth_oscillator.h **** #ifndef PLAITS_DSP_OSCILLATOR_STRING_SYNTH_OSCILLATOR_H_
  39:../eurorack/plaits/dsp/oscillator/string_synth_oscillator.h **** #define PLAITS_DSP_OSCILLATOR_STRING_SYNTH_OSCILLATOR_H_
  40:../eurorack/plaits/dsp/oscillator/string_synth_oscillator.h **** 
  41:../eurorack/plaits/dsp/oscillator/string_synth_oscillator.h **** #include <algorithm>
  42:../eurorack/plaits/dsp/oscillator/string_synth_oscillator.h **** 
  43:../eurorack/plaits/dsp/oscillator/string_synth_oscillator.h **** #include "stmlib/dsp/dsp.h"
  44:../eurorack/plaits/dsp/oscillator/string_synth_oscillator.h **** #include "stmlib/dsp/parameter_interpolator.h"
  45:../eurorack/plaits/dsp/oscillator/string_synth_oscillator.h **** #include "stmlib/dsp/polyblep.h"
  46:../eurorack/plaits/dsp/oscillator/string_synth_oscillator.h **** 
  47:../eurorack/plaits/dsp/oscillator/string_synth_oscillator.h **** namespace plaits {
  48:../eurorack/plaits/dsp/oscillator/string_synth_oscillator.h **** 
  49:../eurorack/plaits/dsp/oscillator/string_synth_oscillator.h **** class StringSynthOscillator {
  50:../eurorack/plaits/dsp/oscillator/string_synth_oscillator.h ****  public:
  51:../eurorack/plaits/dsp/oscillator/string_synth_oscillator.h ****   StringSynthOscillator() { }
  52:../eurorack/plaits/dsp/oscillator/string_synth_oscillator.h ****   ~StringSynthOscillator() { }
  53:../eurorack/plaits/dsp/oscillator/string_synth_oscillator.h ****   
  54:../eurorack/plaits/dsp/oscillator/string_synth_oscillator.h ****   inline void Init() {
  79              		.loc 3 54 15 view .LVU9
  80              	.LBB146:
  55:../eurorack/plaits/dsp/oscillator/string_synth_oscillator.h ****     phase_ = 0.0f;
  81              		.loc 3 55 5 view .LVU10
  56:../eurorack/plaits/dsp/oscillator/string_synth_oscillator.h ****     next_sample_ = 0.0f;
  57:../eurorack/plaits/dsp/oscillator/string_synth_oscillator.h ****     segment_ = 0.0f;
ARM GAS  /var/folders/y7/g6pkzsp12sx54x3s3mvyn15r0000gn/T//ccVTo1ct.s 			page 5


  82              		.loc 3 57 14 is_stmt 0 view .LVU11
  83 000a 0026     		movs	r6, #0
  55:../eurorack/plaits/dsp/oscillator/string_synth_oscillator.h ****     phase_ = 0.0f;
  84              		.loc 3 55 12 view .LVU12
  85 000c 0024     		movs	r4, #0
  86              	.LBE146:
  87              	.LBE145:
  41:../eurorack/plaits/dsp/engine/chord_engine.cc ****     divide_down_voice_[i].Init();
  88              		.loc 1 41 21 discriminator 1 view .LVU13
  89 000e 2033     		adds	r3, r3, #32
  90 0010 1C32     		adds	r2, r2, #28
  91              	.LBB148:
  92              	.LBB147:
  93              		.loc 3 57 14 view .LVU14
  94 0012 43F8086C 		str	r6, [r3, #-8]
  58:../eurorack/plaits/dsp/oscillator/string_synth_oscillator.h ****     
  59:../eurorack/plaits/dsp/oscillator/string_synth_oscillator.h ****     frequency_ = 0.001f;
  95              		.loc 3 59 16 view .LVU15
  96 0016 124E     		ldr	r6, .L5
  55:../eurorack/plaits/dsp/oscillator/string_synth_oscillator.h ****     next_sample_ = 0.0f;
  97              		.loc 3 55 12 view .LVU16
  98 0018 43F8104C 		str	r4, [r3, #-16]	@ float
  56:../eurorack/plaits/dsp/oscillator/string_synth_oscillator.h ****     segment_ = 0.0f;
  99              		.loc 3 56 5 is_stmt 1 view .LVU17
  56:../eurorack/plaits/dsp/oscillator/string_synth_oscillator.h ****     segment_ = 0.0f;
 100              		.loc 3 56 18 is_stmt 0 view .LVU18
 101 001c 43F80C4C 		str	r4, [r3, #-12]	@ float
  57:../eurorack/plaits/dsp/oscillator/string_synth_oscillator.h ****     
 102              		.loc 3 57 5 is_stmt 1 view .LVU19
 103              		.loc 3 59 5 view .LVU20
 104              		.loc 3 59 16 is_stmt 0 view .LVU21
 105 0020 43F8046C 		str	r6, [r3, #-4]	@ float
  60:../eurorack/plaits/dsp/oscillator/string_synth_oscillator.h ****     saw_8_gain_ = 0.0f;
 106              		.loc 3 60 5 is_stmt 1 view .LVU22
 107              		.loc 3 60 17 is_stmt 0 view .LVU23
 108 0024 1C60     		str	r4, [r3]	@ float
  61:../eurorack/plaits/dsp/oscillator/string_synth_oscillator.h ****     saw_4_gain_ = 0.0f;
 109              		.loc 3 61 5 is_stmt 1 view .LVU24
 110              		.loc 3 61 17 is_stmt 0 view .LVU25
 111 0026 5C60     		str	r4, [r3, #4]	@ float
  62:../eurorack/plaits/dsp/oscillator/string_synth_oscillator.h ****     saw_2_gain_ = 0.0f;
 112              		.loc 3 62 5 is_stmt 1 view .LVU26
 113              		.loc 3 62 17 is_stmt 0 view .LVU27
 114 0028 9C60     		str	r4, [r3, #8]	@ float
  63:../eurorack/plaits/dsp/oscillator/string_synth_oscillator.h ****     saw_1_gain_ = 0.0f;
 115              		.loc 3 63 5 is_stmt 1 view .LVU28
 116              		.loc 3 63 17 is_stmt 0 view .LVU29
 117 002a DC60     		str	r4, [r3, #12]	@ float
 118              	.LBE147:
 119              	.LBE148:
  43:../eurorack/plaits/dsp/engine/chord_engine.cc ****     wavetable_voice_[i].Init();
 120              		.loc 1 43 5 is_stmt 1 view .LVU30
 121              	.LVL4:
 122              	.LBB149:
 123              	.LBI149:
 124              		.file 4 "../eurorack/plaits/dsp/oscillator/wavetable_oscillator.h"
   1:../eurorack/plaits/dsp/oscillator/wavetable_oscillator.h **** // Copyright 2016 Emilie Gillet.
ARM GAS  /var/folders/y7/g6pkzsp12sx54x3s3mvyn15r0000gn/T//ccVTo1ct.s 			page 6


   2:../eurorack/plaits/dsp/oscillator/wavetable_oscillator.h **** //
   3:../eurorack/plaits/dsp/oscillator/wavetable_oscillator.h **** // Author: Emilie Gillet (emilie.o.gillet@gmail.com)
   4:../eurorack/plaits/dsp/oscillator/wavetable_oscillator.h **** //
   5:../eurorack/plaits/dsp/oscillator/wavetable_oscillator.h **** // Permission is hereby granted, free of charge, to any person obtaining a copy
   6:../eurorack/plaits/dsp/oscillator/wavetable_oscillator.h **** // of this software and associated documentation files (the "Software"), to deal
   7:../eurorack/plaits/dsp/oscillator/wavetable_oscillator.h **** // in the Software without restriction, including without limitation the rights
   8:../eurorack/plaits/dsp/oscillator/wavetable_oscillator.h **** // to use, copy, modify, merge, publish, distribute, sublicense, and/or sell
   9:../eurorack/plaits/dsp/oscillator/wavetable_oscillator.h **** // copies of the Software, and to permit persons to whom the Software is
  10:../eurorack/plaits/dsp/oscillator/wavetable_oscillator.h **** // furnished to do so, subject to the following conditions:
  11:../eurorack/plaits/dsp/oscillator/wavetable_oscillator.h **** // 
  12:../eurorack/plaits/dsp/oscillator/wavetable_oscillator.h **** // The above copyright notice and this permission notice shall be included in
  13:../eurorack/plaits/dsp/oscillator/wavetable_oscillator.h **** // all copies or substantial portions of the Software.
  14:../eurorack/plaits/dsp/oscillator/wavetable_oscillator.h **** // 
  15:../eurorack/plaits/dsp/oscillator/wavetable_oscillator.h **** // THE SOFTWARE IS PROVIDED "AS IS", WITHOUT WARRANTY OF ANY KIND, EXPRESS OR
  16:../eurorack/plaits/dsp/oscillator/wavetable_oscillator.h **** // IMPLIED, INCLUDING BUT NOT LIMITED TO THE WARRANTIES OF MERCHANTABILITY,
  17:../eurorack/plaits/dsp/oscillator/wavetable_oscillator.h **** // FITNESS FOR A PARTICULAR PURPOSE AND NONINFRINGEMENT. IN NO EVENT SHALL THE
  18:../eurorack/plaits/dsp/oscillator/wavetable_oscillator.h **** // AUTHORS OR COPYRIGHT HOLDERS BE LIABLE FOR ANY CLAIM, DAMAGES OR OTHER
  19:../eurorack/plaits/dsp/oscillator/wavetable_oscillator.h **** // LIABILITY, WHETHER IN AN ACTION OF CONTRACT, TORT OR OTHERWISE, ARISING FROM,
  20:../eurorack/plaits/dsp/oscillator/wavetable_oscillator.h **** // OUT OF OR IN CONNECTION WITH THE SOFTWARE OR THE USE OR OTHER DEALINGS IN
  21:../eurorack/plaits/dsp/oscillator/wavetable_oscillator.h **** // THE SOFTWARE.
  22:../eurorack/plaits/dsp/oscillator/wavetable_oscillator.h **** // 
  23:../eurorack/plaits/dsp/oscillator/wavetable_oscillator.h **** // See http://creativecommons.org/licenses/MIT/ for more information.
  24:../eurorack/plaits/dsp/oscillator/wavetable_oscillator.h **** //
  25:../eurorack/plaits/dsp/oscillator/wavetable_oscillator.h **** // -----------------------------------------------------------------------------
  26:../eurorack/plaits/dsp/oscillator/wavetable_oscillator.h **** //
  27:../eurorack/plaits/dsp/oscillator/wavetable_oscillator.h **** // Integrated wavetable synthesis.
  28:../eurorack/plaits/dsp/oscillator/wavetable_oscillator.h **** 
  29:../eurorack/plaits/dsp/oscillator/wavetable_oscillator.h **** #ifndef PLAITS_DSP_OSCILLATOR_WAVETABLE_OSCILLATOR_H_
  30:../eurorack/plaits/dsp/oscillator/wavetable_oscillator.h **** #define PLAITS_DSP_OSCILLATOR_WAVETABLE_OSCILLATOR_H_
  31:../eurorack/plaits/dsp/oscillator/wavetable_oscillator.h **** 
  32:../eurorack/plaits/dsp/oscillator/wavetable_oscillator.h **** #include <algorithm>
  33:../eurorack/plaits/dsp/oscillator/wavetable_oscillator.h **** 
  34:../eurorack/plaits/dsp/oscillator/wavetable_oscillator.h **** #include "stmlib/dsp/dsp.h"
  35:../eurorack/plaits/dsp/oscillator/wavetable_oscillator.h **** #include "stmlib/dsp/parameter_interpolator.h"
  36:../eurorack/plaits/dsp/oscillator/wavetable_oscillator.h **** 
  37:../eurorack/plaits/dsp/oscillator/wavetable_oscillator.h **** #include "plaits/dsp/oscillator/oscillator.h"
  38:../eurorack/plaits/dsp/oscillator/wavetable_oscillator.h **** 
  39:../eurorack/plaits/dsp/oscillator/wavetable_oscillator.h **** namespace plaits {
  40:../eurorack/plaits/dsp/oscillator/wavetable_oscillator.h **** 
  41:../eurorack/plaits/dsp/oscillator/wavetable_oscillator.h **** class Differentiator {
  42:../eurorack/plaits/dsp/oscillator/wavetable_oscillator.h ****  public:
  43:../eurorack/plaits/dsp/oscillator/wavetable_oscillator.h ****   Differentiator() { }
  44:../eurorack/plaits/dsp/oscillator/wavetable_oscillator.h ****   ~Differentiator() { }
  45:../eurorack/plaits/dsp/oscillator/wavetable_oscillator.h **** 
  46:../eurorack/plaits/dsp/oscillator/wavetable_oscillator.h ****   void Init() {
  47:../eurorack/plaits/dsp/oscillator/wavetable_oscillator.h ****     previous_ = 0.0f;
  48:../eurorack/plaits/dsp/oscillator/wavetable_oscillator.h ****     lp_ = 0.0f;
  49:../eurorack/plaits/dsp/oscillator/wavetable_oscillator.h ****   }
  50:../eurorack/plaits/dsp/oscillator/wavetable_oscillator.h ****   
  51:../eurorack/plaits/dsp/oscillator/wavetable_oscillator.h ****   float Process(float coefficient, float s) {
  52:../eurorack/plaits/dsp/oscillator/wavetable_oscillator.h ****     ONE_POLE(lp_, s - previous_, coefficient);
  53:../eurorack/plaits/dsp/oscillator/wavetable_oscillator.h ****     previous_ = s;
  54:../eurorack/plaits/dsp/oscillator/wavetable_oscillator.h ****     return lp_;
  55:../eurorack/plaits/dsp/oscillator/wavetable_oscillator.h ****   }
  56:../eurorack/plaits/dsp/oscillator/wavetable_oscillator.h ****  private:
  57:../eurorack/plaits/dsp/oscillator/wavetable_oscillator.h ****   float lp_;
  58:../eurorack/plaits/dsp/oscillator/wavetable_oscillator.h ****   float previous_;
ARM GAS  /var/folders/y7/g6pkzsp12sx54x3s3mvyn15r0000gn/T//ccVTo1ct.s 			page 7


  59:../eurorack/plaits/dsp/oscillator/wavetable_oscillator.h **** 
  60:../eurorack/plaits/dsp/oscillator/wavetable_oscillator.h ****   DISALLOW_COPY_AND_ASSIGN(Differentiator);
  61:../eurorack/plaits/dsp/oscillator/wavetable_oscillator.h **** };
  62:../eurorack/plaits/dsp/oscillator/wavetable_oscillator.h **** 
  63:../eurorack/plaits/dsp/oscillator/wavetable_oscillator.h **** template<typename T>
  64:../eurorack/plaits/dsp/oscillator/wavetable_oscillator.h **** inline float InterpolateWave(
  65:../eurorack/plaits/dsp/oscillator/wavetable_oscillator.h ****     const T* table,
  66:../eurorack/plaits/dsp/oscillator/wavetable_oscillator.h ****     int32_t index_integral,
  67:../eurorack/plaits/dsp/oscillator/wavetable_oscillator.h ****     float index_fractional) {
  68:../eurorack/plaits/dsp/oscillator/wavetable_oscillator.h ****   float a = static_cast<float>(table[index_integral]);
  69:../eurorack/plaits/dsp/oscillator/wavetable_oscillator.h ****   float b = static_cast<float>(table[index_integral + 1]);
  70:../eurorack/plaits/dsp/oscillator/wavetable_oscillator.h ****   float t = index_fractional;
  71:../eurorack/plaits/dsp/oscillator/wavetable_oscillator.h ****   return a + (b - a) * t;
  72:../eurorack/plaits/dsp/oscillator/wavetable_oscillator.h **** }
  73:../eurorack/plaits/dsp/oscillator/wavetable_oscillator.h **** 
  74:../eurorack/plaits/dsp/oscillator/wavetable_oscillator.h **** template<typename T>
  75:../eurorack/plaits/dsp/oscillator/wavetable_oscillator.h **** inline float InterpolateWaveHermite(
  76:../eurorack/plaits/dsp/oscillator/wavetable_oscillator.h ****     const T* table,
  77:../eurorack/plaits/dsp/oscillator/wavetable_oscillator.h ****     int32_t index_integral,
  78:../eurorack/plaits/dsp/oscillator/wavetable_oscillator.h ****     float index_fractional) {
  79:../eurorack/plaits/dsp/oscillator/wavetable_oscillator.h ****   const float xm1 = static_cast<float>(table[index_integral]);
  80:../eurorack/plaits/dsp/oscillator/wavetable_oscillator.h ****   const float x0 = static_cast<float>(table[index_integral + 1]);
  81:../eurorack/plaits/dsp/oscillator/wavetable_oscillator.h ****   const float x1 = static_cast<float>(table[index_integral + 2]);
  82:../eurorack/plaits/dsp/oscillator/wavetable_oscillator.h ****   const float x2 = static_cast<float>(table[index_integral + 3]);
  83:../eurorack/plaits/dsp/oscillator/wavetable_oscillator.h ****   const float c = (x1 - xm1) * 0.5f;
  84:../eurorack/plaits/dsp/oscillator/wavetable_oscillator.h ****   const float v = x0 - x1;
  85:../eurorack/plaits/dsp/oscillator/wavetable_oscillator.h ****   const float w = c + v;
  86:../eurorack/plaits/dsp/oscillator/wavetable_oscillator.h ****   const float a = w + v + (x2 - x0) * 0.5f;
  87:../eurorack/plaits/dsp/oscillator/wavetable_oscillator.h ****   const float b_neg = w + a;
  88:../eurorack/plaits/dsp/oscillator/wavetable_oscillator.h ****   const float f = index_fractional;
  89:../eurorack/plaits/dsp/oscillator/wavetable_oscillator.h ****   return (((a * f) - b_neg) * f + c) * f + x0;
  90:../eurorack/plaits/dsp/oscillator/wavetable_oscillator.h **** }
  91:../eurorack/plaits/dsp/oscillator/wavetable_oscillator.h **** 
  92:../eurorack/plaits/dsp/oscillator/wavetable_oscillator.h **** template<
  93:../eurorack/plaits/dsp/oscillator/wavetable_oscillator.h ****     size_t wavetable_size,
  94:../eurorack/plaits/dsp/oscillator/wavetable_oscillator.h ****     size_t num_waves,
  95:../eurorack/plaits/dsp/oscillator/wavetable_oscillator.h ****     bool approximate_scale=true,
  96:../eurorack/plaits/dsp/oscillator/wavetable_oscillator.h ****     bool attenuate_high_frequencies=true>
  97:../eurorack/plaits/dsp/oscillator/wavetable_oscillator.h **** class WavetableOscillator {
  98:../eurorack/plaits/dsp/oscillator/wavetable_oscillator.h ****  public:
  99:../eurorack/plaits/dsp/oscillator/wavetable_oscillator.h ****   WavetableOscillator() { }
 100:../eurorack/plaits/dsp/oscillator/wavetable_oscillator.h ****   ~WavetableOscillator() { }
 101:../eurorack/plaits/dsp/oscillator/wavetable_oscillator.h **** 
 102:../eurorack/plaits/dsp/oscillator/wavetable_oscillator.h ****   void Init() {
 125              		.loc 4 102 8 view .LVU31
 126              	.LBE149:
  41:../eurorack/plaits/dsp/engine/chord_engine.cc ****     divide_down_voice_[i].Init();
 127              		.loc 1 41 21 is_stmt 0 discriminator 1 view .LVU32
 128 002c 8342     		cmp	r3, r0
 129              	.LBB153:
 130              	.LBB150:
 103:../eurorack/plaits/dsp/oscillator/wavetable_oscillator.h ****     phase_ = 0.0f;
 131              		.loc 4 103 12 view .LVU33
 132 002e C2F89440 		str	r4, [r2, #148]	@ float
 104:../eurorack/plaits/dsp/oscillator/wavetable_oscillator.h ****     frequency_ = 0.0f;
 133              		.loc 4 104 16 view .LVU34
 134 0032 C2F89840 		str	r4, [r2, #152]	@ float
ARM GAS  /var/folders/y7/g6pkzsp12sx54x3s3mvyn15r0000gn/T//ccVTo1ct.s 			page 8


 105:../eurorack/plaits/dsp/oscillator/wavetable_oscillator.h ****     amplitude_ = 0.0f;
 135              		.loc 4 105 16 view .LVU35
 136 0036 C2F89C40 		str	r4, [r2, #156]	@ float
 106:../eurorack/plaits/dsp/oscillator/wavetable_oscillator.h ****     waveform_ = 0.0f;
 137              		.loc 4 106 15 view .LVU36
 138 003a C2F8A040 		str	r4, [r2, #160]	@ float
 107:../eurorack/plaits/dsp/oscillator/wavetable_oscillator.h ****     lp_ = 0.0f;
 139              		.loc 4 107 9 view .LVU37
 140 003e C2F8A440 		str	r4, [r2, #164]	@ float
 141              	.LVL5:
 142              	.LBB151:
 143              	.LBI151:
  46:../eurorack/plaits/dsp/oscillator/wavetable_oscillator.h ****     previous_ = 0.0f;
 144              		.loc 4 46 8 is_stmt 1 view .LVU38
 145              	.LBB152:
  47:../eurorack/plaits/dsp/oscillator/wavetable_oscillator.h ****     lp_ = 0.0f;
 146              		.loc 4 47 5 view .LVU39
  47:../eurorack/plaits/dsp/oscillator/wavetable_oscillator.h ****     lp_ = 0.0f;
 147              		.loc 4 47 15 is_stmt 0 view .LVU40
 148 0042 C2F8AC40 		str	r4, [r2, #172]	@ float
  48:../eurorack/plaits/dsp/oscillator/wavetable_oscillator.h ****   }
 149              		.loc 4 48 5 is_stmt 1 view .LVU41
  48:../eurorack/plaits/dsp/oscillator/wavetable_oscillator.h ****   }
 150              		.loc 4 48 9 is_stmt 0 view .LVU42
 151 0046 C2F8A840 		str	r4, [r2, #168]	@ float
 152              	.LVL6:
  48:../eurorack/plaits/dsp/oscillator/wavetable_oscillator.h ****   }
 153              		.loc 4 48 9 view .LVU43
 154              	.LBE152:
 155              	.LBE151:
 156              	.LBE150:
 157              	.LBE153:
  41:../eurorack/plaits/dsp/engine/chord_engine.cc ****     divide_down_voice_[i].Init();
 158              		.loc 1 41 3 is_stmt 1 discriminator 3 view .LVU44
  41:../eurorack/plaits/dsp/engine/chord_engine.cc ****     divide_down_voice_[i].Init();
 159              		.loc 1 41 21 discriminator 1 view .LVU45
 160 004a DED1     		bne	.L3
 161              	.LBE154:
  44:../eurorack/plaits/dsp/engine/chord_engine.cc ****   }
  45:../eurorack/plaits/dsp/engine/chord_engine.cc ****   chords_.Init(allocator);
 162              		.loc 1 45 3 view .LVU46
 163              		.loc 1 45 15 is_stmt 0 view .LVU47
 164 004c 05F59E70 		add	r0, r5, #316
 165 0050 FFF7FEFF 		bl	_ZN6plaits9ChordBank4InitEPN6stmlib15BufferAllocatorE
 166              	.LVL7:
  46:../eurorack/plaits/dsp/engine/chord_engine.cc ****   
  47:../eurorack/plaits/dsp/engine/chord_engine.cc ****   morph_lp_ = 0.0f;
 167              		.loc 1 47 3 is_stmt 1 view .LVU48
 168              		.loc 1 47 13 is_stmt 0 view .LVU49
 169 0054 C5F85C41 		str	r4, [r5, #348]	@ float
  48:../eurorack/plaits/dsp/engine/chord_engine.cc ****   timbre_lp_ = 0.0f;
 170              		.loc 1 48 3 is_stmt 1 view .LVU50
 171              		.loc 1 48 14 is_stmt 0 view .LVU51
 172 0058 C5F86041 		str	r4, [r5, #352]	@ float
  49:../eurorack/plaits/dsp/engine/chord_engine.cc **** }
 173              		.loc 1 49 1 view .LVU52
 174 005c 70BD     		pop	{r4, r5, r6, pc}
ARM GAS  /var/folders/y7/g6pkzsp12sx54x3s3mvyn15r0000gn/T//ccVTo1ct.s 			page 9


 175              	.LVL8:
 176              	.L6:
 177              		.loc 1 49 1 view .LVU53
 178 005e 00BF     		.align	2
 179              	.L5:
 180 0060 6F12833A 		.word	981668463
 181              		.cfi_endproc
 182              	.LFE1340:
 184              		.section	.text._ZN6plaits11ChordEngine5ResetEv,"ax",%progbits
 185              		.align	1
 186              		.global	_ZN6plaits11ChordEngine5ResetEv
 187              		.syntax unified
 188              		.thumb
 189              		.thumb_func
 191              	_ZN6plaits11ChordEngine5ResetEv:
 192              	.LVL9:
 193              	.LFB1341:
  50:../eurorack/plaits/dsp/engine/chord_engine.cc **** 
  51:../eurorack/plaits/dsp/engine/chord_engine.cc **** void ChordEngine::Reset() {
 194              		.loc 1 51 27 is_stmt 1 view -0
 195              		.cfi_startproc
 196              		@ args = 0, pretend = 0, frame = 0
 197              		@ frame_needed = 0, uses_anonymous_args = 0
 198              		@ link register save eliminated.
  52:../eurorack/plaits/dsp/engine/chord_engine.cc ****   chords_.Reset();
 199              		.loc 1 52 3 view .LVU55
 200              		.loc 1 52 16 is_stmt 0 view .LVU56
 201 0000 00F59E70 		add	r0, r0, #316
 202              	.LVL10:
 203              		.loc 1 52 16 view .LVU57
 204 0004 FFF7FEBF 		b	_ZN6plaits9ChordBank5ResetEv
 205              	.LVL11:
 206              		.loc 1 52 16 view .LVU58
 207              		.cfi_endproc
 208              	.LFE1341:
 210              		.section	.text._ZN6plaits21StringSynthOscillator6RenderEfPKffPfj,"axG",%progbits,_ZN6plaits21Strin
 211              		.align	1
 212              		.weak	_ZN6plaits21StringSynthOscillator6RenderEfPKffPfj
 213              		.syntax unified
 214              		.thumb
 215              		.thumb_func
 217              	_ZN6plaits21StringSynthOscillator6RenderEfPKffPfj:
 218              	.LVL12:
 219              	.LFB1308:
  64:../eurorack/plaits/dsp/oscillator/string_synth_oscillator.h ****   }
  65:../eurorack/plaits/dsp/oscillator/string_synth_oscillator.h ****   
  66:../eurorack/plaits/dsp/oscillator/string_synth_oscillator.h ****   inline void Render(
 220              		.loc 3 66 15 is_stmt 1 view -0
 221              		.cfi_startproc
 222              		@ args = 0, pretend = 0, frame = 32
 223              		@ frame_needed = 0, uses_anonymous_args = 0
  67:../eurorack/plaits/dsp/oscillator/string_synth_oscillator.h ****       float frequency,
  68:../eurorack/plaits/dsp/oscillator/string_synth_oscillator.h ****       const float* unshifted_registration,
  69:../eurorack/plaits/dsp/oscillator/string_synth_oscillator.h ****       float gain,
  70:../eurorack/plaits/dsp/oscillator/string_synth_oscillator.h ****       float* out,
  71:../eurorack/plaits/dsp/oscillator/string_synth_oscillator.h ****       size_t size) {
  72:../eurorack/plaits/dsp/oscillator/string_synth_oscillator.h ****     frequency *= 8.0f;
ARM GAS  /var/folders/y7/g6pkzsp12sx54x3s3mvyn15r0000gn/T//ccVTo1ct.s 			page 10


 224              		.loc 3 72 5 view .LVU60
  66:../eurorack/plaits/dsp/oscillator/string_synth_oscillator.h ****       float frequency,
 225              		.loc 3 66 15 is_stmt 0 view .LVU61
 226 0000 F0B5     		push	{r4, r5, r6, r7, lr}
 227              		.cfi_def_cfa_offset 20
 228              		.cfi_offset 4, -20
 229              		.cfi_offset 5, -16
 230              		.cfi_offset 6, -12
 231              		.cfi_offset 7, -8
 232              		.cfi_offset 14, -4
 233 0002 2DED048B 		vpush.64	{d8, d9}
 234              		.cfi_def_cfa_offset 36
 235              		.cfi_offset 80, -36
 236              		.cfi_offset 81, -32
 237              		.cfi_offset 82, -28
 238              		.cfi_offset 83, -24
 239              		.loc 3 72 15 view .LVU62
 240 0006 F2EE008A 		vmov.f32	s17, #8.0e+0
  66:../eurorack/plaits/dsp/oscillator/string_synth_oscillator.h ****       float frequency,
 241              		.loc 3 66 15 view .LVU63
 242 000a 89B0     		sub	sp, sp, #36
 243              		.cfi_def_cfa_offset 72
  66:../eurorack/plaits/dsp/oscillator/string_synth_oscillator.h ****       float frequency,
 244              		.loc 3 66 15 view .LVU64
 245 000c F0EE609A 		vmov.f32	s19, s1
 246 0010 0446     		mov	r4, r0
 247 0012 1646     		mov	r6, r2
 248 0014 1F46     		mov	r7, r3
 249              		.loc 3 72 15 view .LVU65
 250 0016 20EE289A 		vmul.f32	s18, s0, s17
 251              	.LVL13:
  73:../eurorack/plaits/dsp/oscillator/string_synth_oscillator.h ****     
  74:../eurorack/plaits/dsp/oscillator/string_synth_oscillator.h ****     // Deal with very high frequencies by shifting everything 1 or 2 octave
  75:../eurorack/plaits/dsp/oscillator/string_synth_oscillator.h ****     // down: Instead of playing the 1st harmonic of a 8kHz wave, we play the
  76:../eurorack/plaits/dsp/oscillator/string_synth_oscillator.h ****     // second harmonic of a 4kHz wave.
  77:../eurorack/plaits/dsp/oscillator/string_synth_oscillator.h ****     size_t shift = 0;
 252              		.loc 3 77 5 is_stmt 1 view .LVU66
  78:../eurorack/plaits/dsp/oscillator/string_synth_oscillator.h ****     while (frequency > 0.5f) {
 253              		.loc 3 78 5 view .LVU67
  77:../eurorack/plaits/dsp/oscillator/string_synth_oscillator.h ****     while (frequency > 0.5f) {
 254              		.loc 3 77 12 is_stmt 0 view .LVU68
 255 001a 0025     		movs	r5, #0
 256              	.LVL14:
 257              	.L9:
 258              		.loc 3 78 22 is_stmt 1 view .LVU69
 259 001c B6EE008A 		vmov.f32	s16, #5.0e-1
 260 0020 B4EEC89A 		vcmpe.f32	s18, s16
 261 0024 F1EE10FA 		vmrs	APSR_nzcv, FPSCR
 262 0028 6FDC     		bgt	.L10
  79:../eurorack/plaits/dsp/oscillator/string_synth_oscillator.h ****       shift += 2;
  80:../eurorack/plaits/dsp/oscillator/string_synth_oscillator.h ****       frequency *= 0.5f;
  81:../eurorack/plaits/dsp/oscillator/string_synth_oscillator.h ****     }
  82:../eurorack/plaits/dsp/oscillator/string_synth_oscillator.h ****     // Frequency is just too high.
  83:../eurorack/plaits/dsp/oscillator/string_synth_oscillator.h ****     if (shift >= 8) {
 263              		.loc 3 83 5 view .LVU70
 264 002a 072D     		cmp	r5, #7
 265 002c 69D8     		bhi	.L8
ARM GAS  /var/folders/y7/g6pkzsp12sx54x3s3mvyn15r0000gn/T//ccVTo1ct.s 			page 11


  84:../eurorack/plaits/dsp/oscillator/string_synth_oscillator.h ****       return;
  85:../eurorack/plaits/dsp/oscillator/string_synth_oscillator.h ****     }
  86:../eurorack/plaits/dsp/oscillator/string_synth_oscillator.h ****     
  87:../eurorack/plaits/dsp/oscillator/string_synth_oscillator.h ****     float registration[7];
 266              		.loc 3 87 5 view .LVU71
  88:../eurorack/plaits/dsp/oscillator/string_synth_oscillator.h ****     std::fill(&registration[0], &registration[shift], 0.0f);
 267              		.loc 3 88 5 view .LVU72
 268              		.loc 3 88 14 is_stmt 0 view .LVU73
 269 002e 01AB     		add	r3, sp, #4
 270              	.LVL15:
 271              		.loc 3 88 14 view .LVU74
 272 0030 4FEA850C 		lsl	ip, r5, #2
 273 0034 03EB8500 		add	r0, r3, r5, lsl #2
 274              	.LVL16:
 275              	.LBB220:
 276              	.LBI220:
 277              		.file 5 "/Applications/ArmGNUToolchain/14.2.rel1/arm-none-eabi/arm-none-eabi/include/c++/14.2.1/bi
   1:/Applications/ArmGNUToolchain/14.2.rel1/arm-none-eabi/arm-none-eabi/include/c++/14.2.1/bits/stl_algobase.h **** // Core algorithmic facilities -*- C++ -*-
   2:/Applications/ArmGNUToolchain/14.2.rel1/arm-none-eabi/arm-none-eabi/include/c++/14.2.1/bits/stl_algobase.h **** 
   3:/Applications/ArmGNUToolchain/14.2.rel1/arm-none-eabi/arm-none-eabi/include/c++/14.2.1/bits/stl_algobase.h **** // Copyright (C) 2001-2024 Free Software Foundation, Inc.
   4:/Applications/ArmGNUToolchain/14.2.rel1/arm-none-eabi/arm-none-eabi/include/c++/14.2.1/bits/stl_algobase.h **** //
   5:/Applications/ArmGNUToolchain/14.2.rel1/arm-none-eabi/arm-none-eabi/include/c++/14.2.1/bits/stl_algobase.h **** // This file is part of the GNU ISO C++ Library.  This library is free
   6:/Applications/ArmGNUToolchain/14.2.rel1/arm-none-eabi/arm-none-eabi/include/c++/14.2.1/bits/stl_algobase.h **** // software; you can redistribute it and/or modify it under the
   7:/Applications/ArmGNUToolchain/14.2.rel1/arm-none-eabi/arm-none-eabi/include/c++/14.2.1/bits/stl_algobase.h **** // terms of the GNU General Public License as published by the
   8:/Applications/ArmGNUToolchain/14.2.rel1/arm-none-eabi/arm-none-eabi/include/c++/14.2.1/bits/stl_algobase.h **** // Free Software Foundation; either version 3, or (at your option)
   9:/Applications/ArmGNUToolchain/14.2.rel1/arm-none-eabi/arm-none-eabi/include/c++/14.2.1/bits/stl_algobase.h **** // any later version.
  10:/Applications/ArmGNUToolchain/14.2.rel1/arm-none-eabi/arm-none-eabi/include/c++/14.2.1/bits/stl_algobase.h **** 
  11:/Applications/ArmGNUToolchain/14.2.rel1/arm-none-eabi/arm-none-eabi/include/c++/14.2.1/bits/stl_algobase.h **** // This library is distributed in the hope that it will be useful,
  12:/Applications/ArmGNUToolchain/14.2.rel1/arm-none-eabi/arm-none-eabi/include/c++/14.2.1/bits/stl_algobase.h **** // but WITHOUT ANY WARRANTY; without even the implied warranty of
  13:/Applications/ArmGNUToolchain/14.2.rel1/arm-none-eabi/arm-none-eabi/include/c++/14.2.1/bits/stl_algobase.h **** // MERCHANTABILITY or FITNESS FOR A PARTICULAR PURPOSE.  See the
  14:/Applications/ArmGNUToolchain/14.2.rel1/arm-none-eabi/arm-none-eabi/include/c++/14.2.1/bits/stl_algobase.h **** // GNU General Public License for more details.
  15:/Applications/ArmGNUToolchain/14.2.rel1/arm-none-eabi/arm-none-eabi/include/c++/14.2.1/bits/stl_algobase.h **** 
  16:/Applications/ArmGNUToolchain/14.2.rel1/arm-none-eabi/arm-none-eabi/include/c++/14.2.1/bits/stl_algobase.h **** // Under Section 7 of GPL version 3, you are granted additional
  17:/Applications/ArmGNUToolchain/14.2.rel1/arm-none-eabi/arm-none-eabi/include/c++/14.2.1/bits/stl_algobase.h **** // permissions described in the GCC Runtime Library Exception, version
  18:/Applications/ArmGNUToolchain/14.2.rel1/arm-none-eabi/arm-none-eabi/include/c++/14.2.1/bits/stl_algobase.h **** // 3.1, as published by the Free Software Foundation.
  19:/Applications/ArmGNUToolchain/14.2.rel1/arm-none-eabi/arm-none-eabi/include/c++/14.2.1/bits/stl_algobase.h **** 
  20:/Applications/ArmGNUToolchain/14.2.rel1/arm-none-eabi/arm-none-eabi/include/c++/14.2.1/bits/stl_algobase.h **** // You should have received a copy of the GNU General Public License and
  21:/Applications/ArmGNUToolchain/14.2.rel1/arm-none-eabi/arm-none-eabi/include/c++/14.2.1/bits/stl_algobase.h **** // a copy of the GCC Runtime Library Exception along with this program;
  22:/Applications/ArmGNUToolchain/14.2.rel1/arm-none-eabi/arm-none-eabi/include/c++/14.2.1/bits/stl_algobase.h **** // see the files COPYING3 and COPYING.RUNTIME respectively.  If not, see
  23:/Applications/ArmGNUToolchain/14.2.rel1/arm-none-eabi/arm-none-eabi/include/c++/14.2.1/bits/stl_algobase.h **** // <http://www.gnu.org/licenses/>.
  24:/Applications/ArmGNUToolchain/14.2.rel1/arm-none-eabi/arm-none-eabi/include/c++/14.2.1/bits/stl_algobase.h **** 
  25:/Applications/ArmGNUToolchain/14.2.rel1/arm-none-eabi/arm-none-eabi/include/c++/14.2.1/bits/stl_algobase.h **** /*
  26:/Applications/ArmGNUToolchain/14.2.rel1/arm-none-eabi/arm-none-eabi/include/c++/14.2.1/bits/stl_algobase.h ****  *
  27:/Applications/ArmGNUToolchain/14.2.rel1/arm-none-eabi/arm-none-eabi/include/c++/14.2.1/bits/stl_algobase.h ****  * Copyright (c) 1994
  28:/Applications/ArmGNUToolchain/14.2.rel1/arm-none-eabi/arm-none-eabi/include/c++/14.2.1/bits/stl_algobase.h ****  * Hewlett-Packard Company
  29:/Applications/ArmGNUToolchain/14.2.rel1/arm-none-eabi/arm-none-eabi/include/c++/14.2.1/bits/stl_algobase.h ****  *
  30:/Applications/ArmGNUToolchain/14.2.rel1/arm-none-eabi/arm-none-eabi/include/c++/14.2.1/bits/stl_algobase.h ****  * Permission to use, copy, modify, distribute and sell this software
  31:/Applications/ArmGNUToolchain/14.2.rel1/arm-none-eabi/arm-none-eabi/include/c++/14.2.1/bits/stl_algobase.h ****  * and its documentation for any purpose is hereby granted without fee,
  32:/Applications/ArmGNUToolchain/14.2.rel1/arm-none-eabi/arm-none-eabi/include/c++/14.2.1/bits/stl_algobase.h ****  * provided that the above copyright notice appear in all copies and
  33:/Applications/ArmGNUToolchain/14.2.rel1/arm-none-eabi/arm-none-eabi/include/c++/14.2.1/bits/stl_algobase.h ****  * that both that copyright notice and this permission notice appear
  34:/Applications/ArmGNUToolchain/14.2.rel1/arm-none-eabi/arm-none-eabi/include/c++/14.2.1/bits/stl_algobase.h ****  * in supporting documentation.  Hewlett-Packard Company makes no
  35:/Applications/ArmGNUToolchain/14.2.rel1/arm-none-eabi/arm-none-eabi/include/c++/14.2.1/bits/stl_algobase.h ****  * representations about the suitability of this software for any
  36:/Applications/ArmGNUToolchain/14.2.rel1/arm-none-eabi/arm-none-eabi/include/c++/14.2.1/bits/stl_algobase.h ****  * purpose.  It is provided "as is" without express or implied warranty.
  37:/Applications/ArmGNUToolchain/14.2.rel1/arm-none-eabi/arm-none-eabi/include/c++/14.2.1/bits/stl_algobase.h ****  *
  38:/Applications/ArmGNUToolchain/14.2.rel1/arm-none-eabi/arm-none-eabi/include/c++/14.2.1/bits/stl_algobase.h ****  *
  39:/Applications/ArmGNUToolchain/14.2.rel1/arm-none-eabi/arm-none-eabi/include/c++/14.2.1/bits/stl_algobase.h ****  * Copyright (c) 1996-1998
  40:/Applications/ArmGNUToolchain/14.2.rel1/arm-none-eabi/arm-none-eabi/include/c++/14.2.1/bits/stl_algobase.h ****  * Silicon Graphics Computer Systems, Inc.
ARM GAS  /var/folders/y7/g6pkzsp12sx54x3s3mvyn15r0000gn/T//ccVTo1ct.s 			page 12


  41:/Applications/ArmGNUToolchain/14.2.rel1/arm-none-eabi/arm-none-eabi/include/c++/14.2.1/bits/stl_algobase.h ****  *
  42:/Applications/ArmGNUToolchain/14.2.rel1/arm-none-eabi/arm-none-eabi/include/c++/14.2.1/bits/stl_algobase.h ****  * Permission to use, copy, modify, distribute and sell this software
  43:/Applications/ArmGNUToolchain/14.2.rel1/arm-none-eabi/arm-none-eabi/include/c++/14.2.1/bits/stl_algobase.h ****  * and its documentation for any purpose is hereby granted without fee,
  44:/Applications/ArmGNUToolchain/14.2.rel1/arm-none-eabi/arm-none-eabi/include/c++/14.2.1/bits/stl_algobase.h ****  * provided that the above copyright notice appear in all copies and
  45:/Applications/ArmGNUToolchain/14.2.rel1/arm-none-eabi/arm-none-eabi/include/c++/14.2.1/bits/stl_algobase.h ****  * that both that copyright notice and this permission notice appear
  46:/Applications/ArmGNUToolchain/14.2.rel1/arm-none-eabi/arm-none-eabi/include/c++/14.2.1/bits/stl_algobase.h ****  * in supporting documentation.  Silicon Graphics makes no
  47:/Applications/ArmGNUToolchain/14.2.rel1/arm-none-eabi/arm-none-eabi/include/c++/14.2.1/bits/stl_algobase.h ****  * representations about the suitability of this software for any
  48:/Applications/ArmGNUToolchain/14.2.rel1/arm-none-eabi/arm-none-eabi/include/c++/14.2.1/bits/stl_algobase.h ****  * purpose.  It is provided "as is" without express or implied warranty.
  49:/Applications/ArmGNUToolchain/14.2.rel1/arm-none-eabi/arm-none-eabi/include/c++/14.2.1/bits/stl_algobase.h ****  */
  50:/Applications/ArmGNUToolchain/14.2.rel1/arm-none-eabi/arm-none-eabi/include/c++/14.2.1/bits/stl_algobase.h **** 
  51:/Applications/ArmGNUToolchain/14.2.rel1/arm-none-eabi/arm-none-eabi/include/c++/14.2.1/bits/stl_algobase.h **** /** @file bits/stl_algobase.h
  52:/Applications/ArmGNUToolchain/14.2.rel1/arm-none-eabi/arm-none-eabi/include/c++/14.2.1/bits/stl_algobase.h ****  *  This is an internal header file, included by other library headers.
  53:/Applications/ArmGNUToolchain/14.2.rel1/arm-none-eabi/arm-none-eabi/include/c++/14.2.1/bits/stl_algobase.h ****  *  Do not attempt to use it directly. @headername{algorithm}
  54:/Applications/ArmGNUToolchain/14.2.rel1/arm-none-eabi/arm-none-eabi/include/c++/14.2.1/bits/stl_algobase.h ****  */
  55:/Applications/ArmGNUToolchain/14.2.rel1/arm-none-eabi/arm-none-eabi/include/c++/14.2.1/bits/stl_algobase.h **** 
  56:/Applications/ArmGNUToolchain/14.2.rel1/arm-none-eabi/arm-none-eabi/include/c++/14.2.1/bits/stl_algobase.h **** #ifndef _STL_ALGOBASE_H
  57:/Applications/ArmGNUToolchain/14.2.rel1/arm-none-eabi/arm-none-eabi/include/c++/14.2.1/bits/stl_algobase.h **** #define _STL_ALGOBASE_H 1
  58:/Applications/ArmGNUToolchain/14.2.rel1/arm-none-eabi/arm-none-eabi/include/c++/14.2.1/bits/stl_algobase.h **** 
  59:/Applications/ArmGNUToolchain/14.2.rel1/arm-none-eabi/arm-none-eabi/include/c++/14.2.1/bits/stl_algobase.h **** #include <bits/c++config.h>
  60:/Applications/ArmGNUToolchain/14.2.rel1/arm-none-eabi/arm-none-eabi/include/c++/14.2.1/bits/stl_algobase.h **** #include <bits/functexcept.h>
  61:/Applications/ArmGNUToolchain/14.2.rel1/arm-none-eabi/arm-none-eabi/include/c++/14.2.1/bits/stl_algobase.h **** #include <bits/cpp_type_traits.h>
  62:/Applications/ArmGNUToolchain/14.2.rel1/arm-none-eabi/arm-none-eabi/include/c++/14.2.1/bits/stl_algobase.h **** #include <ext/type_traits.h>
  63:/Applications/ArmGNUToolchain/14.2.rel1/arm-none-eabi/arm-none-eabi/include/c++/14.2.1/bits/stl_algobase.h **** #include <ext/numeric_traits.h>
  64:/Applications/ArmGNUToolchain/14.2.rel1/arm-none-eabi/arm-none-eabi/include/c++/14.2.1/bits/stl_algobase.h **** #include <bits/stl_pair.h>
  65:/Applications/ArmGNUToolchain/14.2.rel1/arm-none-eabi/arm-none-eabi/include/c++/14.2.1/bits/stl_algobase.h **** #include <bits/stl_iterator_base_types.h>
  66:/Applications/ArmGNUToolchain/14.2.rel1/arm-none-eabi/arm-none-eabi/include/c++/14.2.1/bits/stl_algobase.h **** #include <bits/stl_iterator_base_funcs.h>
  67:/Applications/ArmGNUToolchain/14.2.rel1/arm-none-eabi/arm-none-eabi/include/c++/14.2.1/bits/stl_algobase.h **** #include <bits/stl_iterator.h>
  68:/Applications/ArmGNUToolchain/14.2.rel1/arm-none-eabi/arm-none-eabi/include/c++/14.2.1/bits/stl_algobase.h **** #include <bits/concept_check.h>
  69:/Applications/ArmGNUToolchain/14.2.rel1/arm-none-eabi/arm-none-eabi/include/c++/14.2.1/bits/stl_algobase.h **** #include <debug/debug.h>
  70:/Applications/ArmGNUToolchain/14.2.rel1/arm-none-eabi/arm-none-eabi/include/c++/14.2.1/bits/stl_algobase.h **** #include <bits/move.h> // For std::swap
  71:/Applications/ArmGNUToolchain/14.2.rel1/arm-none-eabi/arm-none-eabi/include/c++/14.2.1/bits/stl_algobase.h **** #include <bits/predefined_ops.h>
  72:/Applications/ArmGNUToolchain/14.2.rel1/arm-none-eabi/arm-none-eabi/include/c++/14.2.1/bits/stl_algobase.h **** #if __cplusplus >= 201103L
  73:/Applications/ArmGNUToolchain/14.2.rel1/arm-none-eabi/arm-none-eabi/include/c++/14.2.1/bits/stl_algobase.h **** # include <type_traits>
  74:/Applications/ArmGNUToolchain/14.2.rel1/arm-none-eabi/arm-none-eabi/include/c++/14.2.1/bits/stl_algobase.h **** #endif
  75:/Applications/ArmGNUToolchain/14.2.rel1/arm-none-eabi/arm-none-eabi/include/c++/14.2.1/bits/stl_algobase.h **** #if __cplusplus >= 201402L
  76:/Applications/ArmGNUToolchain/14.2.rel1/arm-none-eabi/arm-none-eabi/include/c++/14.2.1/bits/stl_algobase.h **** # include <bit> // std::__bit_width
  77:/Applications/ArmGNUToolchain/14.2.rel1/arm-none-eabi/arm-none-eabi/include/c++/14.2.1/bits/stl_algobase.h **** #endif
  78:/Applications/ArmGNUToolchain/14.2.rel1/arm-none-eabi/arm-none-eabi/include/c++/14.2.1/bits/stl_algobase.h **** #if __cplusplus >= 202002L
  79:/Applications/ArmGNUToolchain/14.2.rel1/arm-none-eabi/arm-none-eabi/include/c++/14.2.1/bits/stl_algobase.h **** # include <compare>
  80:/Applications/ArmGNUToolchain/14.2.rel1/arm-none-eabi/arm-none-eabi/include/c++/14.2.1/bits/stl_algobase.h **** #endif
  81:/Applications/ArmGNUToolchain/14.2.rel1/arm-none-eabi/arm-none-eabi/include/c++/14.2.1/bits/stl_algobase.h **** 
  82:/Applications/ArmGNUToolchain/14.2.rel1/arm-none-eabi/arm-none-eabi/include/c++/14.2.1/bits/stl_algobase.h **** namespace std _GLIBCXX_VISIBILITY(default)
  83:/Applications/ArmGNUToolchain/14.2.rel1/arm-none-eabi/arm-none-eabi/include/c++/14.2.1/bits/stl_algobase.h **** {
  84:/Applications/ArmGNUToolchain/14.2.rel1/arm-none-eabi/arm-none-eabi/include/c++/14.2.1/bits/stl_algobase.h **** _GLIBCXX_BEGIN_NAMESPACE_VERSION
  85:/Applications/ArmGNUToolchain/14.2.rel1/arm-none-eabi/arm-none-eabi/include/c++/14.2.1/bits/stl_algobase.h **** 
  86:/Applications/ArmGNUToolchain/14.2.rel1/arm-none-eabi/arm-none-eabi/include/c++/14.2.1/bits/stl_algobase.h ****   /*
  87:/Applications/ArmGNUToolchain/14.2.rel1/arm-none-eabi/arm-none-eabi/include/c++/14.2.1/bits/stl_algobase.h ****    * A constexpr wrapper for __builtin_memcmp.
  88:/Applications/ArmGNUToolchain/14.2.rel1/arm-none-eabi/arm-none-eabi/include/c++/14.2.1/bits/stl_algobase.h ****    * @param __num The number of elements of type _Tp (not bytes).
  89:/Applications/ArmGNUToolchain/14.2.rel1/arm-none-eabi/arm-none-eabi/include/c++/14.2.1/bits/stl_algobase.h ****    */
  90:/Applications/ArmGNUToolchain/14.2.rel1/arm-none-eabi/arm-none-eabi/include/c++/14.2.1/bits/stl_algobase.h ****   template<typename _Tp, typename _Up>
  91:/Applications/ArmGNUToolchain/14.2.rel1/arm-none-eabi/arm-none-eabi/include/c++/14.2.1/bits/stl_algobase.h ****     _GLIBCXX14_CONSTEXPR
  92:/Applications/ArmGNUToolchain/14.2.rel1/arm-none-eabi/arm-none-eabi/include/c++/14.2.1/bits/stl_algobase.h ****     inline int
  93:/Applications/ArmGNUToolchain/14.2.rel1/arm-none-eabi/arm-none-eabi/include/c++/14.2.1/bits/stl_algobase.h ****     __memcmp(const _Tp* __first1, const _Up* __first2, size_t __num)
  94:/Applications/ArmGNUToolchain/14.2.rel1/arm-none-eabi/arm-none-eabi/include/c++/14.2.1/bits/stl_algobase.h ****     {
  95:/Applications/ArmGNUToolchain/14.2.rel1/arm-none-eabi/arm-none-eabi/include/c++/14.2.1/bits/stl_algobase.h **** #if __cplusplus >= 201103L
  96:/Applications/ArmGNUToolchain/14.2.rel1/arm-none-eabi/arm-none-eabi/include/c++/14.2.1/bits/stl_algobase.h ****       static_assert(sizeof(_Tp) == sizeof(_Up), "can be compared with memcmp");
  97:/Applications/ArmGNUToolchain/14.2.rel1/arm-none-eabi/arm-none-eabi/include/c++/14.2.1/bits/stl_algobase.h **** #endif
ARM GAS  /var/folders/y7/g6pkzsp12sx54x3s3mvyn15r0000gn/T//ccVTo1ct.s 			page 13


  98:/Applications/ArmGNUToolchain/14.2.rel1/arm-none-eabi/arm-none-eabi/include/c++/14.2.1/bits/stl_algobase.h **** #ifdef __cpp_lib_is_constant_evaluated
  99:/Applications/ArmGNUToolchain/14.2.rel1/arm-none-eabi/arm-none-eabi/include/c++/14.2.1/bits/stl_algobase.h ****       if (std::is_constant_evaluated())
 100:/Applications/ArmGNUToolchain/14.2.rel1/arm-none-eabi/arm-none-eabi/include/c++/14.2.1/bits/stl_algobase.h **** 	{
 101:/Applications/ArmGNUToolchain/14.2.rel1/arm-none-eabi/arm-none-eabi/include/c++/14.2.1/bits/stl_algobase.h **** 	  for(; __num > 0; ++__first1, ++__first2, --__num)
 102:/Applications/ArmGNUToolchain/14.2.rel1/arm-none-eabi/arm-none-eabi/include/c++/14.2.1/bits/stl_algobase.h **** 	    if (*__first1 != *__first2)
 103:/Applications/ArmGNUToolchain/14.2.rel1/arm-none-eabi/arm-none-eabi/include/c++/14.2.1/bits/stl_algobase.h **** 	      return *__first1 < *__first2 ? -1 : 1;
 104:/Applications/ArmGNUToolchain/14.2.rel1/arm-none-eabi/arm-none-eabi/include/c++/14.2.1/bits/stl_algobase.h **** 	  return 0;
 105:/Applications/ArmGNUToolchain/14.2.rel1/arm-none-eabi/arm-none-eabi/include/c++/14.2.1/bits/stl_algobase.h **** 	}
 106:/Applications/ArmGNUToolchain/14.2.rel1/arm-none-eabi/arm-none-eabi/include/c++/14.2.1/bits/stl_algobase.h ****       else
 107:/Applications/ArmGNUToolchain/14.2.rel1/arm-none-eabi/arm-none-eabi/include/c++/14.2.1/bits/stl_algobase.h **** #endif
 108:/Applications/ArmGNUToolchain/14.2.rel1/arm-none-eabi/arm-none-eabi/include/c++/14.2.1/bits/stl_algobase.h **** 	return __builtin_memcmp(__first1, __first2, sizeof(_Tp) * __num);
 109:/Applications/ArmGNUToolchain/14.2.rel1/arm-none-eabi/arm-none-eabi/include/c++/14.2.1/bits/stl_algobase.h ****     }
 110:/Applications/ArmGNUToolchain/14.2.rel1/arm-none-eabi/arm-none-eabi/include/c++/14.2.1/bits/stl_algobase.h **** 
 111:/Applications/ArmGNUToolchain/14.2.rel1/arm-none-eabi/arm-none-eabi/include/c++/14.2.1/bits/stl_algobase.h **** #if __cplusplus < 201103L
 112:/Applications/ArmGNUToolchain/14.2.rel1/arm-none-eabi/arm-none-eabi/include/c++/14.2.1/bits/stl_algobase.h ****   // See http://gcc.gnu.org/ml/libstdc++/2004-08/msg00167.html: in a
 113:/Applications/ArmGNUToolchain/14.2.rel1/arm-none-eabi/arm-none-eabi/include/c++/14.2.1/bits/stl_algobase.h ****   // nutshell, we are partially implementing the resolution of DR 187,
 114:/Applications/ArmGNUToolchain/14.2.rel1/arm-none-eabi/arm-none-eabi/include/c++/14.2.1/bits/stl_algobase.h ****   // when it's safe, i.e., the value_types are equal.
 115:/Applications/ArmGNUToolchain/14.2.rel1/arm-none-eabi/arm-none-eabi/include/c++/14.2.1/bits/stl_algobase.h ****   template<bool _BoolType>
 116:/Applications/ArmGNUToolchain/14.2.rel1/arm-none-eabi/arm-none-eabi/include/c++/14.2.1/bits/stl_algobase.h ****     struct __iter_swap
 117:/Applications/ArmGNUToolchain/14.2.rel1/arm-none-eabi/arm-none-eabi/include/c++/14.2.1/bits/stl_algobase.h ****     {
 118:/Applications/ArmGNUToolchain/14.2.rel1/arm-none-eabi/arm-none-eabi/include/c++/14.2.1/bits/stl_algobase.h ****       template<typename _ForwardIterator1, typename _ForwardIterator2>
 119:/Applications/ArmGNUToolchain/14.2.rel1/arm-none-eabi/arm-none-eabi/include/c++/14.2.1/bits/stl_algobase.h **** 	static void
 120:/Applications/ArmGNUToolchain/14.2.rel1/arm-none-eabi/arm-none-eabi/include/c++/14.2.1/bits/stl_algobase.h **** 	iter_swap(_ForwardIterator1 __a, _ForwardIterator2 __b)
 121:/Applications/ArmGNUToolchain/14.2.rel1/arm-none-eabi/arm-none-eabi/include/c++/14.2.1/bits/stl_algobase.h **** 	{
 122:/Applications/ArmGNUToolchain/14.2.rel1/arm-none-eabi/arm-none-eabi/include/c++/14.2.1/bits/stl_algobase.h **** 	  typedef typename iterator_traits<_ForwardIterator1>::value_type
 123:/Applications/ArmGNUToolchain/14.2.rel1/arm-none-eabi/arm-none-eabi/include/c++/14.2.1/bits/stl_algobase.h **** 	    _ValueType1;
 124:/Applications/ArmGNUToolchain/14.2.rel1/arm-none-eabi/arm-none-eabi/include/c++/14.2.1/bits/stl_algobase.h **** 	  _ValueType1 __tmp = *__a;
 125:/Applications/ArmGNUToolchain/14.2.rel1/arm-none-eabi/arm-none-eabi/include/c++/14.2.1/bits/stl_algobase.h **** 	  *__a = *__b;
 126:/Applications/ArmGNUToolchain/14.2.rel1/arm-none-eabi/arm-none-eabi/include/c++/14.2.1/bits/stl_algobase.h **** 	  *__b = __tmp;
 127:/Applications/ArmGNUToolchain/14.2.rel1/arm-none-eabi/arm-none-eabi/include/c++/14.2.1/bits/stl_algobase.h **** 	}
 128:/Applications/ArmGNUToolchain/14.2.rel1/arm-none-eabi/arm-none-eabi/include/c++/14.2.1/bits/stl_algobase.h ****     };
 129:/Applications/ArmGNUToolchain/14.2.rel1/arm-none-eabi/arm-none-eabi/include/c++/14.2.1/bits/stl_algobase.h **** 
 130:/Applications/ArmGNUToolchain/14.2.rel1/arm-none-eabi/arm-none-eabi/include/c++/14.2.1/bits/stl_algobase.h ****   template<>
 131:/Applications/ArmGNUToolchain/14.2.rel1/arm-none-eabi/arm-none-eabi/include/c++/14.2.1/bits/stl_algobase.h ****     struct __iter_swap<true>
 132:/Applications/ArmGNUToolchain/14.2.rel1/arm-none-eabi/arm-none-eabi/include/c++/14.2.1/bits/stl_algobase.h ****     {
 133:/Applications/ArmGNUToolchain/14.2.rel1/arm-none-eabi/arm-none-eabi/include/c++/14.2.1/bits/stl_algobase.h ****       template<typename _ForwardIterator1, typename _ForwardIterator2>
 134:/Applications/ArmGNUToolchain/14.2.rel1/arm-none-eabi/arm-none-eabi/include/c++/14.2.1/bits/stl_algobase.h **** 	static void
 135:/Applications/ArmGNUToolchain/14.2.rel1/arm-none-eabi/arm-none-eabi/include/c++/14.2.1/bits/stl_algobase.h **** 	iter_swap(_ForwardIterator1 __a, _ForwardIterator2 __b)
 136:/Applications/ArmGNUToolchain/14.2.rel1/arm-none-eabi/arm-none-eabi/include/c++/14.2.1/bits/stl_algobase.h **** 	{
 137:/Applications/ArmGNUToolchain/14.2.rel1/arm-none-eabi/arm-none-eabi/include/c++/14.2.1/bits/stl_algobase.h **** 	  swap(*__a, *__b);
 138:/Applications/ArmGNUToolchain/14.2.rel1/arm-none-eabi/arm-none-eabi/include/c++/14.2.1/bits/stl_algobase.h **** 	}
 139:/Applications/ArmGNUToolchain/14.2.rel1/arm-none-eabi/arm-none-eabi/include/c++/14.2.1/bits/stl_algobase.h ****     };
 140:/Applications/ArmGNUToolchain/14.2.rel1/arm-none-eabi/arm-none-eabi/include/c++/14.2.1/bits/stl_algobase.h **** #endif // C++03
 141:/Applications/ArmGNUToolchain/14.2.rel1/arm-none-eabi/arm-none-eabi/include/c++/14.2.1/bits/stl_algobase.h **** 
 142:/Applications/ArmGNUToolchain/14.2.rel1/arm-none-eabi/arm-none-eabi/include/c++/14.2.1/bits/stl_algobase.h ****   /**
 143:/Applications/ArmGNUToolchain/14.2.rel1/arm-none-eabi/arm-none-eabi/include/c++/14.2.1/bits/stl_algobase.h ****    *  @brief Swaps the contents of two iterators.
 144:/Applications/ArmGNUToolchain/14.2.rel1/arm-none-eabi/arm-none-eabi/include/c++/14.2.1/bits/stl_algobase.h ****    *  @ingroup mutating_algorithms
 145:/Applications/ArmGNUToolchain/14.2.rel1/arm-none-eabi/arm-none-eabi/include/c++/14.2.1/bits/stl_algobase.h ****    *  @param  __a  An iterator.
 146:/Applications/ArmGNUToolchain/14.2.rel1/arm-none-eabi/arm-none-eabi/include/c++/14.2.1/bits/stl_algobase.h ****    *  @param  __b  Another iterator.
 147:/Applications/ArmGNUToolchain/14.2.rel1/arm-none-eabi/arm-none-eabi/include/c++/14.2.1/bits/stl_algobase.h ****    *  @return   Nothing.
 148:/Applications/ArmGNUToolchain/14.2.rel1/arm-none-eabi/arm-none-eabi/include/c++/14.2.1/bits/stl_algobase.h ****    *
 149:/Applications/ArmGNUToolchain/14.2.rel1/arm-none-eabi/arm-none-eabi/include/c++/14.2.1/bits/stl_algobase.h ****    *  This function swaps the values pointed to by two iterators, not the
 150:/Applications/ArmGNUToolchain/14.2.rel1/arm-none-eabi/arm-none-eabi/include/c++/14.2.1/bits/stl_algobase.h ****    *  iterators themselves.
 151:/Applications/ArmGNUToolchain/14.2.rel1/arm-none-eabi/arm-none-eabi/include/c++/14.2.1/bits/stl_algobase.h ****   */
 152:/Applications/ArmGNUToolchain/14.2.rel1/arm-none-eabi/arm-none-eabi/include/c++/14.2.1/bits/stl_algobase.h ****   template<typename _ForwardIterator1, typename _ForwardIterator2>
 153:/Applications/ArmGNUToolchain/14.2.rel1/arm-none-eabi/arm-none-eabi/include/c++/14.2.1/bits/stl_algobase.h ****     _GLIBCXX20_CONSTEXPR
 154:/Applications/ArmGNUToolchain/14.2.rel1/arm-none-eabi/arm-none-eabi/include/c++/14.2.1/bits/stl_algobase.h ****     inline void
ARM GAS  /var/folders/y7/g6pkzsp12sx54x3s3mvyn15r0000gn/T//ccVTo1ct.s 			page 14


 155:/Applications/ArmGNUToolchain/14.2.rel1/arm-none-eabi/arm-none-eabi/include/c++/14.2.1/bits/stl_algobase.h ****     iter_swap(_ForwardIterator1 __a, _ForwardIterator2 __b)
 156:/Applications/ArmGNUToolchain/14.2.rel1/arm-none-eabi/arm-none-eabi/include/c++/14.2.1/bits/stl_algobase.h ****     {
 157:/Applications/ArmGNUToolchain/14.2.rel1/arm-none-eabi/arm-none-eabi/include/c++/14.2.1/bits/stl_algobase.h ****       // concept requirements
 158:/Applications/ArmGNUToolchain/14.2.rel1/arm-none-eabi/arm-none-eabi/include/c++/14.2.1/bits/stl_algobase.h ****       __glibcxx_function_requires(_Mutable_ForwardIteratorConcept<
 159:/Applications/ArmGNUToolchain/14.2.rel1/arm-none-eabi/arm-none-eabi/include/c++/14.2.1/bits/stl_algobase.h **** 				  _ForwardIterator1>)
 160:/Applications/ArmGNUToolchain/14.2.rel1/arm-none-eabi/arm-none-eabi/include/c++/14.2.1/bits/stl_algobase.h ****       __glibcxx_function_requires(_Mutable_ForwardIteratorConcept<
 161:/Applications/ArmGNUToolchain/14.2.rel1/arm-none-eabi/arm-none-eabi/include/c++/14.2.1/bits/stl_algobase.h **** 				  _ForwardIterator2>)
 162:/Applications/ArmGNUToolchain/14.2.rel1/arm-none-eabi/arm-none-eabi/include/c++/14.2.1/bits/stl_algobase.h **** 
 163:/Applications/ArmGNUToolchain/14.2.rel1/arm-none-eabi/arm-none-eabi/include/c++/14.2.1/bits/stl_algobase.h **** #if __cplusplus < 201103L
 164:/Applications/ArmGNUToolchain/14.2.rel1/arm-none-eabi/arm-none-eabi/include/c++/14.2.1/bits/stl_algobase.h ****       typedef typename iterator_traits<_ForwardIterator1>::value_type
 165:/Applications/ArmGNUToolchain/14.2.rel1/arm-none-eabi/arm-none-eabi/include/c++/14.2.1/bits/stl_algobase.h **** 	_ValueType1;
 166:/Applications/ArmGNUToolchain/14.2.rel1/arm-none-eabi/arm-none-eabi/include/c++/14.2.1/bits/stl_algobase.h ****       typedef typename iterator_traits<_ForwardIterator2>::value_type
 167:/Applications/ArmGNUToolchain/14.2.rel1/arm-none-eabi/arm-none-eabi/include/c++/14.2.1/bits/stl_algobase.h **** 	_ValueType2;
 168:/Applications/ArmGNUToolchain/14.2.rel1/arm-none-eabi/arm-none-eabi/include/c++/14.2.1/bits/stl_algobase.h **** 
 169:/Applications/ArmGNUToolchain/14.2.rel1/arm-none-eabi/arm-none-eabi/include/c++/14.2.1/bits/stl_algobase.h ****       __glibcxx_function_requires(_ConvertibleConcept<_ValueType1,
 170:/Applications/ArmGNUToolchain/14.2.rel1/arm-none-eabi/arm-none-eabi/include/c++/14.2.1/bits/stl_algobase.h **** 				  _ValueType2>)
 171:/Applications/ArmGNUToolchain/14.2.rel1/arm-none-eabi/arm-none-eabi/include/c++/14.2.1/bits/stl_algobase.h ****       __glibcxx_function_requires(_ConvertibleConcept<_ValueType2,
 172:/Applications/ArmGNUToolchain/14.2.rel1/arm-none-eabi/arm-none-eabi/include/c++/14.2.1/bits/stl_algobase.h **** 				  _ValueType1>)
 173:/Applications/ArmGNUToolchain/14.2.rel1/arm-none-eabi/arm-none-eabi/include/c++/14.2.1/bits/stl_algobase.h **** 
 174:/Applications/ArmGNUToolchain/14.2.rel1/arm-none-eabi/arm-none-eabi/include/c++/14.2.1/bits/stl_algobase.h ****       typedef typename iterator_traits<_ForwardIterator1>::reference
 175:/Applications/ArmGNUToolchain/14.2.rel1/arm-none-eabi/arm-none-eabi/include/c++/14.2.1/bits/stl_algobase.h **** 	_ReferenceType1;
 176:/Applications/ArmGNUToolchain/14.2.rel1/arm-none-eabi/arm-none-eabi/include/c++/14.2.1/bits/stl_algobase.h ****       typedef typename iterator_traits<_ForwardIterator2>::reference
 177:/Applications/ArmGNUToolchain/14.2.rel1/arm-none-eabi/arm-none-eabi/include/c++/14.2.1/bits/stl_algobase.h **** 	_ReferenceType2;
 178:/Applications/ArmGNUToolchain/14.2.rel1/arm-none-eabi/arm-none-eabi/include/c++/14.2.1/bits/stl_algobase.h ****       std::__iter_swap<__are_same<_ValueType1, _ValueType2>::__value
 179:/Applications/ArmGNUToolchain/14.2.rel1/arm-none-eabi/arm-none-eabi/include/c++/14.2.1/bits/stl_algobase.h **** 	&& __are_same<_ValueType1&, _ReferenceType1>::__value
 180:/Applications/ArmGNUToolchain/14.2.rel1/arm-none-eabi/arm-none-eabi/include/c++/14.2.1/bits/stl_algobase.h **** 	&& __are_same<_ValueType2&, _ReferenceType2>::__value>::
 181:/Applications/ArmGNUToolchain/14.2.rel1/arm-none-eabi/arm-none-eabi/include/c++/14.2.1/bits/stl_algobase.h **** 	iter_swap(__a, __b);
 182:/Applications/ArmGNUToolchain/14.2.rel1/arm-none-eabi/arm-none-eabi/include/c++/14.2.1/bits/stl_algobase.h **** #else
 183:/Applications/ArmGNUToolchain/14.2.rel1/arm-none-eabi/arm-none-eabi/include/c++/14.2.1/bits/stl_algobase.h ****       // _GLIBCXX_RESOLVE_LIB_DEFECTS
 184:/Applications/ArmGNUToolchain/14.2.rel1/arm-none-eabi/arm-none-eabi/include/c++/14.2.1/bits/stl_algobase.h ****       // 187. iter_swap underspecified
 185:/Applications/ArmGNUToolchain/14.2.rel1/arm-none-eabi/arm-none-eabi/include/c++/14.2.1/bits/stl_algobase.h ****       swap(*__a, *__b);
 186:/Applications/ArmGNUToolchain/14.2.rel1/arm-none-eabi/arm-none-eabi/include/c++/14.2.1/bits/stl_algobase.h **** #endif
 187:/Applications/ArmGNUToolchain/14.2.rel1/arm-none-eabi/arm-none-eabi/include/c++/14.2.1/bits/stl_algobase.h ****     }
 188:/Applications/ArmGNUToolchain/14.2.rel1/arm-none-eabi/arm-none-eabi/include/c++/14.2.1/bits/stl_algobase.h **** 
 189:/Applications/ArmGNUToolchain/14.2.rel1/arm-none-eabi/arm-none-eabi/include/c++/14.2.1/bits/stl_algobase.h ****   /**
 190:/Applications/ArmGNUToolchain/14.2.rel1/arm-none-eabi/arm-none-eabi/include/c++/14.2.1/bits/stl_algobase.h ****    *  @brief Swap the elements of two sequences.
 191:/Applications/ArmGNUToolchain/14.2.rel1/arm-none-eabi/arm-none-eabi/include/c++/14.2.1/bits/stl_algobase.h ****    *  @ingroup mutating_algorithms
 192:/Applications/ArmGNUToolchain/14.2.rel1/arm-none-eabi/arm-none-eabi/include/c++/14.2.1/bits/stl_algobase.h ****    *  @param  __first1  A forward iterator.
 193:/Applications/ArmGNUToolchain/14.2.rel1/arm-none-eabi/arm-none-eabi/include/c++/14.2.1/bits/stl_algobase.h ****    *  @param  __last1   A forward iterator.
 194:/Applications/ArmGNUToolchain/14.2.rel1/arm-none-eabi/arm-none-eabi/include/c++/14.2.1/bits/stl_algobase.h ****    *  @param  __first2  A forward iterator.
 195:/Applications/ArmGNUToolchain/14.2.rel1/arm-none-eabi/arm-none-eabi/include/c++/14.2.1/bits/stl_algobase.h ****    *  @return   An iterator equal to @p first2+(last1-first1).
 196:/Applications/ArmGNUToolchain/14.2.rel1/arm-none-eabi/arm-none-eabi/include/c++/14.2.1/bits/stl_algobase.h ****    *
 197:/Applications/ArmGNUToolchain/14.2.rel1/arm-none-eabi/arm-none-eabi/include/c++/14.2.1/bits/stl_algobase.h ****    *  Swaps each element in the range @p [first1,last1) with the
 198:/Applications/ArmGNUToolchain/14.2.rel1/arm-none-eabi/arm-none-eabi/include/c++/14.2.1/bits/stl_algobase.h ****    *  corresponding element in the range @p [first2,(last1-first1)).
 199:/Applications/ArmGNUToolchain/14.2.rel1/arm-none-eabi/arm-none-eabi/include/c++/14.2.1/bits/stl_algobase.h ****    *  The ranges must not overlap.
 200:/Applications/ArmGNUToolchain/14.2.rel1/arm-none-eabi/arm-none-eabi/include/c++/14.2.1/bits/stl_algobase.h ****   */
 201:/Applications/ArmGNUToolchain/14.2.rel1/arm-none-eabi/arm-none-eabi/include/c++/14.2.1/bits/stl_algobase.h ****   template<typename _ForwardIterator1, typename _ForwardIterator2>
 202:/Applications/ArmGNUToolchain/14.2.rel1/arm-none-eabi/arm-none-eabi/include/c++/14.2.1/bits/stl_algobase.h ****     _GLIBCXX20_CONSTEXPR
 203:/Applications/ArmGNUToolchain/14.2.rel1/arm-none-eabi/arm-none-eabi/include/c++/14.2.1/bits/stl_algobase.h ****     _ForwardIterator2
 204:/Applications/ArmGNUToolchain/14.2.rel1/arm-none-eabi/arm-none-eabi/include/c++/14.2.1/bits/stl_algobase.h ****     swap_ranges(_ForwardIterator1 __first1, _ForwardIterator1 __last1,
 205:/Applications/ArmGNUToolchain/14.2.rel1/arm-none-eabi/arm-none-eabi/include/c++/14.2.1/bits/stl_algobase.h **** 		_ForwardIterator2 __first2)
 206:/Applications/ArmGNUToolchain/14.2.rel1/arm-none-eabi/arm-none-eabi/include/c++/14.2.1/bits/stl_algobase.h ****     {
 207:/Applications/ArmGNUToolchain/14.2.rel1/arm-none-eabi/arm-none-eabi/include/c++/14.2.1/bits/stl_algobase.h ****       // concept requirements
 208:/Applications/ArmGNUToolchain/14.2.rel1/arm-none-eabi/arm-none-eabi/include/c++/14.2.1/bits/stl_algobase.h ****       __glibcxx_function_requires(_Mutable_ForwardIteratorConcept<
 209:/Applications/ArmGNUToolchain/14.2.rel1/arm-none-eabi/arm-none-eabi/include/c++/14.2.1/bits/stl_algobase.h **** 				  _ForwardIterator1>)
 210:/Applications/ArmGNUToolchain/14.2.rel1/arm-none-eabi/arm-none-eabi/include/c++/14.2.1/bits/stl_algobase.h ****       __glibcxx_function_requires(_Mutable_ForwardIteratorConcept<
 211:/Applications/ArmGNUToolchain/14.2.rel1/arm-none-eabi/arm-none-eabi/include/c++/14.2.1/bits/stl_algobase.h **** 				  _ForwardIterator2>)
ARM GAS  /var/folders/y7/g6pkzsp12sx54x3s3mvyn15r0000gn/T//ccVTo1ct.s 			page 15


 212:/Applications/ArmGNUToolchain/14.2.rel1/arm-none-eabi/arm-none-eabi/include/c++/14.2.1/bits/stl_algobase.h ****       __glibcxx_requires_valid_range(__first1, __last1);
 213:/Applications/ArmGNUToolchain/14.2.rel1/arm-none-eabi/arm-none-eabi/include/c++/14.2.1/bits/stl_algobase.h **** 
 214:/Applications/ArmGNUToolchain/14.2.rel1/arm-none-eabi/arm-none-eabi/include/c++/14.2.1/bits/stl_algobase.h ****       for (; __first1 != __last1; ++__first1, (void)++__first2)
 215:/Applications/ArmGNUToolchain/14.2.rel1/arm-none-eabi/arm-none-eabi/include/c++/14.2.1/bits/stl_algobase.h **** 	std::iter_swap(__first1, __first2);
 216:/Applications/ArmGNUToolchain/14.2.rel1/arm-none-eabi/arm-none-eabi/include/c++/14.2.1/bits/stl_algobase.h ****       return __first2;
 217:/Applications/ArmGNUToolchain/14.2.rel1/arm-none-eabi/arm-none-eabi/include/c++/14.2.1/bits/stl_algobase.h ****     }
 218:/Applications/ArmGNUToolchain/14.2.rel1/arm-none-eabi/arm-none-eabi/include/c++/14.2.1/bits/stl_algobase.h **** 
 219:/Applications/ArmGNUToolchain/14.2.rel1/arm-none-eabi/arm-none-eabi/include/c++/14.2.1/bits/stl_algobase.h ****   /**
 220:/Applications/ArmGNUToolchain/14.2.rel1/arm-none-eabi/arm-none-eabi/include/c++/14.2.1/bits/stl_algobase.h ****    *  @brief This does what you think it does.
 221:/Applications/ArmGNUToolchain/14.2.rel1/arm-none-eabi/arm-none-eabi/include/c++/14.2.1/bits/stl_algobase.h ****    *  @ingroup sorting_algorithms
 222:/Applications/ArmGNUToolchain/14.2.rel1/arm-none-eabi/arm-none-eabi/include/c++/14.2.1/bits/stl_algobase.h ****    *  @param  __a  A thing of arbitrary type.
 223:/Applications/ArmGNUToolchain/14.2.rel1/arm-none-eabi/arm-none-eabi/include/c++/14.2.1/bits/stl_algobase.h ****    *  @param  __b  Another thing of arbitrary type.
 224:/Applications/ArmGNUToolchain/14.2.rel1/arm-none-eabi/arm-none-eabi/include/c++/14.2.1/bits/stl_algobase.h ****    *  @return   The lesser of the parameters.
 225:/Applications/ArmGNUToolchain/14.2.rel1/arm-none-eabi/arm-none-eabi/include/c++/14.2.1/bits/stl_algobase.h ****    *
 226:/Applications/ArmGNUToolchain/14.2.rel1/arm-none-eabi/arm-none-eabi/include/c++/14.2.1/bits/stl_algobase.h ****    *  This is the simple classic generic implementation.  It will work on
 227:/Applications/ArmGNUToolchain/14.2.rel1/arm-none-eabi/arm-none-eabi/include/c++/14.2.1/bits/stl_algobase.h ****    *  temporary expressions, since they are only evaluated once, unlike a
 228:/Applications/ArmGNUToolchain/14.2.rel1/arm-none-eabi/arm-none-eabi/include/c++/14.2.1/bits/stl_algobase.h ****    *  preprocessor macro.
 229:/Applications/ArmGNUToolchain/14.2.rel1/arm-none-eabi/arm-none-eabi/include/c++/14.2.1/bits/stl_algobase.h ****   */
 230:/Applications/ArmGNUToolchain/14.2.rel1/arm-none-eabi/arm-none-eabi/include/c++/14.2.1/bits/stl_algobase.h ****   template<typename _Tp>
 231:/Applications/ArmGNUToolchain/14.2.rel1/arm-none-eabi/arm-none-eabi/include/c++/14.2.1/bits/stl_algobase.h ****     _GLIBCXX_NODISCARD _GLIBCXX14_CONSTEXPR
 232:/Applications/ArmGNUToolchain/14.2.rel1/arm-none-eabi/arm-none-eabi/include/c++/14.2.1/bits/stl_algobase.h ****     inline const _Tp&
 233:/Applications/ArmGNUToolchain/14.2.rel1/arm-none-eabi/arm-none-eabi/include/c++/14.2.1/bits/stl_algobase.h ****     min(const _Tp& __a, const _Tp& __b)
 234:/Applications/ArmGNUToolchain/14.2.rel1/arm-none-eabi/arm-none-eabi/include/c++/14.2.1/bits/stl_algobase.h ****     {
 235:/Applications/ArmGNUToolchain/14.2.rel1/arm-none-eabi/arm-none-eabi/include/c++/14.2.1/bits/stl_algobase.h ****       // concept requirements
 236:/Applications/ArmGNUToolchain/14.2.rel1/arm-none-eabi/arm-none-eabi/include/c++/14.2.1/bits/stl_algobase.h ****       __glibcxx_function_requires(_LessThanComparableConcept<_Tp>)
 237:/Applications/ArmGNUToolchain/14.2.rel1/arm-none-eabi/arm-none-eabi/include/c++/14.2.1/bits/stl_algobase.h ****       //return __b < __a ? __b : __a;
 238:/Applications/ArmGNUToolchain/14.2.rel1/arm-none-eabi/arm-none-eabi/include/c++/14.2.1/bits/stl_algobase.h ****       if (__b < __a)
 239:/Applications/ArmGNUToolchain/14.2.rel1/arm-none-eabi/arm-none-eabi/include/c++/14.2.1/bits/stl_algobase.h **** 	return __b;
 240:/Applications/ArmGNUToolchain/14.2.rel1/arm-none-eabi/arm-none-eabi/include/c++/14.2.1/bits/stl_algobase.h ****       return __a;
 241:/Applications/ArmGNUToolchain/14.2.rel1/arm-none-eabi/arm-none-eabi/include/c++/14.2.1/bits/stl_algobase.h ****     }
 242:/Applications/ArmGNUToolchain/14.2.rel1/arm-none-eabi/arm-none-eabi/include/c++/14.2.1/bits/stl_algobase.h **** 
 243:/Applications/ArmGNUToolchain/14.2.rel1/arm-none-eabi/arm-none-eabi/include/c++/14.2.1/bits/stl_algobase.h ****   /**
 244:/Applications/ArmGNUToolchain/14.2.rel1/arm-none-eabi/arm-none-eabi/include/c++/14.2.1/bits/stl_algobase.h ****    *  @brief This does what you think it does.
 245:/Applications/ArmGNUToolchain/14.2.rel1/arm-none-eabi/arm-none-eabi/include/c++/14.2.1/bits/stl_algobase.h ****    *  @ingroup sorting_algorithms
 246:/Applications/ArmGNUToolchain/14.2.rel1/arm-none-eabi/arm-none-eabi/include/c++/14.2.1/bits/stl_algobase.h ****    *  @param  __a  A thing of arbitrary type.
 247:/Applications/ArmGNUToolchain/14.2.rel1/arm-none-eabi/arm-none-eabi/include/c++/14.2.1/bits/stl_algobase.h ****    *  @param  __b  Another thing of arbitrary type.
 248:/Applications/ArmGNUToolchain/14.2.rel1/arm-none-eabi/arm-none-eabi/include/c++/14.2.1/bits/stl_algobase.h ****    *  @return   The greater of the parameters.
 249:/Applications/ArmGNUToolchain/14.2.rel1/arm-none-eabi/arm-none-eabi/include/c++/14.2.1/bits/stl_algobase.h ****    *
 250:/Applications/ArmGNUToolchain/14.2.rel1/arm-none-eabi/arm-none-eabi/include/c++/14.2.1/bits/stl_algobase.h ****    *  This is the simple classic generic implementation.  It will work on
 251:/Applications/ArmGNUToolchain/14.2.rel1/arm-none-eabi/arm-none-eabi/include/c++/14.2.1/bits/stl_algobase.h ****    *  temporary expressions, since they are only evaluated once, unlike a
 252:/Applications/ArmGNUToolchain/14.2.rel1/arm-none-eabi/arm-none-eabi/include/c++/14.2.1/bits/stl_algobase.h ****    *  preprocessor macro.
 253:/Applications/ArmGNUToolchain/14.2.rel1/arm-none-eabi/arm-none-eabi/include/c++/14.2.1/bits/stl_algobase.h ****   */
 254:/Applications/ArmGNUToolchain/14.2.rel1/arm-none-eabi/arm-none-eabi/include/c++/14.2.1/bits/stl_algobase.h ****   template<typename _Tp>
 255:/Applications/ArmGNUToolchain/14.2.rel1/arm-none-eabi/arm-none-eabi/include/c++/14.2.1/bits/stl_algobase.h ****     _GLIBCXX_NODISCARD _GLIBCXX14_CONSTEXPR
 256:/Applications/ArmGNUToolchain/14.2.rel1/arm-none-eabi/arm-none-eabi/include/c++/14.2.1/bits/stl_algobase.h ****     inline const _Tp&
 257:/Applications/ArmGNUToolchain/14.2.rel1/arm-none-eabi/arm-none-eabi/include/c++/14.2.1/bits/stl_algobase.h ****     max(const _Tp& __a, const _Tp& __b)
 258:/Applications/ArmGNUToolchain/14.2.rel1/arm-none-eabi/arm-none-eabi/include/c++/14.2.1/bits/stl_algobase.h ****     {
 259:/Applications/ArmGNUToolchain/14.2.rel1/arm-none-eabi/arm-none-eabi/include/c++/14.2.1/bits/stl_algobase.h ****       // concept requirements
 260:/Applications/ArmGNUToolchain/14.2.rel1/arm-none-eabi/arm-none-eabi/include/c++/14.2.1/bits/stl_algobase.h ****       __glibcxx_function_requires(_LessThanComparableConcept<_Tp>)
 261:/Applications/ArmGNUToolchain/14.2.rel1/arm-none-eabi/arm-none-eabi/include/c++/14.2.1/bits/stl_algobase.h ****       //return  __a < __b ? __b : __a;
 262:/Applications/ArmGNUToolchain/14.2.rel1/arm-none-eabi/arm-none-eabi/include/c++/14.2.1/bits/stl_algobase.h ****       if (__a < __b)
 263:/Applications/ArmGNUToolchain/14.2.rel1/arm-none-eabi/arm-none-eabi/include/c++/14.2.1/bits/stl_algobase.h **** 	return __b;
 264:/Applications/ArmGNUToolchain/14.2.rel1/arm-none-eabi/arm-none-eabi/include/c++/14.2.1/bits/stl_algobase.h ****       return __a;
 265:/Applications/ArmGNUToolchain/14.2.rel1/arm-none-eabi/arm-none-eabi/include/c++/14.2.1/bits/stl_algobase.h ****     }
 266:/Applications/ArmGNUToolchain/14.2.rel1/arm-none-eabi/arm-none-eabi/include/c++/14.2.1/bits/stl_algobase.h **** 
 267:/Applications/ArmGNUToolchain/14.2.rel1/arm-none-eabi/arm-none-eabi/include/c++/14.2.1/bits/stl_algobase.h ****   /**
 268:/Applications/ArmGNUToolchain/14.2.rel1/arm-none-eabi/arm-none-eabi/include/c++/14.2.1/bits/stl_algobase.h ****    *  @brief This does what you think it does.
ARM GAS  /var/folders/y7/g6pkzsp12sx54x3s3mvyn15r0000gn/T//ccVTo1ct.s 			page 16


 269:/Applications/ArmGNUToolchain/14.2.rel1/arm-none-eabi/arm-none-eabi/include/c++/14.2.1/bits/stl_algobase.h ****    *  @ingroup sorting_algorithms
 270:/Applications/ArmGNUToolchain/14.2.rel1/arm-none-eabi/arm-none-eabi/include/c++/14.2.1/bits/stl_algobase.h ****    *  @param  __a  A thing of arbitrary type.
 271:/Applications/ArmGNUToolchain/14.2.rel1/arm-none-eabi/arm-none-eabi/include/c++/14.2.1/bits/stl_algobase.h ****    *  @param  __b  Another thing of arbitrary type.
 272:/Applications/ArmGNUToolchain/14.2.rel1/arm-none-eabi/arm-none-eabi/include/c++/14.2.1/bits/stl_algobase.h ****    *  @param  __comp  A @link comparison_functors comparison functor@endlink.
 273:/Applications/ArmGNUToolchain/14.2.rel1/arm-none-eabi/arm-none-eabi/include/c++/14.2.1/bits/stl_algobase.h ****    *  @return   The lesser of the parameters.
 274:/Applications/ArmGNUToolchain/14.2.rel1/arm-none-eabi/arm-none-eabi/include/c++/14.2.1/bits/stl_algobase.h ****    *
 275:/Applications/ArmGNUToolchain/14.2.rel1/arm-none-eabi/arm-none-eabi/include/c++/14.2.1/bits/stl_algobase.h ****    *  This will work on temporary expressions, since they are only evaluated
 276:/Applications/ArmGNUToolchain/14.2.rel1/arm-none-eabi/arm-none-eabi/include/c++/14.2.1/bits/stl_algobase.h ****    *  once, unlike a preprocessor macro.
 277:/Applications/ArmGNUToolchain/14.2.rel1/arm-none-eabi/arm-none-eabi/include/c++/14.2.1/bits/stl_algobase.h ****   */
 278:/Applications/ArmGNUToolchain/14.2.rel1/arm-none-eabi/arm-none-eabi/include/c++/14.2.1/bits/stl_algobase.h ****   template<typename _Tp, typename _Compare>
 279:/Applications/ArmGNUToolchain/14.2.rel1/arm-none-eabi/arm-none-eabi/include/c++/14.2.1/bits/stl_algobase.h ****     _GLIBCXX_NODISCARD _GLIBCXX14_CONSTEXPR
 280:/Applications/ArmGNUToolchain/14.2.rel1/arm-none-eabi/arm-none-eabi/include/c++/14.2.1/bits/stl_algobase.h ****     inline const _Tp&
 281:/Applications/ArmGNUToolchain/14.2.rel1/arm-none-eabi/arm-none-eabi/include/c++/14.2.1/bits/stl_algobase.h ****     min(const _Tp& __a, const _Tp& __b, _Compare __comp)
 282:/Applications/ArmGNUToolchain/14.2.rel1/arm-none-eabi/arm-none-eabi/include/c++/14.2.1/bits/stl_algobase.h ****     {
 283:/Applications/ArmGNUToolchain/14.2.rel1/arm-none-eabi/arm-none-eabi/include/c++/14.2.1/bits/stl_algobase.h ****       //return __comp(__b, __a) ? __b : __a;
 284:/Applications/ArmGNUToolchain/14.2.rel1/arm-none-eabi/arm-none-eabi/include/c++/14.2.1/bits/stl_algobase.h ****       if (__comp(__b, __a))
 285:/Applications/ArmGNUToolchain/14.2.rel1/arm-none-eabi/arm-none-eabi/include/c++/14.2.1/bits/stl_algobase.h **** 	return __b;
 286:/Applications/ArmGNUToolchain/14.2.rel1/arm-none-eabi/arm-none-eabi/include/c++/14.2.1/bits/stl_algobase.h ****       return __a;
 287:/Applications/ArmGNUToolchain/14.2.rel1/arm-none-eabi/arm-none-eabi/include/c++/14.2.1/bits/stl_algobase.h ****     }
 288:/Applications/ArmGNUToolchain/14.2.rel1/arm-none-eabi/arm-none-eabi/include/c++/14.2.1/bits/stl_algobase.h **** 
 289:/Applications/ArmGNUToolchain/14.2.rel1/arm-none-eabi/arm-none-eabi/include/c++/14.2.1/bits/stl_algobase.h ****   /**
 290:/Applications/ArmGNUToolchain/14.2.rel1/arm-none-eabi/arm-none-eabi/include/c++/14.2.1/bits/stl_algobase.h ****    *  @brief This does what you think it does.
 291:/Applications/ArmGNUToolchain/14.2.rel1/arm-none-eabi/arm-none-eabi/include/c++/14.2.1/bits/stl_algobase.h ****    *  @ingroup sorting_algorithms
 292:/Applications/ArmGNUToolchain/14.2.rel1/arm-none-eabi/arm-none-eabi/include/c++/14.2.1/bits/stl_algobase.h ****    *  @param  __a  A thing of arbitrary type.
 293:/Applications/ArmGNUToolchain/14.2.rel1/arm-none-eabi/arm-none-eabi/include/c++/14.2.1/bits/stl_algobase.h ****    *  @param  __b  Another thing of arbitrary type.
 294:/Applications/ArmGNUToolchain/14.2.rel1/arm-none-eabi/arm-none-eabi/include/c++/14.2.1/bits/stl_algobase.h ****    *  @param  __comp  A @link comparison_functors comparison functor@endlink.
 295:/Applications/ArmGNUToolchain/14.2.rel1/arm-none-eabi/arm-none-eabi/include/c++/14.2.1/bits/stl_algobase.h ****    *  @return   The greater of the parameters.
 296:/Applications/ArmGNUToolchain/14.2.rel1/arm-none-eabi/arm-none-eabi/include/c++/14.2.1/bits/stl_algobase.h ****    *
 297:/Applications/ArmGNUToolchain/14.2.rel1/arm-none-eabi/arm-none-eabi/include/c++/14.2.1/bits/stl_algobase.h ****    *  This will work on temporary expressions, since they are only evaluated
 298:/Applications/ArmGNUToolchain/14.2.rel1/arm-none-eabi/arm-none-eabi/include/c++/14.2.1/bits/stl_algobase.h ****    *  once, unlike a preprocessor macro.
 299:/Applications/ArmGNUToolchain/14.2.rel1/arm-none-eabi/arm-none-eabi/include/c++/14.2.1/bits/stl_algobase.h ****   */
 300:/Applications/ArmGNUToolchain/14.2.rel1/arm-none-eabi/arm-none-eabi/include/c++/14.2.1/bits/stl_algobase.h ****   template<typename _Tp, typename _Compare>
 301:/Applications/ArmGNUToolchain/14.2.rel1/arm-none-eabi/arm-none-eabi/include/c++/14.2.1/bits/stl_algobase.h ****     _GLIBCXX_NODISCARD _GLIBCXX14_CONSTEXPR
 302:/Applications/ArmGNUToolchain/14.2.rel1/arm-none-eabi/arm-none-eabi/include/c++/14.2.1/bits/stl_algobase.h ****     inline const _Tp&
 303:/Applications/ArmGNUToolchain/14.2.rel1/arm-none-eabi/arm-none-eabi/include/c++/14.2.1/bits/stl_algobase.h ****     max(const _Tp& __a, const _Tp& __b, _Compare __comp)
 304:/Applications/ArmGNUToolchain/14.2.rel1/arm-none-eabi/arm-none-eabi/include/c++/14.2.1/bits/stl_algobase.h ****     {
 305:/Applications/ArmGNUToolchain/14.2.rel1/arm-none-eabi/arm-none-eabi/include/c++/14.2.1/bits/stl_algobase.h ****       //return __comp(__a, __b) ? __b : __a;
 306:/Applications/ArmGNUToolchain/14.2.rel1/arm-none-eabi/arm-none-eabi/include/c++/14.2.1/bits/stl_algobase.h ****       if (__comp(__a, __b))
 307:/Applications/ArmGNUToolchain/14.2.rel1/arm-none-eabi/arm-none-eabi/include/c++/14.2.1/bits/stl_algobase.h **** 	return __b;
 308:/Applications/ArmGNUToolchain/14.2.rel1/arm-none-eabi/arm-none-eabi/include/c++/14.2.1/bits/stl_algobase.h ****       return __a;
 309:/Applications/ArmGNUToolchain/14.2.rel1/arm-none-eabi/arm-none-eabi/include/c++/14.2.1/bits/stl_algobase.h ****     }
 310:/Applications/ArmGNUToolchain/14.2.rel1/arm-none-eabi/arm-none-eabi/include/c++/14.2.1/bits/stl_algobase.h **** 
 311:/Applications/ArmGNUToolchain/14.2.rel1/arm-none-eabi/arm-none-eabi/include/c++/14.2.1/bits/stl_algobase.h ****   // Fallback implementation of the function in bits/stl_iterator.h used to
 312:/Applications/ArmGNUToolchain/14.2.rel1/arm-none-eabi/arm-none-eabi/include/c++/14.2.1/bits/stl_algobase.h ****   // remove the __normal_iterator wrapper. See copy, fill, ...
 313:/Applications/ArmGNUToolchain/14.2.rel1/arm-none-eabi/arm-none-eabi/include/c++/14.2.1/bits/stl_algobase.h ****   template<typename _Iterator>
 314:/Applications/ArmGNUToolchain/14.2.rel1/arm-none-eabi/arm-none-eabi/include/c++/14.2.1/bits/stl_algobase.h ****     _GLIBCXX20_CONSTEXPR
 315:/Applications/ArmGNUToolchain/14.2.rel1/arm-none-eabi/arm-none-eabi/include/c++/14.2.1/bits/stl_algobase.h ****     inline _Iterator
 316:/Applications/ArmGNUToolchain/14.2.rel1/arm-none-eabi/arm-none-eabi/include/c++/14.2.1/bits/stl_algobase.h ****     __niter_base(_Iterator __it)
 317:/Applications/ArmGNUToolchain/14.2.rel1/arm-none-eabi/arm-none-eabi/include/c++/14.2.1/bits/stl_algobase.h ****     _GLIBCXX_NOEXCEPT_IF(std::is_nothrow_copy_constructible<_Iterator>::value)
 318:/Applications/ArmGNUToolchain/14.2.rel1/arm-none-eabi/arm-none-eabi/include/c++/14.2.1/bits/stl_algobase.h ****     { return __it; }
 319:/Applications/ArmGNUToolchain/14.2.rel1/arm-none-eabi/arm-none-eabi/include/c++/14.2.1/bits/stl_algobase.h **** 
 320:/Applications/ArmGNUToolchain/14.2.rel1/arm-none-eabi/arm-none-eabi/include/c++/14.2.1/bits/stl_algobase.h **** #if __cplusplus < 201103L
 321:/Applications/ArmGNUToolchain/14.2.rel1/arm-none-eabi/arm-none-eabi/include/c++/14.2.1/bits/stl_algobase.h ****   template<typename _Ite, typename _Seq>
 322:/Applications/ArmGNUToolchain/14.2.rel1/arm-none-eabi/arm-none-eabi/include/c++/14.2.1/bits/stl_algobase.h ****     _Ite
 323:/Applications/ArmGNUToolchain/14.2.rel1/arm-none-eabi/arm-none-eabi/include/c++/14.2.1/bits/stl_algobase.h ****     __niter_base(const ::__gnu_debug::_Safe_iterator<_Ite, _Seq,
 324:/Applications/ArmGNUToolchain/14.2.rel1/arm-none-eabi/arm-none-eabi/include/c++/14.2.1/bits/stl_algobase.h **** 		 std::random_access_iterator_tag>&);
 325:/Applications/ArmGNUToolchain/14.2.rel1/arm-none-eabi/arm-none-eabi/include/c++/14.2.1/bits/stl_algobase.h **** 
ARM GAS  /var/folders/y7/g6pkzsp12sx54x3s3mvyn15r0000gn/T//ccVTo1ct.s 			page 17


 326:/Applications/ArmGNUToolchain/14.2.rel1/arm-none-eabi/arm-none-eabi/include/c++/14.2.1/bits/stl_algobase.h ****  template<typename _Ite, typename _Cont, typename _Seq>
 327:/Applications/ArmGNUToolchain/14.2.rel1/arm-none-eabi/arm-none-eabi/include/c++/14.2.1/bits/stl_algobase.h ****     _Ite
 328:/Applications/ArmGNUToolchain/14.2.rel1/arm-none-eabi/arm-none-eabi/include/c++/14.2.1/bits/stl_algobase.h ****     __niter_base(const ::__gnu_debug::_Safe_iterator<
 329:/Applications/ArmGNUToolchain/14.2.rel1/arm-none-eabi/arm-none-eabi/include/c++/14.2.1/bits/stl_algobase.h **** 		 ::__gnu_cxx::__normal_iterator<_Ite, _Cont>, _Seq,
 330:/Applications/ArmGNUToolchain/14.2.rel1/arm-none-eabi/arm-none-eabi/include/c++/14.2.1/bits/stl_algobase.h **** 		 std::random_access_iterator_tag>&);
 331:/Applications/ArmGNUToolchain/14.2.rel1/arm-none-eabi/arm-none-eabi/include/c++/14.2.1/bits/stl_algobase.h **** #else
 332:/Applications/ArmGNUToolchain/14.2.rel1/arm-none-eabi/arm-none-eabi/include/c++/14.2.1/bits/stl_algobase.h ****   template<typename _Ite, typename _Seq>
 333:/Applications/ArmGNUToolchain/14.2.rel1/arm-none-eabi/arm-none-eabi/include/c++/14.2.1/bits/stl_algobase.h ****     _GLIBCXX20_CONSTEXPR
 334:/Applications/ArmGNUToolchain/14.2.rel1/arm-none-eabi/arm-none-eabi/include/c++/14.2.1/bits/stl_algobase.h ****     decltype(std::__niter_base(std::declval<_Ite>()))
 335:/Applications/ArmGNUToolchain/14.2.rel1/arm-none-eabi/arm-none-eabi/include/c++/14.2.1/bits/stl_algobase.h ****     __niter_base(const ::__gnu_debug::_Safe_iterator<_Ite, _Seq,
 336:/Applications/ArmGNUToolchain/14.2.rel1/arm-none-eabi/arm-none-eabi/include/c++/14.2.1/bits/stl_algobase.h **** 		 std::random_access_iterator_tag>&)
 337:/Applications/ArmGNUToolchain/14.2.rel1/arm-none-eabi/arm-none-eabi/include/c++/14.2.1/bits/stl_algobase.h ****     noexcept(std::is_nothrow_copy_constructible<_Ite>::value);
 338:/Applications/ArmGNUToolchain/14.2.rel1/arm-none-eabi/arm-none-eabi/include/c++/14.2.1/bits/stl_algobase.h **** #endif
 339:/Applications/ArmGNUToolchain/14.2.rel1/arm-none-eabi/arm-none-eabi/include/c++/14.2.1/bits/stl_algobase.h **** 
 340:/Applications/ArmGNUToolchain/14.2.rel1/arm-none-eabi/arm-none-eabi/include/c++/14.2.1/bits/stl_algobase.h ****   // Reverse the __niter_base transformation to get a
 341:/Applications/ArmGNUToolchain/14.2.rel1/arm-none-eabi/arm-none-eabi/include/c++/14.2.1/bits/stl_algobase.h ****   // __normal_iterator back again (this assumes that __normal_iterator
 342:/Applications/ArmGNUToolchain/14.2.rel1/arm-none-eabi/arm-none-eabi/include/c++/14.2.1/bits/stl_algobase.h ****   // is only used to wrap random access iterators, like pointers).
 343:/Applications/ArmGNUToolchain/14.2.rel1/arm-none-eabi/arm-none-eabi/include/c++/14.2.1/bits/stl_algobase.h ****   template<typename _From, typename _To>
 344:/Applications/ArmGNUToolchain/14.2.rel1/arm-none-eabi/arm-none-eabi/include/c++/14.2.1/bits/stl_algobase.h ****     _GLIBCXX20_CONSTEXPR
 345:/Applications/ArmGNUToolchain/14.2.rel1/arm-none-eabi/arm-none-eabi/include/c++/14.2.1/bits/stl_algobase.h ****     inline _From
 346:/Applications/ArmGNUToolchain/14.2.rel1/arm-none-eabi/arm-none-eabi/include/c++/14.2.1/bits/stl_algobase.h ****     __niter_wrap(_From __from, _To __res)
 347:/Applications/ArmGNUToolchain/14.2.rel1/arm-none-eabi/arm-none-eabi/include/c++/14.2.1/bits/stl_algobase.h ****     { return __from + (std::__niter_base(__res) - std::__niter_base(__from)); }
 348:/Applications/ArmGNUToolchain/14.2.rel1/arm-none-eabi/arm-none-eabi/include/c++/14.2.1/bits/stl_algobase.h **** 
 349:/Applications/ArmGNUToolchain/14.2.rel1/arm-none-eabi/arm-none-eabi/include/c++/14.2.1/bits/stl_algobase.h ****   // No need to wrap, iterator already has the right type.
 350:/Applications/ArmGNUToolchain/14.2.rel1/arm-none-eabi/arm-none-eabi/include/c++/14.2.1/bits/stl_algobase.h ****   template<typename _Iterator>
 351:/Applications/ArmGNUToolchain/14.2.rel1/arm-none-eabi/arm-none-eabi/include/c++/14.2.1/bits/stl_algobase.h ****     _GLIBCXX20_CONSTEXPR
 352:/Applications/ArmGNUToolchain/14.2.rel1/arm-none-eabi/arm-none-eabi/include/c++/14.2.1/bits/stl_algobase.h ****     inline _Iterator
 353:/Applications/ArmGNUToolchain/14.2.rel1/arm-none-eabi/arm-none-eabi/include/c++/14.2.1/bits/stl_algobase.h ****     __niter_wrap(const _Iterator&, _Iterator __res)
 354:/Applications/ArmGNUToolchain/14.2.rel1/arm-none-eabi/arm-none-eabi/include/c++/14.2.1/bits/stl_algobase.h ****     { return __res; }
 355:/Applications/ArmGNUToolchain/14.2.rel1/arm-none-eabi/arm-none-eabi/include/c++/14.2.1/bits/stl_algobase.h **** 
 356:/Applications/ArmGNUToolchain/14.2.rel1/arm-none-eabi/arm-none-eabi/include/c++/14.2.1/bits/stl_algobase.h ****   // All of these auxiliary structs serve two purposes.  (1) Replace
 357:/Applications/ArmGNUToolchain/14.2.rel1/arm-none-eabi/arm-none-eabi/include/c++/14.2.1/bits/stl_algobase.h ****   // calls to copy with memmove whenever possible.  (Memmove, not memcpy,
 358:/Applications/ArmGNUToolchain/14.2.rel1/arm-none-eabi/arm-none-eabi/include/c++/14.2.1/bits/stl_algobase.h ****   // because the input and output ranges are permitted to overlap.)
 359:/Applications/ArmGNUToolchain/14.2.rel1/arm-none-eabi/arm-none-eabi/include/c++/14.2.1/bits/stl_algobase.h ****   // (2) If we're using random access iterators, then write the loop as
 360:/Applications/ArmGNUToolchain/14.2.rel1/arm-none-eabi/arm-none-eabi/include/c++/14.2.1/bits/stl_algobase.h ****   // a for loop with an explicit count.
 361:/Applications/ArmGNUToolchain/14.2.rel1/arm-none-eabi/arm-none-eabi/include/c++/14.2.1/bits/stl_algobase.h **** 
 362:/Applications/ArmGNUToolchain/14.2.rel1/arm-none-eabi/arm-none-eabi/include/c++/14.2.1/bits/stl_algobase.h ****   template<bool _IsMove, bool _IsSimple, typename _Category>
 363:/Applications/ArmGNUToolchain/14.2.rel1/arm-none-eabi/arm-none-eabi/include/c++/14.2.1/bits/stl_algobase.h ****     struct __copy_move
 364:/Applications/ArmGNUToolchain/14.2.rel1/arm-none-eabi/arm-none-eabi/include/c++/14.2.1/bits/stl_algobase.h ****     {
 365:/Applications/ArmGNUToolchain/14.2.rel1/arm-none-eabi/arm-none-eabi/include/c++/14.2.1/bits/stl_algobase.h ****       template<typename _II, typename _OI>
 366:/Applications/ArmGNUToolchain/14.2.rel1/arm-none-eabi/arm-none-eabi/include/c++/14.2.1/bits/stl_algobase.h **** 	_GLIBCXX20_CONSTEXPR
 367:/Applications/ArmGNUToolchain/14.2.rel1/arm-none-eabi/arm-none-eabi/include/c++/14.2.1/bits/stl_algobase.h **** 	static _OI
 368:/Applications/ArmGNUToolchain/14.2.rel1/arm-none-eabi/arm-none-eabi/include/c++/14.2.1/bits/stl_algobase.h **** 	__copy_m(_II __first, _II __last, _OI __result)
 369:/Applications/ArmGNUToolchain/14.2.rel1/arm-none-eabi/arm-none-eabi/include/c++/14.2.1/bits/stl_algobase.h **** 	{
 370:/Applications/ArmGNUToolchain/14.2.rel1/arm-none-eabi/arm-none-eabi/include/c++/14.2.1/bits/stl_algobase.h **** 	  for (; __first != __last; ++__result, (void)++__first)
 371:/Applications/ArmGNUToolchain/14.2.rel1/arm-none-eabi/arm-none-eabi/include/c++/14.2.1/bits/stl_algobase.h **** 	    *__result = *__first;
 372:/Applications/ArmGNUToolchain/14.2.rel1/arm-none-eabi/arm-none-eabi/include/c++/14.2.1/bits/stl_algobase.h **** 	  return __result;
 373:/Applications/ArmGNUToolchain/14.2.rel1/arm-none-eabi/arm-none-eabi/include/c++/14.2.1/bits/stl_algobase.h **** 	}
 374:/Applications/ArmGNUToolchain/14.2.rel1/arm-none-eabi/arm-none-eabi/include/c++/14.2.1/bits/stl_algobase.h ****     };
 375:/Applications/ArmGNUToolchain/14.2.rel1/arm-none-eabi/arm-none-eabi/include/c++/14.2.1/bits/stl_algobase.h **** 
 376:/Applications/ArmGNUToolchain/14.2.rel1/arm-none-eabi/arm-none-eabi/include/c++/14.2.1/bits/stl_algobase.h **** #if __cplusplus >= 201103L
 377:/Applications/ArmGNUToolchain/14.2.rel1/arm-none-eabi/arm-none-eabi/include/c++/14.2.1/bits/stl_algobase.h ****   template<typename _Category>
 378:/Applications/ArmGNUToolchain/14.2.rel1/arm-none-eabi/arm-none-eabi/include/c++/14.2.1/bits/stl_algobase.h ****     struct __copy_move<true, false, _Category>
 379:/Applications/ArmGNUToolchain/14.2.rel1/arm-none-eabi/arm-none-eabi/include/c++/14.2.1/bits/stl_algobase.h ****     {
 380:/Applications/ArmGNUToolchain/14.2.rel1/arm-none-eabi/arm-none-eabi/include/c++/14.2.1/bits/stl_algobase.h ****       template<typename _II, typename _OI>
 381:/Applications/ArmGNUToolchain/14.2.rel1/arm-none-eabi/arm-none-eabi/include/c++/14.2.1/bits/stl_algobase.h **** 	_GLIBCXX20_CONSTEXPR
 382:/Applications/ArmGNUToolchain/14.2.rel1/arm-none-eabi/arm-none-eabi/include/c++/14.2.1/bits/stl_algobase.h **** 	static _OI
ARM GAS  /var/folders/y7/g6pkzsp12sx54x3s3mvyn15r0000gn/T//ccVTo1ct.s 			page 18


 383:/Applications/ArmGNUToolchain/14.2.rel1/arm-none-eabi/arm-none-eabi/include/c++/14.2.1/bits/stl_algobase.h **** 	__copy_m(_II __first, _II __last, _OI __result)
 384:/Applications/ArmGNUToolchain/14.2.rel1/arm-none-eabi/arm-none-eabi/include/c++/14.2.1/bits/stl_algobase.h **** 	{
 385:/Applications/ArmGNUToolchain/14.2.rel1/arm-none-eabi/arm-none-eabi/include/c++/14.2.1/bits/stl_algobase.h **** 	  for (; __first != __last; ++__result, (void)++__first)
 386:/Applications/ArmGNUToolchain/14.2.rel1/arm-none-eabi/arm-none-eabi/include/c++/14.2.1/bits/stl_algobase.h **** 	    *__result = std::move(*__first);
 387:/Applications/ArmGNUToolchain/14.2.rel1/arm-none-eabi/arm-none-eabi/include/c++/14.2.1/bits/stl_algobase.h **** 	  return __result;
 388:/Applications/ArmGNUToolchain/14.2.rel1/arm-none-eabi/arm-none-eabi/include/c++/14.2.1/bits/stl_algobase.h **** 	}
 389:/Applications/ArmGNUToolchain/14.2.rel1/arm-none-eabi/arm-none-eabi/include/c++/14.2.1/bits/stl_algobase.h ****     };
 390:/Applications/ArmGNUToolchain/14.2.rel1/arm-none-eabi/arm-none-eabi/include/c++/14.2.1/bits/stl_algobase.h **** #endif
 391:/Applications/ArmGNUToolchain/14.2.rel1/arm-none-eabi/arm-none-eabi/include/c++/14.2.1/bits/stl_algobase.h **** 
 392:/Applications/ArmGNUToolchain/14.2.rel1/arm-none-eabi/arm-none-eabi/include/c++/14.2.1/bits/stl_algobase.h ****   template<>
 393:/Applications/ArmGNUToolchain/14.2.rel1/arm-none-eabi/arm-none-eabi/include/c++/14.2.1/bits/stl_algobase.h ****     struct __copy_move<false, false, random_access_iterator_tag>
 394:/Applications/ArmGNUToolchain/14.2.rel1/arm-none-eabi/arm-none-eabi/include/c++/14.2.1/bits/stl_algobase.h ****     {
 395:/Applications/ArmGNUToolchain/14.2.rel1/arm-none-eabi/arm-none-eabi/include/c++/14.2.1/bits/stl_algobase.h ****       template<typename _II, typename _OI>
 396:/Applications/ArmGNUToolchain/14.2.rel1/arm-none-eabi/arm-none-eabi/include/c++/14.2.1/bits/stl_algobase.h **** 	_GLIBCXX20_CONSTEXPR
 397:/Applications/ArmGNUToolchain/14.2.rel1/arm-none-eabi/arm-none-eabi/include/c++/14.2.1/bits/stl_algobase.h **** 	static _OI
 398:/Applications/ArmGNUToolchain/14.2.rel1/arm-none-eabi/arm-none-eabi/include/c++/14.2.1/bits/stl_algobase.h **** 	__copy_m(_II __first, _II __last, _OI __result)
 399:/Applications/ArmGNUToolchain/14.2.rel1/arm-none-eabi/arm-none-eabi/include/c++/14.2.1/bits/stl_algobase.h **** 	{
 400:/Applications/ArmGNUToolchain/14.2.rel1/arm-none-eabi/arm-none-eabi/include/c++/14.2.1/bits/stl_algobase.h **** 	  typedef typename iterator_traits<_II>::difference_type _Distance;
 401:/Applications/ArmGNUToolchain/14.2.rel1/arm-none-eabi/arm-none-eabi/include/c++/14.2.1/bits/stl_algobase.h **** 	  for(_Distance __n = __last - __first; __n > 0; --__n)
 402:/Applications/ArmGNUToolchain/14.2.rel1/arm-none-eabi/arm-none-eabi/include/c++/14.2.1/bits/stl_algobase.h **** 	    {
 403:/Applications/ArmGNUToolchain/14.2.rel1/arm-none-eabi/arm-none-eabi/include/c++/14.2.1/bits/stl_algobase.h **** 	      *__result = *__first;
 404:/Applications/ArmGNUToolchain/14.2.rel1/arm-none-eabi/arm-none-eabi/include/c++/14.2.1/bits/stl_algobase.h **** 	      ++__first;
 405:/Applications/ArmGNUToolchain/14.2.rel1/arm-none-eabi/arm-none-eabi/include/c++/14.2.1/bits/stl_algobase.h **** 	      ++__result;
 406:/Applications/ArmGNUToolchain/14.2.rel1/arm-none-eabi/arm-none-eabi/include/c++/14.2.1/bits/stl_algobase.h **** 	    }
 407:/Applications/ArmGNUToolchain/14.2.rel1/arm-none-eabi/arm-none-eabi/include/c++/14.2.1/bits/stl_algobase.h **** 	  return __result;
 408:/Applications/ArmGNUToolchain/14.2.rel1/arm-none-eabi/arm-none-eabi/include/c++/14.2.1/bits/stl_algobase.h **** 	}
 409:/Applications/ArmGNUToolchain/14.2.rel1/arm-none-eabi/arm-none-eabi/include/c++/14.2.1/bits/stl_algobase.h **** 
 410:/Applications/ArmGNUToolchain/14.2.rel1/arm-none-eabi/arm-none-eabi/include/c++/14.2.1/bits/stl_algobase.h ****       template<typename _Tp, typename _Up>
 411:/Applications/ArmGNUToolchain/14.2.rel1/arm-none-eabi/arm-none-eabi/include/c++/14.2.1/bits/stl_algobase.h **** 	static void
 412:/Applications/ArmGNUToolchain/14.2.rel1/arm-none-eabi/arm-none-eabi/include/c++/14.2.1/bits/stl_algobase.h **** 	__assign_one(_Tp* __to, _Up* __from)
 413:/Applications/ArmGNUToolchain/14.2.rel1/arm-none-eabi/arm-none-eabi/include/c++/14.2.1/bits/stl_algobase.h **** 	{ *__to = *__from; }
 414:/Applications/ArmGNUToolchain/14.2.rel1/arm-none-eabi/arm-none-eabi/include/c++/14.2.1/bits/stl_algobase.h ****     };
 415:/Applications/ArmGNUToolchain/14.2.rel1/arm-none-eabi/arm-none-eabi/include/c++/14.2.1/bits/stl_algobase.h **** 
 416:/Applications/ArmGNUToolchain/14.2.rel1/arm-none-eabi/arm-none-eabi/include/c++/14.2.1/bits/stl_algobase.h **** #if __cplusplus >= 201103L
 417:/Applications/ArmGNUToolchain/14.2.rel1/arm-none-eabi/arm-none-eabi/include/c++/14.2.1/bits/stl_algobase.h ****   template<>
 418:/Applications/ArmGNUToolchain/14.2.rel1/arm-none-eabi/arm-none-eabi/include/c++/14.2.1/bits/stl_algobase.h ****     struct __copy_move<true, false, random_access_iterator_tag>
 419:/Applications/ArmGNUToolchain/14.2.rel1/arm-none-eabi/arm-none-eabi/include/c++/14.2.1/bits/stl_algobase.h ****     {
 420:/Applications/ArmGNUToolchain/14.2.rel1/arm-none-eabi/arm-none-eabi/include/c++/14.2.1/bits/stl_algobase.h ****       template<typename _II, typename _OI>
 421:/Applications/ArmGNUToolchain/14.2.rel1/arm-none-eabi/arm-none-eabi/include/c++/14.2.1/bits/stl_algobase.h **** 	_GLIBCXX20_CONSTEXPR
 422:/Applications/ArmGNUToolchain/14.2.rel1/arm-none-eabi/arm-none-eabi/include/c++/14.2.1/bits/stl_algobase.h **** 	static _OI
 423:/Applications/ArmGNUToolchain/14.2.rel1/arm-none-eabi/arm-none-eabi/include/c++/14.2.1/bits/stl_algobase.h **** 	__copy_m(_II __first, _II __last, _OI __result)
 424:/Applications/ArmGNUToolchain/14.2.rel1/arm-none-eabi/arm-none-eabi/include/c++/14.2.1/bits/stl_algobase.h **** 	{
 425:/Applications/ArmGNUToolchain/14.2.rel1/arm-none-eabi/arm-none-eabi/include/c++/14.2.1/bits/stl_algobase.h **** 	  typedef typename iterator_traits<_II>::difference_type _Distance;
 426:/Applications/ArmGNUToolchain/14.2.rel1/arm-none-eabi/arm-none-eabi/include/c++/14.2.1/bits/stl_algobase.h **** 	  for(_Distance __n = __last - __first; __n > 0; --__n)
 427:/Applications/ArmGNUToolchain/14.2.rel1/arm-none-eabi/arm-none-eabi/include/c++/14.2.1/bits/stl_algobase.h **** 	    {
 428:/Applications/ArmGNUToolchain/14.2.rel1/arm-none-eabi/arm-none-eabi/include/c++/14.2.1/bits/stl_algobase.h **** 	      *__result = std::move(*__first);
 429:/Applications/ArmGNUToolchain/14.2.rel1/arm-none-eabi/arm-none-eabi/include/c++/14.2.1/bits/stl_algobase.h **** 	      ++__first;
 430:/Applications/ArmGNUToolchain/14.2.rel1/arm-none-eabi/arm-none-eabi/include/c++/14.2.1/bits/stl_algobase.h **** 	      ++__result;
 431:/Applications/ArmGNUToolchain/14.2.rel1/arm-none-eabi/arm-none-eabi/include/c++/14.2.1/bits/stl_algobase.h **** 	    }
 432:/Applications/ArmGNUToolchain/14.2.rel1/arm-none-eabi/arm-none-eabi/include/c++/14.2.1/bits/stl_algobase.h **** 	  return __result;
 433:/Applications/ArmGNUToolchain/14.2.rel1/arm-none-eabi/arm-none-eabi/include/c++/14.2.1/bits/stl_algobase.h **** 	}
 434:/Applications/ArmGNUToolchain/14.2.rel1/arm-none-eabi/arm-none-eabi/include/c++/14.2.1/bits/stl_algobase.h **** 
 435:/Applications/ArmGNUToolchain/14.2.rel1/arm-none-eabi/arm-none-eabi/include/c++/14.2.1/bits/stl_algobase.h ****       template<typename _Tp, typename _Up>
 436:/Applications/ArmGNUToolchain/14.2.rel1/arm-none-eabi/arm-none-eabi/include/c++/14.2.1/bits/stl_algobase.h **** 	static void
 437:/Applications/ArmGNUToolchain/14.2.rel1/arm-none-eabi/arm-none-eabi/include/c++/14.2.1/bits/stl_algobase.h **** 	__assign_one(_Tp* __to, _Up* __from)
 438:/Applications/ArmGNUToolchain/14.2.rel1/arm-none-eabi/arm-none-eabi/include/c++/14.2.1/bits/stl_algobase.h **** 	{ *__to = std::move(*__from); }
 439:/Applications/ArmGNUToolchain/14.2.rel1/arm-none-eabi/arm-none-eabi/include/c++/14.2.1/bits/stl_algobase.h ****     };
ARM GAS  /var/folders/y7/g6pkzsp12sx54x3s3mvyn15r0000gn/T//ccVTo1ct.s 			page 19


 440:/Applications/ArmGNUToolchain/14.2.rel1/arm-none-eabi/arm-none-eabi/include/c++/14.2.1/bits/stl_algobase.h **** #endif
 441:/Applications/ArmGNUToolchain/14.2.rel1/arm-none-eabi/arm-none-eabi/include/c++/14.2.1/bits/stl_algobase.h **** 
 442:/Applications/ArmGNUToolchain/14.2.rel1/arm-none-eabi/arm-none-eabi/include/c++/14.2.1/bits/stl_algobase.h ****   template<bool _IsMove>
 443:/Applications/ArmGNUToolchain/14.2.rel1/arm-none-eabi/arm-none-eabi/include/c++/14.2.1/bits/stl_algobase.h ****     struct __copy_move<_IsMove, true, random_access_iterator_tag>
 444:/Applications/ArmGNUToolchain/14.2.rel1/arm-none-eabi/arm-none-eabi/include/c++/14.2.1/bits/stl_algobase.h ****     {
 445:/Applications/ArmGNUToolchain/14.2.rel1/arm-none-eabi/arm-none-eabi/include/c++/14.2.1/bits/stl_algobase.h ****       template<typename _Tp, typename _Up>
 446:/Applications/ArmGNUToolchain/14.2.rel1/arm-none-eabi/arm-none-eabi/include/c++/14.2.1/bits/stl_algobase.h **** 	_GLIBCXX20_CONSTEXPR
 447:/Applications/ArmGNUToolchain/14.2.rel1/arm-none-eabi/arm-none-eabi/include/c++/14.2.1/bits/stl_algobase.h **** 	static _Up*
 448:/Applications/ArmGNUToolchain/14.2.rel1/arm-none-eabi/arm-none-eabi/include/c++/14.2.1/bits/stl_algobase.h **** 	__copy_m(_Tp* __first, _Tp* __last, _Up* __result)
 449:/Applications/ArmGNUToolchain/14.2.rel1/arm-none-eabi/arm-none-eabi/include/c++/14.2.1/bits/stl_algobase.h **** 	{
 450:/Applications/ArmGNUToolchain/14.2.rel1/arm-none-eabi/arm-none-eabi/include/c++/14.2.1/bits/stl_algobase.h **** 	  const ptrdiff_t _Num = __last - __first;
 451:/Applications/ArmGNUToolchain/14.2.rel1/arm-none-eabi/arm-none-eabi/include/c++/14.2.1/bits/stl_algobase.h **** 	  if (__builtin_expect(_Num > 1, true))
 452:/Applications/ArmGNUToolchain/14.2.rel1/arm-none-eabi/arm-none-eabi/include/c++/14.2.1/bits/stl_algobase.h **** 	    __builtin_memmove(__result, __first, sizeof(_Tp) * _Num);
 453:/Applications/ArmGNUToolchain/14.2.rel1/arm-none-eabi/arm-none-eabi/include/c++/14.2.1/bits/stl_algobase.h **** 	  else if (_Num == 1)
 454:/Applications/ArmGNUToolchain/14.2.rel1/arm-none-eabi/arm-none-eabi/include/c++/14.2.1/bits/stl_algobase.h **** 	    std::__copy_move<_IsMove, false, random_access_iterator_tag>::
 455:/Applications/ArmGNUToolchain/14.2.rel1/arm-none-eabi/arm-none-eabi/include/c++/14.2.1/bits/stl_algobase.h **** 	      __assign_one(__result, __first);
 456:/Applications/ArmGNUToolchain/14.2.rel1/arm-none-eabi/arm-none-eabi/include/c++/14.2.1/bits/stl_algobase.h **** 	  return __result + _Num;
 457:/Applications/ArmGNUToolchain/14.2.rel1/arm-none-eabi/arm-none-eabi/include/c++/14.2.1/bits/stl_algobase.h **** 	}
 458:/Applications/ArmGNUToolchain/14.2.rel1/arm-none-eabi/arm-none-eabi/include/c++/14.2.1/bits/stl_algobase.h ****     };
 459:/Applications/ArmGNUToolchain/14.2.rel1/arm-none-eabi/arm-none-eabi/include/c++/14.2.1/bits/stl_algobase.h **** 
 460:/Applications/ArmGNUToolchain/14.2.rel1/arm-none-eabi/arm-none-eabi/include/c++/14.2.1/bits/stl_algobase.h **** _GLIBCXX_BEGIN_NAMESPACE_CONTAINER
 461:/Applications/ArmGNUToolchain/14.2.rel1/arm-none-eabi/arm-none-eabi/include/c++/14.2.1/bits/stl_algobase.h **** 
 462:/Applications/ArmGNUToolchain/14.2.rel1/arm-none-eabi/arm-none-eabi/include/c++/14.2.1/bits/stl_algobase.h ****   template<typename _Tp, typename _Ref, typename _Ptr>
 463:/Applications/ArmGNUToolchain/14.2.rel1/arm-none-eabi/arm-none-eabi/include/c++/14.2.1/bits/stl_algobase.h ****     struct _Deque_iterator;
 464:/Applications/ArmGNUToolchain/14.2.rel1/arm-none-eabi/arm-none-eabi/include/c++/14.2.1/bits/stl_algobase.h **** 
 465:/Applications/ArmGNUToolchain/14.2.rel1/arm-none-eabi/arm-none-eabi/include/c++/14.2.1/bits/stl_algobase.h ****   struct _Bit_iterator;
 466:/Applications/ArmGNUToolchain/14.2.rel1/arm-none-eabi/arm-none-eabi/include/c++/14.2.1/bits/stl_algobase.h **** 
 467:/Applications/ArmGNUToolchain/14.2.rel1/arm-none-eabi/arm-none-eabi/include/c++/14.2.1/bits/stl_algobase.h **** _GLIBCXX_END_NAMESPACE_CONTAINER
 468:/Applications/ArmGNUToolchain/14.2.rel1/arm-none-eabi/arm-none-eabi/include/c++/14.2.1/bits/stl_algobase.h **** 
 469:/Applications/ArmGNUToolchain/14.2.rel1/arm-none-eabi/arm-none-eabi/include/c++/14.2.1/bits/stl_algobase.h **** #if _GLIBCXX_HOSTED
 470:/Applications/ArmGNUToolchain/14.2.rel1/arm-none-eabi/arm-none-eabi/include/c++/14.2.1/bits/stl_algobase.h ****   // Helpers for streambuf iterators (either istream or ostream).
 471:/Applications/ArmGNUToolchain/14.2.rel1/arm-none-eabi/arm-none-eabi/include/c++/14.2.1/bits/stl_algobase.h ****   // NB: avoid including <iosfwd>, relatively large.
 472:/Applications/ArmGNUToolchain/14.2.rel1/arm-none-eabi/arm-none-eabi/include/c++/14.2.1/bits/stl_algobase.h ****   template<typename _CharT>
 473:/Applications/ArmGNUToolchain/14.2.rel1/arm-none-eabi/arm-none-eabi/include/c++/14.2.1/bits/stl_algobase.h ****     struct char_traits;
 474:/Applications/ArmGNUToolchain/14.2.rel1/arm-none-eabi/arm-none-eabi/include/c++/14.2.1/bits/stl_algobase.h **** 
 475:/Applications/ArmGNUToolchain/14.2.rel1/arm-none-eabi/arm-none-eabi/include/c++/14.2.1/bits/stl_algobase.h ****   template<typename _CharT, typename _Traits>
 476:/Applications/ArmGNUToolchain/14.2.rel1/arm-none-eabi/arm-none-eabi/include/c++/14.2.1/bits/stl_algobase.h ****     class istreambuf_iterator;
 477:/Applications/ArmGNUToolchain/14.2.rel1/arm-none-eabi/arm-none-eabi/include/c++/14.2.1/bits/stl_algobase.h **** 
 478:/Applications/ArmGNUToolchain/14.2.rel1/arm-none-eabi/arm-none-eabi/include/c++/14.2.1/bits/stl_algobase.h ****   template<typename _CharT, typename _Traits>
 479:/Applications/ArmGNUToolchain/14.2.rel1/arm-none-eabi/arm-none-eabi/include/c++/14.2.1/bits/stl_algobase.h ****     class ostreambuf_iterator;
 480:/Applications/ArmGNUToolchain/14.2.rel1/arm-none-eabi/arm-none-eabi/include/c++/14.2.1/bits/stl_algobase.h **** 
 481:/Applications/ArmGNUToolchain/14.2.rel1/arm-none-eabi/arm-none-eabi/include/c++/14.2.1/bits/stl_algobase.h ****   template<bool _IsMove, typename _CharT>
 482:/Applications/ArmGNUToolchain/14.2.rel1/arm-none-eabi/arm-none-eabi/include/c++/14.2.1/bits/stl_algobase.h ****     typename __gnu_cxx::__enable_if<__is_char<_CharT>::__value,
 483:/Applications/ArmGNUToolchain/14.2.rel1/arm-none-eabi/arm-none-eabi/include/c++/14.2.1/bits/stl_algobase.h **** 	     ostreambuf_iterator<_CharT, char_traits<_CharT> > >::__type
 484:/Applications/ArmGNUToolchain/14.2.rel1/arm-none-eabi/arm-none-eabi/include/c++/14.2.1/bits/stl_algobase.h ****     __copy_move_a2(_CharT*, _CharT*,
 485:/Applications/ArmGNUToolchain/14.2.rel1/arm-none-eabi/arm-none-eabi/include/c++/14.2.1/bits/stl_algobase.h **** 		   ostreambuf_iterator<_CharT, char_traits<_CharT> >);
 486:/Applications/ArmGNUToolchain/14.2.rel1/arm-none-eabi/arm-none-eabi/include/c++/14.2.1/bits/stl_algobase.h **** 
 487:/Applications/ArmGNUToolchain/14.2.rel1/arm-none-eabi/arm-none-eabi/include/c++/14.2.1/bits/stl_algobase.h ****   template<bool _IsMove, typename _CharT>
 488:/Applications/ArmGNUToolchain/14.2.rel1/arm-none-eabi/arm-none-eabi/include/c++/14.2.1/bits/stl_algobase.h ****     typename __gnu_cxx::__enable_if<__is_char<_CharT>::__value,
 489:/Applications/ArmGNUToolchain/14.2.rel1/arm-none-eabi/arm-none-eabi/include/c++/14.2.1/bits/stl_algobase.h **** 	     ostreambuf_iterator<_CharT, char_traits<_CharT> > >::__type
 490:/Applications/ArmGNUToolchain/14.2.rel1/arm-none-eabi/arm-none-eabi/include/c++/14.2.1/bits/stl_algobase.h ****     __copy_move_a2(const _CharT*, const _CharT*,
 491:/Applications/ArmGNUToolchain/14.2.rel1/arm-none-eabi/arm-none-eabi/include/c++/14.2.1/bits/stl_algobase.h **** 		   ostreambuf_iterator<_CharT, char_traits<_CharT> >);
 492:/Applications/ArmGNUToolchain/14.2.rel1/arm-none-eabi/arm-none-eabi/include/c++/14.2.1/bits/stl_algobase.h **** 
 493:/Applications/ArmGNUToolchain/14.2.rel1/arm-none-eabi/arm-none-eabi/include/c++/14.2.1/bits/stl_algobase.h ****   template<bool _IsMove, typename _CharT>
 494:/Applications/ArmGNUToolchain/14.2.rel1/arm-none-eabi/arm-none-eabi/include/c++/14.2.1/bits/stl_algobase.h ****     typename __gnu_cxx::__enable_if<__is_char<_CharT>::__value,
 495:/Applications/ArmGNUToolchain/14.2.rel1/arm-none-eabi/arm-none-eabi/include/c++/14.2.1/bits/stl_algobase.h **** 				    _CharT*>::__type
 496:/Applications/ArmGNUToolchain/14.2.rel1/arm-none-eabi/arm-none-eabi/include/c++/14.2.1/bits/stl_algobase.h ****     __copy_move_a2(istreambuf_iterator<_CharT, char_traits<_CharT> >,
ARM GAS  /var/folders/y7/g6pkzsp12sx54x3s3mvyn15r0000gn/T//ccVTo1ct.s 			page 20


 497:/Applications/ArmGNUToolchain/14.2.rel1/arm-none-eabi/arm-none-eabi/include/c++/14.2.1/bits/stl_algobase.h **** 		   istreambuf_iterator<_CharT, char_traits<_CharT> >, _CharT*);
 498:/Applications/ArmGNUToolchain/14.2.rel1/arm-none-eabi/arm-none-eabi/include/c++/14.2.1/bits/stl_algobase.h **** 
 499:/Applications/ArmGNUToolchain/14.2.rel1/arm-none-eabi/arm-none-eabi/include/c++/14.2.1/bits/stl_algobase.h ****   template<bool _IsMove, typename _CharT>
 500:/Applications/ArmGNUToolchain/14.2.rel1/arm-none-eabi/arm-none-eabi/include/c++/14.2.1/bits/stl_algobase.h ****     typename __gnu_cxx::__enable_if<
 501:/Applications/ArmGNUToolchain/14.2.rel1/arm-none-eabi/arm-none-eabi/include/c++/14.2.1/bits/stl_algobase.h ****       __is_char<_CharT>::__value,
 502:/Applications/ArmGNUToolchain/14.2.rel1/arm-none-eabi/arm-none-eabi/include/c++/14.2.1/bits/stl_algobase.h ****       _GLIBCXX_STD_C::_Deque_iterator<_CharT, _CharT&, _CharT*> >::__type
 503:/Applications/ArmGNUToolchain/14.2.rel1/arm-none-eabi/arm-none-eabi/include/c++/14.2.1/bits/stl_algobase.h ****     __copy_move_a2(
 504:/Applications/ArmGNUToolchain/14.2.rel1/arm-none-eabi/arm-none-eabi/include/c++/14.2.1/bits/stl_algobase.h **** 	istreambuf_iterator<_CharT, char_traits<_CharT> >,
 505:/Applications/ArmGNUToolchain/14.2.rel1/arm-none-eabi/arm-none-eabi/include/c++/14.2.1/bits/stl_algobase.h **** 	istreambuf_iterator<_CharT, char_traits<_CharT> >,
 506:/Applications/ArmGNUToolchain/14.2.rel1/arm-none-eabi/arm-none-eabi/include/c++/14.2.1/bits/stl_algobase.h **** 	_GLIBCXX_STD_C::_Deque_iterator<_CharT, _CharT&, _CharT*>);
 507:/Applications/ArmGNUToolchain/14.2.rel1/arm-none-eabi/arm-none-eabi/include/c++/14.2.1/bits/stl_algobase.h **** #endif // HOSTED
 508:/Applications/ArmGNUToolchain/14.2.rel1/arm-none-eabi/arm-none-eabi/include/c++/14.2.1/bits/stl_algobase.h **** 
 509:/Applications/ArmGNUToolchain/14.2.rel1/arm-none-eabi/arm-none-eabi/include/c++/14.2.1/bits/stl_algobase.h ****   template<bool _IsMove, typename _II, typename _OI>
 510:/Applications/ArmGNUToolchain/14.2.rel1/arm-none-eabi/arm-none-eabi/include/c++/14.2.1/bits/stl_algobase.h ****     _GLIBCXX20_CONSTEXPR
 511:/Applications/ArmGNUToolchain/14.2.rel1/arm-none-eabi/arm-none-eabi/include/c++/14.2.1/bits/stl_algobase.h ****     inline _OI
 512:/Applications/ArmGNUToolchain/14.2.rel1/arm-none-eabi/arm-none-eabi/include/c++/14.2.1/bits/stl_algobase.h ****     __copy_move_a2(_II __first, _II __last, _OI __result)
 513:/Applications/ArmGNUToolchain/14.2.rel1/arm-none-eabi/arm-none-eabi/include/c++/14.2.1/bits/stl_algobase.h ****     {
 514:/Applications/ArmGNUToolchain/14.2.rel1/arm-none-eabi/arm-none-eabi/include/c++/14.2.1/bits/stl_algobase.h ****       typedef typename iterator_traits<_II>::iterator_category _Category;
 515:/Applications/ArmGNUToolchain/14.2.rel1/arm-none-eabi/arm-none-eabi/include/c++/14.2.1/bits/stl_algobase.h **** #ifdef __cpp_lib_is_constant_evaluated
 516:/Applications/ArmGNUToolchain/14.2.rel1/arm-none-eabi/arm-none-eabi/include/c++/14.2.1/bits/stl_algobase.h ****       if (std::is_constant_evaluated())
 517:/Applications/ArmGNUToolchain/14.2.rel1/arm-none-eabi/arm-none-eabi/include/c++/14.2.1/bits/stl_algobase.h **** 	return std::__copy_move<_IsMove, false, _Category>::
 518:/Applications/ArmGNUToolchain/14.2.rel1/arm-none-eabi/arm-none-eabi/include/c++/14.2.1/bits/stl_algobase.h **** 	  __copy_m(__first, __last, __result);
 519:/Applications/ArmGNUToolchain/14.2.rel1/arm-none-eabi/arm-none-eabi/include/c++/14.2.1/bits/stl_algobase.h **** #endif
 520:/Applications/ArmGNUToolchain/14.2.rel1/arm-none-eabi/arm-none-eabi/include/c++/14.2.1/bits/stl_algobase.h ****       return std::__copy_move<_IsMove, __memcpyable<_OI, _II>::__value,
 521:/Applications/ArmGNUToolchain/14.2.rel1/arm-none-eabi/arm-none-eabi/include/c++/14.2.1/bits/stl_algobase.h **** 			      _Category>::__copy_m(__first, __last, __result);
 522:/Applications/ArmGNUToolchain/14.2.rel1/arm-none-eabi/arm-none-eabi/include/c++/14.2.1/bits/stl_algobase.h ****     }
 523:/Applications/ArmGNUToolchain/14.2.rel1/arm-none-eabi/arm-none-eabi/include/c++/14.2.1/bits/stl_algobase.h **** 
 524:/Applications/ArmGNUToolchain/14.2.rel1/arm-none-eabi/arm-none-eabi/include/c++/14.2.1/bits/stl_algobase.h ****   template<bool _IsMove,
 525:/Applications/ArmGNUToolchain/14.2.rel1/arm-none-eabi/arm-none-eabi/include/c++/14.2.1/bits/stl_algobase.h **** 	   typename _Tp, typename _Ref, typename _Ptr, typename _OI>
 526:/Applications/ArmGNUToolchain/14.2.rel1/arm-none-eabi/arm-none-eabi/include/c++/14.2.1/bits/stl_algobase.h ****     _OI
 527:/Applications/ArmGNUToolchain/14.2.rel1/arm-none-eabi/arm-none-eabi/include/c++/14.2.1/bits/stl_algobase.h ****     __copy_move_a1(_GLIBCXX_STD_C::_Deque_iterator<_Tp, _Ref, _Ptr>,
 528:/Applications/ArmGNUToolchain/14.2.rel1/arm-none-eabi/arm-none-eabi/include/c++/14.2.1/bits/stl_algobase.h **** 		   _GLIBCXX_STD_C::_Deque_iterator<_Tp, _Ref, _Ptr>,
 529:/Applications/ArmGNUToolchain/14.2.rel1/arm-none-eabi/arm-none-eabi/include/c++/14.2.1/bits/stl_algobase.h **** 		   _OI);
 530:/Applications/ArmGNUToolchain/14.2.rel1/arm-none-eabi/arm-none-eabi/include/c++/14.2.1/bits/stl_algobase.h **** 
 531:/Applications/ArmGNUToolchain/14.2.rel1/arm-none-eabi/arm-none-eabi/include/c++/14.2.1/bits/stl_algobase.h ****   template<bool _IsMove,
 532:/Applications/ArmGNUToolchain/14.2.rel1/arm-none-eabi/arm-none-eabi/include/c++/14.2.1/bits/stl_algobase.h **** 	   typename _ITp, typename _IRef, typename _IPtr, typename _OTp>
 533:/Applications/ArmGNUToolchain/14.2.rel1/arm-none-eabi/arm-none-eabi/include/c++/14.2.1/bits/stl_algobase.h ****     _GLIBCXX_STD_C::_Deque_iterator<_OTp, _OTp&, _OTp*>
 534:/Applications/ArmGNUToolchain/14.2.rel1/arm-none-eabi/arm-none-eabi/include/c++/14.2.1/bits/stl_algobase.h ****     __copy_move_a1(_GLIBCXX_STD_C::_Deque_iterator<_ITp, _IRef, _IPtr>,
 535:/Applications/ArmGNUToolchain/14.2.rel1/arm-none-eabi/arm-none-eabi/include/c++/14.2.1/bits/stl_algobase.h **** 		   _GLIBCXX_STD_C::_Deque_iterator<_ITp, _IRef, _IPtr>,
 536:/Applications/ArmGNUToolchain/14.2.rel1/arm-none-eabi/arm-none-eabi/include/c++/14.2.1/bits/stl_algobase.h **** 		   _GLIBCXX_STD_C::_Deque_iterator<_OTp, _OTp&, _OTp*>);
 537:/Applications/ArmGNUToolchain/14.2.rel1/arm-none-eabi/arm-none-eabi/include/c++/14.2.1/bits/stl_algobase.h **** 
 538:/Applications/ArmGNUToolchain/14.2.rel1/arm-none-eabi/arm-none-eabi/include/c++/14.2.1/bits/stl_algobase.h ****   template<bool _IsMove, typename _II, typename _Tp>
 539:/Applications/ArmGNUToolchain/14.2.rel1/arm-none-eabi/arm-none-eabi/include/c++/14.2.1/bits/stl_algobase.h ****     typename __gnu_cxx::__enable_if<
 540:/Applications/ArmGNUToolchain/14.2.rel1/arm-none-eabi/arm-none-eabi/include/c++/14.2.1/bits/stl_algobase.h ****       __is_random_access_iter<_II>::__value,
 541:/Applications/ArmGNUToolchain/14.2.rel1/arm-none-eabi/arm-none-eabi/include/c++/14.2.1/bits/stl_algobase.h ****       _GLIBCXX_STD_C::_Deque_iterator<_Tp, _Tp&, _Tp*> >::__type
 542:/Applications/ArmGNUToolchain/14.2.rel1/arm-none-eabi/arm-none-eabi/include/c++/14.2.1/bits/stl_algobase.h ****     __copy_move_a1(_II, _II, _GLIBCXX_STD_C::_Deque_iterator<_Tp, _Tp&, _Tp*>);
 543:/Applications/ArmGNUToolchain/14.2.rel1/arm-none-eabi/arm-none-eabi/include/c++/14.2.1/bits/stl_algobase.h **** 
 544:/Applications/ArmGNUToolchain/14.2.rel1/arm-none-eabi/arm-none-eabi/include/c++/14.2.1/bits/stl_algobase.h ****   template<bool _IsMove, typename _II, typename _OI>
 545:/Applications/ArmGNUToolchain/14.2.rel1/arm-none-eabi/arm-none-eabi/include/c++/14.2.1/bits/stl_algobase.h ****     _GLIBCXX20_CONSTEXPR
 546:/Applications/ArmGNUToolchain/14.2.rel1/arm-none-eabi/arm-none-eabi/include/c++/14.2.1/bits/stl_algobase.h ****     inline _OI
 547:/Applications/ArmGNUToolchain/14.2.rel1/arm-none-eabi/arm-none-eabi/include/c++/14.2.1/bits/stl_algobase.h ****     __copy_move_a1(_II __first, _II __last, _OI __result)
 548:/Applications/ArmGNUToolchain/14.2.rel1/arm-none-eabi/arm-none-eabi/include/c++/14.2.1/bits/stl_algobase.h ****     { return std::__copy_move_a2<_IsMove>(__first, __last, __result); }
 549:/Applications/ArmGNUToolchain/14.2.rel1/arm-none-eabi/arm-none-eabi/include/c++/14.2.1/bits/stl_algobase.h **** 
 550:/Applications/ArmGNUToolchain/14.2.rel1/arm-none-eabi/arm-none-eabi/include/c++/14.2.1/bits/stl_algobase.h ****   template<bool _IsMove, typename _II, typename _OI>
 551:/Applications/ArmGNUToolchain/14.2.rel1/arm-none-eabi/arm-none-eabi/include/c++/14.2.1/bits/stl_algobase.h ****     _GLIBCXX20_CONSTEXPR
 552:/Applications/ArmGNUToolchain/14.2.rel1/arm-none-eabi/arm-none-eabi/include/c++/14.2.1/bits/stl_algobase.h ****     inline _OI
 553:/Applications/ArmGNUToolchain/14.2.rel1/arm-none-eabi/arm-none-eabi/include/c++/14.2.1/bits/stl_algobase.h ****     __copy_move_a(_II __first, _II __last, _OI __result)
ARM GAS  /var/folders/y7/g6pkzsp12sx54x3s3mvyn15r0000gn/T//ccVTo1ct.s 			page 21


 554:/Applications/ArmGNUToolchain/14.2.rel1/arm-none-eabi/arm-none-eabi/include/c++/14.2.1/bits/stl_algobase.h ****     {
 555:/Applications/ArmGNUToolchain/14.2.rel1/arm-none-eabi/arm-none-eabi/include/c++/14.2.1/bits/stl_algobase.h ****       return std::__niter_wrap(__result,
 556:/Applications/ArmGNUToolchain/14.2.rel1/arm-none-eabi/arm-none-eabi/include/c++/14.2.1/bits/stl_algobase.h **** 		std::__copy_move_a1<_IsMove>(std::__niter_base(__first),
 557:/Applications/ArmGNUToolchain/14.2.rel1/arm-none-eabi/arm-none-eabi/include/c++/14.2.1/bits/stl_algobase.h **** 					     std::__niter_base(__last),
 558:/Applications/ArmGNUToolchain/14.2.rel1/arm-none-eabi/arm-none-eabi/include/c++/14.2.1/bits/stl_algobase.h **** 					     std::__niter_base(__result)));
 559:/Applications/ArmGNUToolchain/14.2.rel1/arm-none-eabi/arm-none-eabi/include/c++/14.2.1/bits/stl_algobase.h ****     }
 560:/Applications/ArmGNUToolchain/14.2.rel1/arm-none-eabi/arm-none-eabi/include/c++/14.2.1/bits/stl_algobase.h **** 
 561:/Applications/ArmGNUToolchain/14.2.rel1/arm-none-eabi/arm-none-eabi/include/c++/14.2.1/bits/stl_algobase.h ****   template<bool _IsMove,
 562:/Applications/ArmGNUToolchain/14.2.rel1/arm-none-eabi/arm-none-eabi/include/c++/14.2.1/bits/stl_algobase.h **** 	   typename _Ite, typename _Seq, typename _Cat, typename _OI>
 563:/Applications/ArmGNUToolchain/14.2.rel1/arm-none-eabi/arm-none-eabi/include/c++/14.2.1/bits/stl_algobase.h ****     _GLIBCXX20_CONSTEXPR
 564:/Applications/ArmGNUToolchain/14.2.rel1/arm-none-eabi/arm-none-eabi/include/c++/14.2.1/bits/stl_algobase.h ****     _OI
 565:/Applications/ArmGNUToolchain/14.2.rel1/arm-none-eabi/arm-none-eabi/include/c++/14.2.1/bits/stl_algobase.h ****     __copy_move_a(const ::__gnu_debug::_Safe_iterator<_Ite, _Seq, _Cat>&,
 566:/Applications/ArmGNUToolchain/14.2.rel1/arm-none-eabi/arm-none-eabi/include/c++/14.2.1/bits/stl_algobase.h **** 		  const ::__gnu_debug::_Safe_iterator<_Ite, _Seq, _Cat>&,
 567:/Applications/ArmGNUToolchain/14.2.rel1/arm-none-eabi/arm-none-eabi/include/c++/14.2.1/bits/stl_algobase.h **** 		  _OI);
 568:/Applications/ArmGNUToolchain/14.2.rel1/arm-none-eabi/arm-none-eabi/include/c++/14.2.1/bits/stl_algobase.h **** 
 569:/Applications/ArmGNUToolchain/14.2.rel1/arm-none-eabi/arm-none-eabi/include/c++/14.2.1/bits/stl_algobase.h ****   template<bool _IsMove,
 570:/Applications/ArmGNUToolchain/14.2.rel1/arm-none-eabi/arm-none-eabi/include/c++/14.2.1/bits/stl_algobase.h **** 	   typename _II, typename _Ite, typename _Seq, typename _Cat>
 571:/Applications/ArmGNUToolchain/14.2.rel1/arm-none-eabi/arm-none-eabi/include/c++/14.2.1/bits/stl_algobase.h ****     _GLIBCXX20_CONSTEXPR
 572:/Applications/ArmGNUToolchain/14.2.rel1/arm-none-eabi/arm-none-eabi/include/c++/14.2.1/bits/stl_algobase.h ****     __gnu_debug::_Safe_iterator<_Ite, _Seq, _Cat>
 573:/Applications/ArmGNUToolchain/14.2.rel1/arm-none-eabi/arm-none-eabi/include/c++/14.2.1/bits/stl_algobase.h ****     __copy_move_a(_II, _II,
 574:/Applications/ArmGNUToolchain/14.2.rel1/arm-none-eabi/arm-none-eabi/include/c++/14.2.1/bits/stl_algobase.h **** 		  const ::__gnu_debug::_Safe_iterator<_Ite, _Seq, _Cat>&);
 575:/Applications/ArmGNUToolchain/14.2.rel1/arm-none-eabi/arm-none-eabi/include/c++/14.2.1/bits/stl_algobase.h **** 
 576:/Applications/ArmGNUToolchain/14.2.rel1/arm-none-eabi/arm-none-eabi/include/c++/14.2.1/bits/stl_algobase.h ****   template<bool _IsMove,
 577:/Applications/ArmGNUToolchain/14.2.rel1/arm-none-eabi/arm-none-eabi/include/c++/14.2.1/bits/stl_algobase.h **** 	   typename _IIte, typename _ISeq, typename _ICat,
 578:/Applications/ArmGNUToolchain/14.2.rel1/arm-none-eabi/arm-none-eabi/include/c++/14.2.1/bits/stl_algobase.h **** 	   typename _OIte, typename _OSeq, typename _OCat>
 579:/Applications/ArmGNUToolchain/14.2.rel1/arm-none-eabi/arm-none-eabi/include/c++/14.2.1/bits/stl_algobase.h ****     _GLIBCXX20_CONSTEXPR
 580:/Applications/ArmGNUToolchain/14.2.rel1/arm-none-eabi/arm-none-eabi/include/c++/14.2.1/bits/stl_algobase.h ****     ::__gnu_debug::_Safe_iterator<_OIte, _OSeq, _OCat>
 581:/Applications/ArmGNUToolchain/14.2.rel1/arm-none-eabi/arm-none-eabi/include/c++/14.2.1/bits/stl_algobase.h ****     __copy_move_a(const ::__gnu_debug::_Safe_iterator<_IIte, _ISeq, _ICat>&,
 582:/Applications/ArmGNUToolchain/14.2.rel1/arm-none-eabi/arm-none-eabi/include/c++/14.2.1/bits/stl_algobase.h **** 		  const ::__gnu_debug::_Safe_iterator<_IIte, _ISeq, _ICat>&,
 583:/Applications/ArmGNUToolchain/14.2.rel1/arm-none-eabi/arm-none-eabi/include/c++/14.2.1/bits/stl_algobase.h **** 		  const ::__gnu_debug::_Safe_iterator<_OIte, _OSeq, _OCat>&);
 584:/Applications/ArmGNUToolchain/14.2.rel1/arm-none-eabi/arm-none-eabi/include/c++/14.2.1/bits/stl_algobase.h **** 
 585:/Applications/ArmGNUToolchain/14.2.rel1/arm-none-eabi/arm-none-eabi/include/c++/14.2.1/bits/stl_algobase.h ****   template<typename _InputIterator, typename _Size, typename _OutputIterator>
 586:/Applications/ArmGNUToolchain/14.2.rel1/arm-none-eabi/arm-none-eabi/include/c++/14.2.1/bits/stl_algobase.h ****     _GLIBCXX20_CONSTEXPR
 587:/Applications/ArmGNUToolchain/14.2.rel1/arm-none-eabi/arm-none-eabi/include/c++/14.2.1/bits/stl_algobase.h ****     _OutputIterator
 588:/Applications/ArmGNUToolchain/14.2.rel1/arm-none-eabi/arm-none-eabi/include/c++/14.2.1/bits/stl_algobase.h ****     __copy_n_a(_InputIterator __first, _Size __n, _OutputIterator __result,
 589:/Applications/ArmGNUToolchain/14.2.rel1/arm-none-eabi/arm-none-eabi/include/c++/14.2.1/bits/stl_algobase.h **** 	       bool)
 590:/Applications/ArmGNUToolchain/14.2.rel1/arm-none-eabi/arm-none-eabi/include/c++/14.2.1/bits/stl_algobase.h ****     {
 591:/Applications/ArmGNUToolchain/14.2.rel1/arm-none-eabi/arm-none-eabi/include/c++/14.2.1/bits/stl_algobase.h ****       if (__n > 0)
 592:/Applications/ArmGNUToolchain/14.2.rel1/arm-none-eabi/arm-none-eabi/include/c++/14.2.1/bits/stl_algobase.h **** 	{
 593:/Applications/ArmGNUToolchain/14.2.rel1/arm-none-eabi/arm-none-eabi/include/c++/14.2.1/bits/stl_algobase.h **** 	  while (true)
 594:/Applications/ArmGNUToolchain/14.2.rel1/arm-none-eabi/arm-none-eabi/include/c++/14.2.1/bits/stl_algobase.h **** 	    {
 595:/Applications/ArmGNUToolchain/14.2.rel1/arm-none-eabi/arm-none-eabi/include/c++/14.2.1/bits/stl_algobase.h **** 	      *__result = *__first;
 596:/Applications/ArmGNUToolchain/14.2.rel1/arm-none-eabi/arm-none-eabi/include/c++/14.2.1/bits/stl_algobase.h **** 	      ++__result;
 597:/Applications/ArmGNUToolchain/14.2.rel1/arm-none-eabi/arm-none-eabi/include/c++/14.2.1/bits/stl_algobase.h **** 	      if (--__n > 0)
 598:/Applications/ArmGNUToolchain/14.2.rel1/arm-none-eabi/arm-none-eabi/include/c++/14.2.1/bits/stl_algobase.h **** 		++__first;
 599:/Applications/ArmGNUToolchain/14.2.rel1/arm-none-eabi/arm-none-eabi/include/c++/14.2.1/bits/stl_algobase.h **** 	      else
 600:/Applications/ArmGNUToolchain/14.2.rel1/arm-none-eabi/arm-none-eabi/include/c++/14.2.1/bits/stl_algobase.h **** 		break;
 601:/Applications/ArmGNUToolchain/14.2.rel1/arm-none-eabi/arm-none-eabi/include/c++/14.2.1/bits/stl_algobase.h **** 	    }
 602:/Applications/ArmGNUToolchain/14.2.rel1/arm-none-eabi/arm-none-eabi/include/c++/14.2.1/bits/stl_algobase.h **** 	}
 603:/Applications/ArmGNUToolchain/14.2.rel1/arm-none-eabi/arm-none-eabi/include/c++/14.2.1/bits/stl_algobase.h ****       return __result;
 604:/Applications/ArmGNUToolchain/14.2.rel1/arm-none-eabi/arm-none-eabi/include/c++/14.2.1/bits/stl_algobase.h ****     }
 605:/Applications/ArmGNUToolchain/14.2.rel1/arm-none-eabi/arm-none-eabi/include/c++/14.2.1/bits/stl_algobase.h **** 
 606:/Applications/ArmGNUToolchain/14.2.rel1/arm-none-eabi/arm-none-eabi/include/c++/14.2.1/bits/stl_algobase.h **** #if _GLIBCXX_HOSTED
 607:/Applications/ArmGNUToolchain/14.2.rel1/arm-none-eabi/arm-none-eabi/include/c++/14.2.1/bits/stl_algobase.h ****   template<typename _CharT, typename _Size>
 608:/Applications/ArmGNUToolchain/14.2.rel1/arm-none-eabi/arm-none-eabi/include/c++/14.2.1/bits/stl_algobase.h ****     typename __gnu_cxx::__enable_if<
 609:/Applications/ArmGNUToolchain/14.2.rel1/arm-none-eabi/arm-none-eabi/include/c++/14.2.1/bits/stl_algobase.h ****       __is_char<_CharT>::__value, _CharT*>::__type
 610:/Applications/ArmGNUToolchain/14.2.rel1/arm-none-eabi/arm-none-eabi/include/c++/14.2.1/bits/stl_algobase.h ****     __copy_n_a(istreambuf_iterator<_CharT, char_traits<_CharT> >,
ARM GAS  /var/folders/y7/g6pkzsp12sx54x3s3mvyn15r0000gn/T//ccVTo1ct.s 			page 22


 611:/Applications/ArmGNUToolchain/14.2.rel1/arm-none-eabi/arm-none-eabi/include/c++/14.2.1/bits/stl_algobase.h **** 	       _Size, _CharT*, bool);
 612:/Applications/ArmGNUToolchain/14.2.rel1/arm-none-eabi/arm-none-eabi/include/c++/14.2.1/bits/stl_algobase.h **** 
 613:/Applications/ArmGNUToolchain/14.2.rel1/arm-none-eabi/arm-none-eabi/include/c++/14.2.1/bits/stl_algobase.h ****   template<typename _CharT, typename _Size>
 614:/Applications/ArmGNUToolchain/14.2.rel1/arm-none-eabi/arm-none-eabi/include/c++/14.2.1/bits/stl_algobase.h ****     typename __gnu_cxx::__enable_if<
 615:/Applications/ArmGNUToolchain/14.2.rel1/arm-none-eabi/arm-none-eabi/include/c++/14.2.1/bits/stl_algobase.h ****       __is_char<_CharT>::__value,
 616:/Applications/ArmGNUToolchain/14.2.rel1/arm-none-eabi/arm-none-eabi/include/c++/14.2.1/bits/stl_algobase.h ****       _GLIBCXX_STD_C::_Deque_iterator<_CharT, _CharT&, _CharT*> >::__type
 617:/Applications/ArmGNUToolchain/14.2.rel1/arm-none-eabi/arm-none-eabi/include/c++/14.2.1/bits/stl_algobase.h ****     __copy_n_a(istreambuf_iterator<_CharT, char_traits<_CharT> >, _Size,
 618:/Applications/ArmGNUToolchain/14.2.rel1/arm-none-eabi/arm-none-eabi/include/c++/14.2.1/bits/stl_algobase.h **** 	       _GLIBCXX_STD_C::_Deque_iterator<_CharT, _CharT&, _CharT*>,
 619:/Applications/ArmGNUToolchain/14.2.rel1/arm-none-eabi/arm-none-eabi/include/c++/14.2.1/bits/stl_algobase.h **** 	       bool);
 620:/Applications/ArmGNUToolchain/14.2.rel1/arm-none-eabi/arm-none-eabi/include/c++/14.2.1/bits/stl_algobase.h **** #endif
 621:/Applications/ArmGNUToolchain/14.2.rel1/arm-none-eabi/arm-none-eabi/include/c++/14.2.1/bits/stl_algobase.h **** 
 622:/Applications/ArmGNUToolchain/14.2.rel1/arm-none-eabi/arm-none-eabi/include/c++/14.2.1/bits/stl_algobase.h ****   /**
 623:/Applications/ArmGNUToolchain/14.2.rel1/arm-none-eabi/arm-none-eabi/include/c++/14.2.1/bits/stl_algobase.h ****    *  @brief Copies the range [first,last) into result.
 624:/Applications/ArmGNUToolchain/14.2.rel1/arm-none-eabi/arm-none-eabi/include/c++/14.2.1/bits/stl_algobase.h ****    *  @ingroup mutating_algorithms
 625:/Applications/ArmGNUToolchain/14.2.rel1/arm-none-eabi/arm-none-eabi/include/c++/14.2.1/bits/stl_algobase.h ****    *  @param  __first  An input iterator.
 626:/Applications/ArmGNUToolchain/14.2.rel1/arm-none-eabi/arm-none-eabi/include/c++/14.2.1/bits/stl_algobase.h ****    *  @param  __last   An input iterator.
 627:/Applications/ArmGNUToolchain/14.2.rel1/arm-none-eabi/arm-none-eabi/include/c++/14.2.1/bits/stl_algobase.h ****    *  @param  __result An output iterator.
 628:/Applications/ArmGNUToolchain/14.2.rel1/arm-none-eabi/arm-none-eabi/include/c++/14.2.1/bits/stl_algobase.h ****    *  @return   result + (last - first)
 629:/Applications/ArmGNUToolchain/14.2.rel1/arm-none-eabi/arm-none-eabi/include/c++/14.2.1/bits/stl_algobase.h ****    *
 630:/Applications/ArmGNUToolchain/14.2.rel1/arm-none-eabi/arm-none-eabi/include/c++/14.2.1/bits/stl_algobase.h ****    *  This inline function will boil down to a call to @c memmove whenever
 631:/Applications/ArmGNUToolchain/14.2.rel1/arm-none-eabi/arm-none-eabi/include/c++/14.2.1/bits/stl_algobase.h ****    *  possible.  Failing that, if random access iterators are passed, then the
 632:/Applications/ArmGNUToolchain/14.2.rel1/arm-none-eabi/arm-none-eabi/include/c++/14.2.1/bits/stl_algobase.h ****    *  loop count will be known (and therefore a candidate for compiler
 633:/Applications/ArmGNUToolchain/14.2.rel1/arm-none-eabi/arm-none-eabi/include/c++/14.2.1/bits/stl_algobase.h ****    *  optimizations such as unrolling).  Result may not be contained within
 634:/Applications/ArmGNUToolchain/14.2.rel1/arm-none-eabi/arm-none-eabi/include/c++/14.2.1/bits/stl_algobase.h ****    *  [first,last); the copy_backward function should be used instead.
 635:/Applications/ArmGNUToolchain/14.2.rel1/arm-none-eabi/arm-none-eabi/include/c++/14.2.1/bits/stl_algobase.h ****    *
 636:/Applications/ArmGNUToolchain/14.2.rel1/arm-none-eabi/arm-none-eabi/include/c++/14.2.1/bits/stl_algobase.h ****    *  Note that the end of the output range is permitted to be contained
 637:/Applications/ArmGNUToolchain/14.2.rel1/arm-none-eabi/arm-none-eabi/include/c++/14.2.1/bits/stl_algobase.h ****    *  within [first,last).
 638:/Applications/ArmGNUToolchain/14.2.rel1/arm-none-eabi/arm-none-eabi/include/c++/14.2.1/bits/stl_algobase.h ****   */
 639:/Applications/ArmGNUToolchain/14.2.rel1/arm-none-eabi/arm-none-eabi/include/c++/14.2.1/bits/stl_algobase.h ****   template<typename _II, typename _OI>
 640:/Applications/ArmGNUToolchain/14.2.rel1/arm-none-eabi/arm-none-eabi/include/c++/14.2.1/bits/stl_algobase.h ****     _GLIBCXX20_CONSTEXPR
 641:/Applications/ArmGNUToolchain/14.2.rel1/arm-none-eabi/arm-none-eabi/include/c++/14.2.1/bits/stl_algobase.h ****     inline _OI
 642:/Applications/ArmGNUToolchain/14.2.rel1/arm-none-eabi/arm-none-eabi/include/c++/14.2.1/bits/stl_algobase.h ****     copy(_II __first, _II __last, _OI __result)
 643:/Applications/ArmGNUToolchain/14.2.rel1/arm-none-eabi/arm-none-eabi/include/c++/14.2.1/bits/stl_algobase.h ****     {
 644:/Applications/ArmGNUToolchain/14.2.rel1/arm-none-eabi/arm-none-eabi/include/c++/14.2.1/bits/stl_algobase.h ****       // concept requirements
 645:/Applications/ArmGNUToolchain/14.2.rel1/arm-none-eabi/arm-none-eabi/include/c++/14.2.1/bits/stl_algobase.h ****       __glibcxx_function_requires(_InputIteratorConcept<_II>)
 646:/Applications/ArmGNUToolchain/14.2.rel1/arm-none-eabi/arm-none-eabi/include/c++/14.2.1/bits/stl_algobase.h ****       __glibcxx_function_requires(_OutputIteratorConcept<_OI,
 647:/Applications/ArmGNUToolchain/14.2.rel1/arm-none-eabi/arm-none-eabi/include/c++/14.2.1/bits/stl_algobase.h **** 	    typename iterator_traits<_II>::reference>)
 648:/Applications/ArmGNUToolchain/14.2.rel1/arm-none-eabi/arm-none-eabi/include/c++/14.2.1/bits/stl_algobase.h ****       __glibcxx_requires_can_increment_range(__first, __last, __result);
 649:/Applications/ArmGNUToolchain/14.2.rel1/arm-none-eabi/arm-none-eabi/include/c++/14.2.1/bits/stl_algobase.h **** 
 650:/Applications/ArmGNUToolchain/14.2.rel1/arm-none-eabi/arm-none-eabi/include/c++/14.2.1/bits/stl_algobase.h ****       return std::__copy_move_a<__is_move_iterator<_II>::__value>
 651:/Applications/ArmGNUToolchain/14.2.rel1/arm-none-eabi/arm-none-eabi/include/c++/14.2.1/bits/stl_algobase.h **** 	     (std::__miter_base(__first), std::__miter_base(__last), __result);
 652:/Applications/ArmGNUToolchain/14.2.rel1/arm-none-eabi/arm-none-eabi/include/c++/14.2.1/bits/stl_algobase.h ****     }
 653:/Applications/ArmGNUToolchain/14.2.rel1/arm-none-eabi/arm-none-eabi/include/c++/14.2.1/bits/stl_algobase.h **** 
 654:/Applications/ArmGNUToolchain/14.2.rel1/arm-none-eabi/arm-none-eabi/include/c++/14.2.1/bits/stl_algobase.h **** #if __cplusplus >= 201103L
 655:/Applications/ArmGNUToolchain/14.2.rel1/arm-none-eabi/arm-none-eabi/include/c++/14.2.1/bits/stl_algobase.h ****   /**
 656:/Applications/ArmGNUToolchain/14.2.rel1/arm-none-eabi/arm-none-eabi/include/c++/14.2.1/bits/stl_algobase.h ****    *  @brief Moves the range [first,last) into result.
 657:/Applications/ArmGNUToolchain/14.2.rel1/arm-none-eabi/arm-none-eabi/include/c++/14.2.1/bits/stl_algobase.h ****    *  @ingroup mutating_algorithms
 658:/Applications/ArmGNUToolchain/14.2.rel1/arm-none-eabi/arm-none-eabi/include/c++/14.2.1/bits/stl_algobase.h ****    *  @param  __first  An input iterator.
 659:/Applications/ArmGNUToolchain/14.2.rel1/arm-none-eabi/arm-none-eabi/include/c++/14.2.1/bits/stl_algobase.h ****    *  @param  __last   An input iterator.
 660:/Applications/ArmGNUToolchain/14.2.rel1/arm-none-eabi/arm-none-eabi/include/c++/14.2.1/bits/stl_algobase.h ****    *  @param  __result An output iterator.
 661:/Applications/ArmGNUToolchain/14.2.rel1/arm-none-eabi/arm-none-eabi/include/c++/14.2.1/bits/stl_algobase.h ****    *  @return   result + (last - first)
 662:/Applications/ArmGNUToolchain/14.2.rel1/arm-none-eabi/arm-none-eabi/include/c++/14.2.1/bits/stl_algobase.h ****    *
 663:/Applications/ArmGNUToolchain/14.2.rel1/arm-none-eabi/arm-none-eabi/include/c++/14.2.1/bits/stl_algobase.h ****    *  This inline function will boil down to a call to @c memmove whenever
 664:/Applications/ArmGNUToolchain/14.2.rel1/arm-none-eabi/arm-none-eabi/include/c++/14.2.1/bits/stl_algobase.h ****    *  possible.  Failing that, if random access iterators are passed, then the
 665:/Applications/ArmGNUToolchain/14.2.rel1/arm-none-eabi/arm-none-eabi/include/c++/14.2.1/bits/stl_algobase.h ****    *  loop count will be known (and therefore a candidate for compiler
 666:/Applications/ArmGNUToolchain/14.2.rel1/arm-none-eabi/arm-none-eabi/include/c++/14.2.1/bits/stl_algobase.h ****    *  optimizations such as unrolling).  Result may not be contained within
 667:/Applications/ArmGNUToolchain/14.2.rel1/arm-none-eabi/arm-none-eabi/include/c++/14.2.1/bits/stl_algobase.h ****    *  [first,last); the move_backward function should be used instead.
ARM GAS  /var/folders/y7/g6pkzsp12sx54x3s3mvyn15r0000gn/T//ccVTo1ct.s 			page 23


 668:/Applications/ArmGNUToolchain/14.2.rel1/arm-none-eabi/arm-none-eabi/include/c++/14.2.1/bits/stl_algobase.h ****    *
 669:/Applications/ArmGNUToolchain/14.2.rel1/arm-none-eabi/arm-none-eabi/include/c++/14.2.1/bits/stl_algobase.h ****    *  Note that the end of the output range is permitted to be contained
 670:/Applications/ArmGNUToolchain/14.2.rel1/arm-none-eabi/arm-none-eabi/include/c++/14.2.1/bits/stl_algobase.h ****    *  within [first,last).
 671:/Applications/ArmGNUToolchain/14.2.rel1/arm-none-eabi/arm-none-eabi/include/c++/14.2.1/bits/stl_algobase.h ****   */
 672:/Applications/ArmGNUToolchain/14.2.rel1/arm-none-eabi/arm-none-eabi/include/c++/14.2.1/bits/stl_algobase.h ****   template<typename _II, typename _OI>
 673:/Applications/ArmGNUToolchain/14.2.rel1/arm-none-eabi/arm-none-eabi/include/c++/14.2.1/bits/stl_algobase.h ****     _GLIBCXX20_CONSTEXPR
 674:/Applications/ArmGNUToolchain/14.2.rel1/arm-none-eabi/arm-none-eabi/include/c++/14.2.1/bits/stl_algobase.h ****     inline _OI
 675:/Applications/ArmGNUToolchain/14.2.rel1/arm-none-eabi/arm-none-eabi/include/c++/14.2.1/bits/stl_algobase.h ****     move(_II __first, _II __last, _OI __result)
 676:/Applications/ArmGNUToolchain/14.2.rel1/arm-none-eabi/arm-none-eabi/include/c++/14.2.1/bits/stl_algobase.h ****     {
 677:/Applications/ArmGNUToolchain/14.2.rel1/arm-none-eabi/arm-none-eabi/include/c++/14.2.1/bits/stl_algobase.h ****       // concept requirements
 678:/Applications/ArmGNUToolchain/14.2.rel1/arm-none-eabi/arm-none-eabi/include/c++/14.2.1/bits/stl_algobase.h ****       __glibcxx_function_requires(_InputIteratorConcept<_II>)
 679:/Applications/ArmGNUToolchain/14.2.rel1/arm-none-eabi/arm-none-eabi/include/c++/14.2.1/bits/stl_algobase.h ****       __glibcxx_function_requires(_OutputIteratorConcept<_OI,
 680:/Applications/ArmGNUToolchain/14.2.rel1/arm-none-eabi/arm-none-eabi/include/c++/14.2.1/bits/stl_algobase.h **** 	    typename iterator_traits<_II>::value_type&&>)
 681:/Applications/ArmGNUToolchain/14.2.rel1/arm-none-eabi/arm-none-eabi/include/c++/14.2.1/bits/stl_algobase.h ****       __glibcxx_requires_can_increment_range(__first, __last, __result);
 682:/Applications/ArmGNUToolchain/14.2.rel1/arm-none-eabi/arm-none-eabi/include/c++/14.2.1/bits/stl_algobase.h **** 
 683:/Applications/ArmGNUToolchain/14.2.rel1/arm-none-eabi/arm-none-eabi/include/c++/14.2.1/bits/stl_algobase.h ****       return std::__copy_move_a<true>(std::__miter_base(__first),
 684:/Applications/ArmGNUToolchain/14.2.rel1/arm-none-eabi/arm-none-eabi/include/c++/14.2.1/bits/stl_algobase.h **** 				      std::__miter_base(__last), __result);
 685:/Applications/ArmGNUToolchain/14.2.rel1/arm-none-eabi/arm-none-eabi/include/c++/14.2.1/bits/stl_algobase.h ****     }
 686:/Applications/ArmGNUToolchain/14.2.rel1/arm-none-eabi/arm-none-eabi/include/c++/14.2.1/bits/stl_algobase.h **** 
 687:/Applications/ArmGNUToolchain/14.2.rel1/arm-none-eabi/arm-none-eabi/include/c++/14.2.1/bits/stl_algobase.h **** #define _GLIBCXX_MOVE3(_Tp, _Up, _Vp) std::move(_Tp, _Up, _Vp)
 688:/Applications/ArmGNUToolchain/14.2.rel1/arm-none-eabi/arm-none-eabi/include/c++/14.2.1/bits/stl_algobase.h **** #else
 689:/Applications/ArmGNUToolchain/14.2.rel1/arm-none-eabi/arm-none-eabi/include/c++/14.2.1/bits/stl_algobase.h **** #define _GLIBCXX_MOVE3(_Tp, _Up, _Vp) std::copy(_Tp, _Up, _Vp)
 690:/Applications/ArmGNUToolchain/14.2.rel1/arm-none-eabi/arm-none-eabi/include/c++/14.2.1/bits/stl_algobase.h **** #endif
 691:/Applications/ArmGNUToolchain/14.2.rel1/arm-none-eabi/arm-none-eabi/include/c++/14.2.1/bits/stl_algobase.h **** 
 692:/Applications/ArmGNUToolchain/14.2.rel1/arm-none-eabi/arm-none-eabi/include/c++/14.2.1/bits/stl_algobase.h ****   template<bool _IsMove, bool _IsSimple, typename _Category>
 693:/Applications/ArmGNUToolchain/14.2.rel1/arm-none-eabi/arm-none-eabi/include/c++/14.2.1/bits/stl_algobase.h ****     struct __copy_move_backward
 694:/Applications/ArmGNUToolchain/14.2.rel1/arm-none-eabi/arm-none-eabi/include/c++/14.2.1/bits/stl_algobase.h ****     {
 695:/Applications/ArmGNUToolchain/14.2.rel1/arm-none-eabi/arm-none-eabi/include/c++/14.2.1/bits/stl_algobase.h ****       template<typename _BI1, typename _BI2>
 696:/Applications/ArmGNUToolchain/14.2.rel1/arm-none-eabi/arm-none-eabi/include/c++/14.2.1/bits/stl_algobase.h **** 	_GLIBCXX20_CONSTEXPR
 697:/Applications/ArmGNUToolchain/14.2.rel1/arm-none-eabi/arm-none-eabi/include/c++/14.2.1/bits/stl_algobase.h **** 	static _BI2
 698:/Applications/ArmGNUToolchain/14.2.rel1/arm-none-eabi/arm-none-eabi/include/c++/14.2.1/bits/stl_algobase.h **** 	__copy_move_b(_BI1 __first, _BI1 __last, _BI2 __result)
 699:/Applications/ArmGNUToolchain/14.2.rel1/arm-none-eabi/arm-none-eabi/include/c++/14.2.1/bits/stl_algobase.h **** 	{
 700:/Applications/ArmGNUToolchain/14.2.rel1/arm-none-eabi/arm-none-eabi/include/c++/14.2.1/bits/stl_algobase.h **** 	  while (__first != __last)
 701:/Applications/ArmGNUToolchain/14.2.rel1/arm-none-eabi/arm-none-eabi/include/c++/14.2.1/bits/stl_algobase.h **** 	    *--__result = *--__last;
 702:/Applications/ArmGNUToolchain/14.2.rel1/arm-none-eabi/arm-none-eabi/include/c++/14.2.1/bits/stl_algobase.h **** 	  return __result;
 703:/Applications/ArmGNUToolchain/14.2.rel1/arm-none-eabi/arm-none-eabi/include/c++/14.2.1/bits/stl_algobase.h **** 	}
 704:/Applications/ArmGNUToolchain/14.2.rel1/arm-none-eabi/arm-none-eabi/include/c++/14.2.1/bits/stl_algobase.h ****     };
 705:/Applications/ArmGNUToolchain/14.2.rel1/arm-none-eabi/arm-none-eabi/include/c++/14.2.1/bits/stl_algobase.h **** 
 706:/Applications/ArmGNUToolchain/14.2.rel1/arm-none-eabi/arm-none-eabi/include/c++/14.2.1/bits/stl_algobase.h **** #if __cplusplus >= 201103L
 707:/Applications/ArmGNUToolchain/14.2.rel1/arm-none-eabi/arm-none-eabi/include/c++/14.2.1/bits/stl_algobase.h ****   template<typename _Category>
 708:/Applications/ArmGNUToolchain/14.2.rel1/arm-none-eabi/arm-none-eabi/include/c++/14.2.1/bits/stl_algobase.h ****     struct __copy_move_backward<true, false, _Category>
 709:/Applications/ArmGNUToolchain/14.2.rel1/arm-none-eabi/arm-none-eabi/include/c++/14.2.1/bits/stl_algobase.h ****     {
 710:/Applications/ArmGNUToolchain/14.2.rel1/arm-none-eabi/arm-none-eabi/include/c++/14.2.1/bits/stl_algobase.h ****       template<typename _BI1, typename _BI2>
 711:/Applications/ArmGNUToolchain/14.2.rel1/arm-none-eabi/arm-none-eabi/include/c++/14.2.1/bits/stl_algobase.h **** 	_GLIBCXX20_CONSTEXPR
 712:/Applications/ArmGNUToolchain/14.2.rel1/arm-none-eabi/arm-none-eabi/include/c++/14.2.1/bits/stl_algobase.h **** 	static _BI2
 713:/Applications/ArmGNUToolchain/14.2.rel1/arm-none-eabi/arm-none-eabi/include/c++/14.2.1/bits/stl_algobase.h **** 	__copy_move_b(_BI1 __first, _BI1 __last, _BI2 __result)
 714:/Applications/ArmGNUToolchain/14.2.rel1/arm-none-eabi/arm-none-eabi/include/c++/14.2.1/bits/stl_algobase.h **** 	{
 715:/Applications/ArmGNUToolchain/14.2.rel1/arm-none-eabi/arm-none-eabi/include/c++/14.2.1/bits/stl_algobase.h **** 	  while (__first != __last)
 716:/Applications/ArmGNUToolchain/14.2.rel1/arm-none-eabi/arm-none-eabi/include/c++/14.2.1/bits/stl_algobase.h **** 	    *--__result = std::move(*--__last);
 717:/Applications/ArmGNUToolchain/14.2.rel1/arm-none-eabi/arm-none-eabi/include/c++/14.2.1/bits/stl_algobase.h **** 	  return __result;
 718:/Applications/ArmGNUToolchain/14.2.rel1/arm-none-eabi/arm-none-eabi/include/c++/14.2.1/bits/stl_algobase.h **** 	}
 719:/Applications/ArmGNUToolchain/14.2.rel1/arm-none-eabi/arm-none-eabi/include/c++/14.2.1/bits/stl_algobase.h ****     };
 720:/Applications/ArmGNUToolchain/14.2.rel1/arm-none-eabi/arm-none-eabi/include/c++/14.2.1/bits/stl_algobase.h **** #endif
 721:/Applications/ArmGNUToolchain/14.2.rel1/arm-none-eabi/arm-none-eabi/include/c++/14.2.1/bits/stl_algobase.h **** 
 722:/Applications/ArmGNUToolchain/14.2.rel1/arm-none-eabi/arm-none-eabi/include/c++/14.2.1/bits/stl_algobase.h ****   template<>
 723:/Applications/ArmGNUToolchain/14.2.rel1/arm-none-eabi/arm-none-eabi/include/c++/14.2.1/bits/stl_algobase.h ****     struct __copy_move_backward<false, false, random_access_iterator_tag>
 724:/Applications/ArmGNUToolchain/14.2.rel1/arm-none-eabi/arm-none-eabi/include/c++/14.2.1/bits/stl_algobase.h ****     {
ARM GAS  /var/folders/y7/g6pkzsp12sx54x3s3mvyn15r0000gn/T//ccVTo1ct.s 			page 24


 725:/Applications/ArmGNUToolchain/14.2.rel1/arm-none-eabi/arm-none-eabi/include/c++/14.2.1/bits/stl_algobase.h ****       template<typename _BI1, typename _BI2>
 726:/Applications/ArmGNUToolchain/14.2.rel1/arm-none-eabi/arm-none-eabi/include/c++/14.2.1/bits/stl_algobase.h **** 	_GLIBCXX20_CONSTEXPR
 727:/Applications/ArmGNUToolchain/14.2.rel1/arm-none-eabi/arm-none-eabi/include/c++/14.2.1/bits/stl_algobase.h **** 	static _BI2
 728:/Applications/ArmGNUToolchain/14.2.rel1/arm-none-eabi/arm-none-eabi/include/c++/14.2.1/bits/stl_algobase.h **** 	__copy_move_b(_BI1 __first, _BI1 __last, _BI2 __result)
 729:/Applications/ArmGNUToolchain/14.2.rel1/arm-none-eabi/arm-none-eabi/include/c++/14.2.1/bits/stl_algobase.h **** 	{
 730:/Applications/ArmGNUToolchain/14.2.rel1/arm-none-eabi/arm-none-eabi/include/c++/14.2.1/bits/stl_algobase.h **** 	  typename iterator_traits<_BI1>::difference_type
 731:/Applications/ArmGNUToolchain/14.2.rel1/arm-none-eabi/arm-none-eabi/include/c++/14.2.1/bits/stl_algobase.h **** 	    __n = __last - __first;
 732:/Applications/ArmGNUToolchain/14.2.rel1/arm-none-eabi/arm-none-eabi/include/c++/14.2.1/bits/stl_algobase.h **** 	  for (; __n > 0; --__n)
 733:/Applications/ArmGNUToolchain/14.2.rel1/arm-none-eabi/arm-none-eabi/include/c++/14.2.1/bits/stl_algobase.h **** 	    *--__result = *--__last;
 734:/Applications/ArmGNUToolchain/14.2.rel1/arm-none-eabi/arm-none-eabi/include/c++/14.2.1/bits/stl_algobase.h **** 	  return __result;
 735:/Applications/ArmGNUToolchain/14.2.rel1/arm-none-eabi/arm-none-eabi/include/c++/14.2.1/bits/stl_algobase.h **** 	}
 736:/Applications/ArmGNUToolchain/14.2.rel1/arm-none-eabi/arm-none-eabi/include/c++/14.2.1/bits/stl_algobase.h ****     };
 737:/Applications/ArmGNUToolchain/14.2.rel1/arm-none-eabi/arm-none-eabi/include/c++/14.2.1/bits/stl_algobase.h **** 
 738:/Applications/ArmGNUToolchain/14.2.rel1/arm-none-eabi/arm-none-eabi/include/c++/14.2.1/bits/stl_algobase.h **** #if __cplusplus >= 201103L
 739:/Applications/ArmGNUToolchain/14.2.rel1/arm-none-eabi/arm-none-eabi/include/c++/14.2.1/bits/stl_algobase.h ****   template<>
 740:/Applications/ArmGNUToolchain/14.2.rel1/arm-none-eabi/arm-none-eabi/include/c++/14.2.1/bits/stl_algobase.h ****     struct __copy_move_backward<true, false, random_access_iterator_tag>
 741:/Applications/ArmGNUToolchain/14.2.rel1/arm-none-eabi/arm-none-eabi/include/c++/14.2.1/bits/stl_algobase.h ****     {
 742:/Applications/ArmGNUToolchain/14.2.rel1/arm-none-eabi/arm-none-eabi/include/c++/14.2.1/bits/stl_algobase.h ****       template<typename _BI1, typename _BI2>
 743:/Applications/ArmGNUToolchain/14.2.rel1/arm-none-eabi/arm-none-eabi/include/c++/14.2.1/bits/stl_algobase.h **** 	_GLIBCXX20_CONSTEXPR
 744:/Applications/ArmGNUToolchain/14.2.rel1/arm-none-eabi/arm-none-eabi/include/c++/14.2.1/bits/stl_algobase.h **** 	static _BI2
 745:/Applications/ArmGNUToolchain/14.2.rel1/arm-none-eabi/arm-none-eabi/include/c++/14.2.1/bits/stl_algobase.h **** 	__copy_move_b(_BI1 __first, _BI1 __last, _BI2 __result)
 746:/Applications/ArmGNUToolchain/14.2.rel1/arm-none-eabi/arm-none-eabi/include/c++/14.2.1/bits/stl_algobase.h **** 	{
 747:/Applications/ArmGNUToolchain/14.2.rel1/arm-none-eabi/arm-none-eabi/include/c++/14.2.1/bits/stl_algobase.h **** 	  typename iterator_traits<_BI1>::difference_type
 748:/Applications/ArmGNUToolchain/14.2.rel1/arm-none-eabi/arm-none-eabi/include/c++/14.2.1/bits/stl_algobase.h **** 	    __n = __last - __first;
 749:/Applications/ArmGNUToolchain/14.2.rel1/arm-none-eabi/arm-none-eabi/include/c++/14.2.1/bits/stl_algobase.h **** 	  for (; __n > 0; --__n)
 750:/Applications/ArmGNUToolchain/14.2.rel1/arm-none-eabi/arm-none-eabi/include/c++/14.2.1/bits/stl_algobase.h **** 	    *--__result = std::move(*--__last);
 751:/Applications/ArmGNUToolchain/14.2.rel1/arm-none-eabi/arm-none-eabi/include/c++/14.2.1/bits/stl_algobase.h **** 	  return __result;
 752:/Applications/ArmGNUToolchain/14.2.rel1/arm-none-eabi/arm-none-eabi/include/c++/14.2.1/bits/stl_algobase.h **** 	}
 753:/Applications/ArmGNUToolchain/14.2.rel1/arm-none-eabi/arm-none-eabi/include/c++/14.2.1/bits/stl_algobase.h ****     };
 754:/Applications/ArmGNUToolchain/14.2.rel1/arm-none-eabi/arm-none-eabi/include/c++/14.2.1/bits/stl_algobase.h **** #endif
 755:/Applications/ArmGNUToolchain/14.2.rel1/arm-none-eabi/arm-none-eabi/include/c++/14.2.1/bits/stl_algobase.h **** 
 756:/Applications/ArmGNUToolchain/14.2.rel1/arm-none-eabi/arm-none-eabi/include/c++/14.2.1/bits/stl_algobase.h ****   template<bool _IsMove>
 757:/Applications/ArmGNUToolchain/14.2.rel1/arm-none-eabi/arm-none-eabi/include/c++/14.2.1/bits/stl_algobase.h ****     struct __copy_move_backward<_IsMove, true, random_access_iterator_tag>
 758:/Applications/ArmGNUToolchain/14.2.rel1/arm-none-eabi/arm-none-eabi/include/c++/14.2.1/bits/stl_algobase.h ****     {
 759:/Applications/ArmGNUToolchain/14.2.rel1/arm-none-eabi/arm-none-eabi/include/c++/14.2.1/bits/stl_algobase.h ****       template<typename _Tp, typename _Up>
 760:/Applications/ArmGNUToolchain/14.2.rel1/arm-none-eabi/arm-none-eabi/include/c++/14.2.1/bits/stl_algobase.h **** 	_GLIBCXX20_CONSTEXPR
 761:/Applications/ArmGNUToolchain/14.2.rel1/arm-none-eabi/arm-none-eabi/include/c++/14.2.1/bits/stl_algobase.h **** 	static _Up*
 762:/Applications/ArmGNUToolchain/14.2.rel1/arm-none-eabi/arm-none-eabi/include/c++/14.2.1/bits/stl_algobase.h **** 	__copy_move_b(_Tp* __first, _Tp* __last, _Up* __result)
 763:/Applications/ArmGNUToolchain/14.2.rel1/arm-none-eabi/arm-none-eabi/include/c++/14.2.1/bits/stl_algobase.h **** 	{
 764:/Applications/ArmGNUToolchain/14.2.rel1/arm-none-eabi/arm-none-eabi/include/c++/14.2.1/bits/stl_algobase.h **** 	  const ptrdiff_t _Num = __last - __first;
 765:/Applications/ArmGNUToolchain/14.2.rel1/arm-none-eabi/arm-none-eabi/include/c++/14.2.1/bits/stl_algobase.h **** 	  if (__builtin_expect(_Num > 1, true))
 766:/Applications/ArmGNUToolchain/14.2.rel1/arm-none-eabi/arm-none-eabi/include/c++/14.2.1/bits/stl_algobase.h **** 	    __builtin_memmove(__result - _Num, __first, sizeof(_Tp) * _Num);
 767:/Applications/ArmGNUToolchain/14.2.rel1/arm-none-eabi/arm-none-eabi/include/c++/14.2.1/bits/stl_algobase.h **** 	  else if (_Num == 1)
 768:/Applications/ArmGNUToolchain/14.2.rel1/arm-none-eabi/arm-none-eabi/include/c++/14.2.1/bits/stl_algobase.h **** 	    std::__copy_move<_IsMove, false, random_access_iterator_tag>::
 769:/Applications/ArmGNUToolchain/14.2.rel1/arm-none-eabi/arm-none-eabi/include/c++/14.2.1/bits/stl_algobase.h **** 	      __assign_one(__result - 1, __first);
 770:/Applications/ArmGNUToolchain/14.2.rel1/arm-none-eabi/arm-none-eabi/include/c++/14.2.1/bits/stl_algobase.h **** 	  return __result - _Num;
 771:/Applications/ArmGNUToolchain/14.2.rel1/arm-none-eabi/arm-none-eabi/include/c++/14.2.1/bits/stl_algobase.h **** 	}
 772:/Applications/ArmGNUToolchain/14.2.rel1/arm-none-eabi/arm-none-eabi/include/c++/14.2.1/bits/stl_algobase.h ****     };
 773:/Applications/ArmGNUToolchain/14.2.rel1/arm-none-eabi/arm-none-eabi/include/c++/14.2.1/bits/stl_algobase.h **** 
 774:/Applications/ArmGNUToolchain/14.2.rel1/arm-none-eabi/arm-none-eabi/include/c++/14.2.1/bits/stl_algobase.h ****   template<bool _IsMove, typename _BI1, typename _BI2>
 775:/Applications/ArmGNUToolchain/14.2.rel1/arm-none-eabi/arm-none-eabi/include/c++/14.2.1/bits/stl_algobase.h ****     _GLIBCXX20_CONSTEXPR
 776:/Applications/ArmGNUToolchain/14.2.rel1/arm-none-eabi/arm-none-eabi/include/c++/14.2.1/bits/stl_algobase.h ****     inline _BI2
 777:/Applications/ArmGNUToolchain/14.2.rel1/arm-none-eabi/arm-none-eabi/include/c++/14.2.1/bits/stl_algobase.h ****     __copy_move_backward_a2(_BI1 __first, _BI1 __last, _BI2 __result)
 778:/Applications/ArmGNUToolchain/14.2.rel1/arm-none-eabi/arm-none-eabi/include/c++/14.2.1/bits/stl_algobase.h ****     {
 779:/Applications/ArmGNUToolchain/14.2.rel1/arm-none-eabi/arm-none-eabi/include/c++/14.2.1/bits/stl_algobase.h ****       typedef typename iterator_traits<_BI1>::iterator_category _Category;
 780:/Applications/ArmGNUToolchain/14.2.rel1/arm-none-eabi/arm-none-eabi/include/c++/14.2.1/bits/stl_algobase.h **** #ifdef __cpp_lib_is_constant_evaluated
 781:/Applications/ArmGNUToolchain/14.2.rel1/arm-none-eabi/arm-none-eabi/include/c++/14.2.1/bits/stl_algobase.h ****       if (std::is_constant_evaluated())
ARM GAS  /var/folders/y7/g6pkzsp12sx54x3s3mvyn15r0000gn/T//ccVTo1ct.s 			page 25


 782:/Applications/ArmGNUToolchain/14.2.rel1/arm-none-eabi/arm-none-eabi/include/c++/14.2.1/bits/stl_algobase.h **** 	return std::__copy_move_backward<_IsMove, false, _Category>::
 783:/Applications/ArmGNUToolchain/14.2.rel1/arm-none-eabi/arm-none-eabi/include/c++/14.2.1/bits/stl_algobase.h **** 	  __copy_move_b(__first, __last, __result);
 784:/Applications/ArmGNUToolchain/14.2.rel1/arm-none-eabi/arm-none-eabi/include/c++/14.2.1/bits/stl_algobase.h **** #endif
 785:/Applications/ArmGNUToolchain/14.2.rel1/arm-none-eabi/arm-none-eabi/include/c++/14.2.1/bits/stl_algobase.h ****       return std::__copy_move_backward<_IsMove,
 786:/Applications/ArmGNUToolchain/14.2.rel1/arm-none-eabi/arm-none-eabi/include/c++/14.2.1/bits/stl_algobase.h **** 				       __memcpyable<_BI2, _BI1>::__value,
 787:/Applications/ArmGNUToolchain/14.2.rel1/arm-none-eabi/arm-none-eabi/include/c++/14.2.1/bits/stl_algobase.h **** 				       _Category>::__copy_move_b(__first,
 788:/Applications/ArmGNUToolchain/14.2.rel1/arm-none-eabi/arm-none-eabi/include/c++/14.2.1/bits/stl_algobase.h **** 								 __last,
 789:/Applications/ArmGNUToolchain/14.2.rel1/arm-none-eabi/arm-none-eabi/include/c++/14.2.1/bits/stl_algobase.h **** 								 __result);
 790:/Applications/ArmGNUToolchain/14.2.rel1/arm-none-eabi/arm-none-eabi/include/c++/14.2.1/bits/stl_algobase.h ****     }
 791:/Applications/ArmGNUToolchain/14.2.rel1/arm-none-eabi/arm-none-eabi/include/c++/14.2.1/bits/stl_algobase.h **** 
 792:/Applications/ArmGNUToolchain/14.2.rel1/arm-none-eabi/arm-none-eabi/include/c++/14.2.1/bits/stl_algobase.h ****   template<bool _IsMove, typename _BI1, typename _BI2>
 793:/Applications/ArmGNUToolchain/14.2.rel1/arm-none-eabi/arm-none-eabi/include/c++/14.2.1/bits/stl_algobase.h ****     _GLIBCXX20_CONSTEXPR
 794:/Applications/ArmGNUToolchain/14.2.rel1/arm-none-eabi/arm-none-eabi/include/c++/14.2.1/bits/stl_algobase.h ****     inline _BI2
 795:/Applications/ArmGNUToolchain/14.2.rel1/arm-none-eabi/arm-none-eabi/include/c++/14.2.1/bits/stl_algobase.h ****     __copy_move_backward_a1(_BI1 __first, _BI1 __last, _BI2 __result)
 796:/Applications/ArmGNUToolchain/14.2.rel1/arm-none-eabi/arm-none-eabi/include/c++/14.2.1/bits/stl_algobase.h ****     { return std::__copy_move_backward_a2<_IsMove>(__first, __last, __result); }
 797:/Applications/ArmGNUToolchain/14.2.rel1/arm-none-eabi/arm-none-eabi/include/c++/14.2.1/bits/stl_algobase.h **** 
 798:/Applications/ArmGNUToolchain/14.2.rel1/arm-none-eabi/arm-none-eabi/include/c++/14.2.1/bits/stl_algobase.h ****   template<bool _IsMove,
 799:/Applications/ArmGNUToolchain/14.2.rel1/arm-none-eabi/arm-none-eabi/include/c++/14.2.1/bits/stl_algobase.h **** 	   typename _Tp, typename _Ref, typename _Ptr, typename _OI>
 800:/Applications/ArmGNUToolchain/14.2.rel1/arm-none-eabi/arm-none-eabi/include/c++/14.2.1/bits/stl_algobase.h ****     _OI
 801:/Applications/ArmGNUToolchain/14.2.rel1/arm-none-eabi/arm-none-eabi/include/c++/14.2.1/bits/stl_algobase.h ****     __copy_move_backward_a1(_GLIBCXX_STD_C::_Deque_iterator<_Tp, _Ref, _Ptr>,
 802:/Applications/ArmGNUToolchain/14.2.rel1/arm-none-eabi/arm-none-eabi/include/c++/14.2.1/bits/stl_algobase.h **** 			    _GLIBCXX_STD_C::_Deque_iterator<_Tp, _Ref, _Ptr>,
 803:/Applications/ArmGNUToolchain/14.2.rel1/arm-none-eabi/arm-none-eabi/include/c++/14.2.1/bits/stl_algobase.h **** 			    _OI);
 804:/Applications/ArmGNUToolchain/14.2.rel1/arm-none-eabi/arm-none-eabi/include/c++/14.2.1/bits/stl_algobase.h **** 
 805:/Applications/ArmGNUToolchain/14.2.rel1/arm-none-eabi/arm-none-eabi/include/c++/14.2.1/bits/stl_algobase.h ****   template<bool _IsMove,
 806:/Applications/ArmGNUToolchain/14.2.rel1/arm-none-eabi/arm-none-eabi/include/c++/14.2.1/bits/stl_algobase.h **** 	   typename _ITp, typename _IRef, typename _IPtr, typename _OTp>
 807:/Applications/ArmGNUToolchain/14.2.rel1/arm-none-eabi/arm-none-eabi/include/c++/14.2.1/bits/stl_algobase.h ****     _GLIBCXX_STD_C::_Deque_iterator<_OTp, _OTp&, _OTp*>
 808:/Applications/ArmGNUToolchain/14.2.rel1/arm-none-eabi/arm-none-eabi/include/c++/14.2.1/bits/stl_algobase.h ****     __copy_move_backward_a1(
 809:/Applications/ArmGNUToolchain/14.2.rel1/arm-none-eabi/arm-none-eabi/include/c++/14.2.1/bits/stl_algobase.h **** 			_GLIBCXX_STD_C::_Deque_iterator<_ITp, _IRef, _IPtr>,
 810:/Applications/ArmGNUToolchain/14.2.rel1/arm-none-eabi/arm-none-eabi/include/c++/14.2.1/bits/stl_algobase.h **** 			_GLIBCXX_STD_C::_Deque_iterator<_ITp, _IRef, _IPtr>,
 811:/Applications/ArmGNUToolchain/14.2.rel1/arm-none-eabi/arm-none-eabi/include/c++/14.2.1/bits/stl_algobase.h **** 			_GLIBCXX_STD_C::_Deque_iterator<_OTp, _OTp&, _OTp*>);
 812:/Applications/ArmGNUToolchain/14.2.rel1/arm-none-eabi/arm-none-eabi/include/c++/14.2.1/bits/stl_algobase.h **** 
 813:/Applications/ArmGNUToolchain/14.2.rel1/arm-none-eabi/arm-none-eabi/include/c++/14.2.1/bits/stl_algobase.h ****   template<bool _IsMove, typename _II, typename _Tp>
 814:/Applications/ArmGNUToolchain/14.2.rel1/arm-none-eabi/arm-none-eabi/include/c++/14.2.1/bits/stl_algobase.h ****     typename __gnu_cxx::__enable_if<
 815:/Applications/ArmGNUToolchain/14.2.rel1/arm-none-eabi/arm-none-eabi/include/c++/14.2.1/bits/stl_algobase.h ****       __is_random_access_iter<_II>::__value,
 816:/Applications/ArmGNUToolchain/14.2.rel1/arm-none-eabi/arm-none-eabi/include/c++/14.2.1/bits/stl_algobase.h ****       _GLIBCXX_STD_C::_Deque_iterator<_Tp, _Tp&, _Tp*> >::__type
 817:/Applications/ArmGNUToolchain/14.2.rel1/arm-none-eabi/arm-none-eabi/include/c++/14.2.1/bits/stl_algobase.h ****     __copy_move_backward_a1(_II, _II,
 818:/Applications/ArmGNUToolchain/14.2.rel1/arm-none-eabi/arm-none-eabi/include/c++/14.2.1/bits/stl_algobase.h **** 			    _GLIBCXX_STD_C::_Deque_iterator<_Tp, _Tp&, _Tp*>);
 819:/Applications/ArmGNUToolchain/14.2.rel1/arm-none-eabi/arm-none-eabi/include/c++/14.2.1/bits/stl_algobase.h **** 
 820:/Applications/ArmGNUToolchain/14.2.rel1/arm-none-eabi/arm-none-eabi/include/c++/14.2.1/bits/stl_algobase.h ****   template<bool _IsMove, typename _II, typename _OI>
 821:/Applications/ArmGNUToolchain/14.2.rel1/arm-none-eabi/arm-none-eabi/include/c++/14.2.1/bits/stl_algobase.h ****     _GLIBCXX20_CONSTEXPR
 822:/Applications/ArmGNUToolchain/14.2.rel1/arm-none-eabi/arm-none-eabi/include/c++/14.2.1/bits/stl_algobase.h ****     inline _OI
 823:/Applications/ArmGNUToolchain/14.2.rel1/arm-none-eabi/arm-none-eabi/include/c++/14.2.1/bits/stl_algobase.h ****     __copy_move_backward_a(_II __first, _II __last, _OI __result)
 824:/Applications/ArmGNUToolchain/14.2.rel1/arm-none-eabi/arm-none-eabi/include/c++/14.2.1/bits/stl_algobase.h ****     {
 825:/Applications/ArmGNUToolchain/14.2.rel1/arm-none-eabi/arm-none-eabi/include/c++/14.2.1/bits/stl_algobase.h ****       return std::__niter_wrap(__result,
 826:/Applications/ArmGNUToolchain/14.2.rel1/arm-none-eabi/arm-none-eabi/include/c++/14.2.1/bits/stl_algobase.h **** 		std::__copy_move_backward_a1<_IsMove>
 827:/Applications/ArmGNUToolchain/14.2.rel1/arm-none-eabi/arm-none-eabi/include/c++/14.2.1/bits/stl_algobase.h **** 		  (std::__niter_base(__first), std::__niter_base(__last),
 828:/Applications/ArmGNUToolchain/14.2.rel1/arm-none-eabi/arm-none-eabi/include/c++/14.2.1/bits/stl_algobase.h **** 		   std::__niter_base(__result)));
 829:/Applications/ArmGNUToolchain/14.2.rel1/arm-none-eabi/arm-none-eabi/include/c++/14.2.1/bits/stl_algobase.h ****     }
 830:/Applications/ArmGNUToolchain/14.2.rel1/arm-none-eabi/arm-none-eabi/include/c++/14.2.1/bits/stl_algobase.h **** 
 831:/Applications/ArmGNUToolchain/14.2.rel1/arm-none-eabi/arm-none-eabi/include/c++/14.2.1/bits/stl_algobase.h ****   template<bool _IsMove,
 832:/Applications/ArmGNUToolchain/14.2.rel1/arm-none-eabi/arm-none-eabi/include/c++/14.2.1/bits/stl_algobase.h **** 	   typename _Ite, typename _Seq, typename _Cat, typename _OI>
 833:/Applications/ArmGNUToolchain/14.2.rel1/arm-none-eabi/arm-none-eabi/include/c++/14.2.1/bits/stl_algobase.h ****     _GLIBCXX20_CONSTEXPR
 834:/Applications/ArmGNUToolchain/14.2.rel1/arm-none-eabi/arm-none-eabi/include/c++/14.2.1/bits/stl_algobase.h ****     _OI
 835:/Applications/ArmGNUToolchain/14.2.rel1/arm-none-eabi/arm-none-eabi/include/c++/14.2.1/bits/stl_algobase.h ****     __copy_move_backward_a(
 836:/Applications/ArmGNUToolchain/14.2.rel1/arm-none-eabi/arm-none-eabi/include/c++/14.2.1/bits/stl_algobase.h **** 		const ::__gnu_debug::_Safe_iterator<_Ite, _Seq, _Cat>&,
 837:/Applications/ArmGNUToolchain/14.2.rel1/arm-none-eabi/arm-none-eabi/include/c++/14.2.1/bits/stl_algobase.h **** 		const ::__gnu_debug::_Safe_iterator<_Ite, _Seq, _Cat>&,
 838:/Applications/ArmGNUToolchain/14.2.rel1/arm-none-eabi/arm-none-eabi/include/c++/14.2.1/bits/stl_algobase.h **** 		_OI);
ARM GAS  /var/folders/y7/g6pkzsp12sx54x3s3mvyn15r0000gn/T//ccVTo1ct.s 			page 26


 839:/Applications/ArmGNUToolchain/14.2.rel1/arm-none-eabi/arm-none-eabi/include/c++/14.2.1/bits/stl_algobase.h **** 
 840:/Applications/ArmGNUToolchain/14.2.rel1/arm-none-eabi/arm-none-eabi/include/c++/14.2.1/bits/stl_algobase.h ****   template<bool _IsMove,
 841:/Applications/ArmGNUToolchain/14.2.rel1/arm-none-eabi/arm-none-eabi/include/c++/14.2.1/bits/stl_algobase.h **** 	   typename _II, typename _Ite, typename _Seq, typename _Cat>
 842:/Applications/ArmGNUToolchain/14.2.rel1/arm-none-eabi/arm-none-eabi/include/c++/14.2.1/bits/stl_algobase.h ****     _GLIBCXX20_CONSTEXPR
 843:/Applications/ArmGNUToolchain/14.2.rel1/arm-none-eabi/arm-none-eabi/include/c++/14.2.1/bits/stl_algobase.h ****     __gnu_debug::_Safe_iterator<_Ite, _Seq, _Cat>
 844:/Applications/ArmGNUToolchain/14.2.rel1/arm-none-eabi/arm-none-eabi/include/c++/14.2.1/bits/stl_algobase.h ****     __copy_move_backward_a(_II, _II,
 845:/Applications/ArmGNUToolchain/14.2.rel1/arm-none-eabi/arm-none-eabi/include/c++/14.2.1/bits/stl_algobase.h **** 		const ::__gnu_debug::_Safe_iterator<_Ite, _Seq, _Cat>&);
 846:/Applications/ArmGNUToolchain/14.2.rel1/arm-none-eabi/arm-none-eabi/include/c++/14.2.1/bits/stl_algobase.h **** 
 847:/Applications/ArmGNUToolchain/14.2.rel1/arm-none-eabi/arm-none-eabi/include/c++/14.2.1/bits/stl_algobase.h ****   template<bool _IsMove,
 848:/Applications/ArmGNUToolchain/14.2.rel1/arm-none-eabi/arm-none-eabi/include/c++/14.2.1/bits/stl_algobase.h **** 	   typename _IIte, typename _ISeq, typename _ICat,
 849:/Applications/ArmGNUToolchain/14.2.rel1/arm-none-eabi/arm-none-eabi/include/c++/14.2.1/bits/stl_algobase.h **** 	   typename _OIte, typename _OSeq, typename _OCat>
 850:/Applications/ArmGNUToolchain/14.2.rel1/arm-none-eabi/arm-none-eabi/include/c++/14.2.1/bits/stl_algobase.h ****     _GLIBCXX20_CONSTEXPR
 851:/Applications/ArmGNUToolchain/14.2.rel1/arm-none-eabi/arm-none-eabi/include/c++/14.2.1/bits/stl_algobase.h ****     ::__gnu_debug::_Safe_iterator<_OIte, _OSeq, _OCat>
 852:/Applications/ArmGNUToolchain/14.2.rel1/arm-none-eabi/arm-none-eabi/include/c++/14.2.1/bits/stl_algobase.h ****     __copy_move_backward_a(
 853:/Applications/ArmGNUToolchain/14.2.rel1/arm-none-eabi/arm-none-eabi/include/c++/14.2.1/bits/stl_algobase.h **** 		const ::__gnu_debug::_Safe_iterator<_IIte, _ISeq, _ICat>&,
 854:/Applications/ArmGNUToolchain/14.2.rel1/arm-none-eabi/arm-none-eabi/include/c++/14.2.1/bits/stl_algobase.h **** 		const ::__gnu_debug::_Safe_iterator<_IIte, _ISeq, _ICat>&,
 855:/Applications/ArmGNUToolchain/14.2.rel1/arm-none-eabi/arm-none-eabi/include/c++/14.2.1/bits/stl_algobase.h **** 		const ::__gnu_debug::_Safe_iterator<_OIte, _OSeq, _OCat>&);
 856:/Applications/ArmGNUToolchain/14.2.rel1/arm-none-eabi/arm-none-eabi/include/c++/14.2.1/bits/stl_algobase.h **** 
 857:/Applications/ArmGNUToolchain/14.2.rel1/arm-none-eabi/arm-none-eabi/include/c++/14.2.1/bits/stl_algobase.h ****   /**
 858:/Applications/ArmGNUToolchain/14.2.rel1/arm-none-eabi/arm-none-eabi/include/c++/14.2.1/bits/stl_algobase.h ****    *  @brief Copies the range [first,last) into result.
 859:/Applications/ArmGNUToolchain/14.2.rel1/arm-none-eabi/arm-none-eabi/include/c++/14.2.1/bits/stl_algobase.h ****    *  @ingroup mutating_algorithms
 860:/Applications/ArmGNUToolchain/14.2.rel1/arm-none-eabi/arm-none-eabi/include/c++/14.2.1/bits/stl_algobase.h ****    *  @param  __first  A bidirectional iterator.
 861:/Applications/ArmGNUToolchain/14.2.rel1/arm-none-eabi/arm-none-eabi/include/c++/14.2.1/bits/stl_algobase.h ****    *  @param  __last   A bidirectional iterator.
 862:/Applications/ArmGNUToolchain/14.2.rel1/arm-none-eabi/arm-none-eabi/include/c++/14.2.1/bits/stl_algobase.h ****    *  @param  __result A bidirectional iterator.
 863:/Applications/ArmGNUToolchain/14.2.rel1/arm-none-eabi/arm-none-eabi/include/c++/14.2.1/bits/stl_algobase.h ****    *  @return   result - (last - first)
 864:/Applications/ArmGNUToolchain/14.2.rel1/arm-none-eabi/arm-none-eabi/include/c++/14.2.1/bits/stl_algobase.h ****    *
 865:/Applications/ArmGNUToolchain/14.2.rel1/arm-none-eabi/arm-none-eabi/include/c++/14.2.1/bits/stl_algobase.h ****    *  The function has the same effect as copy, but starts at the end of the
 866:/Applications/ArmGNUToolchain/14.2.rel1/arm-none-eabi/arm-none-eabi/include/c++/14.2.1/bits/stl_algobase.h ****    *  range and works its way to the start, returning the start of the result.
 867:/Applications/ArmGNUToolchain/14.2.rel1/arm-none-eabi/arm-none-eabi/include/c++/14.2.1/bits/stl_algobase.h ****    *  This inline function will boil down to a call to @c memmove whenever
 868:/Applications/ArmGNUToolchain/14.2.rel1/arm-none-eabi/arm-none-eabi/include/c++/14.2.1/bits/stl_algobase.h ****    *  possible.  Failing that, if random access iterators are passed, then the
 869:/Applications/ArmGNUToolchain/14.2.rel1/arm-none-eabi/arm-none-eabi/include/c++/14.2.1/bits/stl_algobase.h ****    *  loop count will be known (and therefore a candidate for compiler
 870:/Applications/ArmGNUToolchain/14.2.rel1/arm-none-eabi/arm-none-eabi/include/c++/14.2.1/bits/stl_algobase.h ****    *  optimizations such as unrolling).
 871:/Applications/ArmGNUToolchain/14.2.rel1/arm-none-eabi/arm-none-eabi/include/c++/14.2.1/bits/stl_algobase.h ****    *
 872:/Applications/ArmGNUToolchain/14.2.rel1/arm-none-eabi/arm-none-eabi/include/c++/14.2.1/bits/stl_algobase.h ****    *  Result may not be in the range (first,last].  Use copy instead.  Note
 873:/Applications/ArmGNUToolchain/14.2.rel1/arm-none-eabi/arm-none-eabi/include/c++/14.2.1/bits/stl_algobase.h ****    *  that the start of the output range may overlap [first,last).
 874:/Applications/ArmGNUToolchain/14.2.rel1/arm-none-eabi/arm-none-eabi/include/c++/14.2.1/bits/stl_algobase.h ****   */
 875:/Applications/ArmGNUToolchain/14.2.rel1/arm-none-eabi/arm-none-eabi/include/c++/14.2.1/bits/stl_algobase.h ****   template<typename _BI1, typename _BI2>
 876:/Applications/ArmGNUToolchain/14.2.rel1/arm-none-eabi/arm-none-eabi/include/c++/14.2.1/bits/stl_algobase.h ****     _GLIBCXX20_CONSTEXPR
 877:/Applications/ArmGNUToolchain/14.2.rel1/arm-none-eabi/arm-none-eabi/include/c++/14.2.1/bits/stl_algobase.h ****     inline _BI2
 878:/Applications/ArmGNUToolchain/14.2.rel1/arm-none-eabi/arm-none-eabi/include/c++/14.2.1/bits/stl_algobase.h ****     copy_backward(_BI1 __first, _BI1 __last, _BI2 __result)
 879:/Applications/ArmGNUToolchain/14.2.rel1/arm-none-eabi/arm-none-eabi/include/c++/14.2.1/bits/stl_algobase.h ****     {
 880:/Applications/ArmGNUToolchain/14.2.rel1/arm-none-eabi/arm-none-eabi/include/c++/14.2.1/bits/stl_algobase.h ****       // concept requirements
 881:/Applications/ArmGNUToolchain/14.2.rel1/arm-none-eabi/arm-none-eabi/include/c++/14.2.1/bits/stl_algobase.h ****       __glibcxx_function_requires(_BidirectionalIteratorConcept<_BI1>)
 882:/Applications/ArmGNUToolchain/14.2.rel1/arm-none-eabi/arm-none-eabi/include/c++/14.2.1/bits/stl_algobase.h ****       __glibcxx_function_requires(_Mutable_BidirectionalIteratorConcept<_BI2>)
 883:/Applications/ArmGNUToolchain/14.2.rel1/arm-none-eabi/arm-none-eabi/include/c++/14.2.1/bits/stl_algobase.h ****       __glibcxx_function_requires(_OutputIteratorConcept<_BI2,
 884:/Applications/ArmGNUToolchain/14.2.rel1/arm-none-eabi/arm-none-eabi/include/c++/14.2.1/bits/stl_algobase.h **** 	    typename iterator_traits<_BI1>::reference>)
 885:/Applications/ArmGNUToolchain/14.2.rel1/arm-none-eabi/arm-none-eabi/include/c++/14.2.1/bits/stl_algobase.h ****       __glibcxx_requires_can_decrement_range(__first, __last, __result);
 886:/Applications/ArmGNUToolchain/14.2.rel1/arm-none-eabi/arm-none-eabi/include/c++/14.2.1/bits/stl_algobase.h **** 
 887:/Applications/ArmGNUToolchain/14.2.rel1/arm-none-eabi/arm-none-eabi/include/c++/14.2.1/bits/stl_algobase.h ****       return std::__copy_move_backward_a<__is_move_iterator<_BI1>::__value>
 888:/Applications/ArmGNUToolchain/14.2.rel1/arm-none-eabi/arm-none-eabi/include/c++/14.2.1/bits/stl_algobase.h **** 	     (std::__miter_base(__first), std::__miter_base(__last), __result);
 889:/Applications/ArmGNUToolchain/14.2.rel1/arm-none-eabi/arm-none-eabi/include/c++/14.2.1/bits/stl_algobase.h ****     }
 890:/Applications/ArmGNUToolchain/14.2.rel1/arm-none-eabi/arm-none-eabi/include/c++/14.2.1/bits/stl_algobase.h **** 
 891:/Applications/ArmGNUToolchain/14.2.rel1/arm-none-eabi/arm-none-eabi/include/c++/14.2.1/bits/stl_algobase.h **** #if __cplusplus >= 201103L
 892:/Applications/ArmGNUToolchain/14.2.rel1/arm-none-eabi/arm-none-eabi/include/c++/14.2.1/bits/stl_algobase.h ****   /**
 893:/Applications/ArmGNUToolchain/14.2.rel1/arm-none-eabi/arm-none-eabi/include/c++/14.2.1/bits/stl_algobase.h ****    *  @brief Moves the range [first,last) into result.
 894:/Applications/ArmGNUToolchain/14.2.rel1/arm-none-eabi/arm-none-eabi/include/c++/14.2.1/bits/stl_algobase.h ****    *  @ingroup mutating_algorithms
 895:/Applications/ArmGNUToolchain/14.2.rel1/arm-none-eabi/arm-none-eabi/include/c++/14.2.1/bits/stl_algobase.h ****    *  @param  __first  A bidirectional iterator.
ARM GAS  /var/folders/y7/g6pkzsp12sx54x3s3mvyn15r0000gn/T//ccVTo1ct.s 			page 27


 896:/Applications/ArmGNUToolchain/14.2.rel1/arm-none-eabi/arm-none-eabi/include/c++/14.2.1/bits/stl_algobase.h ****    *  @param  __last   A bidirectional iterator.
 897:/Applications/ArmGNUToolchain/14.2.rel1/arm-none-eabi/arm-none-eabi/include/c++/14.2.1/bits/stl_algobase.h ****    *  @param  __result A bidirectional iterator.
 898:/Applications/ArmGNUToolchain/14.2.rel1/arm-none-eabi/arm-none-eabi/include/c++/14.2.1/bits/stl_algobase.h ****    *  @return   result - (last - first)
 899:/Applications/ArmGNUToolchain/14.2.rel1/arm-none-eabi/arm-none-eabi/include/c++/14.2.1/bits/stl_algobase.h ****    *
 900:/Applications/ArmGNUToolchain/14.2.rel1/arm-none-eabi/arm-none-eabi/include/c++/14.2.1/bits/stl_algobase.h ****    *  The function has the same effect as move, but starts at the end of the
 901:/Applications/ArmGNUToolchain/14.2.rel1/arm-none-eabi/arm-none-eabi/include/c++/14.2.1/bits/stl_algobase.h ****    *  range and works its way to the start, returning the start of the result.
 902:/Applications/ArmGNUToolchain/14.2.rel1/arm-none-eabi/arm-none-eabi/include/c++/14.2.1/bits/stl_algobase.h ****    *  This inline function will boil down to a call to @c memmove whenever
 903:/Applications/ArmGNUToolchain/14.2.rel1/arm-none-eabi/arm-none-eabi/include/c++/14.2.1/bits/stl_algobase.h ****    *  possible.  Failing that, if random access iterators are passed, then the
 904:/Applications/ArmGNUToolchain/14.2.rel1/arm-none-eabi/arm-none-eabi/include/c++/14.2.1/bits/stl_algobase.h ****    *  loop count will be known (and therefore a candidate for compiler
 905:/Applications/ArmGNUToolchain/14.2.rel1/arm-none-eabi/arm-none-eabi/include/c++/14.2.1/bits/stl_algobase.h ****    *  optimizations such as unrolling).
 906:/Applications/ArmGNUToolchain/14.2.rel1/arm-none-eabi/arm-none-eabi/include/c++/14.2.1/bits/stl_algobase.h ****    *
 907:/Applications/ArmGNUToolchain/14.2.rel1/arm-none-eabi/arm-none-eabi/include/c++/14.2.1/bits/stl_algobase.h ****    *  Result may not be in the range (first,last].  Use move instead.  Note
 908:/Applications/ArmGNUToolchain/14.2.rel1/arm-none-eabi/arm-none-eabi/include/c++/14.2.1/bits/stl_algobase.h ****    *  that the start of the output range may overlap [first,last).
 909:/Applications/ArmGNUToolchain/14.2.rel1/arm-none-eabi/arm-none-eabi/include/c++/14.2.1/bits/stl_algobase.h ****   */
 910:/Applications/ArmGNUToolchain/14.2.rel1/arm-none-eabi/arm-none-eabi/include/c++/14.2.1/bits/stl_algobase.h ****   template<typename _BI1, typename _BI2>
 911:/Applications/ArmGNUToolchain/14.2.rel1/arm-none-eabi/arm-none-eabi/include/c++/14.2.1/bits/stl_algobase.h ****     _GLIBCXX20_CONSTEXPR
 912:/Applications/ArmGNUToolchain/14.2.rel1/arm-none-eabi/arm-none-eabi/include/c++/14.2.1/bits/stl_algobase.h ****     inline _BI2
 913:/Applications/ArmGNUToolchain/14.2.rel1/arm-none-eabi/arm-none-eabi/include/c++/14.2.1/bits/stl_algobase.h ****     move_backward(_BI1 __first, _BI1 __last, _BI2 __result)
 914:/Applications/ArmGNUToolchain/14.2.rel1/arm-none-eabi/arm-none-eabi/include/c++/14.2.1/bits/stl_algobase.h ****     {
 915:/Applications/ArmGNUToolchain/14.2.rel1/arm-none-eabi/arm-none-eabi/include/c++/14.2.1/bits/stl_algobase.h ****       // concept requirements
 916:/Applications/ArmGNUToolchain/14.2.rel1/arm-none-eabi/arm-none-eabi/include/c++/14.2.1/bits/stl_algobase.h ****       __glibcxx_function_requires(_BidirectionalIteratorConcept<_BI1>)
 917:/Applications/ArmGNUToolchain/14.2.rel1/arm-none-eabi/arm-none-eabi/include/c++/14.2.1/bits/stl_algobase.h ****       __glibcxx_function_requires(_Mutable_BidirectionalIteratorConcept<_BI2>)
 918:/Applications/ArmGNUToolchain/14.2.rel1/arm-none-eabi/arm-none-eabi/include/c++/14.2.1/bits/stl_algobase.h ****       __glibcxx_function_requires(_OutputIteratorConcept<_BI2,
 919:/Applications/ArmGNUToolchain/14.2.rel1/arm-none-eabi/arm-none-eabi/include/c++/14.2.1/bits/stl_algobase.h **** 	    typename iterator_traits<_BI1>::value_type&&>)
 920:/Applications/ArmGNUToolchain/14.2.rel1/arm-none-eabi/arm-none-eabi/include/c++/14.2.1/bits/stl_algobase.h ****       __glibcxx_requires_can_decrement_range(__first, __last, __result);
 921:/Applications/ArmGNUToolchain/14.2.rel1/arm-none-eabi/arm-none-eabi/include/c++/14.2.1/bits/stl_algobase.h **** 
 922:/Applications/ArmGNUToolchain/14.2.rel1/arm-none-eabi/arm-none-eabi/include/c++/14.2.1/bits/stl_algobase.h ****       return std::__copy_move_backward_a<true>(std::__miter_base(__first),
 923:/Applications/ArmGNUToolchain/14.2.rel1/arm-none-eabi/arm-none-eabi/include/c++/14.2.1/bits/stl_algobase.h **** 					       std::__miter_base(__last),
 924:/Applications/ArmGNUToolchain/14.2.rel1/arm-none-eabi/arm-none-eabi/include/c++/14.2.1/bits/stl_algobase.h **** 					       __result);
 925:/Applications/ArmGNUToolchain/14.2.rel1/arm-none-eabi/arm-none-eabi/include/c++/14.2.1/bits/stl_algobase.h ****     }
 926:/Applications/ArmGNUToolchain/14.2.rel1/arm-none-eabi/arm-none-eabi/include/c++/14.2.1/bits/stl_algobase.h **** 
 927:/Applications/ArmGNUToolchain/14.2.rel1/arm-none-eabi/arm-none-eabi/include/c++/14.2.1/bits/stl_algobase.h **** #define _GLIBCXX_MOVE_BACKWARD3(_Tp, _Up, _Vp) std::move_backward(_Tp, _Up, _Vp)
 928:/Applications/ArmGNUToolchain/14.2.rel1/arm-none-eabi/arm-none-eabi/include/c++/14.2.1/bits/stl_algobase.h **** #else
 929:/Applications/ArmGNUToolchain/14.2.rel1/arm-none-eabi/arm-none-eabi/include/c++/14.2.1/bits/stl_algobase.h **** #define _GLIBCXX_MOVE_BACKWARD3(_Tp, _Up, _Vp) std::copy_backward(_Tp, _Up, _Vp)
 930:/Applications/ArmGNUToolchain/14.2.rel1/arm-none-eabi/arm-none-eabi/include/c++/14.2.1/bits/stl_algobase.h **** #endif
 931:/Applications/ArmGNUToolchain/14.2.rel1/arm-none-eabi/arm-none-eabi/include/c++/14.2.1/bits/stl_algobase.h **** 
 932:/Applications/ArmGNUToolchain/14.2.rel1/arm-none-eabi/arm-none-eabi/include/c++/14.2.1/bits/stl_algobase.h ****   template<typename _ForwardIterator, typename _Tp>
 933:/Applications/ArmGNUToolchain/14.2.rel1/arm-none-eabi/arm-none-eabi/include/c++/14.2.1/bits/stl_algobase.h ****     _GLIBCXX20_CONSTEXPR
 934:/Applications/ArmGNUToolchain/14.2.rel1/arm-none-eabi/arm-none-eabi/include/c++/14.2.1/bits/stl_algobase.h ****     inline typename
 935:/Applications/ArmGNUToolchain/14.2.rel1/arm-none-eabi/arm-none-eabi/include/c++/14.2.1/bits/stl_algobase.h ****     __gnu_cxx::__enable_if<!__is_scalar<_Tp>::__value, void>::__type
 936:/Applications/ArmGNUToolchain/14.2.rel1/arm-none-eabi/arm-none-eabi/include/c++/14.2.1/bits/stl_algobase.h ****     __fill_a1(_ForwardIterator __first, _ForwardIterator __last,
 937:/Applications/ArmGNUToolchain/14.2.rel1/arm-none-eabi/arm-none-eabi/include/c++/14.2.1/bits/stl_algobase.h **** 	      const _Tp& __value)
 938:/Applications/ArmGNUToolchain/14.2.rel1/arm-none-eabi/arm-none-eabi/include/c++/14.2.1/bits/stl_algobase.h ****     {
 939:/Applications/ArmGNUToolchain/14.2.rel1/arm-none-eabi/arm-none-eabi/include/c++/14.2.1/bits/stl_algobase.h ****       for (; __first != __last; ++__first)
 940:/Applications/ArmGNUToolchain/14.2.rel1/arm-none-eabi/arm-none-eabi/include/c++/14.2.1/bits/stl_algobase.h **** 	*__first = __value;
 941:/Applications/ArmGNUToolchain/14.2.rel1/arm-none-eabi/arm-none-eabi/include/c++/14.2.1/bits/stl_algobase.h ****     }
 942:/Applications/ArmGNUToolchain/14.2.rel1/arm-none-eabi/arm-none-eabi/include/c++/14.2.1/bits/stl_algobase.h **** 
 943:/Applications/ArmGNUToolchain/14.2.rel1/arm-none-eabi/arm-none-eabi/include/c++/14.2.1/bits/stl_algobase.h ****   template<typename _ForwardIterator, typename _Tp>
 944:/Applications/ArmGNUToolchain/14.2.rel1/arm-none-eabi/arm-none-eabi/include/c++/14.2.1/bits/stl_algobase.h ****     _GLIBCXX20_CONSTEXPR
 945:/Applications/ArmGNUToolchain/14.2.rel1/arm-none-eabi/arm-none-eabi/include/c++/14.2.1/bits/stl_algobase.h ****     inline typename
 946:/Applications/ArmGNUToolchain/14.2.rel1/arm-none-eabi/arm-none-eabi/include/c++/14.2.1/bits/stl_algobase.h ****     __gnu_cxx::__enable_if<__is_scalar<_Tp>::__value, void>::__type
 947:/Applications/ArmGNUToolchain/14.2.rel1/arm-none-eabi/arm-none-eabi/include/c++/14.2.1/bits/stl_algobase.h ****     __fill_a1(_ForwardIterator __first, _ForwardIterator __last,
 948:/Applications/ArmGNUToolchain/14.2.rel1/arm-none-eabi/arm-none-eabi/include/c++/14.2.1/bits/stl_algobase.h **** 	      const _Tp& __value)
 949:/Applications/ArmGNUToolchain/14.2.rel1/arm-none-eabi/arm-none-eabi/include/c++/14.2.1/bits/stl_algobase.h ****     {
 950:/Applications/ArmGNUToolchain/14.2.rel1/arm-none-eabi/arm-none-eabi/include/c++/14.2.1/bits/stl_algobase.h ****       const _Tp __tmp = __value;
 951:/Applications/ArmGNUToolchain/14.2.rel1/arm-none-eabi/arm-none-eabi/include/c++/14.2.1/bits/stl_algobase.h ****       for (; __first != __last; ++__first)
 952:/Applications/ArmGNUToolchain/14.2.rel1/arm-none-eabi/arm-none-eabi/include/c++/14.2.1/bits/stl_algobase.h **** 	*__first = __tmp;
ARM GAS  /var/folders/y7/g6pkzsp12sx54x3s3mvyn15r0000gn/T//ccVTo1ct.s 			page 28


 953:/Applications/ArmGNUToolchain/14.2.rel1/arm-none-eabi/arm-none-eabi/include/c++/14.2.1/bits/stl_algobase.h ****     }
 954:/Applications/ArmGNUToolchain/14.2.rel1/arm-none-eabi/arm-none-eabi/include/c++/14.2.1/bits/stl_algobase.h **** 
 955:/Applications/ArmGNUToolchain/14.2.rel1/arm-none-eabi/arm-none-eabi/include/c++/14.2.1/bits/stl_algobase.h ****   // Specialization: for char types we can use memset.
 956:/Applications/ArmGNUToolchain/14.2.rel1/arm-none-eabi/arm-none-eabi/include/c++/14.2.1/bits/stl_algobase.h ****   template<typename _Tp>
 957:/Applications/ArmGNUToolchain/14.2.rel1/arm-none-eabi/arm-none-eabi/include/c++/14.2.1/bits/stl_algobase.h ****     _GLIBCXX20_CONSTEXPR
 958:/Applications/ArmGNUToolchain/14.2.rel1/arm-none-eabi/arm-none-eabi/include/c++/14.2.1/bits/stl_algobase.h ****     inline typename
 959:/Applications/ArmGNUToolchain/14.2.rel1/arm-none-eabi/arm-none-eabi/include/c++/14.2.1/bits/stl_algobase.h ****     __gnu_cxx::__enable_if<__is_byte<_Tp>::__value, void>::__type
 960:/Applications/ArmGNUToolchain/14.2.rel1/arm-none-eabi/arm-none-eabi/include/c++/14.2.1/bits/stl_algobase.h ****     __fill_a1(_Tp* __first, _Tp* __last, const _Tp& __c)
 961:/Applications/ArmGNUToolchain/14.2.rel1/arm-none-eabi/arm-none-eabi/include/c++/14.2.1/bits/stl_algobase.h ****     {
 962:/Applications/ArmGNUToolchain/14.2.rel1/arm-none-eabi/arm-none-eabi/include/c++/14.2.1/bits/stl_algobase.h ****       const _Tp __tmp = __c;
 963:/Applications/ArmGNUToolchain/14.2.rel1/arm-none-eabi/arm-none-eabi/include/c++/14.2.1/bits/stl_algobase.h **** #if __cpp_lib_is_constant_evaluated
 964:/Applications/ArmGNUToolchain/14.2.rel1/arm-none-eabi/arm-none-eabi/include/c++/14.2.1/bits/stl_algobase.h ****       if (std::is_constant_evaluated())
 965:/Applications/ArmGNUToolchain/14.2.rel1/arm-none-eabi/arm-none-eabi/include/c++/14.2.1/bits/stl_algobase.h **** 	{
 966:/Applications/ArmGNUToolchain/14.2.rel1/arm-none-eabi/arm-none-eabi/include/c++/14.2.1/bits/stl_algobase.h **** 	  for (; __first != __last; ++__first)
 967:/Applications/ArmGNUToolchain/14.2.rel1/arm-none-eabi/arm-none-eabi/include/c++/14.2.1/bits/stl_algobase.h **** 	    *__first = __tmp;
 968:/Applications/ArmGNUToolchain/14.2.rel1/arm-none-eabi/arm-none-eabi/include/c++/14.2.1/bits/stl_algobase.h **** 	  return;
 969:/Applications/ArmGNUToolchain/14.2.rel1/arm-none-eabi/arm-none-eabi/include/c++/14.2.1/bits/stl_algobase.h **** 	}
 970:/Applications/ArmGNUToolchain/14.2.rel1/arm-none-eabi/arm-none-eabi/include/c++/14.2.1/bits/stl_algobase.h **** #endif
 971:/Applications/ArmGNUToolchain/14.2.rel1/arm-none-eabi/arm-none-eabi/include/c++/14.2.1/bits/stl_algobase.h ****       if (const size_t __len = __last - __first)
 972:/Applications/ArmGNUToolchain/14.2.rel1/arm-none-eabi/arm-none-eabi/include/c++/14.2.1/bits/stl_algobase.h **** 	__builtin_memset(__first, static_cast<unsigned char>(__tmp), __len);
 973:/Applications/ArmGNUToolchain/14.2.rel1/arm-none-eabi/arm-none-eabi/include/c++/14.2.1/bits/stl_algobase.h ****     }
 974:/Applications/ArmGNUToolchain/14.2.rel1/arm-none-eabi/arm-none-eabi/include/c++/14.2.1/bits/stl_algobase.h **** 
 975:/Applications/ArmGNUToolchain/14.2.rel1/arm-none-eabi/arm-none-eabi/include/c++/14.2.1/bits/stl_algobase.h ****   template<typename _Ite, typename _Cont, typename _Tp>
 976:/Applications/ArmGNUToolchain/14.2.rel1/arm-none-eabi/arm-none-eabi/include/c++/14.2.1/bits/stl_algobase.h ****     _GLIBCXX20_CONSTEXPR
 977:/Applications/ArmGNUToolchain/14.2.rel1/arm-none-eabi/arm-none-eabi/include/c++/14.2.1/bits/stl_algobase.h ****     inline void
 978:/Applications/ArmGNUToolchain/14.2.rel1/arm-none-eabi/arm-none-eabi/include/c++/14.2.1/bits/stl_algobase.h ****     __fill_a1(::__gnu_cxx::__normal_iterator<_Ite, _Cont> __first,
 979:/Applications/ArmGNUToolchain/14.2.rel1/arm-none-eabi/arm-none-eabi/include/c++/14.2.1/bits/stl_algobase.h **** 	      ::__gnu_cxx::__normal_iterator<_Ite, _Cont> __last,
 980:/Applications/ArmGNUToolchain/14.2.rel1/arm-none-eabi/arm-none-eabi/include/c++/14.2.1/bits/stl_algobase.h **** 	      const _Tp& __value)
 981:/Applications/ArmGNUToolchain/14.2.rel1/arm-none-eabi/arm-none-eabi/include/c++/14.2.1/bits/stl_algobase.h ****     { std::__fill_a1(__first.base(), __last.base(), __value); }
 982:/Applications/ArmGNUToolchain/14.2.rel1/arm-none-eabi/arm-none-eabi/include/c++/14.2.1/bits/stl_algobase.h **** 
 983:/Applications/ArmGNUToolchain/14.2.rel1/arm-none-eabi/arm-none-eabi/include/c++/14.2.1/bits/stl_algobase.h ****   template<typename _Tp, typename _VTp>
 984:/Applications/ArmGNUToolchain/14.2.rel1/arm-none-eabi/arm-none-eabi/include/c++/14.2.1/bits/stl_algobase.h ****     void
 985:/Applications/ArmGNUToolchain/14.2.rel1/arm-none-eabi/arm-none-eabi/include/c++/14.2.1/bits/stl_algobase.h ****     __fill_a1(const _GLIBCXX_STD_C::_Deque_iterator<_Tp, _Tp&, _Tp*>&,
 986:/Applications/ArmGNUToolchain/14.2.rel1/arm-none-eabi/arm-none-eabi/include/c++/14.2.1/bits/stl_algobase.h **** 	      const _GLIBCXX_STD_C::_Deque_iterator<_Tp, _Tp&, _Tp*>&,
 987:/Applications/ArmGNUToolchain/14.2.rel1/arm-none-eabi/arm-none-eabi/include/c++/14.2.1/bits/stl_algobase.h **** 	      const _VTp&);
 988:/Applications/ArmGNUToolchain/14.2.rel1/arm-none-eabi/arm-none-eabi/include/c++/14.2.1/bits/stl_algobase.h **** 
 989:/Applications/ArmGNUToolchain/14.2.rel1/arm-none-eabi/arm-none-eabi/include/c++/14.2.1/bits/stl_algobase.h ****   _GLIBCXX20_CONSTEXPR
 990:/Applications/ArmGNUToolchain/14.2.rel1/arm-none-eabi/arm-none-eabi/include/c++/14.2.1/bits/stl_algobase.h ****   void
 991:/Applications/ArmGNUToolchain/14.2.rel1/arm-none-eabi/arm-none-eabi/include/c++/14.2.1/bits/stl_algobase.h ****   __fill_a1(_GLIBCXX_STD_C::_Bit_iterator, _GLIBCXX_STD_C::_Bit_iterator,
 992:/Applications/ArmGNUToolchain/14.2.rel1/arm-none-eabi/arm-none-eabi/include/c++/14.2.1/bits/stl_algobase.h **** 	    const bool&);
 993:/Applications/ArmGNUToolchain/14.2.rel1/arm-none-eabi/arm-none-eabi/include/c++/14.2.1/bits/stl_algobase.h **** 
 994:/Applications/ArmGNUToolchain/14.2.rel1/arm-none-eabi/arm-none-eabi/include/c++/14.2.1/bits/stl_algobase.h ****   template<typename _FIte, typename _Tp>
 995:/Applications/ArmGNUToolchain/14.2.rel1/arm-none-eabi/arm-none-eabi/include/c++/14.2.1/bits/stl_algobase.h ****     _GLIBCXX20_CONSTEXPR
 996:/Applications/ArmGNUToolchain/14.2.rel1/arm-none-eabi/arm-none-eabi/include/c++/14.2.1/bits/stl_algobase.h ****     inline void
 997:/Applications/ArmGNUToolchain/14.2.rel1/arm-none-eabi/arm-none-eabi/include/c++/14.2.1/bits/stl_algobase.h ****     __fill_a(_FIte __first, _FIte __last, const _Tp& __value)
 998:/Applications/ArmGNUToolchain/14.2.rel1/arm-none-eabi/arm-none-eabi/include/c++/14.2.1/bits/stl_algobase.h ****     { std::__fill_a1(__first, __last, __value); }
 999:/Applications/ArmGNUToolchain/14.2.rel1/arm-none-eabi/arm-none-eabi/include/c++/14.2.1/bits/stl_algobase.h **** 
1000:/Applications/ArmGNUToolchain/14.2.rel1/arm-none-eabi/arm-none-eabi/include/c++/14.2.1/bits/stl_algobase.h ****   template<typename _Ite, typename _Seq, typename _Cat, typename _Tp>
1001:/Applications/ArmGNUToolchain/14.2.rel1/arm-none-eabi/arm-none-eabi/include/c++/14.2.1/bits/stl_algobase.h ****     _GLIBCXX20_CONSTEXPR
1002:/Applications/ArmGNUToolchain/14.2.rel1/arm-none-eabi/arm-none-eabi/include/c++/14.2.1/bits/stl_algobase.h ****     void
1003:/Applications/ArmGNUToolchain/14.2.rel1/arm-none-eabi/arm-none-eabi/include/c++/14.2.1/bits/stl_algobase.h ****     __fill_a(const ::__gnu_debug::_Safe_iterator<_Ite, _Seq, _Cat>&,
1004:/Applications/ArmGNUToolchain/14.2.rel1/arm-none-eabi/arm-none-eabi/include/c++/14.2.1/bits/stl_algobase.h **** 	     const ::__gnu_debug::_Safe_iterator<_Ite, _Seq, _Cat>&,
1005:/Applications/ArmGNUToolchain/14.2.rel1/arm-none-eabi/arm-none-eabi/include/c++/14.2.1/bits/stl_algobase.h **** 	     const _Tp&);
1006:/Applications/ArmGNUToolchain/14.2.rel1/arm-none-eabi/arm-none-eabi/include/c++/14.2.1/bits/stl_algobase.h **** 
1007:/Applications/ArmGNUToolchain/14.2.rel1/arm-none-eabi/arm-none-eabi/include/c++/14.2.1/bits/stl_algobase.h ****   /**
1008:/Applications/ArmGNUToolchain/14.2.rel1/arm-none-eabi/arm-none-eabi/include/c++/14.2.1/bits/stl_algobase.h ****    *  @brief Fills the range [first,last) with copies of value.
1009:/Applications/ArmGNUToolchain/14.2.rel1/arm-none-eabi/arm-none-eabi/include/c++/14.2.1/bits/stl_algobase.h ****    *  @ingroup mutating_algorithms
ARM GAS  /var/folders/y7/g6pkzsp12sx54x3s3mvyn15r0000gn/T//ccVTo1ct.s 			page 29


1010:/Applications/ArmGNUToolchain/14.2.rel1/arm-none-eabi/arm-none-eabi/include/c++/14.2.1/bits/stl_algobase.h ****    *  @param  __first  A forward iterator.
1011:/Applications/ArmGNUToolchain/14.2.rel1/arm-none-eabi/arm-none-eabi/include/c++/14.2.1/bits/stl_algobase.h ****    *  @param  __last   A forward iterator.
1012:/Applications/ArmGNUToolchain/14.2.rel1/arm-none-eabi/arm-none-eabi/include/c++/14.2.1/bits/stl_algobase.h ****    *  @param  __value  A reference-to-const of arbitrary type.
1013:/Applications/ArmGNUToolchain/14.2.rel1/arm-none-eabi/arm-none-eabi/include/c++/14.2.1/bits/stl_algobase.h ****    *  @return   Nothing.
1014:/Applications/ArmGNUToolchain/14.2.rel1/arm-none-eabi/arm-none-eabi/include/c++/14.2.1/bits/stl_algobase.h ****    *
1015:/Applications/ArmGNUToolchain/14.2.rel1/arm-none-eabi/arm-none-eabi/include/c++/14.2.1/bits/stl_algobase.h ****    *  This function fills a range with copies of the same value.  For char
1016:/Applications/ArmGNUToolchain/14.2.rel1/arm-none-eabi/arm-none-eabi/include/c++/14.2.1/bits/stl_algobase.h ****    *  types filling contiguous areas of memory, this becomes an inline call
1017:/Applications/ArmGNUToolchain/14.2.rel1/arm-none-eabi/arm-none-eabi/include/c++/14.2.1/bits/stl_algobase.h ****    *  to @c memset or @c wmemset.
1018:/Applications/ArmGNUToolchain/14.2.rel1/arm-none-eabi/arm-none-eabi/include/c++/14.2.1/bits/stl_algobase.h ****   */
1019:/Applications/ArmGNUToolchain/14.2.rel1/arm-none-eabi/arm-none-eabi/include/c++/14.2.1/bits/stl_algobase.h ****   template<typename _ForwardIterator, typename _Tp>
1020:/Applications/ArmGNUToolchain/14.2.rel1/arm-none-eabi/arm-none-eabi/include/c++/14.2.1/bits/stl_algobase.h ****     _GLIBCXX20_CONSTEXPR
1021:/Applications/ArmGNUToolchain/14.2.rel1/arm-none-eabi/arm-none-eabi/include/c++/14.2.1/bits/stl_algobase.h ****     inline void
1022:/Applications/ArmGNUToolchain/14.2.rel1/arm-none-eabi/arm-none-eabi/include/c++/14.2.1/bits/stl_algobase.h ****     fill(_ForwardIterator __first, _ForwardIterator __last, const _Tp& __value)
 278              		.loc 5 1022 5 is_stmt 1 view .LVU75
 279              	.LBB221:
 280              	.LBI221:
 997:/Applications/ArmGNUToolchain/14.2.rel1/arm-none-eabi/arm-none-eabi/include/c++/14.2.1/bits/stl_algobase.h ****     { std::__fill_a1(__first, __last, __value); }
 281              		.loc 5 997 5 view .LVU76
 282              	.LBB222:
 283              	.LBI222:
 947:/Applications/ArmGNUToolchain/14.2.rel1/arm-none-eabi/arm-none-eabi/include/c++/14.2.1/bits/stl_algobase.h **** 	      const _Tp& __value)
 284              		.loc 5 947 5 view .LVU77
 285              	.L12:
 286              	.LBB223:
 951:/Applications/ArmGNUToolchain/14.2.rel1/arm-none-eabi/arm-none-eabi/include/c++/14.2.1/bits/stl_algobase.h **** 	*__first = __tmp;
 287              		.loc 5 951 22 discriminator 1 view .LVU78
 288 0038 9842     		cmp	r0, r3
 289 003a 6AD1     		bne	.L13
 290              	.LVL17:
 951:/Applications/ArmGNUToolchain/14.2.rel1/arm-none-eabi/arm-none-eabi/include/c++/14.2.1/bits/stl_algobase.h **** 	*__first = __tmp;
 291              		.loc 5 951 22 is_stmt 0 discriminator 1 view .LVU79
 292              	.LBE223:
 293              	.LBE222:
 294              	.LBE221:
 295              	.LBE220:
  89:../eurorack/plaits/dsp/oscillator/string_synth_oscillator.h ****     std::copy(
 296              		.loc 3 89 5 is_stmt 1 view .LVU80
  90:../eurorack/plaits/dsp/oscillator/string_synth_oscillator.h ****         &unshifted_registration[0],
  91:../eurorack/plaits/dsp/oscillator/string_synth_oscillator.h ****         &unshifted_registration[7 - shift],
 297              		.loc 3 91 35 is_stmt 0 view .LVU81
 298 003c C5F10705 		rsb	r5, r5, #7
 299              	.LVL18:
 300              		.loc 3 91 42 view .LVU82
 301 0040 AA00     		lsls	r2, r5, #2
 302              	.LVL19:
 303              	.LBB227:
 304              	.LBI227:
 642:/Applications/ArmGNUToolchain/14.2.rel1/arm-none-eabi/arm-none-eabi/include/c++/14.2.1/bits/stl_algobase.h ****     {
 305              		.loc 5 642 5 is_stmt 1 view .LVU83
 306              	.LBB228:
 307              	.LBI228:
 553:/Applications/ArmGNUToolchain/14.2.rel1/arm-none-eabi/arm-none-eabi/include/c++/14.2.1/bits/stl_algobase.h ****     {
 308              		.loc 5 553 5 view .LVU84
 309              	.LBB229:
 310              	.LBI229:
 547:/Applications/ArmGNUToolchain/14.2.rel1/arm-none-eabi/arm-none-eabi/include/c++/14.2.1/bits/stl_algobase.h ****     { return std::__copy_move_a2<_IsMove>(__first, __last, __result); }
 311              		.loc 5 547 5 view .LVU85
ARM GAS  /var/folders/y7/g6pkzsp12sx54x3s3mvyn15r0000gn/T//ccVTo1ct.s 			page 30


 312              	.LBB230:
 313              	.LBI230:
 512:/Applications/ArmGNUToolchain/14.2.rel1/arm-none-eabi/arm-none-eabi/include/c++/14.2.1/bits/stl_algobase.h ****     {
 314              		.loc 5 512 5 view .LVU86
 315              	.LBB231:
 316              	.LBB232:
 317              	.LBI232:
 448:/Applications/ArmGNUToolchain/14.2.rel1/arm-none-eabi/arm-none-eabi/include/c++/14.2.1/bits/stl_algobase.h **** 	{
 318              		.loc 5 448 2 view .LVU87
 319              	.LBB233:
 451:/Applications/ArmGNUToolchain/14.2.rel1/arm-none-eabi/arm-none-eabi/include/c++/14.2.1/bits/stl_algobase.h **** 	    __builtin_memmove(__result, __first, sizeof(_Tp) * _Num);
 320              		.loc 5 451 4 is_stmt 0 discriminator 1 view .LVU88
 321 0042 042A     		cmp	r2, #4
 322 0044 69D9     		bls	.L14
 452:/Applications/ArmGNUToolchain/14.2.rel1/arm-none-eabi/arm-none-eabi/include/c++/14.2.1/bits/stl_algobase.h **** 	  else if (_Num == 1)
 323              		.loc 5 452 23 view .LVU89
 324 0046 FFF7FEFF 		bl	memcpy
 325              	.LVL20:
 326              	.L15:
 452:/Applications/ArmGNUToolchain/14.2.rel1/arm-none-eabi/arm-none-eabi/include/c++/14.2.1/bits/stl_algobase.h **** 	  else if (_Num == 1)
 327              		.loc 5 452 23 view .LVU90
 328              	.LBE233:
 329              	.LBE232:
 330              	.LBE231:
 331              	.LBE230:
 332              	.LBE229:
 333              	.LBE228:
 334              	.LBE227:
  92:../eurorack/plaits/dsp/oscillator/string_synth_oscillator.h ****         &registration[shift]);
  93:../eurorack/plaits/dsp/oscillator/string_synth_oscillator.h ****     
  94:../eurorack/plaits/dsp/oscillator/string_synth_oscillator.h ****     stmlib::ParameterInterpolator fm(&frequency_, frequency, size);
 335              		.loc 3 94 5 is_stmt 1 view .LVU91
 336              	.LBB242:
 337              	.LBI242:
 338              		.file 6 "../eurorack/stmlib/dsp/parameter_interpolator.h"
   1:../eurorack/stmlib/dsp/parameter_interpolator.h **** // Copyright 2015 Emilie Gillet.
   2:../eurorack/stmlib/dsp/parameter_interpolator.h **** //
   3:../eurorack/stmlib/dsp/parameter_interpolator.h **** // Author: Emilie Gillet (emilie.o.gillet@gmail.com)
   4:../eurorack/stmlib/dsp/parameter_interpolator.h **** //
   5:../eurorack/stmlib/dsp/parameter_interpolator.h **** // Permission is hereby granted, free of charge, to any person obtaining a copy
   6:../eurorack/stmlib/dsp/parameter_interpolator.h **** // of this software and associated documentation files (the "Software"), to deal
   7:../eurorack/stmlib/dsp/parameter_interpolator.h **** // in the Software without restriction, including without limitation the rights
   8:../eurorack/stmlib/dsp/parameter_interpolator.h **** // to use, copy, modify, merge, publish, distribute, sublicense, and/or sell
   9:../eurorack/stmlib/dsp/parameter_interpolator.h **** // copies of the Software, and to permit persons to whom the Software is
  10:../eurorack/stmlib/dsp/parameter_interpolator.h **** // furnished to do so, subject to the following conditions:
  11:../eurorack/stmlib/dsp/parameter_interpolator.h **** // 
  12:../eurorack/stmlib/dsp/parameter_interpolator.h **** // The above copyright notice and this permission notice shall be included in
  13:../eurorack/stmlib/dsp/parameter_interpolator.h **** // all copies or substantial portions of the Software.
  14:../eurorack/stmlib/dsp/parameter_interpolator.h **** // 
  15:../eurorack/stmlib/dsp/parameter_interpolator.h **** // THE SOFTWARE IS PROVIDED "AS IS", WITHOUT WARRANTY OF ANY KIND, EXPRESS OR
  16:../eurorack/stmlib/dsp/parameter_interpolator.h **** // IMPLIED, INCLUDING BUT NOT LIMITED TO THE WARRANTIES OF MERCHANTABILITY,
  17:../eurorack/stmlib/dsp/parameter_interpolator.h **** // FITNESS FOR A PARTICULAR PURPOSE AND NONINFRINGEMENT. IN NO EVENT SHALL THE
  18:../eurorack/stmlib/dsp/parameter_interpolator.h **** // AUTHORS OR COPYRIGHT HOLDERS BE LIABLE FOR ANY CLAIM, DAMAGES OR OTHER
  19:../eurorack/stmlib/dsp/parameter_interpolator.h **** // LIABILITY, WHETHER IN AN ACTION OF CONTRACT, TORT OR OTHERWISE, ARISING FROM,
  20:../eurorack/stmlib/dsp/parameter_interpolator.h **** // OUT OF OR IN CONNECTION WITH THE SOFTWARE OR THE USE OR OTHER DEALINGS IN
  21:../eurorack/stmlib/dsp/parameter_interpolator.h **** // THE SOFTWARE.
  22:../eurorack/stmlib/dsp/parameter_interpolator.h **** // 
ARM GAS  /var/folders/y7/g6pkzsp12sx54x3s3mvyn15r0000gn/T//ccVTo1ct.s 			page 31


  23:../eurorack/stmlib/dsp/parameter_interpolator.h **** // See http://creativecommons.org/licenses/MIT/ for more information.
  24:../eurorack/stmlib/dsp/parameter_interpolator.h **** //
  25:../eurorack/stmlib/dsp/parameter_interpolator.h **** // -----------------------------------------------------------------------------
  26:../eurorack/stmlib/dsp/parameter_interpolator.h **** //
  27:../eurorack/stmlib/dsp/parameter_interpolator.h **** // Linear interpolation of parameters in rendering loops.
  28:../eurorack/stmlib/dsp/parameter_interpolator.h **** 
  29:../eurorack/stmlib/dsp/parameter_interpolator.h **** #ifndef STMLIB_DSP_PARAMETER_INTERPOLATOR_H_
  30:../eurorack/stmlib/dsp/parameter_interpolator.h **** #define STMLIB_DSP_PARAMETER_INTERPOLATOR_H_
  31:../eurorack/stmlib/dsp/parameter_interpolator.h **** 
  32:../eurorack/stmlib/dsp/parameter_interpolator.h **** #include "stmlib/stmlib.h"
  33:../eurorack/stmlib/dsp/parameter_interpolator.h **** 
  34:../eurorack/stmlib/dsp/parameter_interpolator.h **** namespace stmlib {
  35:../eurorack/stmlib/dsp/parameter_interpolator.h **** 
  36:../eurorack/stmlib/dsp/parameter_interpolator.h **** class ParameterInterpolator {
  37:../eurorack/stmlib/dsp/parameter_interpolator.h ****  public:
  38:../eurorack/stmlib/dsp/parameter_interpolator.h ****   ParameterInterpolator() { }
  39:../eurorack/stmlib/dsp/parameter_interpolator.h ****   ParameterInterpolator(float* state, float new_value, size_t size) {
 339              		.loc 6 39 3 view .LVU92
 340              	.LBB243:
 341              	.LBI243:
  40:../eurorack/stmlib/dsp/parameter_interpolator.h ****     Init(state, new_value, size);
  41:../eurorack/stmlib/dsp/parameter_interpolator.h ****   }
  42:../eurorack/stmlib/dsp/parameter_interpolator.h **** 
  43:../eurorack/stmlib/dsp/parameter_interpolator.h ****   ParameterInterpolator(float* state, float new_value, float step) {
  44:../eurorack/stmlib/dsp/parameter_interpolator.h ****     state_ = state;
  45:../eurorack/stmlib/dsp/parameter_interpolator.h ****     value_ = *state;
  46:../eurorack/stmlib/dsp/parameter_interpolator.h ****     increment_ = (new_value - *state) * step;
  47:../eurorack/stmlib/dsp/parameter_interpolator.h ****   }
  48:../eurorack/stmlib/dsp/parameter_interpolator.h **** 
  49:../eurorack/stmlib/dsp/parameter_interpolator.h ****   ~ParameterInterpolator() {
  50:../eurorack/stmlib/dsp/parameter_interpolator.h ****     *state_ = value_;
  51:../eurorack/stmlib/dsp/parameter_interpolator.h ****   }
  52:../eurorack/stmlib/dsp/parameter_interpolator.h ****   
  53:../eurorack/stmlib/dsp/parameter_interpolator.h ****   inline void Init(float* state, float new_value, size_t size) {
 342              		.loc 6 53 15 view .LVU93
 343              	.LBB244:
  54:../eurorack/stmlib/dsp/parameter_interpolator.h ****     state_ = state;
 344              		.loc 6 54 5 view .LVU94
  55:../eurorack/stmlib/dsp/parameter_interpolator.h ****     value_ = *state;
 345              		.loc 6 55 5 view .LVU95
 346              	.LBE244:
 347              	.LBE243:
 348              	.LBE242:
  95:../eurorack/plaits/dsp/oscillator/string_synth_oscillator.h ****     stmlib::ParameterInterpolator saw_8_gain_modulation(
  96:../eurorack/plaits/dsp/oscillator/string_synth_oscillator.h ****         &saw_8_gain_,
  97:../eurorack/plaits/dsp/oscillator/string_synth_oscillator.h ****         (registration[0] + 2.0f * registration[1]) * gain,
 349              		.loc 3 97 26 is_stmt 0 view .LVU96
 350 004a B0EE003A 		vmov.f32	s6, #2.0e+0
 351              		.loc 3 97 49 view .LVU97
 352 004e DDED026A 		vldr.32	s13, [sp, #8]
 353              		.loc 3 97 26 view .LVU98
 354 0052 9DED017A 		vldr.32	s14, [sp, #4]
 355              	.LBB253:
 356              	.LBB249:
 357              	.LBB245:
  56:../eurorack/stmlib/dsp/parameter_interpolator.h ****     increment_ = (new_value - *state) / static_cast<float>(size);
 358              		.loc 6 56 39 view .LVU99
ARM GAS  /var/folders/y7/g6pkzsp12sx54x3s3mvyn15r0000gn/T//ccVTo1ct.s 			page 32


 359 0056 07EE907A 		vmov	s15, r7	@ int
 360              	.LBE245:
 361              	.LBE249:
 362              	.LBE253:
 363              	.LBB254:
 364              	.LBB255:
 365              	.LBB256:
  55:../eurorack/stmlib/dsp/parameter_interpolator.h ****     value_ = *state;
 366              		.loc 6 55 14 view .LVU100
 367 005a D4ED045A 		vldr.32	s11, [r4, #16]
 368              	.LBE256:
 369              	.LBE255:
 370              	.LBE254:
 371              		.loc 3 97 26 view .LVU101
 372 005e A6EE837A 		vfma.f32	s14, s13, s6
  98:../eurorack/plaits/dsp/oscillator/string_synth_oscillator.h ****         size);
  99:../eurorack/plaits/dsp/oscillator/string_synth_oscillator.h ****     stmlib::ParameterInterpolator saw_4_gain_modulation(
 100:../eurorack/plaits/dsp/oscillator/string_synth_oscillator.h ****         &saw_4_gain_,
 101:../eurorack/plaits/dsp/oscillator/string_synth_oscillator.h ****         (registration[2] - registration[1] + 2.0f * registration[3]) * gain,
 373              		.loc 3 101 67 view .LVU102
 374 0062 DDED044A 		vldr.32	s9, [sp, #16]
 375              	.LBB265:
 376              	.LBB261:
 377              	.LBB257:
 378              		.loc 6 56 29 view .LVU103
 379 0066 B0EE655A 		vmov.f32	s10, s11
 380              	.LBE257:
 381              	.LBE261:
 382              	.LBE265:
 383              	.LBB266:
 384              	.LBB250:
 385              	.LBB246:
  55:../eurorack/stmlib/dsp/parameter_interpolator.h ****     increment_ = (new_value - *state) / static_cast<float>(size);
 386              		.loc 6 55 14 view .LVU104
 387 006a 94ED036A 		vldr.32	s12, [r4, #12]
 388              	.LVL21:
 389              		.loc 6 56 5 is_stmt 1 view .LVU105
 390              		.loc 6 56 39 is_stmt 0 view .LVU106
 391 006e F8EE677A 		vcvt.f32.u32	s15, s15
 392              	.LBE246:
 393              	.LBE250:
 394              	.LBE266:
 102:../eurorack/plaits/dsp/oscillator/string_synth_oscillator.h ****         size);
 103:../eurorack/plaits/dsp/oscillator/string_synth_oscillator.h ****     stmlib::ParameterInterpolator saw_2_gain_modulation(
 104:../eurorack/plaits/dsp/oscillator/string_synth_oscillator.h ****         &saw_2_gain_,
 105:../eurorack/plaits/dsp/oscillator/string_synth_oscillator.h ****         (registration[4] - registration[3] + 2.0f * registration[5]) * gain,
 106:../eurorack/plaits/dsp/oscillator/string_synth_oscillator.h ****         size);
 107:../eurorack/plaits/dsp/oscillator/string_synth_oscillator.h ****     stmlib::ParameterInterpolator saw_1_gain_modulation(
 108:../eurorack/plaits/dsp/oscillator/string_synth_oscillator.h ****         &saw_1_gain_,
 109:../eurorack/plaits/dsp/oscillator/string_synth_oscillator.h ****         (registration[6] - registration[5]) * gain,
 110:../eurorack/plaits/dsp/oscillator/string_synth_oscillator.h ****         size);
 111:../eurorack/plaits/dsp/oscillator/string_synth_oscillator.h ****     
 112:../eurorack/plaits/dsp/oscillator/string_synth_oscillator.h ****     float phase = phase_;
 113:../eurorack/plaits/dsp/oscillator/string_synth_oscillator.h ****     float next_sample = next_sample_;
 395              		.loc 3 113 11 view .LVU107
 396 0072 D4ED013A 		vldr.32	s7, [r4, #4]
 397              	.LBB267:
ARM GAS  /var/folders/y7/g6pkzsp12sx54x3s3mvyn15r0000gn/T//ccVTo1ct.s 			page 33


 398              	.LBB251:
 399              	.LBB247:
 400              		.loc 6 56 29 view .LVU108
 401 0076 39EE460A 		vsub.f32	s0, s18, s12
 402              	.LBE247:
 403              	.LBE251:
 404              	.LBE267:
 114:../eurorack/plaits/dsp/oscillator/string_synth_oscillator.h ****     int segment = segment_;
 405              		.loc 3 114 9 view .LVU109
 406 007a A368     		ldr	r3, [r4, #8]
 407              	.LBB268:
 408              	.LBB262:
 409              	.LBB258:
 410              		.loc 6 56 29 view .LVU110
 411 007c 97EE295A 		vfnms.f32	s10, s14, s19
 412              	.LBE258:
 413              	.LBE262:
 414              	.LBE268:
 101:../eurorack/plaits/dsp/oscillator/string_synth_oscillator.h ****         size);
 415              		.loc 3 101 26 view .LVU111
 416 0080 9DED037A 		vldr.32	s14, [sp, #12]
 417              	.LBB269:
 418              	.LBB252:
 419              	.LBB248:
 420              		.loc 6 56 39 view .LVU112
 421 0084 80EE279A 		vdiv.f32	s18, s0, s15
 422              	.LVL22:
 423              		.loc 6 56 39 view .LVU113
 424              	.LBE248:
 425              	.LBE252:
 426              	.LBE269:
  95:../eurorack/plaits/dsp/oscillator/string_synth_oscillator.h ****         &saw_8_gain_,
 427              		.loc 3 95 5 is_stmt 1 view .LVU114
 428              	.LBB270:
 429              	.LBI254:
  39:../eurorack/stmlib/dsp/parameter_interpolator.h ****     Init(state, new_value, size);
 430              		.loc 6 39 3 view .LVU115
 431              	.LBB263:
 432              	.LBI255:
  53:../eurorack/stmlib/dsp/parameter_interpolator.h ****     state_ = state;
 433              		.loc 6 53 15 view .LVU116
 434              	.LBB259:
  54:../eurorack/stmlib/dsp/parameter_interpolator.h ****     value_ = *state;
 435              		.loc 6 54 5 view .LVU117
  55:../eurorack/stmlib/dsp/parameter_interpolator.h ****     increment_ = (new_value - *state) / static_cast<float>(size);
 436              		.loc 6 55 5 view .LVU118
 437              		.loc 6 56 5 view .LVU119
 438              	.LBE259:
 439              	.LBE263:
 440              	.LBE270:
 101:../eurorack/plaits/dsp/oscillator/string_synth_oscillator.h ****         size);
 441              		.loc 3 101 26 is_stmt 0 view .LVU120
 442 0088 37EE667A 		vsub.f32	s14, s14, s13
 443              	.LBB271:
 444              	.LBB264:
 445              	.LBB260:
 446              		.loc 6 56 39 view .LVU121
ARM GAS  /var/folders/y7/g6pkzsp12sx54x3s3mvyn15r0000gn/T//ccVTo1ct.s 			page 34


 447 008c 85EE271A 		vdiv.f32	s2, s10, s15
 448              	.LVL23:
 449              		.loc 6 56 39 view .LVU122
 450              	.LBE260:
 451              	.LBE264:
 452              	.LBE271:
  99:../eurorack/plaits/dsp/oscillator/string_synth_oscillator.h ****         &saw_4_gain_,
 453              		.loc 3 99 5 is_stmt 1 view .LVU123
 454              	.LBB272:
 455              	.LBB273:
 456              	.LBB274:
  55:../eurorack/stmlib/dsp/parameter_interpolator.h ****     increment_ = (new_value - *state) / static_cast<float>(size);
 457              		.loc 6 55 14 is_stmt 0 view .LVU124
 458 0090 94ED055A 		vldr.32	s10, [r4, #20]
 459              	.LBE274:
 460              	.LBE273:
 461              	.LBE272:
 101:../eurorack/plaits/dsp/oscillator/string_synth_oscillator.h ****         size);
 462              		.loc 3 101 44 view .LVU125
 463 0094 A4EE837A 		vfma.f32	s14, s9, s6
 464              	.LVL24:
 465              	.LBB279:
 466              	.LBI272:
  39:../eurorack/stmlib/dsp/parameter_interpolator.h ****     Init(state, new_value, size);
 467              		.loc 6 39 3 is_stmt 1 view .LVU126
 468              	.LBB277:
 469              	.LBI273:
  53:../eurorack/stmlib/dsp/parameter_interpolator.h ****     state_ = state;
 470              		.loc 6 53 15 view .LVU127
 471              	.LBB275:
  54:../eurorack/stmlib/dsp/parameter_interpolator.h ****     value_ = *state;
 472              		.loc 6 54 5 view .LVU128
  55:../eurorack/stmlib/dsp/parameter_interpolator.h ****     increment_ = (new_value - *state) / static_cast<float>(size);
 473              		.loc 6 55 5 view .LVU129
 474              		.loc 6 56 5 view .LVU130
 475              		.loc 6 56 29 is_stmt 0 view .LVU131
 476 0098 F0EE456A 		vmov.f32	s13, s10
 477 009c D7EE296A 		vfnms.f32	s13, s14, s19
 478              	.LBE275:
 479              	.LBE277:
 480              	.LBE279:
 105:../eurorack/plaits/dsp/oscillator/string_synth_oscillator.h ****         size);
 481              		.loc 3 105 26 view .LVU132
 482 00a0 9DED057A 		vldr.32	s14, [sp, #20]
 483              	.LVL25:
 105:../eurorack/plaits/dsp/oscillator/string_synth_oscillator.h ****         size);
 484              		.loc 3 105 26 view .LVU133
 485 00a4 37EE647A 		vsub.f32	s14, s14, s9
 486              	.LBB280:
 487              	.LBB281:
 488              	.LBB282:
  55:../eurorack/stmlib/dsp/parameter_interpolator.h ****     increment_ = (new_value - *state) / static_cast<float>(size);
 489              		.loc 6 55 14 view .LVU134
 490 00a8 D4ED064A 		vldr.32	s9, [r4, #24]
 491              	.LVL26:
 492              		.loc 6 56 29 view .LVU135
 493 00ac B0EE644A 		vmov.f32	s8, s9
ARM GAS  /var/folders/y7/g6pkzsp12sx54x3s3mvyn15r0000gn/T//ccVTo1ct.s 			page 35


 494              	.LBE282:
 495              	.LBE281:
 496              	.LBE280:
 497              	.LBB287:
 498              	.LBB278:
 499              	.LBB276:
 500              		.loc 6 56 39 view .LVU136
 501 00b0 C6EEA71A 		vdiv.f32	s3, s13, s15
 502              	.LVL27:
 503              		.loc 6 56 39 view .LVU137
 504              	.LBE276:
 505              	.LBE278:
 506              	.LBE287:
 103:../eurorack/plaits/dsp/oscillator/string_synth_oscillator.h ****         &saw_2_gain_,
 507              		.loc 3 103 5 is_stmt 1 view .LVU138
 105:../eurorack/plaits/dsp/oscillator/string_synth_oscillator.h ****         size);
 508              		.loc 3 105 67 is_stmt 0 view .LVU139
 509 00b4 DDED066A 		vldr.32	s13, [sp, #24]
 105:../eurorack/plaits/dsp/oscillator/string_synth_oscillator.h ****         size);
 510              		.loc 3 105 44 view .LVU140
 511 00b8 A6EE837A 		vfma.f32	s14, s13, s6
 512              	.LVL28:
 513              	.LBB288:
 514              	.LBI280:
  39:../eurorack/stmlib/dsp/parameter_interpolator.h ****     Init(state, new_value, size);
 515              		.loc 6 39 3 is_stmt 1 view .LVU141
 516              	.LBB285:
 517              	.LBI281:
  53:../eurorack/stmlib/dsp/parameter_interpolator.h ****     state_ = state;
 518              		.loc 6 53 15 view .LVU142
 519              	.LBB283:
  54:../eurorack/stmlib/dsp/parameter_interpolator.h ****     value_ = *state;
 520              		.loc 6 54 5 view .LVU143
  55:../eurorack/stmlib/dsp/parameter_interpolator.h ****     increment_ = (new_value - *state) / static_cast<float>(size);
 521              		.loc 6 55 5 view .LVU144
 522              		.loc 6 56 5 view .LVU145
 523              		.loc 6 56 29 is_stmt 0 view .LVU146
 524 00bc 97EE294A 		vfnms.f32	s8, s14, s19
 525              	.LVL29:
 526              		.loc 6 56 29 view .LVU147
 527              	.LBE283:
 528              	.LBE285:
 529              	.LBE288:
 109:../eurorack/plaits/dsp/oscillator/string_synth_oscillator.h ****         size);
 530              		.loc 3 109 26 view .LVU148
 531 00c0 9DED077A 		vldr.32	s14, [sp, #28]
 532              	.LVL30:
 109:../eurorack/plaits/dsp/oscillator/string_synth_oscillator.h ****         size);
 533              		.loc 3 109 26 view .LVU149
 534 00c4 37EE667A 		vsub.f32	s14, s14, s13
 535              	.LBB289:
 536              	.LBB286:
 537              	.LBB284:
 538              		.loc 6 56 39 view .LVU150
 539 00c8 84EE272A 		vdiv.f32	s4, s8, s15
 540              	.LVL31:
 541              		.loc 6 56 39 view .LVU151
ARM GAS  /var/folders/y7/g6pkzsp12sx54x3s3mvyn15r0000gn/T//ccVTo1ct.s 			page 36


 542              	.LBE284:
 543              	.LBE286:
 544              	.LBE289:
 107:../eurorack/plaits/dsp/oscillator/string_synth_oscillator.h ****         &saw_1_gain_,
 545              		.loc 3 107 5 is_stmt 1 view .LVU152
 546              	.LBB290:
 547              	.LBI290:
  39:../eurorack/stmlib/dsp/parameter_interpolator.h ****     Init(state, new_value, size);
 548              		.loc 6 39 3 view .LVU153
 549              	.LBB291:
 550              	.LBI291:
  53:../eurorack/stmlib/dsp/parameter_interpolator.h ****     state_ = state;
 551              		.loc 6 53 15 view .LVU154
 552              	.LBB292:
  54:../eurorack/stmlib/dsp/parameter_interpolator.h ****     value_ = *state;
 553              		.loc 6 54 5 view .LVU155
  55:../eurorack/stmlib/dsp/parameter_interpolator.h ****     increment_ = (new_value - *state) / static_cast<float>(size);
 554              		.loc 6 55 5 view .LVU156
  55:../eurorack/stmlib/dsp/parameter_interpolator.h ****     increment_ = (new_value - *state) / static_cast<float>(size);
 555              		.loc 6 55 14 is_stmt 0 view .LVU157
 556 00cc 94ED074A 		vldr.32	s8, [r4, #28]
 557              	.LVL32:
 558              		.loc 6 56 5 is_stmt 1 view .LVU158
 559              		.loc 6 56 29 is_stmt 0 view .LVU159
 560 00d0 F0EE446A 		vmov.f32	s13, s8
 561              	.LVL33:
 562              		.loc 6 56 29 view .LVU160
 563 00d4 D7EE296A 		vfnms.f32	s13, s14, s19
 564              		.loc 6 56 39 view .LVU161
 565 00d8 C6EEA72A 		vdiv.f32	s5, s13, s15
 566              	.LVL34:
 567              		.loc 6 56 39 view .LVU162
 568              	.LBE292:
 569              	.LBE291:
 570              	.LBE290:
 112:../eurorack/plaits/dsp/oscillator/string_synth_oscillator.h ****     float next_sample = next_sample_;
 571              		.loc 3 112 5 is_stmt 1 view .LVU163
 112:../eurorack/plaits/dsp/oscillator/string_synth_oscillator.h ****     float next_sample = next_sample_;
 572              		.loc 3 112 11 is_stmt 0 view .LVU164
 573 00dc D4ED006A 		vldr.32	s13, [r4]
 574              	.LVL35:
 113:../eurorack/plaits/dsp/oscillator/string_synth_oscillator.h ****     int segment = segment_;
 575              		.loc 3 113 5 is_stmt 1 view .LVU165
 576              		.loc 3 114 5 view .LVU166
 115:../eurorack/plaits/dsp/oscillator/string_synth_oscillator.h ****     while (size--) {
 577              		.loc 3 115 5 view .LVU167
 578              	.L16:
 579              		.loc 3 115 16 view .LVU168
 580 00e0 013F     		subs	r7, r7, #1
 581              	.LVL36:
 582              		.loc 3 115 16 is_stmt 0 view .LVU169
 583 00e2 22D2     		bcs	.L23
 116:../eurorack/plaits/dsp/oscillator/string_synth_oscillator.h ****       float this_sample = next_sample;
 117:../eurorack/plaits/dsp/oscillator/string_synth_oscillator.h ****       next_sample = 0.0f;
 118:../eurorack/plaits/dsp/oscillator/string_synth_oscillator.h ****   
 119:../eurorack/plaits/dsp/oscillator/string_synth_oscillator.h ****       const float frequency = fm.Next();
 120:../eurorack/plaits/dsp/oscillator/string_synth_oscillator.h ****       const float saw_8_gain = saw_8_gain_modulation.Next();
ARM GAS  /var/folders/y7/g6pkzsp12sx54x3s3mvyn15r0000gn/T//ccVTo1ct.s 			page 37


 121:../eurorack/plaits/dsp/oscillator/string_synth_oscillator.h ****       const float saw_4_gain = saw_4_gain_modulation.Next();
 122:../eurorack/plaits/dsp/oscillator/string_synth_oscillator.h ****       const float saw_2_gain = saw_2_gain_modulation.Next();
 123:../eurorack/plaits/dsp/oscillator/string_synth_oscillator.h ****       const float saw_1_gain = saw_1_gain_modulation.Next();
 124:../eurorack/plaits/dsp/oscillator/string_synth_oscillator.h **** 
 125:../eurorack/plaits/dsp/oscillator/string_synth_oscillator.h ****       phase += frequency;
 126:../eurorack/plaits/dsp/oscillator/string_synth_oscillator.h ****       int next_segment = static_cast<int>(phase);
 127:../eurorack/plaits/dsp/oscillator/string_synth_oscillator.h ****       if (next_segment != segment) {
 128:../eurorack/plaits/dsp/oscillator/string_synth_oscillator.h ****         float discontinuity = 0.0f;
 129:../eurorack/plaits/dsp/oscillator/string_synth_oscillator.h ****         if (next_segment == 8) {
 130:../eurorack/plaits/dsp/oscillator/string_synth_oscillator.h ****           phase -= 8.0f;
 131:../eurorack/plaits/dsp/oscillator/string_synth_oscillator.h ****           next_segment -= 8;
 132:../eurorack/plaits/dsp/oscillator/string_synth_oscillator.h ****           discontinuity -= saw_8_gain;
 133:../eurorack/plaits/dsp/oscillator/string_synth_oscillator.h ****         }
 134:../eurorack/plaits/dsp/oscillator/string_synth_oscillator.h ****         if ((next_segment & 3) == 0) {
 135:../eurorack/plaits/dsp/oscillator/string_synth_oscillator.h ****           discontinuity -= saw_4_gain;
 136:../eurorack/plaits/dsp/oscillator/string_synth_oscillator.h ****         }
 137:../eurorack/plaits/dsp/oscillator/string_synth_oscillator.h ****         if ((next_segment & 1) == 0) {
 138:../eurorack/plaits/dsp/oscillator/string_synth_oscillator.h ****           discontinuity -= saw_2_gain;
 139:../eurorack/plaits/dsp/oscillator/string_synth_oscillator.h ****         }
 140:../eurorack/plaits/dsp/oscillator/string_synth_oscillator.h ****         discontinuity -= saw_1_gain;
 141:../eurorack/plaits/dsp/oscillator/string_synth_oscillator.h ****         if (discontinuity != 0.0f) {
 142:../eurorack/plaits/dsp/oscillator/string_synth_oscillator.h ****           float fraction = phase - static_cast<float>(next_segment);
 143:../eurorack/plaits/dsp/oscillator/string_synth_oscillator.h ****           float t = fraction / frequency;
 144:../eurorack/plaits/dsp/oscillator/string_synth_oscillator.h ****           this_sample += stmlib::ThisBlepSample(t) * discontinuity;
 145:../eurorack/plaits/dsp/oscillator/string_synth_oscillator.h ****           next_sample += stmlib::NextBlepSample(t) * discontinuity;
 146:../eurorack/plaits/dsp/oscillator/string_synth_oscillator.h ****         }
 147:../eurorack/plaits/dsp/oscillator/string_synth_oscillator.h ****       }
 148:../eurorack/plaits/dsp/oscillator/string_synth_oscillator.h ****       segment = next_segment;
 149:../eurorack/plaits/dsp/oscillator/string_synth_oscillator.h ****       
 150:../eurorack/plaits/dsp/oscillator/string_synth_oscillator.h ****       next_sample += (phase - 4.0f) * saw_8_gain * 0.125f;
 151:../eurorack/plaits/dsp/oscillator/string_synth_oscillator.h ****       next_sample += (phase - float(segment & 4) - 2.0f) * saw_4_gain * 0.25f;
 152:../eurorack/plaits/dsp/oscillator/string_synth_oscillator.h ****       next_sample += (phase - float(segment & 6) - 1.0f) * saw_2_gain * 0.5f;
 153:../eurorack/plaits/dsp/oscillator/string_synth_oscillator.h ****       next_sample += (phase - float(segment & 7) - 0.5f) * saw_1_gain;
 154:../eurorack/plaits/dsp/oscillator/string_synth_oscillator.h ****       *out++ += 2.0f * this_sample;
 155:../eurorack/plaits/dsp/oscillator/string_synth_oscillator.h ****     }
 156:../eurorack/plaits/dsp/oscillator/string_synth_oscillator.h ****     next_sample_ = next_sample;
 584              		.loc 3 156 5 is_stmt 1 view .LVU170
 585              		.loc 3 156 18 is_stmt 0 view .LVU171
 586 00e4 C4ED013A 		vstr.32	s7, [r4, #4]
 157:../eurorack/plaits/dsp/oscillator/string_synth_oscillator.h ****     phase_ = phase;
 587              		.loc 3 157 5 is_stmt 1 view .LVU172
 588              		.loc 3 157 12 is_stmt 0 view .LVU173
 589 00e8 C4ED006A 		vstr.32	s13, [r4]
 158:../eurorack/plaits/dsp/oscillator/string_synth_oscillator.h ****     segment_ = segment;
 590              		.loc 3 158 5 is_stmt 1 view .LVU174
 591              		.loc 3 158 14 is_stmt 0 view .LVU175
 592 00ec A360     		str	r3, [r4, #8]
 593              	.LVL37:
 594              	.LBB293:
 595              	.LBI293:
  49:../eurorack/stmlib/dsp/parameter_interpolator.h ****     *state_ = value_;
 596              		.loc 6 49 3 is_stmt 1 view .LVU176
 597              	.LBB294:
  50:../eurorack/stmlib/dsp/parameter_interpolator.h ****   }
 598              		.loc 6 50 5 view .LVU177
  50:../eurorack/stmlib/dsp/parameter_interpolator.h ****   }
 599              		.loc 6 50 13 is_stmt 0 view .LVU178
ARM GAS  /var/folders/y7/g6pkzsp12sx54x3s3mvyn15r0000gn/T//ccVTo1ct.s 			page 38


 600 00ee 84ED074A 		vstr.32	s8, [r4, #28]
 601              	.LVL38:
  50:../eurorack/stmlib/dsp/parameter_interpolator.h ****   }
 602              		.loc 6 50 13 view .LVU179
 603              	.LBE294:
 604              	.LBE293:
 605              	.LBB295:
 606              	.LBI295:
  49:../eurorack/stmlib/dsp/parameter_interpolator.h ****     *state_ = value_;
 607              		.loc 6 49 3 is_stmt 1 view .LVU180
 608              	.LBB296:
  50:../eurorack/stmlib/dsp/parameter_interpolator.h ****   }
 609              		.loc 6 50 5 view .LVU181
  50:../eurorack/stmlib/dsp/parameter_interpolator.h ****   }
 610              		.loc 6 50 13 is_stmt 0 view .LVU182
 611 00f2 C4ED064A 		vstr.32	s9, [r4, #24]
 612              	.LVL39:
  50:../eurorack/stmlib/dsp/parameter_interpolator.h ****   }
 613              		.loc 6 50 13 view .LVU183
 614              	.LBE296:
 615              	.LBE295:
 616              	.LBB297:
 617              	.LBI297:
  49:../eurorack/stmlib/dsp/parameter_interpolator.h ****     *state_ = value_;
 618              		.loc 6 49 3 is_stmt 1 view .LVU184
 619              	.LBB298:
  50:../eurorack/stmlib/dsp/parameter_interpolator.h ****   }
 620              		.loc 6 50 5 view .LVU185
  50:../eurorack/stmlib/dsp/parameter_interpolator.h ****   }
 621              		.loc 6 50 13 is_stmt 0 view .LVU186
 622 00f6 84ED055A 		vstr.32	s10, [r4, #20]
 623              	.LVL40:
  50:../eurorack/stmlib/dsp/parameter_interpolator.h ****   }
 624              		.loc 6 50 13 view .LVU187
 625              	.LBE298:
 626              	.LBE297:
 627              	.LBB299:
 628              	.LBI299:
  49:../eurorack/stmlib/dsp/parameter_interpolator.h ****     *state_ = value_;
 629              		.loc 6 49 3 is_stmt 1 view .LVU188
 630              	.LBB300:
  50:../eurorack/stmlib/dsp/parameter_interpolator.h ****   }
 631              		.loc 6 50 5 view .LVU189
  50:../eurorack/stmlib/dsp/parameter_interpolator.h ****   }
 632              		.loc 6 50 13 is_stmt 0 view .LVU190
 633 00fa C4ED045A 		vstr.32	s11, [r4, #16]
 634              	.LVL41:
  50:../eurorack/stmlib/dsp/parameter_interpolator.h ****   }
 635              		.loc 6 50 13 view .LVU191
 636              	.LBE300:
 637              	.LBE299:
 638              	.LBB301:
 639              	.LBI301:
  49:../eurorack/stmlib/dsp/parameter_interpolator.h ****     *state_ = value_;
 640              		.loc 6 49 3 is_stmt 1 view .LVU192
 641              	.LBB302:
  50:../eurorack/stmlib/dsp/parameter_interpolator.h ****   }
ARM GAS  /var/folders/y7/g6pkzsp12sx54x3s3mvyn15r0000gn/T//ccVTo1ct.s 			page 39


 642              		.loc 6 50 5 view .LVU193
  50:../eurorack/stmlib/dsp/parameter_interpolator.h ****   }
 643              		.loc 6 50 13 is_stmt 0 view .LVU194
 644 00fe 84ED036A 		vstr.32	s12, [r4, #12]
 645              	.LVL42:
 646              	.L8:
  50:../eurorack/stmlib/dsp/parameter_interpolator.h ****   }
 647              		.loc 6 50 13 view .LVU195
 648              	.LBE302:
 649              	.LBE301:
 159:../eurorack/plaits/dsp/oscillator/string_synth_oscillator.h ****   }
 650              		.loc 3 159 3 view .LVU196
 651 0102 09B0     		add	sp, sp, #36
 652              		.cfi_remember_state
 653              		.cfi_def_cfa_offset 36
 654              		@ sp needed
 655 0104 BDEC048B 		vldm	sp!, {d8-d9}
 656              		.cfi_restore 82
 657              		.cfi_restore 83
 658              		.cfi_restore 80
 659              		.cfi_restore 81
 660              		.cfi_def_cfa_offset 20
 661 0108 F0BD     		pop	{r4, r5, r6, r7, pc}
 662              	.LVL43:
 663              	.L10:
 664              		.cfi_restore_state
  79:../eurorack/plaits/dsp/oscillator/string_synth_oscillator.h ****       frequency *= 0.5f;
 665              		.loc 3 79 7 is_stmt 1 view .LVU197
  80:../eurorack/plaits/dsp/oscillator/string_synth_oscillator.h ****     }
 666              		.loc 3 80 17 is_stmt 0 view .LVU198
 667 010a 29EE089A 		vmul.f32	s18, s18, s16
 668              	.LVL44:
  79:../eurorack/plaits/dsp/oscillator/string_synth_oscillator.h ****       frequency *= 0.5f;
 669              		.loc 3 79 13 view .LVU199
 670 010e 0235     		adds	r5, r5, #2
 671              	.LVL45:
  80:../eurorack/plaits/dsp/oscillator/string_synth_oscillator.h ****     }
 672              		.loc 3 80 7 is_stmt 1 view .LVU200
 673 0110 84E7     		b	.L9
 674              	.LVL46:
 675              	.L13:
 676              	.LBB303:
 677              	.LBB226:
 678              	.LBB225:
 679              	.LBB224:
 952:/Applications/ArmGNUToolchain/14.2.rel1/arm-none-eabi/arm-none-eabi/include/c++/14.2.1/bits/stl_algobase.h ****     }
 680              		.loc 5 952 11 is_stmt 0 view .LVU201
 681 0112 0022     		movs	r2, #0
 682 0114 43F8042B 		str	r2, [r3], #4	@ float
 683              	.LVL47:
 951:/Applications/ArmGNUToolchain/14.2.rel1/arm-none-eabi/arm-none-eabi/include/c++/14.2.1/bits/stl_algobase.h **** 	*__first = __tmp;
 684              		.loc 5 951 7 is_stmt 1 discriminator 2 view .LVU202
 951:/Applications/ArmGNUToolchain/14.2.rel1/arm-none-eabi/arm-none-eabi/include/c++/14.2.1/bits/stl_algobase.h **** 	*__first = __tmp;
 685              		.loc 5 951 7 is_stmt 0 discriminator 2 view .LVU203
 686 0118 8EE7     		b	.L12
 687              	.LVL48:
 688              	.L14:
ARM GAS  /var/folders/y7/g6pkzsp12sx54x3s3mvyn15r0000gn/T//ccVTo1ct.s 			page 40


 951:/Applications/ArmGNUToolchain/14.2.rel1/arm-none-eabi/arm-none-eabi/include/c++/14.2.1/bits/stl_algobase.h **** 	*__first = __tmp;
 689              		.loc 5 951 7 discriminator 2 view .LVU204
 690              	.LBE224:
 691              	.LBE225:
 692              	.LBE226:
 693              	.LBE303:
 694              	.LBB304:
 695              	.LBB241:
 696              	.LBB240:
 697              	.LBB239:
 698              	.LBB238:
 699              	.LBB237:
 700              	.LBB236:
 701              	.LBB234:
 702              	.LBI234:
 412:/Applications/ArmGNUToolchain/14.2.rel1/arm-none-eabi/arm-none-eabi/include/c++/14.2.1/bits/stl_algobase.h **** 	{ *__to = *__from; }
 703              		.loc 5 412 2 is_stmt 1 view .LVU205
 704              	.LBB235:
 413:/Applications/ArmGNUToolchain/14.2.rel1/arm-none-eabi/arm-none-eabi/include/c++/14.2.1/bits/stl_algobase.h ****     };
 705              		.loc 5 413 10 is_stmt 0 view .LVU206
 706 011a 0CF12003 		add	r3, ip, #32
 707              	.LVL49:
 413:/Applications/ArmGNUToolchain/14.2.rel1/arm-none-eabi/arm-none-eabi/include/c++/14.2.1/bits/stl_algobase.h ****     };
 708              		.loc 5 413 10 view .LVU207
 709 011e 0DEB030C 		add	ip, sp, r3
 710 0122 0B68     		ldr	r3, [r1]	@ float
 711 0124 4CF81C3C 		str	r3, [ip, #-28]	@ float
 712              	.LVL50:
 413:/Applications/ArmGNUToolchain/14.2.rel1/arm-none-eabi/arm-none-eabi/include/c++/14.2.1/bits/stl_algobase.h ****     };
 713              		.loc 5 413 21 view .LVU208
 714 0128 8FE7     		b	.L15
 715              	.LVL51:
 716              	.L23:
 413:/Applications/ArmGNUToolchain/14.2.rel1/arm-none-eabi/arm-none-eabi/include/c++/14.2.1/bits/stl_algobase.h ****     };
 717              		.loc 5 413 21 view .LVU209
 718              	.LBE235:
 719              	.LBE234:
 720              	.LBE236:
 721              	.LBE237:
 722              	.LBE238:
 723              	.LBE239:
 724              	.LBE240:
 725              	.LBE241:
 726              	.LBE304:
 727              	.LBB305:
 116:../eurorack/plaits/dsp/oscillator/string_synth_oscillator.h ****       next_sample = 0.0f;
 728              		.loc 3 116 7 is_stmt 1 view .LVU210
 117:../eurorack/plaits/dsp/oscillator/string_synth_oscillator.h ****   
 729              		.loc 3 117 7 view .LVU211
 119:../eurorack/plaits/dsp/oscillator/string_synth_oscillator.h ****       const float saw_8_gain = saw_8_gain_modulation.Next();
 730              		.loc 3 119 7 view .LVU212
 731              	.LBB306:
 732              	.LBI306:
  57:../eurorack/stmlib/dsp/parameter_interpolator.h ****   }
  58:../eurorack/stmlib/dsp/parameter_interpolator.h **** 
  59:../eurorack/stmlib/dsp/parameter_interpolator.h ****   inline float Next() {
 733              		.loc 6 59 16 view .LVU213
ARM GAS  /var/folders/y7/g6pkzsp12sx54x3s3mvyn15r0000gn/T//ccVTo1ct.s 			page 41


 734              	.LBB307:
  60:../eurorack/stmlib/dsp/parameter_interpolator.h ****     value_ += increment_;
 735              		.loc 6 60 5 view .LVU214
 736              		.loc 6 60 12 is_stmt 0 view .LVU215
 737 012a 36EE096A 		vadd.f32	s12, s12, s18
 738              	.LVL52:
  61:../eurorack/stmlib/dsp/parameter_interpolator.h ****     return value_;
 739              		.loc 6 61 5 is_stmt 1 view .LVU216
 740              		.loc 6 61 5 is_stmt 0 view .LVU217
 741              	.LBE307:
 742              	.LBE306:
 120:../eurorack/plaits/dsp/oscillator/string_synth_oscillator.h ****       const float saw_4_gain = saw_4_gain_modulation.Next();
 743              		.loc 3 120 7 is_stmt 1 view .LVU218
 744              	.LBB308:
 745              	.LBI308:
  59:../eurorack/stmlib/dsp/parameter_interpolator.h ****     value_ += increment_;
 746              		.loc 6 59 16 view .LVU219
 747              	.LBB309:
  60:../eurorack/stmlib/dsp/parameter_interpolator.h ****     return value_;
 748              		.loc 6 60 5 view .LVU220
  60:../eurorack/stmlib/dsp/parameter_interpolator.h ****     return value_;
 749              		.loc 6 60 12 is_stmt 0 view .LVU221
 750 012e 75EE815A 		vadd.f32	s11, s11, s2
 751              	.LVL53:
 752              		.loc 6 61 5 is_stmt 1 view .LVU222
 753              		.loc 6 61 5 is_stmt 0 view .LVU223
 754              	.LBE309:
 755              	.LBE308:
 121:../eurorack/plaits/dsp/oscillator/string_synth_oscillator.h ****       const float saw_2_gain = saw_2_gain_modulation.Next();
 756              		.loc 3 121 7 is_stmt 1 view .LVU224
 757              	.LBB310:
 758              	.LBI310:
  59:../eurorack/stmlib/dsp/parameter_interpolator.h ****     value_ += increment_;
 759              		.loc 6 59 16 view .LVU225
 760              	.LBB311:
  60:../eurorack/stmlib/dsp/parameter_interpolator.h ****     return value_;
 761              		.loc 6 60 5 view .LVU226
  60:../eurorack/stmlib/dsp/parameter_interpolator.h ****     return value_;
 762              		.loc 6 60 12 is_stmt 0 view .LVU227
 763 0132 35EE215A 		vadd.f32	s10, s10, s3
 764              	.LVL54:
 765              		.loc 6 61 5 is_stmt 1 view .LVU228
 766              		.loc 6 61 5 is_stmt 0 view .LVU229
 767              	.LBE311:
 768              	.LBE310:
 122:../eurorack/plaits/dsp/oscillator/string_synth_oscillator.h ****       const float saw_1_gain = saw_1_gain_modulation.Next();
 769              		.loc 3 122 7 is_stmt 1 view .LVU230
 770              	.LBB312:
 771              	.LBI312:
  59:../eurorack/stmlib/dsp/parameter_interpolator.h ****     value_ += increment_;
 772              		.loc 6 59 16 view .LVU231
 773              	.LBB313:
  60:../eurorack/stmlib/dsp/parameter_interpolator.h ****     return value_;
 774              		.loc 6 60 5 view .LVU232
 775              	.LBE313:
 776              	.LBE312:
 125:../eurorack/plaits/dsp/oscillator/string_synth_oscillator.h ****       int next_segment = static_cast<int>(phase);
ARM GAS  /var/folders/y7/g6pkzsp12sx54x3s3mvyn15r0000gn/T//ccVTo1ct.s 			page 42


 777              		.loc 3 125 13 is_stmt 0 view .LVU233
 778 0136 76EE866A 		vadd.f32	s13, s13, s12
 779              	.LVL55:
 780              	.LBB315:
 781              	.LBB314:
  60:../eurorack/stmlib/dsp/parameter_interpolator.h ****     return value_;
 782              		.loc 6 60 12 view .LVU234
 783 013a 74EE824A 		vadd.f32	s9, s9, s4
 784              	.LVL56:
 785              		.loc 6 61 5 is_stmt 1 view .LVU235
 786              		.loc 6 61 5 is_stmt 0 view .LVU236
 787              	.LBE314:
 788              	.LBE315:
 123:../eurorack/plaits/dsp/oscillator/string_synth_oscillator.h **** 
 789              		.loc 3 123 7 is_stmt 1 view .LVU237
 790              	.LBB316:
 791              	.LBI316:
  59:../eurorack/stmlib/dsp/parameter_interpolator.h ****     value_ += increment_;
 792              		.loc 6 59 16 view .LVU238
 793              	.LBB317:
  60:../eurorack/stmlib/dsp/parameter_interpolator.h ****     return value_;
 794              		.loc 6 60 5 view .LVU239
  60:../eurorack/stmlib/dsp/parameter_interpolator.h ****     return value_;
 795              		.loc 6 60 12 is_stmt 0 view .LVU240
 796 013e 34EE224A 		vadd.f32	s8, s8, s5
 797              	.LVL57:
 798              		.loc 6 61 5 is_stmt 1 view .LVU241
 799              		.loc 6 61 5 is_stmt 0 view .LVU242
 800              	.LBE317:
 801              	.LBE316:
 125:../eurorack/plaits/dsp/oscillator/string_synth_oscillator.h ****       int next_segment = static_cast<int>(phase);
 802              		.loc 3 125 7 is_stmt 1 view .LVU243
 126:../eurorack/plaits/dsp/oscillator/string_synth_oscillator.h ****       if (next_segment != segment) {
 803              		.loc 3 126 7 view .LVU244
 126:../eurorack/plaits/dsp/oscillator/string_synth_oscillator.h ****       if (next_segment != segment) {
 804              		.loc 3 126 11 is_stmt 0 view .LVU245
 805 0142 FDEEE67A 		vcvt.s32.f32	s15, s13
 806 0146 F7EE000A 		vmov.f32	s1, #1.0e+0
 807 014a 17EE901A 		vmov	r1, s15	@ int
 808              	.LVL58:
 127:../eurorack/plaits/dsp/oscillator/string_synth_oscillator.h ****         float discontinuity = 0.0f;
 809              		.loc 3 127 7 is_stmt 1 view .LVU246
 810 014e DFED3B7A 		vldr.32	s15, .L27
 811              	.LBB318:
 812 0152 8B42     		cmp	r3, r1
 813 0154 30D0     		beq	.L17
 814              	.LBB319:
 128:../eurorack/plaits/dsp/oscillator/string_synth_oscillator.h ****         if (next_segment == 8) {
 815              		.loc 3 128 9 view .LVU247
 816              	.LVL59:
 129:../eurorack/plaits/dsp/oscillator/string_synth_oscillator.h ****           phase -= 8.0f;
 817              		.loc 3 129 9 view .LVU248
 818 0156 0829     		cmp	r1, #8
 819 0158 09D1     		bne	.L18
 130:../eurorack/plaits/dsp/oscillator/string_synth_oscillator.h ****           next_segment -= 8;
 820              		.loc 3 130 11 view .LVU249
 130:../eurorack/plaits/dsp/oscillator/string_synth_oscillator.h ****           next_segment -= 8;
ARM GAS  /var/folders/y7/g6pkzsp12sx54x3s3mvyn15r0000gn/T//ccVTo1ct.s 			page 43


 821              		.loc 3 130 17 is_stmt 0 view .LVU250
 822 015a 76EEE86A 		vsub.f32	s13, s13, s17
 823              	.LVL60:
 131:../eurorack/plaits/dsp/oscillator/string_synth_oscillator.h ****           discontinuity -= saw_8_gain;
 824              		.loc 3 131 11 is_stmt 1 view .LVU251
 132:../eurorack/plaits/dsp/oscillator/string_synth_oscillator.h ****         }
 825              		.loc 3 132 11 view .LVU252
 131:../eurorack/plaits/dsp/oscillator/string_synth_oscillator.h ****           discontinuity -= saw_8_gain;
 826              		.loc 3 131 24 is_stmt 0 view .LVU253
 827 015e 0021     		movs	r1, #0
 132:../eurorack/plaits/dsp/oscillator/string_synth_oscillator.h ****         }
 828              		.loc 3 132 25 view .LVU254
 829 0160 37EEE57A 		vsub.f32	s14, s15, s11
 830              	.LVL61:
 134:../eurorack/plaits/dsp/oscillator/string_synth_oscillator.h ****           discontinuity -= saw_4_gain;
 831              		.loc 3 134 9 is_stmt 1 view .LVU255
 832              	.L19:
 135:../eurorack/plaits/dsp/oscillator/string_synth_oscillator.h ****         }
 833              		.loc 3 135 11 view .LVU256
 135:../eurorack/plaits/dsp/oscillator/string_synth_oscillator.h ****         }
 834              		.loc 3 135 25 is_stmt 0 view .LVU257
 835 0164 37EE457A 		vsub.f32	s14, s14, s10
 836              	.LVL62:
 137:../eurorack/plaits/dsp/oscillator/string_synth_oscillator.h ****           discontinuity -= saw_2_gain;
 837              		.loc 3 137 9 is_stmt 1 view .LVU258
 838              	.L21:
 138:../eurorack/plaits/dsp/oscillator/string_synth_oscillator.h ****         }
 839              		.loc 3 138 11 view .LVU259
 138:../eurorack/plaits/dsp/oscillator/string_synth_oscillator.h ****         }
 840              		.loc 3 138 25 is_stmt 0 view .LVU260
 841 0168 37EE647A 		vsub.f32	s14, s14, s9
 842              	.LVL63:
 138:../eurorack/plaits/dsp/oscillator/string_synth_oscillator.h ****         }
 843              		.loc 3 138 25 view .LVU261
 844 016c 05E0     		b	.L22
 845              	.LVL64:
 846              	.L18:
 134:../eurorack/plaits/dsp/oscillator/string_synth_oscillator.h ****           discontinuity -= saw_4_gain;
 847              		.loc 3 134 9 is_stmt 1 view .LVU262
 848 016e 8A07     		lsls	r2, r1, #30
 849 0170 B0EE677A 		vmov.f32	s14, s15
 850 0174 F6D0     		beq	.L19
 137:../eurorack/plaits/dsp/oscillator/string_synth_oscillator.h ****           discontinuity -= saw_2_gain;
 851              		.loc 3 137 9 view .LVU263
 852 0176 CB07     		lsls	r3, r1, #31
 853              	.LVL65:
 137:../eurorack/plaits/dsp/oscillator/string_synth_oscillator.h ****           discontinuity -= saw_2_gain;
 854              		.loc 3 137 9 is_stmt 0 view .LVU264
 855 0178 F6D5     		bpl	.L21
 856              	.LVL66:
 857              	.L22:
 140:../eurorack/plaits/dsp/oscillator/string_synth_oscillator.h ****         if (discontinuity != 0.0f) {
 858              		.loc 3 140 9 is_stmt 1 view .LVU265
 140:../eurorack/plaits/dsp/oscillator/string_synth_oscillator.h ****         if (discontinuity != 0.0f) {
 859              		.loc 3 140 23 is_stmt 0 view .LVU266
 860 017a 37EE447A 		vsub.f32	s14, s14, s8
 861              	.LVL67:
ARM GAS  /var/folders/y7/g6pkzsp12sx54x3s3mvyn15r0000gn/T//ccVTo1ct.s 			page 44


 141:../eurorack/plaits/dsp/oscillator/string_synth_oscillator.h ****           float fraction = phase - static_cast<float>(next_segment);
 862              		.loc 3 141 9 is_stmt 1 view .LVU267
 863              	.LBB320:
 864 017e B5EE407A 		vcmp.f32	s14, #0
 865 0182 F1EE10FA 		vmrs	APSR_nzcv, FPSCR
 866 0186 55D0     		beq	.L26
 867              	.LBB321:
 142:../eurorack/plaits/dsp/oscillator/string_synth_oscillator.h ****           float t = fraction / frequency;
 868              		.loc 3 142 11 view .LVU268
 869              	.LVL68:
 143:../eurorack/plaits/dsp/oscillator/string_synth_oscillator.h ****           this_sample += stmlib::ThisBlepSample(t) * discontinuity;
 870              		.loc 3 143 11 view .LVU269
 142:../eurorack/plaits/dsp/oscillator/string_synth_oscillator.h ****           float t = fraction / frequency;
 871              		.loc 3 142 36 is_stmt 0 view .LVU270
 872 0188 00EE101A 		vmov	s0, r1	@ int
 873 018c F8EEC09A 		vcvt.f32.s32	s19, s0
 142:../eurorack/plaits/dsp/oscillator/string_synth_oscillator.h ****           float t = fraction / frequency;
 874              		.loc 3 142 17 view .LVU271
 875 0190 76EEE99A 		vsub.f32	s19, s13, s19
 876              	.LVL69:
 143:../eurorack/plaits/dsp/oscillator/string_synth_oscillator.h ****           this_sample += stmlib::ThisBlepSample(t) * discontinuity;
 877              		.loc 3 143 17 view .LVU272
 878 0194 89EE860A 		vdiv.f32	s0, s19, s12
 879              	.LVL70:
 144:../eurorack/plaits/dsp/oscillator/string_synth_oscillator.h ****           next_sample += stmlib::NextBlepSample(t) * discontinuity;
 880              		.loc 3 144 11 is_stmt 1 view .LVU273
 881              	.LBB322:
 882              	.LBI322:
 883              		.file 7 "../eurorack/stmlib/dsp/polyblep.h"
   1:../eurorack/stmlib/dsp/polyblep.h **** // Copyright 2017 Emilie Gillet.
   2:../eurorack/stmlib/dsp/polyblep.h **** //
   3:../eurorack/stmlib/dsp/polyblep.h **** // Author: Emilie Gillet (emilie.o.gillet@gmail.com)
   4:../eurorack/stmlib/dsp/polyblep.h **** //
   5:../eurorack/stmlib/dsp/polyblep.h **** // Permission is hereby granted, free of charge, to any person obtaining a copy
