ARM GAS  /var/folders/y7/g6pkzsp12sx54x3s3mvyn15r0000gn/T//ccwVequI.s 			page 1


   1              		.cpu cortex-m7
   2              		.arch armv7e-m
   3              		.fpu fpv5-d16
   4              		.eabi_attribute 28, 1
   5              		.eabi_attribute 20, 1
   6              		.eabi_attribute 21, 1
   7              		.eabi_attribute 23, 3
   8              		.eabi_attribute 24, 1
   9              		.eabi_attribute 25, 1
  10              		.eabi_attribute 26, 1
  11              		.eabi_attribute 30, 4
  12              		.eabi_attribute 34, 1
  13              		.eabi_attribute 18, 4
  14              		.file	"hi_hat_engine.cc"
  15              		.text
  16              	.Ltext0:
  17              		.cfi_sections	.debug_frame
  18              		.file 1 "../eurorack/plaits/dsp/engine/hi_hat_engine.cc"
  19              		.section	.text._ZN6plaits11HiHatEngine12LoadUserDataEPKh,"axG",%progbits,_ZN6plaits11HiHatEngine12
  20              		.align	1
  21              		.weak	_ZN6plaits11HiHatEngine12LoadUserDataEPKh
  22              		.syntax unified
  23              		.thumb
  24              		.thumb_func
  26              	_ZN6plaits11HiHatEngine12LoadUserDataEPKh:
  27              	.LVL0:
  28              	.LFB1388:
  29              		.file 2 "../eurorack/plaits/dsp/engine/hi_hat_engine.h"
   1:../eurorack/plaits/dsp/engine/hi_hat_engine.h **** // Copyright 2016 Emilie Gillet.
   2:../eurorack/plaits/dsp/engine/hi_hat_engine.h **** //
   3:../eurorack/plaits/dsp/engine/hi_hat_engine.h **** // Author: Emilie Gillet (emilie.o.gillet@gmail.com)
   4:../eurorack/plaits/dsp/engine/hi_hat_engine.h **** //
   5:../eurorack/plaits/dsp/engine/hi_hat_engine.h **** // Permission is hereby granted, free of charge, to any person obtaining a copy
   6:../eurorack/plaits/dsp/engine/hi_hat_engine.h **** // of this software and associated documentation files (the "Software"), to deal
   7:../eurorack/plaits/dsp/engine/hi_hat_engine.h **** // in the Software without restriction, including without limitation the rights
   8:../eurorack/plaits/dsp/engine/hi_hat_engine.h **** // to use, copy, modify, merge, publish, distribute, sublicense, and/or sell
   9:../eurorack/plaits/dsp/engine/hi_hat_engine.h **** // copies of the Software, and to permit persons to whom the Software is
  10:../eurorack/plaits/dsp/engine/hi_hat_engine.h **** // furnished to do so, subject to the following conditions:
  11:../eurorack/plaits/dsp/engine/hi_hat_engine.h **** // 
  12:../eurorack/plaits/dsp/engine/hi_hat_engine.h **** // The above copyright notice and this permission notice shall be included in
  13:../eurorack/plaits/dsp/engine/hi_hat_engine.h **** // all copies or substantial portions of the Software.
  14:../eurorack/plaits/dsp/engine/hi_hat_engine.h **** // 
  15:../eurorack/plaits/dsp/engine/hi_hat_engine.h **** // THE SOFTWARE IS PROVIDED "AS IS", WITHOUT WARRANTY OF ANY KIND, EXPRESS OR
  16:../eurorack/plaits/dsp/engine/hi_hat_engine.h **** // IMPLIED, INCLUDING BUT NOT LIMITED TO THE WARRANTIES OF MERCHANTABILITY,
  17:../eurorack/plaits/dsp/engine/hi_hat_engine.h **** // FITNESS FOR A PARTICULAR PURPOSE AND NONINFRINGEMENT. IN NO EVENT SHALL THE
  18:../eurorack/plaits/dsp/engine/hi_hat_engine.h **** // AUTHORS OR COPYRIGHT HOLDERS BE LIABLE FOR ANY CLAIM, DAMAGES OR OTHER
  19:../eurorack/plaits/dsp/engine/hi_hat_engine.h **** // LIABILITY, WHETHER IN AN ACTION OF CONTRACT, TORT OR OTHERWISE, ARISING FROM,
  20:../eurorack/plaits/dsp/engine/hi_hat_engine.h **** // OUT OF OR IN CONNECTION WITH THE SOFTWARE OR THE USE OR OTHER DEALINGS IN
  21:../eurorack/plaits/dsp/engine/hi_hat_engine.h **** // THE SOFTWARE.
  22:../eurorack/plaits/dsp/engine/hi_hat_engine.h **** // 
  23:../eurorack/plaits/dsp/engine/hi_hat_engine.h **** // See http://creativecommons.org/licenses/MIT/ for more information.
  24:../eurorack/plaits/dsp/engine/hi_hat_engine.h **** //
  25:../eurorack/plaits/dsp/engine/hi_hat_engine.h **** // -----------------------------------------------------------------------------
  26:../eurorack/plaits/dsp/engine/hi_hat_engine.h **** //
  27:../eurorack/plaits/dsp/engine/hi_hat_engine.h **** // 808-style HH with two noise sources - one faithful to the original, the other
  28:../eurorack/plaits/dsp/engine/hi_hat_engine.h **** // more metallic.
  29:../eurorack/plaits/dsp/engine/hi_hat_engine.h **** 
ARM GAS  /var/folders/y7/g6pkzsp12sx54x3s3mvyn15r0000gn/T//ccwVequI.s 			page 2


  30:../eurorack/plaits/dsp/engine/hi_hat_engine.h **** #ifndef PLAITS_DSP_ENGINE_HI_HAT_ENGINE_H_
  31:../eurorack/plaits/dsp/engine/hi_hat_engine.h **** #define PLAITS_DSP_ENGINE_HI_HAT_ENGINE_H_
  32:../eurorack/plaits/dsp/engine/hi_hat_engine.h **** 
  33:../eurorack/plaits/dsp/engine/hi_hat_engine.h **** #include "plaits/dsp/drums/hi_hat.h"
  34:../eurorack/plaits/dsp/engine/hi_hat_engine.h **** #include "plaits/dsp/engine/engine.h"
  35:../eurorack/plaits/dsp/engine/hi_hat_engine.h **** 
  36:../eurorack/plaits/dsp/engine/hi_hat_engine.h **** namespace plaits {
  37:../eurorack/plaits/dsp/engine/hi_hat_engine.h ****   
  38:../eurorack/plaits/dsp/engine/hi_hat_engine.h **** class HiHatEngine : public Engine {
  39:../eurorack/plaits/dsp/engine/hi_hat_engine.h ****  public:
  40:../eurorack/plaits/dsp/engine/hi_hat_engine.h ****   HiHatEngine() { }
  41:../eurorack/plaits/dsp/engine/hi_hat_engine.h ****   ~HiHatEngine() { }
  42:../eurorack/plaits/dsp/engine/hi_hat_engine.h ****   
  43:../eurorack/plaits/dsp/engine/hi_hat_engine.h ****   virtual void Init(stmlib::BufferAllocator* allocator);
  44:../eurorack/plaits/dsp/engine/hi_hat_engine.h ****   virtual void Reset();
  45:../eurorack/plaits/dsp/engine/hi_hat_engine.h ****   virtual void LoadUserData(const uint8_t* user_data) { }
  30              		.loc 2 45 16 view -0
  31              		.cfi_startproc
  32              		@ args = 0, pretend = 0, frame = 0
  33              		@ frame_needed = 0, uses_anonymous_args = 0
  34              		@ link register save eliminated.
  35              		.loc 2 45 57 is_stmt 0 view .LVU1
  36 0000 7047     		bx	lr
  37              		.cfi_endproc
  38              	.LFE1388:
  40              		.section	.text._ZN6plaits11HiHatEngine5ResetEv,"ax",%progbits
  41              		.align	1
  42              		.global	_ZN6plaits11HiHatEngine5ResetEv
  43              		.syntax unified
  44              		.thumb
  45              		.thumb_func
  47              	_ZN6plaits11HiHatEngine5ResetEv:
  48              	.LVL1:
  49              	.LFB1390:
   1:../eurorack/plaits/dsp/engine/hi_hat_engine.cc **** // Copyright 2016 Emilie Gillet.
   2:../eurorack/plaits/dsp/engine/hi_hat_engine.cc **** //
   3:../eurorack/plaits/dsp/engine/hi_hat_engine.cc **** // Author: Emilie Gillet (emilie.o.gillet@gmail.com)
   4:../eurorack/plaits/dsp/engine/hi_hat_engine.cc **** //
   5:../eurorack/plaits/dsp/engine/hi_hat_engine.cc **** // Permission is hereby granted, free of charge, to any person obtaining a copy
   6:../eurorack/plaits/dsp/engine/hi_hat_engine.cc **** // of this software and associated documentation files (the "Software"), to deal
   7:../eurorack/plaits/dsp/engine/hi_hat_engine.cc **** // in the Software without restriction, including without limitation the rights
   8:../eurorack/plaits/dsp/engine/hi_hat_engine.cc **** // to use, copy, modify, merge, publish, distribute, sublicense, and/or sell
   9:../eurorack/plaits/dsp/engine/hi_hat_engine.cc **** // copies of the Software, and to permit persons to whom the Software is
  10:../eurorack/plaits/dsp/engine/hi_hat_engine.cc **** // furnished to do so, subject to the following conditions:
  11:../eurorack/plaits/dsp/engine/hi_hat_engine.cc **** // 
  12:../eurorack/plaits/dsp/engine/hi_hat_engine.cc **** // The above copyright notice and this permission notice shall be included in
  13:../eurorack/plaits/dsp/engine/hi_hat_engine.cc **** // all copies or substantial portions of the Software.
  14:../eurorack/plaits/dsp/engine/hi_hat_engine.cc **** // 
  15:../eurorack/plaits/dsp/engine/hi_hat_engine.cc **** // THE SOFTWARE IS PROVIDED "AS IS", WITHOUT WARRANTY OF ANY KIND, EXPRESS OR
  16:../eurorack/plaits/dsp/engine/hi_hat_engine.cc **** // IMPLIED, INCLUDING BUT NOT LIMITED TO THE WARRANTIES OF MERCHANTABILITY,
  17:../eurorack/plaits/dsp/engine/hi_hat_engine.cc **** // FITNESS FOR A PARTICULAR PURPOSE AND NONINFRINGEMENT. IN NO EVENT SHALL THE
  18:../eurorack/plaits/dsp/engine/hi_hat_engine.cc **** // AUTHORS OR COPYRIGHT HOLDERS BE LIABLE FOR ANY CLAIM, DAMAGES OR OTHER
  19:../eurorack/plaits/dsp/engine/hi_hat_engine.cc **** // LIABILITY, WHETHER IN AN ACTION OF CONTRACT, TORT OR OTHERWISE, ARISING FROM,
  20:../eurorack/plaits/dsp/engine/hi_hat_engine.cc **** // OUT OF OR IN CONNECTION WITH THE SOFTWARE OR THE USE OR OTHER DEALINGS IN
  21:../eurorack/plaits/dsp/engine/hi_hat_engine.cc **** // THE SOFTWARE.
  22:../eurorack/plaits/dsp/engine/hi_hat_engine.cc **** // 
  23:../eurorack/plaits/dsp/engine/hi_hat_engine.cc **** // See http://creativecommons.org/licenses/MIT/ for more information.
ARM GAS  /var/folders/y7/g6pkzsp12sx54x3s3mvyn15r0000gn/T//ccwVequI.s 			page 3


  24:../eurorack/plaits/dsp/engine/hi_hat_engine.cc **** //
  25:../eurorack/plaits/dsp/engine/hi_hat_engine.cc **** // -----------------------------------------------------------------------------
  26:../eurorack/plaits/dsp/engine/hi_hat_engine.cc **** //
  27:../eurorack/plaits/dsp/engine/hi_hat_engine.cc **** // 808-style HH with two noise sources - one faithful to the original, the other
  28:../eurorack/plaits/dsp/engine/hi_hat_engine.cc **** // more metallic.
  29:../eurorack/plaits/dsp/engine/hi_hat_engine.cc **** 
  30:../eurorack/plaits/dsp/engine/hi_hat_engine.cc **** #include "plaits/dsp/engine/hi_hat_engine.h"
  31:../eurorack/plaits/dsp/engine/hi_hat_engine.cc **** 
  32:../eurorack/plaits/dsp/engine/hi_hat_engine.cc **** namespace plaits {
  33:../eurorack/plaits/dsp/engine/hi_hat_engine.cc **** 
  34:../eurorack/plaits/dsp/engine/hi_hat_engine.cc **** using namespace stmlib;
  35:../eurorack/plaits/dsp/engine/hi_hat_engine.cc **** 
  36:../eurorack/plaits/dsp/engine/hi_hat_engine.cc **** void HiHatEngine::Init(BufferAllocator* allocator) {
  37:../eurorack/plaits/dsp/engine/hi_hat_engine.cc ****   hi_hat_1_.Init();
  38:../eurorack/plaits/dsp/engine/hi_hat_engine.cc ****   hi_hat_2_.Init();
  39:../eurorack/plaits/dsp/engine/hi_hat_engine.cc ****   temp_buffer_ = allocator->Allocate<float>(kMaxBlockSize * 2);
  40:../eurorack/plaits/dsp/engine/hi_hat_engine.cc **** }
  41:../eurorack/plaits/dsp/engine/hi_hat_engine.cc **** 
  42:../eurorack/plaits/dsp/engine/hi_hat_engine.cc **** void HiHatEngine::Reset() {
  50              		.loc 1 42 27 is_stmt 1 view -0
  51              		.cfi_startproc
  52              		@ args = 0, pretend = 0, frame = 0
  53              		@ frame_needed = 0, uses_anonymous_args = 0
  54              		@ link register save eliminated.
  43:../eurorack/plaits/dsp/engine/hi_hat_engine.cc ****   
  44:../eurorack/plaits/dsp/engine/hi_hat_engine.cc **** }
  55              		.loc 1 44 1 is_stmt 0 view .LVU3
  56 0000 7047     		bx	lr
  57              		.cfi_endproc
  58              	.LFE1390:
  60              		.section	.text._ZN6stmlib3Svf4InitEv,"axG",%progbits,_ZN6stmlib3Svf4InitEv,comdat
  61              		.align	1
  62              		.weak	_ZN6stmlib3Svf4InitEv
  63              		.syntax unified
  64              		.thumb
  65              		.thumb_func
  67              	_ZN6stmlib3Svf4InitEv:
  68              	.LVL2:
  69              	.LFB1242:
  70              		.file 3 "../eurorack/stmlib/dsp/filter.h"
   1:../eurorack/stmlib/dsp/filter.h **** // Copyright 2014 Emilie Gillet.
   2:../eurorack/stmlib/dsp/filter.h **** //
   3:../eurorack/stmlib/dsp/filter.h **** // Author: Emilie Gillet (emilie.o.gillet@gmail.com)
   4:../eurorack/stmlib/dsp/filter.h **** //
   5:../eurorack/stmlib/dsp/filter.h **** // Permission is hereby granted, free of charge, to any person obtaining a copy
   6:../eurorack/stmlib/dsp/filter.h **** // of this software and associated documentation files (the "Software"), to deal
   7:../eurorack/stmlib/dsp/filter.h **** // in the Software without restriction, including without limitation the rights
   8:../eurorack/stmlib/dsp/filter.h **** // to use, copy, modify, merge, publish, distribute, sublicense, and/or sell
   9:../eurorack/stmlib/dsp/filter.h **** // copies of the Software, and to permit persons to whom the Software is
  10:../eurorack/stmlib/dsp/filter.h **** // furnished to do so, subject to the following conditions:
  11:../eurorack/stmlib/dsp/filter.h **** // 
  12:../eurorack/stmlib/dsp/filter.h **** // The above copyright notice and this permission notice shall be included in
  13:../eurorack/stmlib/dsp/filter.h **** // all copies or substantial portions of the Software.
  14:../eurorack/stmlib/dsp/filter.h **** // 
  15:../eurorack/stmlib/dsp/filter.h **** // THE SOFTWARE IS PROVIDED "AS IS", WITHOUT WARRANTY OF ANY KIND, EXPRESS OR
  16:../eurorack/stmlib/dsp/filter.h **** // IMPLIED, INCLUDING BUT NOT LIMITED TO THE WARRANTIES OF MERCHANTABILITY,
  17:../eurorack/stmlib/dsp/filter.h **** // FITNESS FOR A PARTICULAR PURPOSE AND NONINFRINGEMENT. IN NO EVENT SHALL THE
ARM GAS  /var/folders/y7/g6pkzsp12sx54x3s3mvyn15r0000gn/T//ccwVequI.s 			page 4


  18:../eurorack/stmlib/dsp/filter.h **** // AUTHORS OR COPYRIGHT HOLDERS BE LIABLE FOR ANY CLAIM, DAMAGES OR OTHER
  19:../eurorack/stmlib/dsp/filter.h **** // LIABILITY, WHETHER IN AN ACTION OF CONTRACT, TORT OR OTHERWISE, ARISING FROM,
  20:../eurorack/stmlib/dsp/filter.h **** // OUT OF OR IN CONNECTION WITH THE SOFTWARE OR THE USE OR OTHER DEALINGS IN
  21:../eurorack/stmlib/dsp/filter.h **** // THE SOFTWARE.
  22:../eurorack/stmlib/dsp/filter.h **** // 
  23:../eurorack/stmlib/dsp/filter.h **** // See http://creativecommons.org/licenses/MIT/ for more information.
  24:../eurorack/stmlib/dsp/filter.h **** //
  25:../eurorack/stmlib/dsp/filter.h **** // -----------------------------------------------------------------------------
  26:../eurorack/stmlib/dsp/filter.h **** //
  27:../eurorack/stmlib/dsp/filter.h **** // Zero-delay-feedback filters (one pole and SVF).
  28:../eurorack/stmlib/dsp/filter.h **** // Naive SVF.
  29:../eurorack/stmlib/dsp/filter.h **** 
  30:../eurorack/stmlib/dsp/filter.h **** #ifndef STMLIB_DSP_FILTER_H_
  31:../eurorack/stmlib/dsp/filter.h **** #define STMLIB_DSP_FILTER_H_
  32:../eurorack/stmlib/dsp/filter.h **** 
  33:../eurorack/stmlib/dsp/filter.h **** #include "stmlib/stmlib.h"
  34:../eurorack/stmlib/dsp/filter.h **** 
  35:../eurorack/stmlib/dsp/filter.h **** #include <cmath>
  36:../eurorack/stmlib/dsp/filter.h **** #include <algorithm>
  37:../eurorack/stmlib/dsp/filter.h **** 
  38:../eurorack/stmlib/dsp/filter.h **** namespace stmlib {
  39:../eurorack/stmlib/dsp/filter.h **** 
  40:../eurorack/stmlib/dsp/filter.h **** enum FilterMode {
  41:../eurorack/stmlib/dsp/filter.h ****   FILTER_MODE_LOW_PASS,
  42:../eurorack/stmlib/dsp/filter.h ****   FILTER_MODE_BAND_PASS,
  43:../eurorack/stmlib/dsp/filter.h ****   FILTER_MODE_BAND_PASS_NORMALIZED,
  44:../eurorack/stmlib/dsp/filter.h ****   FILTER_MODE_HIGH_PASS
  45:../eurorack/stmlib/dsp/filter.h **** };
  46:../eurorack/stmlib/dsp/filter.h **** 
  47:../eurorack/stmlib/dsp/filter.h **** enum FrequencyApproximation {
  48:../eurorack/stmlib/dsp/filter.h ****   FREQUENCY_EXACT,
  49:../eurorack/stmlib/dsp/filter.h ****   FREQUENCY_ACCURATE,
  50:../eurorack/stmlib/dsp/filter.h ****   FREQUENCY_FAST,
  51:../eurorack/stmlib/dsp/filter.h ****   FREQUENCY_DIRTY
  52:../eurorack/stmlib/dsp/filter.h **** };
  53:../eurorack/stmlib/dsp/filter.h **** 
  54:../eurorack/stmlib/dsp/filter.h **** #define M_PI_F float(M_PI)
  55:../eurorack/stmlib/dsp/filter.h **** #define M_PI_POW_2 M_PI * M_PI
  56:../eurorack/stmlib/dsp/filter.h **** #define M_PI_POW_3 M_PI_POW_2 * M_PI
  57:../eurorack/stmlib/dsp/filter.h **** #define M_PI_POW_5 M_PI_POW_3 * M_PI_POW_2
  58:../eurorack/stmlib/dsp/filter.h **** #define M_PI_POW_7 M_PI_POW_5 * M_PI_POW_2
  59:../eurorack/stmlib/dsp/filter.h **** #define M_PI_POW_9 M_PI_POW_7 * M_PI_POW_2
  60:../eurorack/stmlib/dsp/filter.h **** #define M_PI_POW_11 M_PI_POW_9 * M_PI_POW_2
  61:../eurorack/stmlib/dsp/filter.h **** 
  62:../eurorack/stmlib/dsp/filter.h **** class DCBlocker {
  63:../eurorack/stmlib/dsp/filter.h ****  public:
  64:../eurorack/stmlib/dsp/filter.h ****   DCBlocker() { }
  65:../eurorack/stmlib/dsp/filter.h ****   ~DCBlocker() { }
  66:../eurorack/stmlib/dsp/filter.h ****   
  67:../eurorack/stmlib/dsp/filter.h ****   void Init(float pole) {
  68:../eurorack/stmlib/dsp/filter.h ****     x_ = 0.0f;
  69:../eurorack/stmlib/dsp/filter.h ****     y_ = 0.0f;
  70:../eurorack/stmlib/dsp/filter.h ****     pole_ = pole;
  71:../eurorack/stmlib/dsp/filter.h ****   }
  72:../eurorack/stmlib/dsp/filter.h ****   
  73:../eurorack/stmlib/dsp/filter.h ****   inline void Process(float* in_out, size_t size) {
  74:../eurorack/stmlib/dsp/filter.h ****     float x = x_;
ARM GAS  /var/folders/y7/g6pkzsp12sx54x3s3mvyn15r0000gn/T//ccwVequI.s 			page 5


  75:../eurorack/stmlib/dsp/filter.h ****     float y = y_;
  76:../eurorack/stmlib/dsp/filter.h ****     const float pole = pole_;
  77:../eurorack/stmlib/dsp/filter.h ****     while (size--) {
  78:../eurorack/stmlib/dsp/filter.h ****       float old_x = x;
  79:../eurorack/stmlib/dsp/filter.h ****       x = *in_out;
  80:../eurorack/stmlib/dsp/filter.h ****       *in_out++ = y = y * pole + x - old_x;
  81:../eurorack/stmlib/dsp/filter.h ****     }
  82:../eurorack/stmlib/dsp/filter.h ****     x_ = x;
  83:../eurorack/stmlib/dsp/filter.h ****     y_ = y;
  84:../eurorack/stmlib/dsp/filter.h ****   }
  85:../eurorack/stmlib/dsp/filter.h ****   
  86:../eurorack/stmlib/dsp/filter.h ****  private:
  87:../eurorack/stmlib/dsp/filter.h ****   float pole_;
  88:../eurorack/stmlib/dsp/filter.h ****   float x_;
  89:../eurorack/stmlib/dsp/filter.h ****   float y_;
  90:../eurorack/stmlib/dsp/filter.h **** };
  91:../eurorack/stmlib/dsp/filter.h **** 
  92:../eurorack/stmlib/dsp/filter.h **** class OnePole {
  93:../eurorack/stmlib/dsp/filter.h ****  public:
  94:../eurorack/stmlib/dsp/filter.h ****   OnePole() { }
  95:../eurorack/stmlib/dsp/filter.h ****   ~OnePole() { }
  96:../eurorack/stmlib/dsp/filter.h ****   
  97:../eurorack/stmlib/dsp/filter.h ****   void Init() {
  98:../eurorack/stmlib/dsp/filter.h ****     set_f<FREQUENCY_DIRTY>(0.01f);
  99:../eurorack/stmlib/dsp/filter.h ****     Reset();
 100:../eurorack/stmlib/dsp/filter.h ****   }
 101:../eurorack/stmlib/dsp/filter.h ****   
 102:../eurorack/stmlib/dsp/filter.h ****   void Reset() {
 103:../eurorack/stmlib/dsp/filter.h ****     state_ = 0.0f;
 104:../eurorack/stmlib/dsp/filter.h ****   }
 105:../eurorack/stmlib/dsp/filter.h ****   
 106:../eurorack/stmlib/dsp/filter.h ****   template<FrequencyApproximation approximation>
 107:../eurorack/stmlib/dsp/filter.h ****   static inline float tan(float f) {
 108:../eurorack/stmlib/dsp/filter.h ****     if (approximation == FREQUENCY_EXACT) {
 109:../eurorack/stmlib/dsp/filter.h ****       // Clip coefficient to about 100.
 110:../eurorack/stmlib/dsp/filter.h ****       f = f < 0.497f ? f : 0.497f;
 111:../eurorack/stmlib/dsp/filter.h ****       return tanf(M_PI_F * f);
 112:../eurorack/stmlib/dsp/filter.h ****     } else if (approximation == FREQUENCY_DIRTY) {
 113:../eurorack/stmlib/dsp/filter.h ****       // Optimized for frequencies below 8kHz.
 114:../eurorack/stmlib/dsp/filter.h ****       const float a = 3.736e-01f * M_PI_POW_3;
 115:../eurorack/stmlib/dsp/filter.h ****       return f * (M_PI_F + a * f * f);
 116:../eurorack/stmlib/dsp/filter.h ****     } else if (approximation == FREQUENCY_FAST) {
 117:../eurorack/stmlib/dsp/filter.h ****       // The usual tangent approximation uses 3.1755e-01 and 2.033e-01, but
 118:../eurorack/stmlib/dsp/filter.h ****       // the coefficients used here are optimized to minimize error for the
 119:../eurorack/stmlib/dsp/filter.h ****       // 16Hz to 16kHz range, with a sample rate of 48kHz.
 120:../eurorack/stmlib/dsp/filter.h ****       const float a = 3.260e-01f * M_PI_POW_3;
 121:../eurorack/stmlib/dsp/filter.h ****       const float b = 1.823e-01f * M_PI_POW_5;
 122:../eurorack/stmlib/dsp/filter.h ****       float f2 = f * f;
 123:../eurorack/stmlib/dsp/filter.h ****       return f * (M_PI_F + f2 * (a + b * f2));
 124:../eurorack/stmlib/dsp/filter.h ****     } else if (approximation == FREQUENCY_ACCURATE) {
 125:../eurorack/stmlib/dsp/filter.h ****       // These coefficients don't need to be tweaked for the audio range.
 126:../eurorack/stmlib/dsp/filter.h ****       const float a = 3.333314036e-01f * M_PI_POW_3;
 127:../eurorack/stmlib/dsp/filter.h ****       const float b = 1.333923995e-01f * M_PI_POW_5;
 128:../eurorack/stmlib/dsp/filter.h ****       const float c = 5.33740603e-02f * M_PI_POW_7;
 129:../eurorack/stmlib/dsp/filter.h ****       const float d = 2.900525e-03f * M_PI_POW_9;
 130:../eurorack/stmlib/dsp/filter.h ****       const float e = 9.5168091e-03f * M_PI_POW_11;
 131:../eurorack/stmlib/dsp/filter.h ****       float f2 = f * f;
ARM GAS  /var/folders/y7/g6pkzsp12sx54x3s3mvyn15r0000gn/T//ccwVequI.s 			page 6


 132:../eurorack/stmlib/dsp/filter.h ****       return f * (M_PI_F + f2 * (a + f2 * (b + f2 * (c + f2 * (d + f2 * e)))));
 133:../eurorack/stmlib/dsp/filter.h ****     }
 134:../eurorack/stmlib/dsp/filter.h ****   }
 135:../eurorack/stmlib/dsp/filter.h ****   
 136:../eurorack/stmlib/dsp/filter.h ****   // Set frequency and resonance from true units. Various approximations
 137:../eurorack/stmlib/dsp/filter.h ****   // are available to avoid the cost of tanf.
 138:../eurorack/stmlib/dsp/filter.h ****   template<FrequencyApproximation approximation>
 139:../eurorack/stmlib/dsp/filter.h ****   inline void set_f(float f) {
 140:../eurorack/stmlib/dsp/filter.h ****     g_ = tan<approximation>(f);
 141:../eurorack/stmlib/dsp/filter.h ****     gi_ = 1.0f / (1.0f + g_);
 142:../eurorack/stmlib/dsp/filter.h ****   }
 143:../eurorack/stmlib/dsp/filter.h ****   
 144:../eurorack/stmlib/dsp/filter.h ****   template<FilterMode mode>
 145:../eurorack/stmlib/dsp/filter.h ****   inline float Process(float in) {
 146:../eurorack/stmlib/dsp/filter.h ****     float lp;
 147:../eurorack/stmlib/dsp/filter.h ****     lp = (g_ * in + state_) * gi_;
 148:../eurorack/stmlib/dsp/filter.h ****     state_ = g_ * (in - lp) + lp;
 149:../eurorack/stmlib/dsp/filter.h **** 
 150:../eurorack/stmlib/dsp/filter.h ****     if (mode == FILTER_MODE_LOW_PASS) {
 151:../eurorack/stmlib/dsp/filter.h ****       return lp;
 152:../eurorack/stmlib/dsp/filter.h ****     } else if (mode == FILTER_MODE_HIGH_PASS) {
 153:../eurorack/stmlib/dsp/filter.h ****       return in - lp;
 154:../eurorack/stmlib/dsp/filter.h ****     } else {
 155:../eurorack/stmlib/dsp/filter.h ****       return 0.0f;
 156:../eurorack/stmlib/dsp/filter.h ****     }
 157:../eurorack/stmlib/dsp/filter.h ****   }
 158:../eurorack/stmlib/dsp/filter.h ****   
 159:../eurorack/stmlib/dsp/filter.h ****   template<FilterMode mode>
 160:../eurorack/stmlib/dsp/filter.h ****   inline void Process(float* in_out, size_t size) {
 161:../eurorack/stmlib/dsp/filter.h ****     while (size--) {
 162:../eurorack/stmlib/dsp/filter.h ****       *in_out = Process<mode>(*in_out);
 163:../eurorack/stmlib/dsp/filter.h ****       ++in_out;
 164:../eurorack/stmlib/dsp/filter.h ****     }
 165:../eurorack/stmlib/dsp/filter.h ****   }
 166:../eurorack/stmlib/dsp/filter.h ****   
 167:../eurorack/stmlib/dsp/filter.h ****  private:
 168:../eurorack/stmlib/dsp/filter.h ****   float g_;
 169:../eurorack/stmlib/dsp/filter.h ****   float gi_;
 170:../eurorack/stmlib/dsp/filter.h ****   float state_;
 171:../eurorack/stmlib/dsp/filter.h ****   
 172:../eurorack/stmlib/dsp/filter.h ****   DISALLOW_COPY_AND_ASSIGN(OnePole);
 173:../eurorack/stmlib/dsp/filter.h **** };
 174:../eurorack/stmlib/dsp/filter.h **** 
 175:../eurorack/stmlib/dsp/filter.h **** 
 176:../eurorack/stmlib/dsp/filter.h **** 
 177:../eurorack/stmlib/dsp/filter.h **** class Svf {
 178:../eurorack/stmlib/dsp/filter.h ****  public:
 179:../eurorack/stmlib/dsp/filter.h ****   Svf() { }
 180:../eurorack/stmlib/dsp/filter.h ****   ~Svf() { }
 181:../eurorack/stmlib/dsp/filter.h ****   
 182:../eurorack/stmlib/dsp/filter.h ****   void Init() {
  71              		.loc 3 182 8 is_stmt 1 view -0
  72              		.cfi_startproc
  73              		@ args = 0, pretend = 0, frame = 0
  74              		@ frame_needed = 0, uses_anonymous_args = 0
  75              		@ link register save eliminated.
 183:../eurorack/stmlib/dsp/filter.h ****     set_f_q<FREQUENCY_DIRTY>(0.01f, 100.0f);
ARM GAS  /var/folders/y7/g6pkzsp12sx54x3s3mvyn15r0000gn/T//ccwVequI.s 			page 7


  76              		.loc 3 183 5 view .LVU5
  77              	.LBB114:
  78              	.LBI114:
 184:../eurorack/stmlib/dsp/filter.h ****     Reset();
 185:../eurorack/stmlib/dsp/filter.h ****   }
 186:../eurorack/stmlib/dsp/filter.h ****   
 187:../eurorack/stmlib/dsp/filter.h ****   void Reset() {
 188:../eurorack/stmlib/dsp/filter.h ****     state_1_ = state_2_ = 0.0f;
 189:../eurorack/stmlib/dsp/filter.h ****   }
 190:../eurorack/stmlib/dsp/filter.h ****   
 191:../eurorack/stmlib/dsp/filter.h ****   // Copy settings from another filter.
 192:../eurorack/stmlib/dsp/filter.h ****   inline void set(const Svf& f) {
 193:../eurorack/stmlib/dsp/filter.h ****     g_ = f.g();
 194:../eurorack/stmlib/dsp/filter.h ****     r_ = f.r();
 195:../eurorack/stmlib/dsp/filter.h ****     h_ = f.h();
 196:../eurorack/stmlib/dsp/filter.h ****   }
 197:../eurorack/stmlib/dsp/filter.h **** 
 198:../eurorack/stmlib/dsp/filter.h ****   // Set all parameters from LUT.
 199:../eurorack/stmlib/dsp/filter.h ****   inline void set_g_r_h(float g, float r, float h) {
 200:../eurorack/stmlib/dsp/filter.h ****     g_ = g;
 201:../eurorack/stmlib/dsp/filter.h ****     r_ = r;
 202:../eurorack/stmlib/dsp/filter.h ****     h_ = h;
 203:../eurorack/stmlib/dsp/filter.h ****   }
 204:../eurorack/stmlib/dsp/filter.h ****   
 205:../eurorack/stmlib/dsp/filter.h ****   // Set frequency and resonance coefficients from LUT, adjust remaining
 206:../eurorack/stmlib/dsp/filter.h ****   // parameter.
 207:../eurorack/stmlib/dsp/filter.h ****   inline void set_g_r(float g, float r) {
 208:../eurorack/stmlib/dsp/filter.h ****     g_ = g;
 209:../eurorack/stmlib/dsp/filter.h ****     r_ = r;
 210:../eurorack/stmlib/dsp/filter.h ****     h_ = 1.0f / (1.0f + r_ * g_ + g_ * g_);
 211:../eurorack/stmlib/dsp/filter.h ****   }
 212:../eurorack/stmlib/dsp/filter.h **** 
 213:../eurorack/stmlib/dsp/filter.h ****   // Set frequency from LUT, resonance in true units, adjust the rest.
 214:../eurorack/stmlib/dsp/filter.h ****   inline void set_g_q(float g, float resonance) {
 215:../eurorack/stmlib/dsp/filter.h ****     g_ = g;
 216:../eurorack/stmlib/dsp/filter.h ****     r_ = 1.0f / resonance;
 217:../eurorack/stmlib/dsp/filter.h ****     h_ = 1.0f / (1.0f + r_ * g_ + g_ * g_);
 218:../eurorack/stmlib/dsp/filter.h ****   }
 219:../eurorack/stmlib/dsp/filter.h **** 
 220:../eurorack/stmlib/dsp/filter.h ****   // Set frequency and resonance from true units. Various approximations
 221:../eurorack/stmlib/dsp/filter.h ****   // are available to avoid the cost of tanf.
 222:../eurorack/stmlib/dsp/filter.h ****   template<FrequencyApproximation approximation>
 223:../eurorack/stmlib/dsp/filter.h ****   inline void set_f_q(float f, float resonance) {
  79              		.loc 3 223 15 view .LVU6
  80              	.LBB115:
 224:../eurorack/stmlib/dsp/filter.h ****     g_ = OnePole::tan<approximation>(f);
  81              		.loc 3 224 8 is_stmt 0 discriminator 1 view .LVU7
  82 0000 044B     		ldr	r3, .L4
  83 0002 0360     		str	r3, [r0]	@ float
 225:../eurorack/stmlib/dsp/filter.h ****     r_ = 1.0f / resonance;
  84              		.loc 3 225 8 view .LVU8
  85 0004 044B     		ldr	r3, .L4+4
  86 0006 4360     		str	r3, [r0, #4]	@ float
 226:../eurorack/stmlib/dsp/filter.h ****     h_ = 1.0f / (1.0f + r_ * g_ + g_ * g_);
  87              		.loc 3 226 8 view .LVU9
  88 0008 044B     		ldr	r3, .L4+8
  89 000a 8360     		str	r3, [r0, #8]	@ float
ARM GAS  /var/folders/y7/g6pkzsp12sx54x3s3mvyn15r0000gn/T//ccwVequI.s 			page 8


  90              	.LVL3:
  91              		.loc 3 226 8 view .LVU10
  92              	.LBE115:
  93              	.LBE114:
 184:../eurorack/stmlib/dsp/filter.h ****   }
  94              		.loc 3 184 5 is_stmt 1 view .LVU11
  95              	.LBB116:
  96              	.LBI116:
 187:../eurorack/stmlib/dsp/filter.h ****     state_1_ = state_2_ = 0.0f;
  97              		.loc 3 187 8 view .LVU12
  98              	.LBB117:
 188:../eurorack/stmlib/dsp/filter.h ****   }
  99              		.loc 3 188 5 view .LVU13
 188:../eurorack/stmlib/dsp/filter.h ****   }
 100              		.loc 3 188 25 is_stmt 0 view .LVU14
 101 000c 0023     		movs	r3, #0
 102 000e 0361     		str	r3, [r0, #16]	@ float
 188:../eurorack/stmlib/dsp/filter.h ****   }
 103              		.loc 3 188 14 view .LVU15
 104 0010 C360     		str	r3, [r0, #12]	@ float
 105              	.LVL4:
 188:../eurorack/stmlib/dsp/filter.h ****   }
 106              		.loc 3 188 14 view .LVU16
 107              	.LBE117:
 108              	.LBE116:
 185:../eurorack/stmlib/dsp/filter.h ****   
 109              		.loc 3 185 3 view .LVU17
 110 0012 7047     		bx	lr
 111              	.L5:
 112              		.align	2
 113              	.L4:
 114 0014 22BA003D 		.word	1023457826
 115 0018 0AD7233C 		.word	1008981770
 116 001c CAAA7F3F 		.word	1065331402
 117              		.cfi_endproc
 118              	.LFE1242:
 120              		.section	.text._ZN6plaits11HiHatEngine4InitEPN6stmlib15BufferAllocatorE,"ax",%progbits
 121              		.align	1
 122              		.global	_ZN6plaits11HiHatEngine4InitEPN6stmlib15BufferAllocatorE
 123              		.syntax unified
 124              		.thumb
 125              		.thumb_func
 127              	_ZN6plaits11HiHatEngine4InitEPN6stmlib15BufferAllocatorE:
 128              	.LVL5:
 129              	.LFB1389:
  36:../eurorack/plaits/dsp/engine/hi_hat_engine.cc ****   hi_hat_1_.Init();
 130              		.loc 1 36 52 is_stmt 1 view -0
 131              		.cfi_startproc
 132              		@ args = 0, pretend = 0, frame = 0
 133              		@ frame_needed = 0, uses_anonymous_args = 0
  37:../eurorack/plaits/dsp/engine/hi_hat_engine.cc ****   hi_hat_2_.Init();
 134              		.loc 1 37 3 view .LVU19
 135              	.LBB138:
 136              	.LBI138:
 137              		.file 4 "../eurorack/plaits/dsp/drums/hi_hat.h"
   1:../eurorack/plaits/dsp/drums/hi_hat.h **** // Copyright 2016 Emilie Gillet.
   2:../eurorack/plaits/dsp/drums/hi_hat.h **** //
ARM GAS  /var/folders/y7/g6pkzsp12sx54x3s3mvyn15r0000gn/T//ccwVequI.s 			page 9


   3:../eurorack/plaits/dsp/drums/hi_hat.h **** // Author: Emilie Gillet (emilie.o.gillet@gmail.com)
   4:../eurorack/plaits/dsp/drums/hi_hat.h **** //
   5:../eurorack/plaits/dsp/drums/hi_hat.h **** // Permission is hereby granted, free of charge, to any person obtaining a copy
   6:../eurorack/plaits/dsp/drums/hi_hat.h **** // of this software and associated documentation files (the "Software"), to deal
   7:../eurorack/plaits/dsp/drums/hi_hat.h **** // in the Software without restriction, including without limitation the rights
   8:../eurorack/plaits/dsp/drums/hi_hat.h **** // to use, copy, modify, merge, publish, distribute, sublicense, and/or sell
   9:../eurorack/plaits/dsp/drums/hi_hat.h **** // copies of the Software, and to permit persons to whom the Software is
  10:../eurorack/plaits/dsp/drums/hi_hat.h **** // furnished to do so, subject to the following conditions:
  11:../eurorack/plaits/dsp/drums/hi_hat.h **** // 
  12:../eurorack/plaits/dsp/drums/hi_hat.h **** // The above copyright notice and this permission notice shall be included in
  13:../eurorack/plaits/dsp/drums/hi_hat.h **** // all copies or substantial portions of the Software.
  14:../eurorack/plaits/dsp/drums/hi_hat.h **** // 
  15:../eurorack/plaits/dsp/drums/hi_hat.h **** // THE SOFTWARE IS PROVIDED "AS IS", WITHOUT WARRANTY OF ANY KIND, EXPRESS OR
  16:../eurorack/plaits/dsp/drums/hi_hat.h **** // IMPLIED, INCLUDING BUT NOT LIMITED TO THE WARRANTIES OF MERCHANTABILITY,
  17:../eurorack/plaits/dsp/drums/hi_hat.h **** // FITNESS FOR A PARTICULAR PURPOSE AND NONINFRINGEMENT. IN NO EVENT SHALL THE
  18:../eurorack/plaits/dsp/drums/hi_hat.h **** // AUTHORS OR COPYRIGHT HOLDERS BE LIABLE FOR ANY CLAIM, DAMAGES OR OTHER
  19:../eurorack/plaits/dsp/drums/hi_hat.h **** // LIABILITY, WHETHER IN AN ACTION OF CONTRACT, TORT OR OTHERWISE, ARISING FROM,
  20:../eurorack/plaits/dsp/drums/hi_hat.h **** // OUT OF OR IN CONNECTION WITH THE SOFTWARE OR THE USE OR OTHER DEALINGS IN
  21:../eurorack/plaits/dsp/drums/hi_hat.h **** // THE SOFTWARE.
  22:../eurorack/plaits/dsp/drums/hi_hat.h **** // 
  23:../eurorack/plaits/dsp/drums/hi_hat.h **** // See http://creativecommons.org/licenses/MIT/ for more information.
  24:../eurorack/plaits/dsp/drums/hi_hat.h **** //
  25:../eurorack/plaits/dsp/drums/hi_hat.h **** // -----------------------------------------------------------------------------
  26:../eurorack/plaits/dsp/drums/hi_hat.h **** //
  27:../eurorack/plaits/dsp/drums/hi_hat.h **** // 808 HH, with a few extra parameters to push things to the CY territory...
  28:../eurorack/plaits/dsp/drums/hi_hat.h **** // The template parameter MetallicNoiseSource allows another kind of "metallic
  29:../eurorack/plaits/dsp/drums/hi_hat.h **** // noise" to be used, for results which are more similar to KR-55 or FM hi-hats.
  30:../eurorack/plaits/dsp/drums/hi_hat.h **** 
  31:../eurorack/plaits/dsp/drums/hi_hat.h **** #ifndef PLAITS_DSP_DRUMS_HI_HAT_H_
  32:../eurorack/plaits/dsp/drums/hi_hat.h **** #define PLAITS_DSP_DRUMS_HI_HAT_H_
  33:../eurorack/plaits/dsp/drums/hi_hat.h **** 
  34:../eurorack/plaits/dsp/drums/hi_hat.h **** #include <algorithm>
  35:../eurorack/plaits/dsp/drums/hi_hat.h **** 
  36:../eurorack/plaits/dsp/drums/hi_hat.h **** #include "stmlib/dsp/dsp.h"
  37:../eurorack/plaits/dsp/drums/hi_hat.h **** #include "stmlib/dsp/filter.h"
  38:../eurorack/plaits/dsp/drums/hi_hat.h **** #include "stmlib/dsp/parameter_interpolator.h"
  39:../eurorack/plaits/dsp/drums/hi_hat.h **** #include "stmlib/dsp/units.h"
  40:../eurorack/plaits/dsp/drums/hi_hat.h **** #include "stmlib/utils/random.h"
  41:../eurorack/plaits/dsp/drums/hi_hat.h **** 
  42:../eurorack/plaits/dsp/drums/hi_hat.h **** #include "plaits/dsp/dsp.h"
  43:../eurorack/plaits/dsp/drums/hi_hat.h **** #include "plaits/dsp/oscillator/oscillator.h"
  44:../eurorack/plaits/dsp/drums/hi_hat.h **** 
  45:../eurorack/plaits/dsp/drums/hi_hat.h **** namespace plaits {
  46:../eurorack/plaits/dsp/drums/hi_hat.h **** 
  47:../eurorack/plaits/dsp/drums/hi_hat.h **** // 808 style "metallic noise" with 6 square oscillators.
  48:../eurorack/plaits/dsp/drums/hi_hat.h **** class SquareNoise {
  49:../eurorack/plaits/dsp/drums/hi_hat.h ****  public:
  50:../eurorack/plaits/dsp/drums/hi_hat.h ****   SquareNoise() { }
  51:../eurorack/plaits/dsp/drums/hi_hat.h ****   ~SquareNoise() { }
  52:../eurorack/plaits/dsp/drums/hi_hat.h **** 
  53:../eurorack/plaits/dsp/drums/hi_hat.h ****   void Init() {
  54:../eurorack/plaits/dsp/drums/hi_hat.h ****     std::fill(&phase_[0], &phase_[6], 0);
  55:../eurorack/plaits/dsp/drums/hi_hat.h ****   }
  56:../eurorack/plaits/dsp/drums/hi_hat.h ****     
  57:../eurorack/plaits/dsp/drums/hi_hat.h ****   void Render(float f0, float* temp_1, float* temp_2, float* out, size_t size) {
  58:../eurorack/plaits/dsp/drums/hi_hat.h ****     const float ratios[6] = {
  59:../eurorack/plaits/dsp/drums/hi_hat.h ****         // Nominal f0: 414 Hz
ARM GAS  /var/folders/y7/g6pkzsp12sx54x3s3mvyn15r0000gn/T//ccwVequI.s 			page 10


  60:../eurorack/plaits/dsp/drums/hi_hat.h ****         1.0f, 1.304f, 1.466f, 1.787f, 1.932f, 2.536f
  61:../eurorack/plaits/dsp/drums/hi_hat.h ****     };
  62:../eurorack/plaits/dsp/drums/hi_hat.h ****   
  63:../eurorack/plaits/dsp/drums/hi_hat.h ****     uint32_t increment[6];
  64:../eurorack/plaits/dsp/drums/hi_hat.h ****     uint32_t phase[6];
  65:../eurorack/plaits/dsp/drums/hi_hat.h ****     for (int i = 0; i < 6; ++i) {
  66:../eurorack/plaits/dsp/drums/hi_hat.h ****       float f = f0 * ratios[i];
  67:../eurorack/plaits/dsp/drums/hi_hat.h ****       if (f >= 0.499f) f = 0.499f;
  68:../eurorack/plaits/dsp/drums/hi_hat.h ****       increment[i] = static_cast<uint32_t>(f * 4294967296.0f);
  69:../eurorack/plaits/dsp/drums/hi_hat.h ****       phase[i] = phase_[i];
  70:../eurorack/plaits/dsp/drums/hi_hat.h ****     }
  71:../eurorack/plaits/dsp/drums/hi_hat.h **** 
  72:../eurorack/plaits/dsp/drums/hi_hat.h ****     while (size--) {
  73:../eurorack/plaits/dsp/drums/hi_hat.h ****       phase[0] += increment[0];
  74:../eurorack/plaits/dsp/drums/hi_hat.h ****       phase[1] += increment[1];
  75:../eurorack/plaits/dsp/drums/hi_hat.h ****       phase[2] += increment[2];
  76:../eurorack/plaits/dsp/drums/hi_hat.h ****       phase[3] += increment[3];
  77:../eurorack/plaits/dsp/drums/hi_hat.h ****       phase[4] += increment[4];
  78:../eurorack/plaits/dsp/drums/hi_hat.h ****       phase[5] += increment[5];
  79:../eurorack/plaits/dsp/drums/hi_hat.h ****       uint32_t noise = 0;
  80:../eurorack/plaits/dsp/drums/hi_hat.h ****       noise += (phase[0] >> 31);
  81:../eurorack/plaits/dsp/drums/hi_hat.h ****       noise += (phase[1] >> 31);
  82:../eurorack/plaits/dsp/drums/hi_hat.h ****       noise += (phase[2] >> 31);
  83:../eurorack/plaits/dsp/drums/hi_hat.h ****       noise += (phase[3] >> 31);
  84:../eurorack/plaits/dsp/drums/hi_hat.h ****       noise += (phase[4] >> 31);
  85:../eurorack/plaits/dsp/drums/hi_hat.h ****       noise += (phase[5] >> 31);
  86:../eurorack/plaits/dsp/drums/hi_hat.h ****       *out++ = 0.33f * static_cast<float>(noise) - 1.0f;
  87:../eurorack/plaits/dsp/drums/hi_hat.h ****     }
  88:../eurorack/plaits/dsp/drums/hi_hat.h ****   
  89:../eurorack/plaits/dsp/drums/hi_hat.h ****     for (int i = 0; i < 6; ++i) {
  90:../eurorack/plaits/dsp/drums/hi_hat.h ****       phase_[i] = phase[i];
  91:../eurorack/plaits/dsp/drums/hi_hat.h ****     }
  92:../eurorack/plaits/dsp/drums/hi_hat.h ****   }
  93:../eurorack/plaits/dsp/drums/hi_hat.h **** 
  94:../eurorack/plaits/dsp/drums/hi_hat.h ****  private:
  95:../eurorack/plaits/dsp/drums/hi_hat.h ****   uint32_t phase_[6];
  96:../eurorack/plaits/dsp/drums/hi_hat.h **** 
  97:../eurorack/plaits/dsp/drums/hi_hat.h ****   DISALLOW_COPY_AND_ASSIGN(SquareNoise);
  98:../eurorack/plaits/dsp/drums/hi_hat.h **** };
  99:../eurorack/plaits/dsp/drums/hi_hat.h **** 
 100:../eurorack/plaits/dsp/drums/hi_hat.h **** class RingModNoise {
 101:../eurorack/plaits/dsp/drums/hi_hat.h ****  public:
 102:../eurorack/plaits/dsp/drums/hi_hat.h ****   RingModNoise() { }
 103:../eurorack/plaits/dsp/drums/hi_hat.h ****   ~RingModNoise() { }
 104:../eurorack/plaits/dsp/drums/hi_hat.h **** 
 105:../eurorack/plaits/dsp/drums/hi_hat.h ****   void Init() {
 106:../eurorack/plaits/dsp/drums/hi_hat.h ****     for (int i = 0; i < 6; ++i) {
 107:../eurorack/plaits/dsp/drums/hi_hat.h ****       oscillator_[i].Init();
 108:../eurorack/plaits/dsp/drums/hi_hat.h ****     }
 109:../eurorack/plaits/dsp/drums/hi_hat.h ****   }
 110:../eurorack/plaits/dsp/drums/hi_hat.h ****   
 111:../eurorack/plaits/dsp/drums/hi_hat.h ****   void Render(float f0, float* temp_1, float* temp_2, float* out, size_t size) {
 112:../eurorack/plaits/dsp/drums/hi_hat.h ****     const float ratio = f0 / (0.01f + f0);
 113:../eurorack/plaits/dsp/drums/hi_hat.h ****     const float f1a = 200.0f / kSampleRate * ratio;
 114:../eurorack/plaits/dsp/drums/hi_hat.h ****     const float f1b = 7530.0f / kSampleRate * ratio;
 115:../eurorack/plaits/dsp/drums/hi_hat.h ****     const float f2a = 510.0f / kSampleRate * ratio;
 116:../eurorack/plaits/dsp/drums/hi_hat.h ****     const float f2b = 8075.0f / kSampleRate * ratio;
ARM GAS  /var/folders/y7/g6pkzsp12sx54x3s3mvyn15r0000gn/T//ccwVequI.s 			page 11


 117:../eurorack/plaits/dsp/drums/hi_hat.h ****     const float f3a = 730.0f / kSampleRate * ratio;
 118:../eurorack/plaits/dsp/drums/hi_hat.h ****     const float f3b = 10500.0f / kSampleRate * ratio;
 119:../eurorack/plaits/dsp/drums/hi_hat.h ****     const float f[3][2] = { { f1a, f1b }, { f2a, f2b }, { f3a, f3b } };
 120:../eurorack/plaits/dsp/drums/hi_hat.h ****     
 121:../eurorack/plaits/dsp/drums/hi_hat.h ****     std::fill(&out[0], &out[size], 0.0f);
 122:../eurorack/plaits/dsp/drums/hi_hat.h ****     
 123:../eurorack/plaits/dsp/drums/hi_hat.h ****     for (int i = 0; i < 3; ++i) {
 124:../eurorack/plaits/dsp/drums/hi_hat.h ****       RenderPair(&oscillator_[2 * i], f[i], temp_1, temp_2, out, size);
 125:../eurorack/plaits/dsp/drums/hi_hat.h ****     }
 126:../eurorack/plaits/dsp/drums/hi_hat.h ****   }
 127:../eurorack/plaits/dsp/drums/hi_hat.h **** 
 128:../eurorack/plaits/dsp/drums/hi_hat.h ****  private:
 129:../eurorack/plaits/dsp/drums/hi_hat.h ****   void RenderPair(
 130:../eurorack/plaits/dsp/drums/hi_hat.h ****       Oscillator* osc,
 131:../eurorack/plaits/dsp/drums/hi_hat.h ****       const float* f,
 132:../eurorack/plaits/dsp/drums/hi_hat.h ****       float* temp_1,
 133:../eurorack/plaits/dsp/drums/hi_hat.h ****       float* temp_2,
 134:../eurorack/plaits/dsp/drums/hi_hat.h ****       float* out,
 135:../eurorack/plaits/dsp/drums/hi_hat.h ****       size_t size) {
 136:../eurorack/plaits/dsp/drums/hi_hat.h ****     osc[0].Render<OSCILLATOR_SHAPE_SQUARE>(f[0], 0.5f, temp_1, size);
 137:../eurorack/plaits/dsp/drums/hi_hat.h ****     osc[1].Render<OSCILLATOR_SHAPE_SAW>(f[1], 0.5f, temp_2, size);
 138:../eurorack/plaits/dsp/drums/hi_hat.h ****     while (size--) {
 139:../eurorack/plaits/dsp/drums/hi_hat.h ****       *out++ += *temp_1++ * *temp_2++;
 140:../eurorack/plaits/dsp/drums/hi_hat.h ****     }
 141:../eurorack/plaits/dsp/drums/hi_hat.h ****   }
 142:../eurorack/plaits/dsp/drums/hi_hat.h ****   Oscillator oscillator_[6];
 143:../eurorack/plaits/dsp/drums/hi_hat.h ****   
 144:../eurorack/plaits/dsp/drums/hi_hat.h ****   DISALLOW_COPY_AND_ASSIGN(RingModNoise);
 145:../eurorack/plaits/dsp/drums/hi_hat.h **** };
 146:../eurorack/plaits/dsp/drums/hi_hat.h **** 
 147:../eurorack/plaits/dsp/drums/hi_hat.h **** class SwingVCA {
 148:../eurorack/plaits/dsp/drums/hi_hat.h ****  public:
 149:../eurorack/plaits/dsp/drums/hi_hat.h ****   float operator()(float s, float gain) {
 150:../eurorack/plaits/dsp/drums/hi_hat.h ****    s *= s > 0.0f ? 4.0f : 0.1f;
 151:../eurorack/plaits/dsp/drums/hi_hat.h ****    s = s / (1.0f + fabsf(s));
 152:../eurorack/plaits/dsp/drums/hi_hat.h ****    return (s + 0.1f) * gain;
 153:../eurorack/plaits/dsp/drums/hi_hat.h ****   }
 154:../eurorack/plaits/dsp/drums/hi_hat.h **** };
 155:../eurorack/plaits/dsp/drums/hi_hat.h **** 
 156:../eurorack/plaits/dsp/drums/hi_hat.h **** class LinearVCA {
 157:../eurorack/plaits/dsp/drums/hi_hat.h ****  public:
 158:../eurorack/plaits/dsp/drums/hi_hat.h ****   float operator()(float s, float gain) {
 159:../eurorack/plaits/dsp/drums/hi_hat.h ****    return s * gain;
 160:../eurorack/plaits/dsp/drums/hi_hat.h ****   }
 161:../eurorack/plaits/dsp/drums/hi_hat.h **** };
 162:../eurorack/plaits/dsp/drums/hi_hat.h **** 
 163:../eurorack/plaits/dsp/drums/hi_hat.h **** template<
 164:../eurorack/plaits/dsp/drums/hi_hat.h ****     typename MetallicNoiseSource,
 165:../eurorack/plaits/dsp/drums/hi_hat.h ****     typename VCA,
 166:../eurorack/plaits/dsp/drums/hi_hat.h ****     bool resonance,
 167:../eurorack/plaits/dsp/drums/hi_hat.h ****     bool two_stage_envelope>
 168:../eurorack/plaits/dsp/drums/hi_hat.h **** class HiHat {
 169:../eurorack/plaits/dsp/drums/hi_hat.h ****  public:
 170:../eurorack/plaits/dsp/drums/hi_hat.h ****   HiHat() { }
 171:../eurorack/plaits/dsp/drums/hi_hat.h ****   ~HiHat() { }
 172:../eurorack/plaits/dsp/drums/hi_hat.h **** 
 173:../eurorack/plaits/dsp/drums/hi_hat.h ****   void Init() {
ARM GAS  /var/folders/y7/g6pkzsp12sx54x3s3mvyn15r0000gn/T//ccwVequI.s 			page 12


 138              		.loc 4 173 8 view .LVU20
 139              	.LBE138:
  36:../eurorack/plaits/dsp/engine/hi_hat_engine.cc ****   hi_hat_1_.Init();
 140              		.loc 1 36 52 is_stmt 0 view .LVU21
 141 0000 70B5     		push	{r4, r5, r6, lr}
 142              		.cfi_def_cfa_offset 16
 143              		.cfi_offset 4, -16
 144              		.cfi_offset 5, -12
 145              		.cfi_offset 6, -8
 146              		.cfi_offset 14, -4
 147              	.LBB159:
 148              	.LBB139:
 174:../eurorack/plaits/dsp/drums/hi_hat.h ****     envelope_ = 0.0f;
 149              		.loc 4 174 15 view .LVU22
 150 0002 0025     		movs	r5, #0
 151              	.LBE139:
 152              	.LBE159:
  36:../eurorack/plaits/dsp/engine/hi_hat_engine.cc ****   hi_hat_1_.Init();
 153              		.loc 1 36 52 view .LVU23
 154 0004 0446     		mov	r4, r0
 155              	.LBB160:
 156              	.LBB156:
 157              	.LBB140:
 158              	.LBB141:
  54:../eurorack/plaits/dsp/drums/hi_hat.h ****   }
 159              		.loc 4 54 14 view .LVU24
 160 0006 00F12003 		add	r3, r0, #32
 161              	.LBE141:
 162              	.LBE140:
 163              	.LBE156:
 164              	.LBE160:
  36:../eurorack/plaits/dsp/engine/hi_hat_engine.cc ****   hi_hat_1_.Init();
 165              		.loc 1 36 52 view .LVU25
 166 000a 0E46     		mov	r6, r1
 167              	.LBB161:
 168              	.LBB157:
 169              		.loc 4 174 15 view .LVU26
 170 000c 0561     		str	r5, [r0, #16]	@ float
 171              	.LBB153:
 172              	.LBB150:
  54:../eurorack/plaits/dsp/drums/hi_hat.h ****   }
 173              		.loc 4 54 14 view .LVU27
 174 000e 3830     		adds	r0, r0, #56
 175              	.LVL6:
  54:../eurorack/plaits/dsp/drums/hi_hat.h ****   }
 176              		.loc 4 54 14 view .LVU28
 177              	.LBE150:
 178              	.LBE153:
 175:../eurorack/plaits/dsp/drums/hi_hat.h ****     noise_clock_ = 0.0f;
 179              		.loc 4 175 18 view .LVU29
 180 0010 40F8245C 		str	r5, [r0, #-36]	@ float
 176:../eurorack/plaits/dsp/drums/hi_hat.h ****     noise_sample_ = 0.0f;
 181              		.loc 4 176 19 view .LVU30
 182 0014 40F8205C 		str	r5, [r0, #-32]	@ float
 177:../eurorack/plaits/dsp/drums/hi_hat.h ****     sustain_gain_ = 0.0f;
 183              		.loc 4 177 19 view .LVU31
 184 0018 40F81C5C 		str	r5, [r0, #-28]	@ float
ARM GAS  /var/folders/y7/g6pkzsp12sx54x3s3mvyn15r0000gn/T//ccwVequI.s 			page 13


 185              	.LBB154:
 186              	.LBI140:
  53:../eurorack/plaits/dsp/drums/hi_hat.h ****     std::fill(&phase_[0], &phase_[6], 0);
 187              		.loc 4 53 8 is_stmt 1 view .LVU32
 188              	.LBB151:
  54:../eurorack/plaits/dsp/drums/hi_hat.h ****   }
 189              		.loc 4 54 5 view .LVU33
 190              	.LVL7:
 191              	.LBB142:
 192              	.LBI142:
 193              		.file 5 "/Applications/ArmGNUToolchain/14.2.rel1/arm-none-eabi/arm-none-eabi/include/c++/14.2.1/bi
   1:/Applications/ArmGNUToolchain/14.2.rel1/arm-none-eabi/arm-none-eabi/include/c++/14.2.1/bits/stl_algobase.h **** // Core algorithmic facilities -*- C++ -*-
   2:/Applications/ArmGNUToolchain/14.2.rel1/arm-none-eabi/arm-none-eabi/include/c++/14.2.1/bits/stl_algobase.h **** 
   3:/Applications/ArmGNUToolchain/14.2.rel1/arm-none-eabi/arm-none-eabi/include/c++/14.2.1/bits/stl_algobase.h **** // Copyright (C) 2001-2024 Free Software Foundation, Inc.
   4:/Applications/ArmGNUToolchain/14.2.rel1/arm-none-eabi/arm-none-eabi/include/c++/14.2.1/bits/stl_algobase.h **** //
   5:/Applications/ArmGNUToolchain/14.2.rel1/arm-none-eabi/arm-none-eabi/include/c++/14.2.1/bits/stl_algobase.h **** // This file is part of the GNU ISO C++ Library.  This library is free
   6:/Applications/ArmGNUToolchain/14.2.rel1/arm-none-eabi/arm-none-eabi/include/c++/14.2.1/bits/stl_algobase.h **** // software; you can redistribute it and/or modify it under the
   7:/Applications/ArmGNUToolchain/14.2.rel1/arm-none-eabi/arm-none-eabi/include/c++/14.2.1/bits/stl_algobase.h **** // terms of the GNU General Public License as published by the
   8:/Applications/ArmGNUToolchain/14.2.rel1/arm-none-eabi/arm-none-eabi/include/c++/14.2.1/bits/stl_algobase.h **** // Free Software Foundation; either version 3, or (at your option)
   9:/Applications/ArmGNUToolchain/14.2.rel1/arm-none-eabi/arm-none-eabi/include/c++/14.2.1/bits/stl_algobase.h **** // any later version.
  10:/Applications/ArmGNUToolchain/14.2.rel1/arm-none-eabi/arm-none-eabi/include/c++/14.2.1/bits/stl_algobase.h **** 
  11:/Applications/ArmGNUToolchain/14.2.rel1/arm-none-eabi/arm-none-eabi/include/c++/14.2.1/bits/stl_algobase.h **** // This library is distributed in the hope that it will be useful,
  12:/Applications/ArmGNUToolchain/14.2.rel1/arm-none-eabi/arm-none-eabi/include/c++/14.2.1/bits/stl_algobase.h **** // but WITHOUT ANY WARRANTY; without even the implied warranty of
  13:/Applications/ArmGNUToolchain/14.2.rel1/arm-none-eabi/arm-none-eabi/include/c++/14.2.1/bits/stl_algobase.h **** // MERCHANTABILITY or FITNESS FOR A PARTICULAR PURPOSE.  See the
  14:/Applications/ArmGNUToolchain/14.2.rel1/arm-none-eabi/arm-none-eabi/include/c++/14.2.1/bits/stl_algobase.h **** // GNU General Public License for more details.
  15:/Applications/ArmGNUToolchain/14.2.rel1/arm-none-eabi/arm-none-eabi/include/c++/14.2.1/bits/stl_algobase.h **** 
  16:/Applications/ArmGNUToolchain/14.2.rel1/arm-none-eabi/arm-none-eabi/include/c++/14.2.1/bits/stl_algobase.h **** // Under Section 7 of GPL version 3, you are granted additional
  17:/Applications/ArmGNUToolchain/14.2.rel1/arm-none-eabi/arm-none-eabi/include/c++/14.2.1/bits/stl_algobase.h **** // permissions described in the GCC Runtime Library Exception, version
  18:/Applications/ArmGNUToolchain/14.2.rel1/arm-none-eabi/arm-none-eabi/include/c++/14.2.1/bits/stl_algobase.h **** // 3.1, as published by the Free Software Foundation.
  19:/Applications/ArmGNUToolchain/14.2.rel1/arm-none-eabi/arm-none-eabi/include/c++/14.2.1/bits/stl_algobase.h **** 
  20:/Applications/ArmGNUToolchain/14.2.rel1/arm-none-eabi/arm-none-eabi/include/c++/14.2.1/bits/stl_algobase.h **** // You should have received a copy of the GNU General Public License and
  21:/Applications/ArmGNUToolchain/14.2.rel1/arm-none-eabi/arm-none-eabi/include/c++/14.2.1/bits/stl_algobase.h **** // a copy of the GCC Runtime Library Exception along with this program;
  22:/Applications/ArmGNUToolchain/14.2.rel1/arm-none-eabi/arm-none-eabi/include/c++/14.2.1/bits/stl_algobase.h **** // see the files COPYING3 and COPYING.RUNTIME respectively.  If not, see
  23:/Applications/ArmGNUToolchain/14.2.rel1/arm-none-eabi/arm-none-eabi/include/c++/14.2.1/bits/stl_algobase.h **** // <http://www.gnu.org/licenses/>.
  24:/Applications/ArmGNUToolchain/14.2.rel1/arm-none-eabi/arm-none-eabi/include/c++/14.2.1/bits/stl_algobase.h **** 
  25:/Applications/ArmGNUToolchain/14.2.rel1/arm-none-eabi/arm-none-eabi/include/c++/14.2.1/bits/stl_algobase.h **** /*
  26:/Applications/ArmGNUToolchain/14.2.rel1/arm-none-eabi/arm-none-eabi/include/c++/14.2.1/bits/stl_algobase.h ****  *
  27:/Applications/ArmGNUToolchain/14.2.rel1/arm-none-eabi/arm-none-eabi/include/c++/14.2.1/bits/stl_algobase.h ****  * Copyright (c) 1994
  28:/Applications/ArmGNUToolchain/14.2.rel1/arm-none-eabi/arm-none-eabi/include/c++/14.2.1/bits/stl_algobase.h ****  * Hewlett-Packard Company
  29:/Applications/ArmGNUToolchain/14.2.rel1/arm-none-eabi/arm-none-eabi/include/c++/14.2.1/bits/stl_algobase.h ****  *
  30:/Applications/ArmGNUToolchain/14.2.rel1/arm-none-eabi/arm-none-eabi/include/c++/14.2.1/bits/stl_algobase.h ****  * Permission to use, copy, modify, distribute and sell this software
  31:/Applications/ArmGNUToolchain/14.2.rel1/arm-none-eabi/arm-none-eabi/include/c++/14.2.1/bits/stl_algobase.h ****  * and its documentation for any purpose is hereby granted without fee,
  32:/Applications/ArmGNUToolchain/14.2.rel1/arm-none-eabi/arm-none-eabi/include/c++/14.2.1/bits/stl_algobase.h ****  * provided that the above copyright notice appear in all copies and
  33:/Applications/ArmGNUToolchain/14.2.rel1/arm-none-eabi/arm-none-eabi/include/c++/14.2.1/bits/stl_algobase.h ****  * that both that copyright notice and this permission notice appear
  34:/Applications/ArmGNUToolchain/14.2.rel1/arm-none-eabi/arm-none-eabi/include/c++/14.2.1/bits/stl_algobase.h ****  * in supporting documentation.  Hewlett-Packard Company makes no
  35:/Applications/ArmGNUToolchain/14.2.rel1/arm-none-eabi/arm-none-eabi/include/c++/14.2.1/bits/stl_algobase.h ****  * representations about the suitability of this software for any
  36:/Applications/ArmGNUToolchain/14.2.rel1/arm-none-eabi/arm-none-eabi/include/c++/14.2.1/bits/stl_algobase.h ****  * purpose.  It is provided "as is" without express or implied warranty.
  37:/Applications/ArmGNUToolchain/14.2.rel1/arm-none-eabi/arm-none-eabi/include/c++/14.2.1/bits/stl_algobase.h ****  *
  38:/Applications/ArmGNUToolchain/14.2.rel1/arm-none-eabi/arm-none-eabi/include/c++/14.2.1/bits/stl_algobase.h ****  *
  39:/Applications/ArmGNUToolchain/14.2.rel1/arm-none-eabi/arm-none-eabi/include/c++/14.2.1/bits/stl_algobase.h ****  * Copyright (c) 1996-1998
  40:/Applications/ArmGNUToolchain/14.2.rel1/arm-none-eabi/arm-none-eabi/include/c++/14.2.1/bits/stl_algobase.h ****  * Silicon Graphics Computer Systems, Inc.
  41:/Applications/ArmGNUToolchain/14.2.rel1/arm-none-eabi/arm-none-eabi/include/c++/14.2.1/bits/stl_algobase.h ****  *
  42:/Applications/ArmGNUToolchain/14.2.rel1/arm-none-eabi/arm-none-eabi/include/c++/14.2.1/bits/stl_algobase.h ****  * Permission to use, copy, modify, distribute and sell this software
  43:/Applications/ArmGNUToolchain/14.2.rel1/arm-none-eabi/arm-none-eabi/include/c++/14.2.1/bits/stl_algobase.h ****  * and its documentation for any purpose is hereby granted without fee,
  44:/Applications/ArmGNUToolchain/14.2.rel1/arm-none-eabi/arm-none-eabi/include/c++/14.2.1/bits/stl_algobase.h ****  * provided that the above copyright notice appear in all copies and
  45:/Applications/ArmGNUToolchain/14.2.rel1/arm-none-eabi/arm-none-eabi/include/c++/14.2.1/bits/stl_algobase.h ****  * that both that copyright notice and this permission notice appear
  46:/Applications/ArmGNUToolchain/14.2.rel1/arm-none-eabi/arm-none-eabi/include/c++/14.2.1/bits/stl_algobase.h ****  * in supporting documentation.  Silicon Graphics makes no
ARM GAS  /var/folders/y7/g6pkzsp12sx54x3s3mvyn15r0000gn/T//ccwVequI.s 			page 14


  47:/Applications/ArmGNUToolchain/14.2.rel1/arm-none-eabi/arm-none-eabi/include/c++/14.2.1/bits/stl_algobase.h ****  * representations about the suitability of this software for any
  48:/Applications/ArmGNUToolchain/14.2.rel1/arm-none-eabi/arm-none-eabi/include/c++/14.2.1/bits/stl_algobase.h ****  * purpose.  It is provided "as is" without express or implied warranty.
  49:/Applications/ArmGNUToolchain/14.2.rel1/arm-none-eabi/arm-none-eabi/include/c++/14.2.1/bits/stl_algobase.h ****  */
  50:/Applications/ArmGNUToolchain/14.2.rel1/arm-none-eabi/arm-none-eabi/include/c++/14.2.1/bits/stl_algobase.h **** 
  51:/Applications/ArmGNUToolchain/14.2.rel1/arm-none-eabi/arm-none-eabi/include/c++/14.2.1/bits/stl_algobase.h **** /** @file bits/stl_algobase.h
  52:/Applications/ArmGNUToolchain/14.2.rel1/arm-none-eabi/arm-none-eabi/include/c++/14.2.1/bits/stl_algobase.h ****  *  This is an internal header file, included by other library headers.
  53:/Applications/ArmGNUToolchain/14.2.rel1/arm-none-eabi/arm-none-eabi/include/c++/14.2.1/bits/stl_algobase.h ****  *  Do not attempt to use it directly. @headername{algorithm}
  54:/Applications/ArmGNUToolchain/14.2.rel1/arm-none-eabi/arm-none-eabi/include/c++/14.2.1/bits/stl_algobase.h ****  */
  55:/Applications/ArmGNUToolchain/14.2.rel1/arm-none-eabi/arm-none-eabi/include/c++/14.2.1/bits/stl_algobase.h **** 
  56:/Applications/ArmGNUToolchain/14.2.rel1/arm-none-eabi/arm-none-eabi/include/c++/14.2.1/bits/stl_algobase.h **** #ifndef _STL_ALGOBASE_H
  57:/Applications/ArmGNUToolchain/14.2.rel1/arm-none-eabi/arm-none-eabi/include/c++/14.2.1/bits/stl_algobase.h **** #define _STL_ALGOBASE_H 1
  58:/Applications/ArmGNUToolchain/14.2.rel1/arm-none-eabi/arm-none-eabi/include/c++/14.2.1/bits/stl_algobase.h **** 
  59:/Applications/ArmGNUToolchain/14.2.rel1/arm-none-eabi/arm-none-eabi/include/c++/14.2.1/bits/stl_algobase.h **** #include <bits/c++config.h>
  60:/Applications/ArmGNUToolchain/14.2.rel1/arm-none-eabi/arm-none-eabi/include/c++/14.2.1/bits/stl_algobase.h **** #include <bits/functexcept.h>
  61:/Applications/ArmGNUToolchain/14.2.rel1/arm-none-eabi/arm-none-eabi/include/c++/14.2.1/bits/stl_algobase.h **** #include <bits/cpp_type_traits.h>
  62:/Applications/ArmGNUToolchain/14.2.rel1/arm-none-eabi/arm-none-eabi/include/c++/14.2.1/bits/stl_algobase.h **** #include <ext/type_traits.h>
  63:/Applications/ArmGNUToolchain/14.2.rel1/arm-none-eabi/arm-none-eabi/include/c++/14.2.1/bits/stl_algobase.h **** #include <ext/numeric_traits.h>
  64:/Applications/ArmGNUToolchain/14.2.rel1/arm-none-eabi/arm-none-eabi/include/c++/14.2.1/bits/stl_algobase.h **** #include <bits/stl_pair.h>
  65:/Applications/ArmGNUToolchain/14.2.rel1/arm-none-eabi/arm-none-eabi/include/c++/14.2.1/bits/stl_algobase.h **** #include <bits/stl_iterator_base_types.h>
  66:/Applications/ArmGNUToolchain/14.2.rel1/arm-none-eabi/arm-none-eabi/include/c++/14.2.1/bits/stl_algobase.h **** #include <bits/stl_iterator_base_funcs.h>
  67:/Applications/ArmGNUToolchain/14.2.rel1/arm-none-eabi/arm-none-eabi/include/c++/14.2.1/bits/stl_algobase.h **** #include <bits/stl_iterator.h>
  68:/Applications/ArmGNUToolchain/14.2.rel1/arm-none-eabi/arm-none-eabi/include/c++/14.2.1/bits/stl_algobase.h **** #include <bits/concept_check.h>
  69:/Applications/ArmGNUToolchain/14.2.rel1/arm-none-eabi/arm-none-eabi/include/c++/14.2.1/bits/stl_algobase.h **** #include <debug/debug.h>
  70:/Applications/ArmGNUToolchain/14.2.rel1/arm-none-eabi/arm-none-eabi/include/c++/14.2.1/bits/stl_algobase.h **** #include <bits/move.h> // For std::swap
  71:/Applications/ArmGNUToolchain/14.2.rel1/arm-none-eabi/arm-none-eabi/include/c++/14.2.1/bits/stl_algobase.h **** #include <bits/predefined_ops.h>
  72:/Applications/ArmGNUToolchain/14.2.rel1/arm-none-eabi/arm-none-eabi/include/c++/14.2.1/bits/stl_algobase.h **** #if __cplusplus >= 201103L
  73:/Applications/ArmGNUToolchain/14.2.rel1/arm-none-eabi/arm-none-eabi/include/c++/14.2.1/bits/stl_algobase.h **** # include <type_traits>
  74:/Applications/ArmGNUToolchain/14.2.rel1/arm-none-eabi/arm-none-eabi/include/c++/14.2.1/bits/stl_algobase.h **** #endif
  75:/Applications/ArmGNUToolchain/14.2.rel1/arm-none-eabi/arm-none-eabi/include/c++/14.2.1/bits/stl_algobase.h **** #if __cplusplus >= 201402L
  76:/Applications/ArmGNUToolchain/14.2.rel1/arm-none-eabi/arm-none-eabi/include/c++/14.2.1/bits/stl_algobase.h **** # include <bit> // std::__bit_width
  77:/Applications/ArmGNUToolchain/14.2.rel1/arm-none-eabi/arm-none-eabi/include/c++/14.2.1/bits/stl_algobase.h **** #endif
  78:/Applications/ArmGNUToolchain/14.2.rel1/arm-none-eabi/arm-none-eabi/include/c++/14.2.1/bits/stl_algobase.h **** #if __cplusplus >= 202002L
  79:/Applications/ArmGNUToolchain/14.2.rel1/arm-none-eabi/arm-none-eabi/include/c++/14.2.1/bits/stl_algobase.h **** # include <compare>
  80:/Applications/ArmGNUToolchain/14.2.rel1/arm-none-eabi/arm-none-eabi/include/c++/14.2.1/bits/stl_algobase.h **** #endif
  81:/Applications/ArmGNUToolchain/14.2.rel1/arm-none-eabi/arm-none-eabi/include/c++/14.2.1/bits/stl_algobase.h **** 
  82:/Applications/ArmGNUToolchain/14.2.rel1/arm-none-eabi/arm-none-eabi/include/c++/14.2.1/bits/stl_algobase.h **** namespace std _GLIBCXX_VISIBILITY(default)
  83:/Applications/ArmGNUToolchain/14.2.rel1/arm-none-eabi/arm-none-eabi/include/c++/14.2.1/bits/stl_algobase.h **** {
  84:/Applications/ArmGNUToolchain/14.2.rel1/arm-none-eabi/arm-none-eabi/include/c++/14.2.1/bits/stl_algobase.h **** _GLIBCXX_BEGIN_NAMESPACE_VERSION
  85:/Applications/ArmGNUToolchain/14.2.rel1/arm-none-eabi/arm-none-eabi/include/c++/14.2.1/bits/stl_algobase.h **** 
  86:/Applications/ArmGNUToolchain/14.2.rel1/arm-none-eabi/arm-none-eabi/include/c++/14.2.1/bits/stl_algobase.h ****   /*
  87:/Applications/ArmGNUToolchain/14.2.rel1/arm-none-eabi/arm-none-eabi/include/c++/14.2.1/bits/stl_algobase.h ****    * A constexpr wrapper for __builtin_memcmp.
  88:/Applications/ArmGNUToolchain/14.2.rel1/arm-none-eabi/arm-none-eabi/include/c++/14.2.1/bits/stl_algobase.h ****    * @param __num The number of elements of type _Tp (not bytes).
  89:/Applications/ArmGNUToolchain/14.2.rel1/arm-none-eabi/arm-none-eabi/include/c++/14.2.1/bits/stl_algobase.h ****    */
  90:/Applications/ArmGNUToolchain/14.2.rel1/arm-none-eabi/arm-none-eabi/include/c++/14.2.1/bits/stl_algobase.h ****   template<typename _Tp, typename _Up>
  91:/Applications/ArmGNUToolchain/14.2.rel1/arm-none-eabi/arm-none-eabi/include/c++/14.2.1/bits/stl_algobase.h ****     _GLIBCXX14_CONSTEXPR
  92:/Applications/ArmGNUToolchain/14.2.rel1/arm-none-eabi/arm-none-eabi/include/c++/14.2.1/bits/stl_algobase.h ****     inline int
  93:/Applications/ArmGNUToolchain/14.2.rel1/arm-none-eabi/arm-none-eabi/include/c++/14.2.1/bits/stl_algobase.h ****     __memcmp(const _Tp* __first1, const _Up* __first2, size_t __num)
  94:/Applications/ArmGNUToolchain/14.2.rel1/arm-none-eabi/arm-none-eabi/include/c++/14.2.1/bits/stl_algobase.h ****     {
  95:/Applications/ArmGNUToolchain/14.2.rel1/arm-none-eabi/arm-none-eabi/include/c++/14.2.1/bits/stl_algobase.h **** #if __cplusplus >= 201103L
  96:/Applications/ArmGNUToolchain/14.2.rel1/arm-none-eabi/arm-none-eabi/include/c++/14.2.1/bits/stl_algobase.h ****       static_assert(sizeof(_Tp) == sizeof(_Up), "can be compared with memcmp");
  97:/Applications/ArmGNUToolchain/14.2.rel1/arm-none-eabi/arm-none-eabi/include/c++/14.2.1/bits/stl_algobase.h **** #endif
  98:/Applications/ArmGNUToolchain/14.2.rel1/arm-none-eabi/arm-none-eabi/include/c++/14.2.1/bits/stl_algobase.h **** #ifdef __cpp_lib_is_constant_evaluated
  99:/Applications/ArmGNUToolchain/14.2.rel1/arm-none-eabi/arm-none-eabi/include/c++/14.2.1/bits/stl_algobase.h ****       if (std::is_constant_evaluated())
 100:/Applications/ArmGNUToolchain/14.2.rel1/arm-none-eabi/arm-none-eabi/include/c++/14.2.1/bits/stl_algobase.h **** 	{
 101:/Applications/ArmGNUToolchain/14.2.rel1/arm-none-eabi/arm-none-eabi/include/c++/14.2.1/bits/stl_algobase.h **** 	  for(; __num > 0; ++__first1, ++__first2, --__num)
 102:/Applications/ArmGNUToolchain/14.2.rel1/arm-none-eabi/arm-none-eabi/include/c++/14.2.1/bits/stl_algobase.h **** 	    if (*__first1 != *__first2)
 103:/Applications/ArmGNUToolchain/14.2.rel1/arm-none-eabi/arm-none-eabi/include/c++/14.2.1/bits/stl_algobase.h **** 	      return *__first1 < *__first2 ? -1 : 1;
ARM GAS  /var/folders/y7/g6pkzsp12sx54x3s3mvyn15r0000gn/T//ccwVequI.s 			page 15


 104:/Applications/ArmGNUToolchain/14.2.rel1/arm-none-eabi/arm-none-eabi/include/c++/14.2.1/bits/stl_algobase.h **** 	  return 0;
 105:/Applications/ArmGNUToolchain/14.2.rel1/arm-none-eabi/arm-none-eabi/include/c++/14.2.1/bits/stl_algobase.h **** 	}
 106:/Applications/ArmGNUToolchain/14.2.rel1/arm-none-eabi/arm-none-eabi/include/c++/14.2.1/bits/stl_algobase.h ****       else
 107:/Applications/ArmGNUToolchain/14.2.rel1/arm-none-eabi/arm-none-eabi/include/c++/14.2.1/bits/stl_algobase.h **** #endif
 108:/Applications/ArmGNUToolchain/14.2.rel1/arm-none-eabi/arm-none-eabi/include/c++/14.2.1/bits/stl_algobase.h **** 	return __builtin_memcmp(__first1, __first2, sizeof(_Tp) * __num);
 109:/Applications/ArmGNUToolchain/14.2.rel1/arm-none-eabi/arm-none-eabi/include/c++/14.2.1/bits/stl_algobase.h ****     }
 110:/Applications/ArmGNUToolchain/14.2.rel1/arm-none-eabi/arm-none-eabi/include/c++/14.2.1/bits/stl_algobase.h **** 
 111:/Applications/ArmGNUToolchain/14.2.rel1/arm-none-eabi/arm-none-eabi/include/c++/14.2.1/bits/stl_algobase.h **** #if __cplusplus < 201103L
 112:/Applications/ArmGNUToolchain/14.2.rel1/arm-none-eabi/arm-none-eabi/include/c++/14.2.1/bits/stl_algobase.h ****   // See http://gcc.gnu.org/ml/libstdc++/2004-08/msg00167.html: in a
 113:/Applications/ArmGNUToolchain/14.2.rel1/arm-none-eabi/arm-none-eabi/include/c++/14.2.1/bits/stl_algobase.h ****   // nutshell, we are partially implementing the resolution of DR 187,
 114:/Applications/ArmGNUToolchain/14.2.rel1/arm-none-eabi/arm-none-eabi/include/c++/14.2.1/bits/stl_algobase.h ****   // when it's safe, i.e., the value_types are equal.
 115:/Applications/ArmGNUToolchain/14.2.rel1/arm-none-eabi/arm-none-eabi/include/c++/14.2.1/bits/stl_algobase.h ****   template<bool _BoolType>
 116:/Applications/ArmGNUToolchain/14.2.rel1/arm-none-eabi/arm-none-eabi/include/c++/14.2.1/bits/stl_algobase.h ****     struct __iter_swap
 117:/Applications/ArmGNUToolchain/14.2.rel1/arm-none-eabi/arm-none-eabi/include/c++/14.2.1/bits/stl_algobase.h ****     {
 118:/Applications/ArmGNUToolchain/14.2.rel1/arm-none-eabi/arm-none-eabi/include/c++/14.2.1/bits/stl_algobase.h ****       template<typename _ForwardIterator1, typename _ForwardIterator2>
 119:/Applications/ArmGNUToolchain/14.2.rel1/arm-none-eabi/arm-none-eabi/include/c++/14.2.1/bits/stl_algobase.h **** 	static void
 120:/Applications/ArmGNUToolchain/14.2.rel1/arm-none-eabi/arm-none-eabi/include/c++/14.2.1/bits/stl_algobase.h **** 	iter_swap(_ForwardIterator1 __a, _ForwardIterator2 __b)
 121:/Applications/ArmGNUToolchain/14.2.rel1/arm-none-eabi/arm-none-eabi/include/c++/14.2.1/bits/stl_algobase.h **** 	{
 122:/Applications/ArmGNUToolchain/14.2.rel1/arm-none-eabi/arm-none-eabi/include/c++/14.2.1/bits/stl_algobase.h **** 	  typedef typename iterator_traits<_ForwardIterator1>::value_type
 123:/Applications/ArmGNUToolchain/14.2.rel1/arm-none-eabi/arm-none-eabi/include/c++/14.2.1/bits/stl_algobase.h **** 	    _ValueType1;
 124:/Applications/ArmGNUToolchain/14.2.rel1/arm-none-eabi/arm-none-eabi/include/c++/14.2.1/bits/stl_algobase.h **** 	  _ValueType1 __tmp = *__a;
 125:/Applications/ArmGNUToolchain/14.2.rel1/arm-none-eabi/arm-none-eabi/include/c++/14.2.1/bits/stl_algobase.h **** 	  *__a = *__b;
 126:/Applications/ArmGNUToolchain/14.2.rel1/arm-none-eabi/arm-none-eabi/include/c++/14.2.1/bits/stl_algobase.h **** 	  *__b = __tmp;
 127:/Applications/ArmGNUToolchain/14.2.rel1/arm-none-eabi/arm-none-eabi/include/c++/14.2.1/bits/stl_algobase.h **** 	}
 128:/Applications/ArmGNUToolchain/14.2.rel1/arm-none-eabi/arm-none-eabi/include/c++/14.2.1/bits/stl_algobase.h ****     };
 129:/Applications/ArmGNUToolchain/14.2.rel1/arm-none-eabi/arm-none-eabi/include/c++/14.2.1/bits/stl_algobase.h **** 
 130:/Applications/ArmGNUToolchain/14.2.rel1/arm-none-eabi/arm-none-eabi/include/c++/14.2.1/bits/stl_algobase.h ****   template<>
 131:/Applications/ArmGNUToolchain/14.2.rel1/arm-none-eabi/arm-none-eabi/include/c++/14.2.1/bits/stl_algobase.h ****     struct __iter_swap<true>
 132:/Applications/ArmGNUToolchain/14.2.rel1/arm-none-eabi/arm-none-eabi/include/c++/14.2.1/bits/stl_algobase.h ****     {
 133:/Applications/ArmGNUToolchain/14.2.rel1/arm-none-eabi/arm-none-eabi/include/c++/14.2.1/bits/stl_algobase.h ****       template<typename _ForwardIterator1, typename _ForwardIterator2>
 134:/Applications/ArmGNUToolchain/14.2.rel1/arm-none-eabi/arm-none-eabi/include/c++/14.2.1/bits/stl_algobase.h **** 	static void
 135:/Applications/ArmGNUToolchain/14.2.rel1/arm-none-eabi/arm-none-eabi/include/c++/14.2.1/bits/stl_algobase.h **** 	iter_swap(_ForwardIterator1 __a, _ForwardIterator2 __b)
 136:/Applications/ArmGNUToolchain/14.2.rel1/arm-none-eabi/arm-none-eabi/include/c++/14.2.1/bits/stl_algobase.h **** 	{
 137:/Applications/ArmGNUToolchain/14.2.rel1/arm-none-eabi/arm-none-eabi/include/c++/14.2.1/bits/stl_algobase.h **** 	  swap(*__a, *__b);
 138:/Applications/ArmGNUToolchain/14.2.rel1/arm-none-eabi/arm-none-eabi/include/c++/14.2.1/bits/stl_algobase.h **** 	}
 139:/Applications/ArmGNUToolchain/14.2.rel1/arm-none-eabi/arm-none-eabi/include/c++/14.2.1/bits/stl_algobase.h ****     };
 140:/Applications/ArmGNUToolchain/14.2.rel1/arm-none-eabi/arm-none-eabi/include/c++/14.2.1/bits/stl_algobase.h **** #endif // C++03
 141:/Applications/ArmGNUToolchain/14.2.rel1/arm-none-eabi/arm-none-eabi/include/c++/14.2.1/bits/stl_algobase.h **** 
 142:/Applications/ArmGNUToolchain/14.2.rel1/arm-none-eabi/arm-none-eabi/include/c++/14.2.1/bits/stl_algobase.h ****   /**
 143:/Applications/ArmGNUToolchain/14.2.rel1/arm-none-eabi/arm-none-eabi/include/c++/14.2.1/bits/stl_algobase.h ****    *  @brief Swaps the contents of two iterators.
 144:/Applications/ArmGNUToolchain/14.2.rel1/arm-none-eabi/arm-none-eabi/include/c++/14.2.1/bits/stl_algobase.h ****    *  @ingroup mutating_algorithms
 145:/Applications/ArmGNUToolchain/14.2.rel1/arm-none-eabi/arm-none-eabi/include/c++/14.2.1/bits/stl_algobase.h ****    *  @param  __a  An iterator.
 146:/Applications/ArmGNUToolchain/14.2.rel1/arm-none-eabi/arm-none-eabi/include/c++/14.2.1/bits/stl_algobase.h ****    *  @param  __b  Another iterator.
 147:/Applications/ArmGNUToolchain/14.2.rel1/arm-none-eabi/arm-none-eabi/include/c++/14.2.1/bits/stl_algobase.h ****    *  @return   Nothing.
 148:/Applications/ArmGNUToolchain/14.2.rel1/arm-none-eabi/arm-none-eabi/include/c++/14.2.1/bits/stl_algobase.h ****    *
 149:/Applications/ArmGNUToolchain/14.2.rel1/arm-none-eabi/arm-none-eabi/include/c++/14.2.1/bits/stl_algobase.h ****    *  This function swaps the values pointed to by two iterators, not the
 150:/Applications/ArmGNUToolchain/14.2.rel1/arm-none-eabi/arm-none-eabi/include/c++/14.2.1/bits/stl_algobase.h ****    *  iterators themselves.
 151:/Applications/ArmGNUToolchain/14.2.rel1/arm-none-eabi/arm-none-eabi/include/c++/14.2.1/bits/stl_algobase.h ****   */
 152:/Applications/ArmGNUToolchain/14.2.rel1/arm-none-eabi/arm-none-eabi/include/c++/14.2.1/bits/stl_algobase.h ****   template<typename _ForwardIterator1, typename _ForwardIterator2>
 153:/Applications/ArmGNUToolchain/14.2.rel1/arm-none-eabi/arm-none-eabi/include/c++/14.2.1/bits/stl_algobase.h ****     _GLIBCXX20_CONSTEXPR
 154:/Applications/ArmGNUToolchain/14.2.rel1/arm-none-eabi/arm-none-eabi/include/c++/14.2.1/bits/stl_algobase.h ****     inline void
 155:/Applications/ArmGNUToolchain/14.2.rel1/arm-none-eabi/arm-none-eabi/include/c++/14.2.1/bits/stl_algobase.h ****     iter_swap(_ForwardIterator1 __a, _ForwardIterator2 __b)
 156:/Applications/ArmGNUToolchain/14.2.rel1/arm-none-eabi/arm-none-eabi/include/c++/14.2.1/bits/stl_algobase.h ****     {
 157:/Applications/ArmGNUToolchain/14.2.rel1/arm-none-eabi/arm-none-eabi/include/c++/14.2.1/bits/stl_algobase.h ****       // concept requirements
 158:/Applications/ArmGNUToolchain/14.2.rel1/arm-none-eabi/arm-none-eabi/include/c++/14.2.1/bits/stl_algobase.h ****       __glibcxx_function_requires(_Mutable_ForwardIteratorConcept<
 159:/Applications/ArmGNUToolchain/14.2.rel1/arm-none-eabi/arm-none-eabi/include/c++/14.2.1/bits/stl_algobase.h **** 				  _ForwardIterator1>)
 160:/Applications/ArmGNUToolchain/14.2.rel1/arm-none-eabi/arm-none-eabi/include/c++/14.2.1/bits/stl_algobase.h ****       __glibcxx_function_requires(_Mutable_ForwardIteratorConcept<
ARM GAS  /var/folders/y7/g6pkzsp12sx54x3s3mvyn15r0000gn/T//ccwVequI.s 			page 16


 161:/Applications/ArmGNUToolchain/14.2.rel1/arm-none-eabi/arm-none-eabi/include/c++/14.2.1/bits/stl_algobase.h **** 				  _ForwardIterator2>)
 162:/Applications/ArmGNUToolchain/14.2.rel1/arm-none-eabi/arm-none-eabi/include/c++/14.2.1/bits/stl_algobase.h **** 
 163:/Applications/ArmGNUToolchain/14.2.rel1/arm-none-eabi/arm-none-eabi/include/c++/14.2.1/bits/stl_algobase.h **** #if __cplusplus < 201103L
 164:/Applications/ArmGNUToolchain/14.2.rel1/arm-none-eabi/arm-none-eabi/include/c++/14.2.1/bits/stl_algobase.h ****       typedef typename iterator_traits<_ForwardIterator1>::value_type
 165:/Applications/ArmGNUToolchain/14.2.rel1/arm-none-eabi/arm-none-eabi/include/c++/14.2.1/bits/stl_algobase.h **** 	_ValueType1;
 166:/Applications/ArmGNUToolchain/14.2.rel1/arm-none-eabi/arm-none-eabi/include/c++/14.2.1/bits/stl_algobase.h ****       typedef typename iterator_traits<_ForwardIterator2>::value_type
 167:/Applications/ArmGNUToolchain/14.2.rel1/arm-none-eabi/arm-none-eabi/include/c++/14.2.1/bits/stl_algobase.h **** 	_ValueType2;
 168:/Applications/ArmGNUToolchain/14.2.rel1/arm-none-eabi/arm-none-eabi/include/c++/14.2.1/bits/stl_algobase.h **** 
 169:/Applications/ArmGNUToolchain/14.2.rel1/arm-none-eabi/arm-none-eabi/include/c++/14.2.1/bits/stl_algobase.h ****       __glibcxx_function_requires(_ConvertibleConcept<_ValueType1,
 170:/Applications/ArmGNUToolchain/14.2.rel1/arm-none-eabi/arm-none-eabi/include/c++/14.2.1/bits/stl_algobase.h **** 				  _ValueType2>)
 171:/Applications/ArmGNUToolchain/14.2.rel1/arm-none-eabi/arm-none-eabi/include/c++/14.2.1/bits/stl_algobase.h ****       __glibcxx_function_requires(_ConvertibleConcept<_ValueType2,
 172:/Applications/ArmGNUToolchain/14.2.rel1/arm-none-eabi/arm-none-eabi/include/c++/14.2.1/bits/stl_algobase.h **** 				  _ValueType1>)
 173:/Applications/ArmGNUToolchain/14.2.rel1/arm-none-eabi/arm-none-eabi/include/c++/14.2.1/bits/stl_algobase.h **** 
 174:/Applications/ArmGNUToolchain/14.2.rel1/arm-none-eabi/arm-none-eabi/include/c++/14.2.1/bits/stl_algobase.h ****       typedef typename iterator_traits<_ForwardIterator1>::reference
 175:/Applications/ArmGNUToolchain/14.2.rel1/arm-none-eabi/arm-none-eabi/include/c++/14.2.1/bits/stl_algobase.h **** 	_ReferenceType1;
 176:/Applications/ArmGNUToolchain/14.2.rel1/arm-none-eabi/arm-none-eabi/include/c++/14.2.1/bits/stl_algobase.h ****       typedef typename iterator_traits<_ForwardIterator2>::reference
 177:/Applications/ArmGNUToolchain/14.2.rel1/arm-none-eabi/arm-none-eabi/include/c++/14.2.1/bits/stl_algobase.h **** 	_ReferenceType2;
 178:/Applications/ArmGNUToolchain/14.2.rel1/arm-none-eabi/arm-none-eabi/include/c++/14.2.1/bits/stl_algobase.h ****       std::__iter_swap<__are_same<_ValueType1, _ValueType2>::__value
 179:/Applications/ArmGNUToolchain/14.2.rel1/arm-none-eabi/arm-none-eabi/include/c++/14.2.1/bits/stl_algobase.h **** 	&& __are_same<_ValueType1&, _ReferenceType1>::__value
 180:/Applications/ArmGNUToolchain/14.2.rel1/arm-none-eabi/arm-none-eabi/include/c++/14.2.1/bits/stl_algobase.h **** 	&& __are_same<_ValueType2&, _ReferenceType2>::__value>::
 181:/Applications/ArmGNUToolchain/14.2.rel1/arm-none-eabi/arm-none-eabi/include/c++/14.2.1/bits/stl_algobase.h **** 	iter_swap(__a, __b);
 182:/Applications/ArmGNUToolchain/14.2.rel1/arm-none-eabi/arm-none-eabi/include/c++/14.2.1/bits/stl_algobase.h **** #else
 183:/Applications/ArmGNUToolchain/14.2.rel1/arm-none-eabi/arm-none-eabi/include/c++/14.2.1/bits/stl_algobase.h ****       // _GLIBCXX_RESOLVE_LIB_DEFECTS
 184:/Applications/ArmGNUToolchain/14.2.rel1/arm-none-eabi/arm-none-eabi/include/c++/14.2.1/bits/stl_algobase.h ****       // 187. iter_swap underspecified
 185:/Applications/ArmGNUToolchain/14.2.rel1/arm-none-eabi/arm-none-eabi/include/c++/14.2.1/bits/stl_algobase.h ****       swap(*__a, *__b);
 186:/Applications/ArmGNUToolchain/14.2.rel1/arm-none-eabi/arm-none-eabi/include/c++/14.2.1/bits/stl_algobase.h **** #endif
 187:/Applications/ArmGNUToolchain/14.2.rel1/arm-none-eabi/arm-none-eabi/include/c++/14.2.1/bits/stl_algobase.h ****     }
 188:/Applications/ArmGNUToolchain/14.2.rel1/arm-none-eabi/arm-none-eabi/include/c++/14.2.1/bits/stl_algobase.h **** 
 189:/Applications/ArmGNUToolchain/14.2.rel1/arm-none-eabi/arm-none-eabi/include/c++/14.2.1/bits/stl_algobase.h ****   /**
 190:/Applications/ArmGNUToolchain/14.2.rel1/arm-none-eabi/arm-none-eabi/include/c++/14.2.1/bits/stl_algobase.h ****    *  @brief Swap the elements of two sequences.
 191:/Applications/ArmGNUToolchain/14.2.rel1/arm-none-eabi/arm-none-eabi/include/c++/14.2.1/bits/stl_algobase.h ****    *  @ingroup mutating_algorithms
 192:/Applications/ArmGNUToolchain/14.2.rel1/arm-none-eabi/arm-none-eabi/include/c++/14.2.1/bits/stl_algobase.h ****    *  @param  __first1  A forward iterator.
 193:/Applications/ArmGNUToolchain/14.2.rel1/arm-none-eabi/arm-none-eabi/include/c++/14.2.1/bits/stl_algobase.h ****    *  @param  __last1   A forward iterator.
 194:/Applications/ArmGNUToolchain/14.2.rel1/arm-none-eabi/arm-none-eabi/include/c++/14.2.1/bits/stl_algobase.h ****    *  @param  __first2  A forward iterator.
 195:/Applications/ArmGNUToolchain/14.2.rel1/arm-none-eabi/arm-none-eabi/include/c++/14.2.1/bits/stl_algobase.h ****    *  @return   An iterator equal to @p first2+(last1-first1).
 196:/Applications/ArmGNUToolchain/14.2.rel1/arm-none-eabi/arm-none-eabi/include/c++/14.2.1/bits/stl_algobase.h ****    *
 197:/Applications/ArmGNUToolchain/14.2.rel1/arm-none-eabi/arm-none-eabi/include/c++/14.2.1/bits/stl_algobase.h ****    *  Swaps each element in the range @p [first1,last1) with the
 198:/Applications/ArmGNUToolchain/14.2.rel1/arm-none-eabi/arm-none-eabi/include/c++/14.2.1/bits/stl_algobase.h ****    *  corresponding element in the range @p [first2,(last1-first1)).
 199:/Applications/ArmGNUToolchain/14.2.rel1/arm-none-eabi/arm-none-eabi/include/c++/14.2.1/bits/stl_algobase.h ****    *  The ranges must not overlap.
 200:/Applications/ArmGNUToolchain/14.2.rel1/arm-none-eabi/arm-none-eabi/include/c++/14.2.1/bits/stl_algobase.h ****   */
 201:/Applications/ArmGNUToolchain/14.2.rel1/arm-none-eabi/arm-none-eabi/include/c++/14.2.1/bits/stl_algobase.h ****   template<typename _ForwardIterator1, typename _ForwardIterator2>
 202:/Applications/ArmGNUToolchain/14.2.rel1/arm-none-eabi/arm-none-eabi/include/c++/14.2.1/bits/stl_algobase.h ****     _GLIBCXX20_CONSTEXPR
 203:/Applications/ArmGNUToolchain/14.2.rel1/arm-none-eabi/arm-none-eabi/include/c++/14.2.1/bits/stl_algobase.h ****     _ForwardIterator2
 204:/Applications/ArmGNUToolchain/14.2.rel1/arm-none-eabi/arm-none-eabi/include/c++/14.2.1/bits/stl_algobase.h ****     swap_ranges(_ForwardIterator1 __first1, _ForwardIterator1 __last1,
 205:/Applications/ArmGNUToolchain/14.2.rel1/arm-none-eabi/arm-none-eabi/include/c++/14.2.1/bits/stl_algobase.h **** 		_ForwardIterator2 __first2)
 206:/Applications/ArmGNUToolchain/14.2.rel1/arm-none-eabi/arm-none-eabi/include/c++/14.2.1/bits/stl_algobase.h ****     {
 207:/Applications/ArmGNUToolchain/14.2.rel1/arm-none-eabi/arm-none-eabi/include/c++/14.2.1/bits/stl_algobase.h ****       // concept requirements
 208:/Applications/ArmGNUToolchain/14.2.rel1/arm-none-eabi/arm-none-eabi/include/c++/14.2.1/bits/stl_algobase.h ****       __glibcxx_function_requires(_Mutable_ForwardIteratorConcept<
 209:/Applications/ArmGNUToolchain/14.2.rel1/arm-none-eabi/arm-none-eabi/include/c++/14.2.1/bits/stl_algobase.h **** 				  _ForwardIterator1>)
 210:/Applications/ArmGNUToolchain/14.2.rel1/arm-none-eabi/arm-none-eabi/include/c++/14.2.1/bits/stl_algobase.h ****       __glibcxx_function_requires(_Mutable_ForwardIteratorConcept<
 211:/Applications/ArmGNUToolchain/14.2.rel1/arm-none-eabi/arm-none-eabi/include/c++/14.2.1/bits/stl_algobase.h **** 				  _ForwardIterator2>)
 212:/Applications/ArmGNUToolchain/14.2.rel1/arm-none-eabi/arm-none-eabi/include/c++/14.2.1/bits/stl_algobase.h ****       __glibcxx_requires_valid_range(__first1, __last1);
 213:/Applications/ArmGNUToolchain/14.2.rel1/arm-none-eabi/arm-none-eabi/include/c++/14.2.1/bits/stl_algobase.h **** 
 214:/Applications/ArmGNUToolchain/14.2.rel1/arm-none-eabi/arm-none-eabi/include/c++/14.2.1/bits/stl_algobase.h ****       for (; __first1 != __last1; ++__first1, (void)++__first2)
 215:/Applications/ArmGNUToolchain/14.2.rel1/arm-none-eabi/arm-none-eabi/include/c++/14.2.1/bits/stl_algobase.h **** 	std::iter_swap(__first1, __first2);
 216:/Applications/ArmGNUToolchain/14.2.rel1/arm-none-eabi/arm-none-eabi/include/c++/14.2.1/bits/stl_algobase.h ****       return __first2;
 217:/Applications/ArmGNUToolchain/14.2.rel1/arm-none-eabi/arm-none-eabi/include/c++/14.2.1/bits/stl_algobase.h ****     }
ARM GAS  /var/folders/y7/g6pkzsp12sx54x3s3mvyn15r0000gn/T//ccwVequI.s 			page 17


 218:/Applications/ArmGNUToolchain/14.2.rel1/arm-none-eabi/arm-none-eabi/include/c++/14.2.1/bits/stl_algobase.h **** 
 219:/Applications/ArmGNUToolchain/14.2.rel1/arm-none-eabi/arm-none-eabi/include/c++/14.2.1/bits/stl_algobase.h ****   /**
 220:/Applications/ArmGNUToolchain/14.2.rel1/arm-none-eabi/arm-none-eabi/include/c++/14.2.1/bits/stl_algobase.h ****    *  @brief This does what you think it does.
 221:/Applications/ArmGNUToolchain/14.2.rel1/arm-none-eabi/arm-none-eabi/include/c++/14.2.1/bits/stl_algobase.h ****    *  @ingroup sorting_algorithms
 222:/Applications/ArmGNUToolchain/14.2.rel1/arm-none-eabi/arm-none-eabi/include/c++/14.2.1/bits/stl_algobase.h ****    *  @param  __a  A thing of arbitrary type.
 223:/Applications/ArmGNUToolchain/14.2.rel1/arm-none-eabi/arm-none-eabi/include/c++/14.2.1/bits/stl_algobase.h ****    *  @param  __b  Another thing of arbitrary type.
 224:/Applications/ArmGNUToolchain/14.2.rel1/arm-none-eabi/arm-none-eabi/include/c++/14.2.1/bits/stl_algobase.h ****    *  @return   The lesser of the parameters.
 225:/Applications/ArmGNUToolchain/14.2.rel1/arm-none-eabi/arm-none-eabi/include/c++/14.2.1/bits/stl_algobase.h ****    *
 226:/Applications/ArmGNUToolchain/14.2.rel1/arm-none-eabi/arm-none-eabi/include/c++/14.2.1/bits/stl_algobase.h ****    *  This is the simple classic generic implementation.  It will work on
 227:/Applications/ArmGNUToolchain/14.2.rel1/arm-none-eabi/arm-none-eabi/include/c++/14.2.1/bits/stl_algobase.h ****    *  temporary expressions, since they are only evaluated once, unlike a
 228:/Applications/ArmGNUToolchain/14.2.rel1/arm-none-eabi/arm-none-eabi/include/c++/14.2.1/bits/stl_algobase.h ****    *  preprocessor macro.
 229:/Applications/ArmGNUToolchain/14.2.rel1/arm-none-eabi/arm-none-eabi/include/c++/14.2.1/bits/stl_algobase.h ****   */
 230:/Applications/ArmGNUToolchain/14.2.rel1/arm-none-eabi/arm-none-eabi/include/c++/14.2.1/bits/stl_algobase.h ****   template<typename _Tp>
 231:/Applications/ArmGNUToolchain/14.2.rel1/arm-none-eabi/arm-none-eabi/include/c++/14.2.1/bits/stl_algobase.h ****     _GLIBCXX_NODISCARD _GLIBCXX14_CONSTEXPR
 232:/Applications/ArmGNUToolchain/14.2.rel1/arm-none-eabi/arm-none-eabi/include/c++/14.2.1/bits/stl_algobase.h ****     inline const _Tp&
 233:/Applications/ArmGNUToolchain/14.2.rel1/arm-none-eabi/arm-none-eabi/include/c++/14.2.1/bits/stl_algobase.h ****     min(const _Tp& __a, const _Tp& __b)
 234:/Applications/ArmGNUToolchain/14.2.rel1/arm-none-eabi/arm-none-eabi/include/c++/14.2.1/bits/stl_algobase.h ****     {
 235:/Applications/ArmGNUToolchain/14.2.rel1/arm-none-eabi/arm-none-eabi/include/c++/14.2.1/bits/stl_algobase.h ****       // concept requirements
 236:/Applications/ArmGNUToolchain/14.2.rel1/arm-none-eabi/arm-none-eabi/include/c++/14.2.1/bits/stl_algobase.h ****       __glibcxx_function_requires(_LessThanComparableConcept<_Tp>)
 237:/Applications/ArmGNUToolchain/14.2.rel1/arm-none-eabi/arm-none-eabi/include/c++/14.2.1/bits/stl_algobase.h ****       //return __b < __a ? __b : __a;
 238:/Applications/ArmGNUToolchain/14.2.rel1/arm-none-eabi/arm-none-eabi/include/c++/14.2.1/bits/stl_algobase.h ****       if (__b < __a)
 239:/Applications/ArmGNUToolchain/14.2.rel1/arm-none-eabi/arm-none-eabi/include/c++/14.2.1/bits/stl_algobase.h **** 	return __b;
 240:/Applications/ArmGNUToolchain/14.2.rel1/arm-none-eabi/arm-none-eabi/include/c++/14.2.1/bits/stl_algobase.h ****       return __a;
 241:/Applications/ArmGNUToolchain/14.2.rel1/arm-none-eabi/arm-none-eabi/include/c++/14.2.1/bits/stl_algobase.h ****     }
 242:/Applications/ArmGNUToolchain/14.2.rel1/arm-none-eabi/arm-none-eabi/include/c++/14.2.1/bits/stl_algobase.h **** 
 243:/Applications/ArmGNUToolchain/14.2.rel1/arm-none-eabi/arm-none-eabi/include/c++/14.2.1/bits/stl_algobase.h ****   /**
 244:/Applications/ArmGNUToolchain/14.2.rel1/arm-none-eabi/arm-none-eabi/include/c++/14.2.1/bits/stl_algobase.h ****    *  @brief This does what you think it does.
 245:/Applications/ArmGNUToolchain/14.2.rel1/arm-none-eabi/arm-none-eabi/include/c++/14.2.1/bits/stl_algobase.h ****    *  @ingroup sorting_algorithms
 246:/Applications/ArmGNUToolchain/14.2.rel1/arm-none-eabi/arm-none-eabi/include/c++/14.2.1/bits/stl_algobase.h ****    *  @param  __a  A thing of arbitrary type.
 247:/Applications/ArmGNUToolchain/14.2.rel1/arm-none-eabi/arm-none-eabi/include/c++/14.2.1/bits/stl_algobase.h ****    *  @param  __b  Another thing of arbitrary type.
 248:/Applications/ArmGNUToolchain/14.2.rel1/arm-none-eabi/arm-none-eabi/include/c++/14.2.1/bits/stl_algobase.h ****    *  @return   The greater of the parameters.
 249:/Applications/ArmGNUToolchain/14.2.rel1/arm-none-eabi/arm-none-eabi/include/c++/14.2.1/bits/stl_algobase.h ****    *
 250:/Applications/ArmGNUToolchain/14.2.rel1/arm-none-eabi/arm-none-eabi/include/c++/14.2.1/bits/stl_algobase.h ****    *  This is the simple classic generic implementation.  It will work on
 251:/Applications/ArmGNUToolchain/14.2.rel1/arm-none-eabi/arm-none-eabi/include/c++/14.2.1/bits/stl_algobase.h ****    *  temporary expressions, since they are only evaluated once, unlike a
 252:/Applications/ArmGNUToolchain/14.2.rel1/arm-none-eabi/arm-none-eabi/include/c++/14.2.1/bits/stl_algobase.h ****    *  preprocessor macro.
 253:/Applications/ArmGNUToolchain/14.2.rel1/arm-none-eabi/arm-none-eabi/include/c++/14.2.1/bits/stl_algobase.h ****   */
 254:/Applications/ArmGNUToolchain/14.2.rel1/arm-none-eabi/arm-none-eabi/include/c++/14.2.1/bits/stl_algobase.h ****   template<typename _Tp>
 255:/Applications/ArmGNUToolchain/14.2.rel1/arm-none-eabi/arm-none-eabi/include/c++/14.2.1/bits/stl_algobase.h ****     _GLIBCXX_NODISCARD _GLIBCXX14_CONSTEXPR
 256:/Applications/ArmGNUToolchain/14.2.rel1/arm-none-eabi/arm-none-eabi/include/c++/14.2.1/bits/stl_algobase.h ****     inline const _Tp&
 257:/Applications/ArmGNUToolchain/14.2.rel1/arm-none-eabi/arm-none-eabi/include/c++/14.2.1/bits/stl_algobase.h ****     max(const _Tp& __a, const _Tp& __b)
 258:/Applications/ArmGNUToolchain/14.2.rel1/arm-none-eabi/arm-none-eabi/include/c++/14.2.1/bits/stl_algobase.h ****     {
 259:/Applications/ArmGNUToolchain/14.2.rel1/arm-none-eabi/arm-none-eabi/include/c++/14.2.1/bits/stl_algobase.h ****       // concept requirements
 260:/Applications/ArmGNUToolchain/14.2.rel1/arm-none-eabi/arm-none-eabi/include/c++/14.2.1/bits/stl_algobase.h ****       __glibcxx_function_requires(_LessThanComparableConcept<_Tp>)
 261:/Applications/ArmGNUToolchain/14.2.rel1/arm-none-eabi/arm-none-eabi/include/c++/14.2.1/bits/stl_algobase.h ****       //return  __a < __b ? __b : __a;
 262:/Applications/ArmGNUToolchain/14.2.rel1/arm-none-eabi/arm-none-eabi/include/c++/14.2.1/bits/stl_algobase.h ****       if (__a < __b)
 263:/Applications/ArmGNUToolchain/14.2.rel1/arm-none-eabi/arm-none-eabi/include/c++/14.2.1/bits/stl_algobase.h **** 	return __b;
 264:/Applications/ArmGNUToolchain/14.2.rel1/arm-none-eabi/arm-none-eabi/include/c++/14.2.1/bits/stl_algobase.h ****       return __a;
 265:/Applications/ArmGNUToolchain/14.2.rel1/arm-none-eabi/arm-none-eabi/include/c++/14.2.1/bits/stl_algobase.h ****     }
 266:/Applications/ArmGNUToolchain/14.2.rel1/arm-none-eabi/arm-none-eabi/include/c++/14.2.1/bits/stl_algobase.h **** 
 267:/Applications/ArmGNUToolchain/14.2.rel1/arm-none-eabi/arm-none-eabi/include/c++/14.2.1/bits/stl_algobase.h ****   /**
 268:/Applications/ArmGNUToolchain/14.2.rel1/arm-none-eabi/arm-none-eabi/include/c++/14.2.1/bits/stl_algobase.h ****    *  @brief This does what you think it does.
 269:/Applications/ArmGNUToolchain/14.2.rel1/arm-none-eabi/arm-none-eabi/include/c++/14.2.1/bits/stl_algobase.h ****    *  @ingroup sorting_algorithms
 270:/Applications/ArmGNUToolchain/14.2.rel1/arm-none-eabi/arm-none-eabi/include/c++/14.2.1/bits/stl_algobase.h ****    *  @param  __a  A thing of arbitrary type.
 271:/Applications/ArmGNUToolchain/14.2.rel1/arm-none-eabi/arm-none-eabi/include/c++/14.2.1/bits/stl_algobase.h ****    *  @param  __b  Another thing of arbitrary type.
 272:/Applications/ArmGNUToolchain/14.2.rel1/arm-none-eabi/arm-none-eabi/include/c++/14.2.1/bits/stl_algobase.h ****    *  @param  __comp  A @link comparison_functors comparison functor@endlink.
 273:/Applications/ArmGNUToolchain/14.2.rel1/arm-none-eabi/arm-none-eabi/include/c++/14.2.1/bits/stl_algobase.h ****    *  @return   The lesser of the parameters.
 274:/Applications/ArmGNUToolchain/14.2.rel1/arm-none-eabi/arm-none-eabi/include/c++/14.2.1/bits/stl_algobase.h ****    *
ARM GAS  /var/folders/y7/g6pkzsp12sx54x3s3mvyn15r0000gn/T//ccwVequI.s 			page 18


 275:/Applications/ArmGNUToolchain/14.2.rel1/arm-none-eabi/arm-none-eabi/include/c++/14.2.1/bits/stl_algobase.h ****    *  This will work on temporary expressions, since they are only evaluated
 276:/Applications/ArmGNUToolchain/14.2.rel1/arm-none-eabi/arm-none-eabi/include/c++/14.2.1/bits/stl_algobase.h ****    *  once, unlike a preprocessor macro.
 277:/Applications/ArmGNUToolchain/14.2.rel1/arm-none-eabi/arm-none-eabi/include/c++/14.2.1/bits/stl_algobase.h ****   */
 278:/Applications/ArmGNUToolchain/14.2.rel1/arm-none-eabi/arm-none-eabi/include/c++/14.2.1/bits/stl_algobase.h ****   template<typename _Tp, typename _Compare>
 279:/Applications/ArmGNUToolchain/14.2.rel1/arm-none-eabi/arm-none-eabi/include/c++/14.2.1/bits/stl_algobase.h ****     _GLIBCXX_NODISCARD _GLIBCXX14_CONSTEXPR
 280:/Applications/ArmGNUToolchain/14.2.rel1/arm-none-eabi/arm-none-eabi/include/c++/14.2.1/bits/stl_algobase.h ****     inline const _Tp&
 281:/Applications/ArmGNUToolchain/14.2.rel1/arm-none-eabi/arm-none-eabi/include/c++/14.2.1/bits/stl_algobase.h ****     min(const _Tp& __a, const _Tp& __b, _Compare __comp)
 282:/Applications/ArmGNUToolchain/14.2.rel1/arm-none-eabi/arm-none-eabi/include/c++/14.2.1/bits/stl_algobase.h ****     {
 283:/Applications/ArmGNUToolchain/14.2.rel1/arm-none-eabi/arm-none-eabi/include/c++/14.2.1/bits/stl_algobase.h ****       //return __comp(__b, __a) ? __b : __a;
 284:/Applications/ArmGNUToolchain/14.2.rel1/arm-none-eabi/arm-none-eabi/include/c++/14.2.1/bits/stl_algobase.h ****       if (__comp(__b, __a))
 285:/Applications/ArmGNUToolchain/14.2.rel1/arm-none-eabi/arm-none-eabi/include/c++/14.2.1/bits/stl_algobase.h **** 	return __b;
 286:/Applications/ArmGNUToolchain/14.2.rel1/arm-none-eabi/arm-none-eabi/include/c++/14.2.1/bits/stl_algobase.h ****       return __a;
 287:/Applications/ArmGNUToolchain/14.2.rel1/arm-none-eabi/arm-none-eabi/include/c++/14.2.1/bits/stl_algobase.h ****     }
 288:/Applications/ArmGNUToolchain/14.2.rel1/arm-none-eabi/arm-none-eabi/include/c++/14.2.1/bits/stl_algobase.h **** 
 289:/Applications/ArmGNUToolchain/14.2.rel1/arm-none-eabi/arm-none-eabi/include/c++/14.2.1/bits/stl_algobase.h ****   /**
 290:/Applications/ArmGNUToolchain/14.2.rel1/arm-none-eabi/arm-none-eabi/include/c++/14.2.1/bits/stl_algobase.h ****    *  @brief This does what you think it does.
 291:/Applications/ArmGNUToolchain/14.2.rel1/arm-none-eabi/arm-none-eabi/include/c++/14.2.1/bits/stl_algobase.h ****    *  @ingroup sorting_algorithms
 292:/Applications/ArmGNUToolchain/14.2.rel1/arm-none-eabi/arm-none-eabi/include/c++/14.2.1/bits/stl_algobase.h ****    *  @param  __a  A thing of arbitrary type.
 293:/Applications/ArmGNUToolchain/14.2.rel1/arm-none-eabi/arm-none-eabi/include/c++/14.2.1/bits/stl_algobase.h ****    *  @param  __b  Another thing of arbitrary type.
 294:/Applications/ArmGNUToolchain/14.2.rel1/arm-none-eabi/arm-none-eabi/include/c++/14.2.1/bits/stl_algobase.h ****    *  @param  __comp  A @link comparison_functors comparison functor@endlink.
 295:/Applications/ArmGNUToolchain/14.2.rel1/arm-none-eabi/arm-none-eabi/include/c++/14.2.1/bits/stl_algobase.h ****    *  @return   The greater of the parameters.
 296:/Applications/ArmGNUToolchain/14.2.rel1/arm-none-eabi/arm-none-eabi/include/c++/14.2.1/bits/stl_algobase.h ****    *
 297:/Applications/ArmGNUToolchain/14.2.rel1/arm-none-eabi/arm-none-eabi/include/c++/14.2.1/bits/stl_algobase.h ****    *  This will work on temporary expressions, since they are only evaluated
 298:/Applications/ArmGNUToolchain/14.2.rel1/arm-none-eabi/arm-none-eabi/include/c++/14.2.1/bits/stl_algobase.h ****    *  once, unlike a preprocessor macro.
 299:/Applications/ArmGNUToolchain/14.2.rel1/arm-none-eabi/arm-none-eabi/include/c++/14.2.1/bits/stl_algobase.h ****   */
 300:/Applications/ArmGNUToolchain/14.2.rel1/arm-none-eabi/arm-none-eabi/include/c++/14.2.1/bits/stl_algobase.h ****   template<typename _Tp, typename _Compare>
 301:/Applications/ArmGNUToolchain/14.2.rel1/arm-none-eabi/arm-none-eabi/include/c++/14.2.1/bits/stl_algobase.h ****     _GLIBCXX_NODISCARD _GLIBCXX14_CONSTEXPR
 302:/Applications/ArmGNUToolchain/14.2.rel1/arm-none-eabi/arm-none-eabi/include/c++/14.2.1/bits/stl_algobase.h ****     inline const _Tp&
 303:/Applications/ArmGNUToolchain/14.2.rel1/arm-none-eabi/arm-none-eabi/include/c++/14.2.1/bits/stl_algobase.h ****     max(const _Tp& __a, const _Tp& __b, _Compare __comp)
 304:/Applications/ArmGNUToolchain/14.2.rel1/arm-none-eabi/arm-none-eabi/include/c++/14.2.1/bits/stl_algobase.h ****     {
 305:/Applications/ArmGNUToolchain/14.2.rel1/arm-none-eabi/arm-none-eabi/include/c++/14.2.1/bits/stl_algobase.h ****       //return __comp(__a, __b) ? __b : __a;
 306:/Applications/ArmGNUToolchain/14.2.rel1/arm-none-eabi/arm-none-eabi/include/c++/14.2.1/bits/stl_algobase.h ****       if (__comp(__a, __b))
 307:/Applications/ArmGNUToolchain/14.2.rel1/arm-none-eabi/arm-none-eabi/include/c++/14.2.1/bits/stl_algobase.h **** 	return __b;
 308:/Applications/ArmGNUToolchain/14.2.rel1/arm-none-eabi/arm-none-eabi/include/c++/14.2.1/bits/stl_algobase.h ****       return __a;
 309:/Applications/ArmGNUToolchain/14.2.rel1/arm-none-eabi/arm-none-eabi/include/c++/14.2.1/bits/stl_algobase.h ****     }
 310:/Applications/ArmGNUToolchain/14.2.rel1/arm-none-eabi/arm-none-eabi/include/c++/14.2.1/bits/stl_algobase.h **** 
 311:/Applications/ArmGNUToolchain/14.2.rel1/arm-none-eabi/arm-none-eabi/include/c++/14.2.1/bits/stl_algobase.h ****   // Fallback implementation of the function in bits/stl_iterator.h used to
 312:/Applications/ArmGNUToolchain/14.2.rel1/arm-none-eabi/arm-none-eabi/include/c++/14.2.1/bits/stl_algobase.h ****   // remove the __normal_iterator wrapper. See copy, fill, ...
 313:/Applications/ArmGNUToolchain/14.2.rel1/arm-none-eabi/arm-none-eabi/include/c++/14.2.1/bits/stl_algobase.h ****   template<typename _Iterator>
 314:/Applications/ArmGNUToolchain/14.2.rel1/arm-none-eabi/arm-none-eabi/include/c++/14.2.1/bits/stl_algobase.h ****     _GLIBCXX20_CONSTEXPR
 315:/Applications/ArmGNUToolchain/14.2.rel1/arm-none-eabi/arm-none-eabi/include/c++/14.2.1/bits/stl_algobase.h ****     inline _Iterator
 316:/Applications/ArmGNUToolchain/14.2.rel1/arm-none-eabi/arm-none-eabi/include/c++/14.2.1/bits/stl_algobase.h ****     __niter_base(_Iterator __it)
 317:/Applications/ArmGNUToolchain/14.2.rel1/arm-none-eabi/arm-none-eabi/include/c++/14.2.1/bits/stl_algobase.h ****     _GLIBCXX_NOEXCEPT_IF(std::is_nothrow_copy_constructible<_Iterator>::value)
 318:/Applications/ArmGNUToolchain/14.2.rel1/arm-none-eabi/arm-none-eabi/include/c++/14.2.1/bits/stl_algobase.h ****     { return __it; }
 319:/Applications/ArmGNUToolchain/14.2.rel1/arm-none-eabi/arm-none-eabi/include/c++/14.2.1/bits/stl_algobase.h **** 
 320:/Applications/ArmGNUToolchain/14.2.rel1/arm-none-eabi/arm-none-eabi/include/c++/14.2.1/bits/stl_algobase.h **** #if __cplusplus < 201103L
 321:/Applications/ArmGNUToolchain/14.2.rel1/arm-none-eabi/arm-none-eabi/include/c++/14.2.1/bits/stl_algobase.h ****   template<typename _Ite, typename _Seq>
 322:/Applications/ArmGNUToolchain/14.2.rel1/arm-none-eabi/arm-none-eabi/include/c++/14.2.1/bits/stl_algobase.h ****     _Ite
 323:/Applications/ArmGNUToolchain/14.2.rel1/arm-none-eabi/arm-none-eabi/include/c++/14.2.1/bits/stl_algobase.h ****     __niter_base(const ::__gnu_debug::_Safe_iterator<_Ite, _Seq,
 324:/Applications/ArmGNUToolchain/14.2.rel1/arm-none-eabi/arm-none-eabi/include/c++/14.2.1/bits/stl_algobase.h **** 		 std::random_access_iterator_tag>&);
 325:/Applications/ArmGNUToolchain/14.2.rel1/arm-none-eabi/arm-none-eabi/include/c++/14.2.1/bits/stl_algobase.h **** 
 326:/Applications/ArmGNUToolchain/14.2.rel1/arm-none-eabi/arm-none-eabi/include/c++/14.2.1/bits/stl_algobase.h ****  template<typename _Ite, typename _Cont, typename _Seq>
 327:/Applications/ArmGNUToolchain/14.2.rel1/arm-none-eabi/arm-none-eabi/include/c++/14.2.1/bits/stl_algobase.h ****     _Ite
 328:/Applications/ArmGNUToolchain/14.2.rel1/arm-none-eabi/arm-none-eabi/include/c++/14.2.1/bits/stl_algobase.h ****     __niter_base(const ::__gnu_debug::_Safe_iterator<
 329:/Applications/ArmGNUToolchain/14.2.rel1/arm-none-eabi/arm-none-eabi/include/c++/14.2.1/bits/stl_algobase.h **** 		 ::__gnu_cxx::__normal_iterator<_Ite, _Cont>, _Seq,
 330:/Applications/ArmGNUToolchain/14.2.rel1/arm-none-eabi/arm-none-eabi/include/c++/14.2.1/bits/stl_algobase.h **** 		 std::random_access_iterator_tag>&);
 331:/Applications/ArmGNUToolchain/14.2.rel1/arm-none-eabi/arm-none-eabi/include/c++/14.2.1/bits/stl_algobase.h **** #else
ARM GAS  /var/folders/y7/g6pkzsp12sx54x3s3mvyn15r0000gn/T//ccwVequI.s 			page 19


 332:/Applications/ArmGNUToolchain/14.2.rel1/arm-none-eabi/arm-none-eabi/include/c++/14.2.1/bits/stl_algobase.h ****   template<typename _Ite, typename _Seq>
 333:/Applications/ArmGNUToolchain/14.2.rel1/arm-none-eabi/arm-none-eabi/include/c++/14.2.1/bits/stl_algobase.h ****     _GLIBCXX20_CONSTEXPR
 334:/Applications/ArmGNUToolchain/14.2.rel1/arm-none-eabi/arm-none-eabi/include/c++/14.2.1/bits/stl_algobase.h ****     decltype(std::__niter_base(std::declval<_Ite>()))
 335:/Applications/ArmGNUToolchain/14.2.rel1/arm-none-eabi/arm-none-eabi/include/c++/14.2.1/bits/stl_algobase.h ****     __niter_base(const ::__gnu_debug::_Safe_iterator<_Ite, _Seq,
 336:/Applications/ArmGNUToolchain/14.2.rel1/arm-none-eabi/arm-none-eabi/include/c++/14.2.1/bits/stl_algobase.h **** 		 std::random_access_iterator_tag>&)
 337:/Applications/ArmGNUToolchain/14.2.rel1/arm-none-eabi/arm-none-eabi/include/c++/14.2.1/bits/stl_algobase.h ****     noexcept(std::is_nothrow_copy_constructible<_Ite>::value);
 338:/Applications/ArmGNUToolchain/14.2.rel1/arm-none-eabi/arm-none-eabi/include/c++/14.2.1/bits/stl_algobase.h **** #endif
 339:/Applications/ArmGNUToolchain/14.2.rel1/arm-none-eabi/arm-none-eabi/include/c++/14.2.1/bits/stl_algobase.h **** 
 340:/Applications/ArmGNUToolchain/14.2.rel1/arm-none-eabi/arm-none-eabi/include/c++/14.2.1/bits/stl_algobase.h ****   // Reverse the __niter_base transformation to get a
 341:/Applications/ArmGNUToolchain/14.2.rel1/arm-none-eabi/arm-none-eabi/include/c++/14.2.1/bits/stl_algobase.h ****   // __normal_iterator back again (this assumes that __normal_iterator
 342:/Applications/ArmGNUToolchain/14.2.rel1/arm-none-eabi/arm-none-eabi/include/c++/14.2.1/bits/stl_algobase.h ****   // is only used to wrap random access iterators, like pointers).
 343:/Applications/ArmGNUToolchain/14.2.rel1/arm-none-eabi/arm-none-eabi/include/c++/14.2.1/bits/stl_algobase.h ****   template<typename _From, typename _To>
 344:/Applications/ArmGNUToolchain/14.2.rel1/arm-none-eabi/arm-none-eabi/include/c++/14.2.1/bits/stl_algobase.h ****     _GLIBCXX20_CONSTEXPR
 345:/Applications/ArmGNUToolchain/14.2.rel1/arm-none-eabi/arm-none-eabi/include/c++/14.2.1/bits/stl_algobase.h ****     inline _From
 346:/Applications/ArmGNUToolchain/14.2.rel1/arm-none-eabi/arm-none-eabi/include/c++/14.2.1/bits/stl_algobase.h ****     __niter_wrap(_From __from, _To __res)
 347:/Applications/ArmGNUToolchain/14.2.rel1/arm-none-eabi/arm-none-eabi/include/c++/14.2.1/bits/stl_algobase.h ****     { return __from + (std::__niter_base(__res) - std::__niter_base(__from)); }
 348:/Applications/ArmGNUToolchain/14.2.rel1/arm-none-eabi/arm-none-eabi/include/c++/14.2.1/bits/stl_algobase.h **** 
 349:/Applications/ArmGNUToolchain/14.2.rel1/arm-none-eabi/arm-none-eabi/include/c++/14.2.1/bits/stl_algobase.h ****   // No need to wrap, iterator already has the right type.
 350:/Applications/ArmGNUToolchain/14.2.rel1/arm-none-eabi/arm-none-eabi/include/c++/14.2.1/bits/stl_algobase.h ****   template<typename _Iterator>
 351:/Applications/ArmGNUToolchain/14.2.rel1/arm-none-eabi/arm-none-eabi/include/c++/14.2.1/bits/stl_algobase.h ****     _GLIBCXX20_CONSTEXPR
 352:/Applications/ArmGNUToolchain/14.2.rel1/arm-none-eabi/arm-none-eabi/include/c++/14.2.1/bits/stl_algobase.h ****     inline _Iterator
 353:/Applications/ArmGNUToolchain/14.2.rel1/arm-none-eabi/arm-none-eabi/include/c++/14.2.1/bits/stl_algobase.h ****     __niter_wrap(const _Iterator&, _Iterator __res)
 354:/Applications/ArmGNUToolchain/14.2.rel1/arm-none-eabi/arm-none-eabi/include/c++/14.2.1/bits/stl_algobase.h ****     { return __res; }
 355:/Applications/ArmGNUToolchain/14.2.rel1/arm-none-eabi/arm-none-eabi/include/c++/14.2.1/bits/stl_algobase.h **** 
 356:/Applications/ArmGNUToolchain/14.2.rel1/arm-none-eabi/arm-none-eabi/include/c++/14.2.1/bits/stl_algobase.h ****   // All of these auxiliary structs serve two purposes.  (1) Replace
 357:/Applications/ArmGNUToolchain/14.2.rel1/arm-none-eabi/arm-none-eabi/include/c++/14.2.1/bits/stl_algobase.h ****   // calls to copy with memmove whenever possible.  (Memmove, not memcpy,
 358:/Applications/ArmGNUToolchain/14.2.rel1/arm-none-eabi/arm-none-eabi/include/c++/14.2.1/bits/stl_algobase.h ****   // because the input and output ranges are permitted to overlap.)
 359:/Applications/ArmGNUToolchain/14.2.rel1/arm-none-eabi/arm-none-eabi/include/c++/14.2.1/bits/stl_algobase.h ****   // (2) If we're using random access iterators, then write the loop as
 360:/Applications/ArmGNUToolchain/14.2.rel1/arm-none-eabi/arm-none-eabi/include/c++/14.2.1/bits/stl_algobase.h ****   // a for loop with an explicit count.
 361:/Applications/ArmGNUToolchain/14.2.rel1/arm-none-eabi/arm-none-eabi/include/c++/14.2.1/bits/stl_algobase.h **** 
 362:/Applications/ArmGNUToolchain/14.2.rel1/arm-none-eabi/arm-none-eabi/include/c++/14.2.1/bits/stl_algobase.h ****   template<bool _IsMove, bool _IsSimple, typename _Category>
 363:/Applications/ArmGNUToolchain/14.2.rel1/arm-none-eabi/arm-none-eabi/include/c++/14.2.1/bits/stl_algobase.h ****     struct __copy_move
 364:/Applications/ArmGNUToolchain/14.2.rel1/arm-none-eabi/arm-none-eabi/include/c++/14.2.1/bits/stl_algobase.h ****     {
 365:/Applications/ArmGNUToolchain/14.2.rel1/arm-none-eabi/arm-none-eabi/include/c++/14.2.1/bits/stl_algobase.h ****       template<typename _II, typename _OI>
 366:/Applications/ArmGNUToolchain/14.2.rel1/arm-none-eabi/arm-none-eabi/include/c++/14.2.1/bits/stl_algobase.h **** 	_GLIBCXX20_CONSTEXPR
 367:/Applications/ArmGNUToolchain/14.2.rel1/arm-none-eabi/arm-none-eabi/include/c++/14.2.1/bits/stl_algobase.h **** 	static _OI
 368:/Applications/ArmGNUToolchain/14.2.rel1/arm-none-eabi/arm-none-eabi/include/c++/14.2.1/bits/stl_algobase.h **** 	__copy_m(_II __first, _II __last, _OI __result)
 369:/Applications/ArmGNUToolchain/14.2.rel1/arm-none-eabi/arm-none-eabi/include/c++/14.2.1/bits/stl_algobase.h **** 	{
 370:/Applications/ArmGNUToolchain/14.2.rel1/arm-none-eabi/arm-none-eabi/include/c++/14.2.1/bits/stl_algobase.h **** 	  for (; __first != __last; ++__result, (void)++__first)
 371:/Applications/ArmGNUToolchain/14.2.rel1/arm-none-eabi/arm-none-eabi/include/c++/14.2.1/bits/stl_algobase.h **** 	    *__result = *__first;
 372:/Applications/ArmGNUToolchain/14.2.rel1/arm-none-eabi/arm-none-eabi/include/c++/14.2.1/bits/stl_algobase.h **** 	  return __result;
 373:/Applications/ArmGNUToolchain/14.2.rel1/arm-none-eabi/arm-none-eabi/include/c++/14.2.1/bits/stl_algobase.h **** 	}
 374:/Applications/ArmGNUToolchain/14.2.rel1/arm-none-eabi/arm-none-eabi/include/c++/14.2.1/bits/stl_algobase.h ****     };
 375:/Applications/ArmGNUToolchain/14.2.rel1/arm-none-eabi/arm-none-eabi/include/c++/14.2.1/bits/stl_algobase.h **** 
 376:/Applications/ArmGNUToolchain/14.2.rel1/arm-none-eabi/arm-none-eabi/include/c++/14.2.1/bits/stl_algobase.h **** #if __cplusplus >= 201103L
 377:/Applications/ArmGNUToolchain/14.2.rel1/arm-none-eabi/arm-none-eabi/include/c++/14.2.1/bits/stl_algobase.h ****   template<typename _Category>
 378:/Applications/ArmGNUToolchain/14.2.rel1/arm-none-eabi/arm-none-eabi/include/c++/14.2.1/bits/stl_algobase.h ****     struct __copy_move<true, false, _Category>
 379:/Applications/ArmGNUToolchain/14.2.rel1/arm-none-eabi/arm-none-eabi/include/c++/14.2.1/bits/stl_algobase.h ****     {
 380:/Applications/ArmGNUToolchain/14.2.rel1/arm-none-eabi/arm-none-eabi/include/c++/14.2.1/bits/stl_algobase.h ****       template<typename _II, typename _OI>
 381:/Applications/ArmGNUToolchain/14.2.rel1/arm-none-eabi/arm-none-eabi/include/c++/14.2.1/bits/stl_algobase.h **** 	_GLIBCXX20_CONSTEXPR
 382:/Applications/ArmGNUToolchain/14.2.rel1/arm-none-eabi/arm-none-eabi/include/c++/14.2.1/bits/stl_algobase.h **** 	static _OI
 383:/Applications/ArmGNUToolchain/14.2.rel1/arm-none-eabi/arm-none-eabi/include/c++/14.2.1/bits/stl_algobase.h **** 	__copy_m(_II __first, _II __last, _OI __result)
 384:/Applications/ArmGNUToolchain/14.2.rel1/arm-none-eabi/arm-none-eabi/include/c++/14.2.1/bits/stl_algobase.h **** 	{
 385:/Applications/ArmGNUToolchain/14.2.rel1/arm-none-eabi/arm-none-eabi/include/c++/14.2.1/bits/stl_algobase.h **** 	  for (; __first != __last; ++__result, (void)++__first)
 386:/Applications/ArmGNUToolchain/14.2.rel1/arm-none-eabi/arm-none-eabi/include/c++/14.2.1/bits/stl_algobase.h **** 	    *__result = std::move(*__first);
 387:/Applications/ArmGNUToolchain/14.2.rel1/arm-none-eabi/arm-none-eabi/include/c++/14.2.1/bits/stl_algobase.h **** 	  return __result;
 388:/Applications/ArmGNUToolchain/14.2.rel1/arm-none-eabi/arm-none-eabi/include/c++/14.2.1/bits/stl_algobase.h **** 	}
ARM GAS  /var/folders/y7/g6pkzsp12sx54x3s3mvyn15r0000gn/T//ccwVequI.s 			page 20


 389:/Applications/ArmGNUToolchain/14.2.rel1/arm-none-eabi/arm-none-eabi/include/c++/14.2.1/bits/stl_algobase.h ****     };
 390:/Applications/ArmGNUToolchain/14.2.rel1/arm-none-eabi/arm-none-eabi/include/c++/14.2.1/bits/stl_algobase.h **** #endif
 391:/Applications/ArmGNUToolchain/14.2.rel1/arm-none-eabi/arm-none-eabi/include/c++/14.2.1/bits/stl_algobase.h **** 
 392:/Applications/ArmGNUToolchain/14.2.rel1/arm-none-eabi/arm-none-eabi/include/c++/14.2.1/bits/stl_algobase.h ****   template<>
 393:/Applications/ArmGNUToolchain/14.2.rel1/arm-none-eabi/arm-none-eabi/include/c++/14.2.1/bits/stl_algobase.h ****     struct __copy_move<false, false, random_access_iterator_tag>
 394:/Applications/ArmGNUToolchain/14.2.rel1/arm-none-eabi/arm-none-eabi/include/c++/14.2.1/bits/stl_algobase.h ****     {
 395:/Applications/ArmGNUToolchain/14.2.rel1/arm-none-eabi/arm-none-eabi/include/c++/14.2.1/bits/stl_algobase.h ****       template<typename _II, typename _OI>
 396:/Applications/ArmGNUToolchain/14.2.rel1/arm-none-eabi/arm-none-eabi/include/c++/14.2.1/bits/stl_algobase.h **** 	_GLIBCXX20_CONSTEXPR
 397:/Applications/ArmGNUToolchain/14.2.rel1/arm-none-eabi/arm-none-eabi/include/c++/14.2.1/bits/stl_algobase.h **** 	static _OI
 398:/Applications/ArmGNUToolchain/14.2.rel1/arm-none-eabi/arm-none-eabi/include/c++/14.2.1/bits/stl_algobase.h **** 	__copy_m(_II __first, _II __last, _OI __result)
 399:/Applications/ArmGNUToolchain/14.2.rel1/arm-none-eabi/arm-none-eabi/include/c++/14.2.1/bits/stl_algobase.h **** 	{
 400:/Applications/ArmGNUToolchain/14.2.rel1/arm-none-eabi/arm-none-eabi/include/c++/14.2.1/bits/stl_algobase.h **** 	  typedef typename iterator_traits<_II>::difference_type _Distance;
 401:/Applications/ArmGNUToolchain/14.2.rel1/arm-none-eabi/arm-none-eabi/include/c++/14.2.1/bits/stl_algobase.h **** 	  for(_Distance __n = __last - __first; __n > 0; --__n)
 402:/Applications/ArmGNUToolchain/14.2.rel1/arm-none-eabi/arm-none-eabi/include/c++/14.2.1/bits/stl_algobase.h **** 	    {
 403:/Applications/ArmGNUToolchain/14.2.rel1/arm-none-eabi/arm-none-eabi/include/c++/14.2.1/bits/stl_algobase.h **** 	      *__result = *__first;
 404:/Applications/ArmGNUToolchain/14.2.rel1/arm-none-eabi/arm-none-eabi/include/c++/14.2.1/bits/stl_algobase.h **** 	      ++__first;
 405:/Applications/ArmGNUToolchain/14.2.rel1/arm-none-eabi/arm-none-eabi/include/c++/14.2.1/bits/stl_algobase.h **** 	      ++__result;
 406:/Applications/ArmGNUToolchain/14.2.rel1/arm-none-eabi/arm-none-eabi/include/c++/14.2.1/bits/stl_algobase.h **** 	    }
 407:/Applications/ArmGNUToolchain/14.2.rel1/arm-none-eabi/arm-none-eabi/include/c++/14.2.1/bits/stl_algobase.h **** 	  return __result;
 408:/Applications/ArmGNUToolchain/14.2.rel1/arm-none-eabi/arm-none-eabi/include/c++/14.2.1/bits/stl_algobase.h **** 	}
 409:/Applications/ArmGNUToolchain/14.2.rel1/arm-none-eabi/arm-none-eabi/include/c++/14.2.1/bits/stl_algobase.h **** 
 410:/Applications/ArmGNUToolchain/14.2.rel1/arm-none-eabi/arm-none-eabi/include/c++/14.2.1/bits/stl_algobase.h ****       template<typename _Tp, typename _Up>
 411:/Applications/ArmGNUToolchain/14.2.rel1/arm-none-eabi/arm-none-eabi/include/c++/14.2.1/bits/stl_algobase.h **** 	static void
 412:/Applications/ArmGNUToolchain/14.2.rel1/arm-none-eabi/arm-none-eabi/include/c++/14.2.1/bits/stl_algobase.h **** 	__assign_one(_Tp* __to, _Up* __from)
 413:/Applications/ArmGNUToolchain/14.2.rel1/arm-none-eabi/arm-none-eabi/include/c++/14.2.1/bits/stl_algobase.h **** 	{ *__to = *__from; }
 414:/Applications/ArmGNUToolchain/14.2.rel1/arm-none-eabi/arm-none-eabi/include/c++/14.2.1/bits/stl_algobase.h ****     };
 415:/Applications/ArmGNUToolchain/14.2.rel1/arm-none-eabi/arm-none-eabi/include/c++/14.2.1/bits/stl_algobase.h **** 
 416:/Applications/ArmGNUToolchain/14.2.rel1/arm-none-eabi/arm-none-eabi/include/c++/14.2.1/bits/stl_algobase.h **** #if __cplusplus >= 201103L
 417:/Applications/ArmGNUToolchain/14.2.rel1/arm-none-eabi/arm-none-eabi/include/c++/14.2.1/bits/stl_algobase.h ****   template<>
 418:/Applications/ArmGNUToolchain/14.2.rel1/arm-none-eabi/arm-none-eabi/include/c++/14.2.1/bits/stl_algobase.h ****     struct __copy_move<true, false, random_access_iterator_tag>
 419:/Applications/ArmGNUToolchain/14.2.rel1/arm-none-eabi/arm-none-eabi/include/c++/14.2.1/bits/stl_algobase.h ****     {
 420:/Applications/ArmGNUToolchain/14.2.rel1/arm-none-eabi/arm-none-eabi/include/c++/14.2.1/bits/stl_algobase.h ****       template<typename _II, typename _OI>
 421:/Applications/ArmGNUToolchain/14.2.rel1/arm-none-eabi/arm-none-eabi/include/c++/14.2.1/bits/stl_algobase.h **** 	_GLIBCXX20_CONSTEXPR
 422:/Applications/ArmGNUToolchain/14.2.rel1/arm-none-eabi/arm-none-eabi/include/c++/14.2.1/bits/stl_algobase.h **** 	static _OI
 423:/Applications/ArmGNUToolchain/14.2.rel1/arm-none-eabi/arm-none-eabi/include/c++/14.2.1/bits/stl_algobase.h **** 	__copy_m(_II __first, _II __last, _OI __result)
 424:/Applications/ArmGNUToolchain/14.2.rel1/arm-none-eabi/arm-none-eabi/include/c++/14.2.1/bits/stl_algobase.h **** 	{
 425:/Applications/ArmGNUToolchain/14.2.rel1/arm-none-eabi/arm-none-eabi/include/c++/14.2.1/bits/stl_algobase.h **** 	  typedef typename iterator_traits<_II>::difference_type _Distance;
 426:/Applications/ArmGNUToolchain/14.2.rel1/arm-none-eabi/arm-none-eabi/include/c++/14.2.1/bits/stl_algobase.h **** 	  for(_Distance __n = __last - __first; __n > 0; --__n)
 427:/Applications/ArmGNUToolchain/14.2.rel1/arm-none-eabi/arm-none-eabi/include/c++/14.2.1/bits/stl_algobase.h **** 	    {
 428:/Applications/ArmGNUToolchain/14.2.rel1/arm-none-eabi/arm-none-eabi/include/c++/14.2.1/bits/stl_algobase.h **** 	      *__result = std::move(*__first);
 429:/Applications/ArmGNUToolchain/14.2.rel1/arm-none-eabi/arm-none-eabi/include/c++/14.2.1/bits/stl_algobase.h **** 	      ++__first;
 430:/Applications/ArmGNUToolchain/14.2.rel1/arm-none-eabi/arm-none-eabi/include/c++/14.2.1/bits/stl_algobase.h **** 	      ++__result;
 431:/Applications/ArmGNUToolchain/14.2.rel1/arm-none-eabi/arm-none-eabi/include/c++/14.2.1/bits/stl_algobase.h **** 	    }
 432:/Applications/ArmGNUToolchain/14.2.rel1/arm-none-eabi/arm-none-eabi/include/c++/14.2.1/bits/stl_algobase.h **** 	  return __result;
 433:/Applications/ArmGNUToolchain/14.2.rel1/arm-none-eabi/arm-none-eabi/include/c++/14.2.1/bits/stl_algobase.h **** 	}
 434:/Applications/ArmGNUToolchain/14.2.rel1/arm-none-eabi/arm-none-eabi/include/c++/14.2.1/bits/stl_algobase.h **** 
 435:/Applications/ArmGNUToolchain/14.2.rel1/arm-none-eabi/arm-none-eabi/include/c++/14.2.1/bits/stl_algobase.h ****       template<typename _Tp, typename _Up>
 436:/Applications/ArmGNUToolchain/14.2.rel1/arm-none-eabi/arm-none-eabi/include/c++/14.2.1/bits/stl_algobase.h **** 	static void
 437:/Applications/ArmGNUToolchain/14.2.rel1/arm-none-eabi/arm-none-eabi/include/c++/14.2.1/bits/stl_algobase.h **** 	__assign_one(_Tp* __to, _Up* __from)
 438:/Applications/ArmGNUToolchain/14.2.rel1/arm-none-eabi/arm-none-eabi/include/c++/14.2.1/bits/stl_algobase.h **** 	{ *__to = std::move(*__from); }
 439:/Applications/ArmGNUToolchain/14.2.rel1/arm-none-eabi/arm-none-eabi/include/c++/14.2.1/bits/stl_algobase.h ****     };
 440:/Applications/ArmGNUToolchain/14.2.rel1/arm-none-eabi/arm-none-eabi/include/c++/14.2.1/bits/stl_algobase.h **** #endif
 441:/Applications/ArmGNUToolchain/14.2.rel1/arm-none-eabi/arm-none-eabi/include/c++/14.2.1/bits/stl_algobase.h **** 
 442:/Applications/ArmGNUToolchain/14.2.rel1/arm-none-eabi/arm-none-eabi/include/c++/14.2.1/bits/stl_algobase.h ****   template<bool _IsMove>
 443:/Applications/ArmGNUToolchain/14.2.rel1/arm-none-eabi/arm-none-eabi/include/c++/14.2.1/bits/stl_algobase.h ****     struct __copy_move<_IsMove, true, random_access_iterator_tag>
 444:/Applications/ArmGNUToolchain/14.2.rel1/arm-none-eabi/arm-none-eabi/include/c++/14.2.1/bits/stl_algobase.h ****     {
 445:/Applications/ArmGNUToolchain/14.2.rel1/arm-none-eabi/arm-none-eabi/include/c++/14.2.1/bits/stl_algobase.h ****       template<typename _Tp, typename _Up>
ARM GAS  /var/folders/y7/g6pkzsp12sx54x3s3mvyn15r0000gn/T//ccwVequI.s 			page 21


 446:/Applications/ArmGNUToolchain/14.2.rel1/arm-none-eabi/arm-none-eabi/include/c++/14.2.1/bits/stl_algobase.h **** 	_GLIBCXX20_CONSTEXPR
 447:/Applications/ArmGNUToolchain/14.2.rel1/arm-none-eabi/arm-none-eabi/include/c++/14.2.1/bits/stl_algobase.h **** 	static _Up*
 448:/Applications/ArmGNUToolchain/14.2.rel1/arm-none-eabi/arm-none-eabi/include/c++/14.2.1/bits/stl_algobase.h **** 	__copy_m(_Tp* __first, _Tp* __last, _Up* __result)
 449:/Applications/ArmGNUToolchain/14.2.rel1/arm-none-eabi/arm-none-eabi/include/c++/14.2.1/bits/stl_algobase.h **** 	{
 450:/Applications/ArmGNUToolchain/14.2.rel1/arm-none-eabi/arm-none-eabi/include/c++/14.2.1/bits/stl_algobase.h **** 	  const ptrdiff_t _Num = __last - __first;
 451:/Applications/ArmGNUToolchain/14.2.rel1/arm-none-eabi/arm-none-eabi/include/c++/14.2.1/bits/stl_algobase.h **** 	  if (__builtin_expect(_Num > 1, true))
 452:/Applications/ArmGNUToolchain/14.2.rel1/arm-none-eabi/arm-none-eabi/include/c++/14.2.1/bits/stl_algobase.h **** 	    __builtin_memmove(__result, __first, sizeof(_Tp) * _Num);
 453:/Applications/ArmGNUToolchain/14.2.rel1/arm-none-eabi/arm-none-eabi/include/c++/14.2.1/bits/stl_algobase.h **** 	  else if (_Num == 1)
 454:/Applications/ArmGNUToolchain/14.2.rel1/arm-none-eabi/arm-none-eabi/include/c++/14.2.1/bits/stl_algobase.h **** 	    std::__copy_move<_IsMove, false, random_access_iterator_tag>::
 455:/Applications/ArmGNUToolchain/14.2.rel1/arm-none-eabi/arm-none-eabi/include/c++/14.2.1/bits/stl_algobase.h **** 	      __assign_one(__result, __first);
 456:/Applications/ArmGNUToolchain/14.2.rel1/arm-none-eabi/arm-none-eabi/include/c++/14.2.1/bits/stl_algobase.h **** 	  return __result + _Num;
 457:/Applications/ArmGNUToolchain/14.2.rel1/arm-none-eabi/arm-none-eabi/include/c++/14.2.1/bits/stl_algobase.h **** 	}
 458:/Applications/ArmGNUToolchain/14.2.rel1/arm-none-eabi/arm-none-eabi/include/c++/14.2.1/bits/stl_algobase.h ****     };
 459:/Applications/ArmGNUToolchain/14.2.rel1/arm-none-eabi/arm-none-eabi/include/c++/14.2.1/bits/stl_algobase.h **** 
 460:/Applications/ArmGNUToolchain/14.2.rel1/arm-none-eabi/arm-none-eabi/include/c++/14.2.1/bits/stl_algobase.h **** _GLIBCXX_BEGIN_NAMESPACE_CONTAINER
 461:/Applications/ArmGNUToolchain/14.2.rel1/arm-none-eabi/arm-none-eabi/include/c++/14.2.1/bits/stl_algobase.h **** 
 462:/Applications/ArmGNUToolchain/14.2.rel1/arm-none-eabi/arm-none-eabi/include/c++/14.2.1/bits/stl_algobase.h ****   template<typename _Tp, typename _Ref, typename _Ptr>
 463:/Applications/ArmGNUToolchain/14.2.rel1/arm-none-eabi/arm-none-eabi/include/c++/14.2.1/bits/stl_algobase.h ****     struct _Deque_iterator;
 464:/Applications/ArmGNUToolchain/14.2.rel1/arm-none-eabi/arm-none-eabi/include/c++/14.2.1/bits/stl_algobase.h **** 
 465:/Applications/ArmGNUToolchain/14.2.rel1/arm-none-eabi/arm-none-eabi/include/c++/14.2.1/bits/stl_algobase.h ****   struct _Bit_iterator;
 466:/Applications/ArmGNUToolchain/14.2.rel1/arm-none-eabi/arm-none-eabi/include/c++/14.2.1/bits/stl_algobase.h **** 
 467:/Applications/ArmGNUToolchain/14.2.rel1/arm-none-eabi/arm-none-eabi/include/c++/14.2.1/bits/stl_algobase.h **** _GLIBCXX_END_NAMESPACE_CONTAINER
 468:/Applications/ArmGNUToolchain/14.2.rel1/arm-none-eabi/arm-none-eabi/include/c++/14.2.1/bits/stl_algobase.h **** 
 469:/Applications/ArmGNUToolchain/14.2.rel1/arm-none-eabi/arm-none-eabi/include/c++/14.2.1/bits/stl_algobase.h **** #if _GLIBCXX_HOSTED
 470:/Applications/ArmGNUToolchain/14.2.rel1/arm-none-eabi/arm-none-eabi/include/c++/14.2.1/bits/stl_algobase.h ****   // Helpers for streambuf iterators (either istream or ostream).
 471:/Applications/ArmGNUToolchain/14.2.rel1/arm-none-eabi/arm-none-eabi/include/c++/14.2.1/bits/stl_algobase.h ****   // NB: avoid including <iosfwd>, relatively large.
 472:/Applications/ArmGNUToolchain/14.2.rel1/arm-none-eabi/arm-none-eabi/include/c++/14.2.1/bits/stl_algobase.h ****   template<typename _CharT>
 473:/Applications/ArmGNUToolchain/14.2.rel1/arm-none-eabi/arm-none-eabi/include/c++/14.2.1/bits/stl_algobase.h ****     struct char_traits;
 474:/Applications/ArmGNUToolchain/14.2.rel1/arm-none-eabi/arm-none-eabi/include/c++/14.2.1/bits/stl_algobase.h **** 
 475:/Applications/ArmGNUToolchain/14.2.rel1/arm-none-eabi/arm-none-eabi/include/c++/14.2.1/bits/stl_algobase.h ****   template<typename _CharT, typename _Traits>
 476:/Applications/ArmGNUToolchain/14.2.rel1/arm-none-eabi/arm-none-eabi/include/c++/14.2.1/bits/stl_algobase.h ****     class istreambuf_iterator;
 477:/Applications/ArmGNUToolchain/14.2.rel1/arm-none-eabi/arm-none-eabi/include/c++/14.2.1/bits/stl_algobase.h **** 
 478:/Applications/ArmGNUToolchain/14.2.rel1/arm-none-eabi/arm-none-eabi/include/c++/14.2.1/bits/stl_algobase.h ****   template<typename _CharT, typename _Traits>
 479:/Applications/ArmGNUToolchain/14.2.rel1/arm-none-eabi/arm-none-eabi/include/c++/14.2.1/bits/stl_algobase.h ****     class ostreambuf_iterator;
 480:/Applications/ArmGNUToolchain/14.2.rel1/arm-none-eabi/arm-none-eabi/include/c++/14.2.1/bits/stl_algobase.h **** 
 481:/Applications/ArmGNUToolchain/14.2.rel1/arm-none-eabi/arm-none-eabi/include/c++/14.2.1/bits/stl_algobase.h ****   template<bool _IsMove, typename _CharT>
 482:/Applications/ArmGNUToolchain/14.2.rel1/arm-none-eabi/arm-none-eabi/include/c++/14.2.1/bits/stl_algobase.h ****     typename __gnu_cxx::__enable_if<__is_char<_CharT>::__value,
 483:/Applications/ArmGNUToolchain/14.2.rel1/arm-none-eabi/arm-none-eabi/include/c++/14.2.1/bits/stl_algobase.h **** 	     ostreambuf_iterator<_CharT, char_traits<_CharT> > >::__type
 484:/Applications/ArmGNUToolchain/14.2.rel1/arm-none-eabi/arm-none-eabi/include/c++/14.2.1/bits/stl_algobase.h ****     __copy_move_a2(_CharT*, _CharT*,
 485:/Applications/ArmGNUToolchain/14.2.rel1/arm-none-eabi/arm-none-eabi/include/c++/14.2.1/bits/stl_algobase.h **** 		   ostreambuf_iterator<_CharT, char_traits<_CharT> >);
 486:/Applications/ArmGNUToolchain/14.2.rel1/arm-none-eabi/arm-none-eabi/include/c++/14.2.1/bits/stl_algobase.h **** 
 487:/Applications/ArmGNUToolchain/14.2.rel1/arm-none-eabi/arm-none-eabi/include/c++/14.2.1/bits/stl_algobase.h ****   template<bool _IsMove, typename _CharT>
 488:/Applications/ArmGNUToolchain/14.2.rel1/arm-none-eabi/arm-none-eabi/include/c++/14.2.1/bits/stl_algobase.h ****     typename __gnu_cxx::__enable_if<__is_char<_CharT>::__value,
 489:/Applications/ArmGNUToolchain/14.2.rel1/arm-none-eabi/arm-none-eabi/include/c++/14.2.1/bits/stl_algobase.h **** 	     ostreambuf_iterator<_CharT, char_traits<_CharT> > >::__type
 490:/Applications/ArmGNUToolchain/14.2.rel1/arm-none-eabi/arm-none-eabi/include/c++/14.2.1/bits/stl_algobase.h ****     __copy_move_a2(const _CharT*, const _CharT*,
 491:/Applications/ArmGNUToolchain/14.2.rel1/arm-none-eabi/arm-none-eabi/include/c++/14.2.1/bits/stl_algobase.h **** 		   ostreambuf_iterator<_CharT, char_traits<_CharT> >);
 492:/Applications/ArmGNUToolchain/14.2.rel1/arm-none-eabi/arm-none-eabi/include/c++/14.2.1/bits/stl_algobase.h **** 
 493:/Applications/ArmGNUToolchain/14.2.rel1/arm-none-eabi/arm-none-eabi/include/c++/14.2.1/bits/stl_algobase.h ****   template<bool _IsMove, typename _CharT>
 494:/Applications/ArmGNUToolchain/14.2.rel1/arm-none-eabi/arm-none-eabi/include/c++/14.2.1/bits/stl_algobase.h ****     typename __gnu_cxx::__enable_if<__is_char<_CharT>::__value,
 495:/Applications/ArmGNUToolchain/14.2.rel1/arm-none-eabi/arm-none-eabi/include/c++/14.2.1/bits/stl_algobase.h **** 				    _CharT*>::__type
 496:/Applications/ArmGNUToolchain/14.2.rel1/arm-none-eabi/arm-none-eabi/include/c++/14.2.1/bits/stl_algobase.h ****     __copy_move_a2(istreambuf_iterator<_CharT, char_traits<_CharT> >,
 497:/Applications/ArmGNUToolchain/14.2.rel1/arm-none-eabi/arm-none-eabi/include/c++/14.2.1/bits/stl_algobase.h **** 		   istreambuf_iterator<_CharT, char_traits<_CharT> >, _CharT*);
 498:/Applications/ArmGNUToolchain/14.2.rel1/arm-none-eabi/arm-none-eabi/include/c++/14.2.1/bits/stl_algobase.h **** 
 499:/Applications/ArmGNUToolchain/14.2.rel1/arm-none-eabi/arm-none-eabi/include/c++/14.2.1/bits/stl_algobase.h ****   template<bool _IsMove, typename _CharT>
 500:/Applications/ArmGNUToolchain/14.2.rel1/arm-none-eabi/arm-none-eabi/include/c++/14.2.1/bits/stl_algobase.h ****     typename __gnu_cxx::__enable_if<
 501:/Applications/ArmGNUToolchain/14.2.rel1/arm-none-eabi/arm-none-eabi/include/c++/14.2.1/bits/stl_algobase.h ****       __is_char<_CharT>::__value,
 502:/Applications/ArmGNUToolchain/14.2.rel1/arm-none-eabi/arm-none-eabi/include/c++/14.2.1/bits/stl_algobase.h ****       _GLIBCXX_STD_C::_Deque_iterator<_CharT, _CharT&, _CharT*> >::__type
ARM GAS  /var/folders/y7/g6pkzsp12sx54x3s3mvyn15r0000gn/T//ccwVequI.s 			page 22


 503:/Applications/ArmGNUToolchain/14.2.rel1/arm-none-eabi/arm-none-eabi/include/c++/14.2.1/bits/stl_algobase.h ****     __copy_move_a2(
 504:/Applications/ArmGNUToolchain/14.2.rel1/arm-none-eabi/arm-none-eabi/include/c++/14.2.1/bits/stl_algobase.h **** 	istreambuf_iterator<_CharT, char_traits<_CharT> >,
 505:/Applications/ArmGNUToolchain/14.2.rel1/arm-none-eabi/arm-none-eabi/include/c++/14.2.1/bits/stl_algobase.h **** 	istreambuf_iterator<_CharT, char_traits<_CharT> >,
 506:/Applications/ArmGNUToolchain/14.2.rel1/arm-none-eabi/arm-none-eabi/include/c++/14.2.1/bits/stl_algobase.h **** 	_GLIBCXX_STD_C::_Deque_iterator<_CharT, _CharT&, _CharT*>);
 507:/Applications/ArmGNUToolchain/14.2.rel1/arm-none-eabi/arm-none-eabi/include/c++/14.2.1/bits/stl_algobase.h **** #endif // HOSTED
 508:/Applications/ArmGNUToolchain/14.2.rel1/arm-none-eabi/arm-none-eabi/include/c++/14.2.1/bits/stl_algobase.h **** 
 509:/Applications/ArmGNUToolchain/14.2.rel1/arm-none-eabi/arm-none-eabi/include/c++/14.2.1/bits/stl_algobase.h ****   template<bool _IsMove, typename _II, typename _OI>
 510:/Applications/ArmGNUToolchain/14.2.rel1/arm-none-eabi/arm-none-eabi/include/c++/14.2.1/bits/stl_algobase.h ****     _GLIBCXX20_CONSTEXPR
 511:/Applications/ArmGNUToolchain/14.2.rel1/arm-none-eabi/arm-none-eabi/include/c++/14.2.1/bits/stl_algobase.h ****     inline _OI
 512:/Applications/ArmGNUToolchain/14.2.rel1/arm-none-eabi/arm-none-eabi/include/c++/14.2.1/bits/stl_algobase.h ****     __copy_move_a2(_II __first, _II __last, _OI __result)
 513:/Applications/ArmGNUToolchain/14.2.rel1/arm-none-eabi/arm-none-eabi/include/c++/14.2.1/bits/stl_algobase.h ****     {
 514:/Applications/ArmGNUToolchain/14.2.rel1/arm-none-eabi/arm-none-eabi/include/c++/14.2.1/bits/stl_algobase.h ****       typedef typename iterator_traits<_II>::iterator_category _Category;
 515:/Applications/ArmGNUToolchain/14.2.rel1/arm-none-eabi/arm-none-eabi/include/c++/14.2.1/bits/stl_algobase.h **** #ifdef __cpp_lib_is_constant_evaluated
 516:/Applications/ArmGNUToolchain/14.2.rel1/arm-none-eabi/arm-none-eabi/include/c++/14.2.1/bits/stl_algobase.h ****       if (std::is_constant_evaluated())
 517:/Applications/ArmGNUToolchain/14.2.rel1/arm-none-eabi/arm-none-eabi/include/c++/14.2.1/bits/stl_algobase.h **** 	return std::__copy_move<_IsMove, false, _Category>::
 518:/Applications/ArmGNUToolchain/14.2.rel1/arm-none-eabi/arm-none-eabi/include/c++/14.2.1/bits/stl_algobase.h **** 	  __copy_m(__first, __last, __result);
 519:/Applications/ArmGNUToolchain/14.2.rel1/arm-none-eabi/arm-none-eabi/include/c++/14.2.1/bits/stl_algobase.h **** #endif
 520:/Applications/ArmGNUToolchain/14.2.rel1/arm-none-eabi/arm-none-eabi/include/c++/14.2.1/bits/stl_algobase.h ****       return std::__copy_move<_IsMove, __memcpyable<_OI, _II>::__value,
 521:/Applications/ArmGNUToolchain/14.2.rel1/arm-none-eabi/arm-none-eabi/include/c++/14.2.1/bits/stl_algobase.h **** 			      _Category>::__copy_m(__first, __last, __result);
 522:/Applications/ArmGNUToolchain/14.2.rel1/arm-none-eabi/arm-none-eabi/include/c++/14.2.1/bits/stl_algobase.h ****     }
 523:/Applications/ArmGNUToolchain/14.2.rel1/arm-none-eabi/arm-none-eabi/include/c++/14.2.1/bits/stl_algobase.h **** 
 524:/Applications/ArmGNUToolchain/14.2.rel1/arm-none-eabi/arm-none-eabi/include/c++/14.2.1/bits/stl_algobase.h ****   template<bool _IsMove,
 525:/Applications/ArmGNUToolchain/14.2.rel1/arm-none-eabi/arm-none-eabi/include/c++/14.2.1/bits/stl_algobase.h **** 	   typename _Tp, typename _Ref, typename _Ptr, typename _OI>
 526:/Applications/ArmGNUToolchain/14.2.rel1/arm-none-eabi/arm-none-eabi/include/c++/14.2.1/bits/stl_algobase.h ****     _OI
 527:/Applications/ArmGNUToolchain/14.2.rel1/arm-none-eabi/arm-none-eabi/include/c++/14.2.1/bits/stl_algobase.h ****     __copy_move_a1(_GLIBCXX_STD_C::_Deque_iterator<_Tp, _Ref, _Ptr>,
 528:/Applications/ArmGNUToolchain/14.2.rel1/arm-none-eabi/arm-none-eabi/include/c++/14.2.1/bits/stl_algobase.h **** 		   _GLIBCXX_STD_C::_Deque_iterator<_Tp, _Ref, _Ptr>,
 529:/Applications/ArmGNUToolchain/14.2.rel1/arm-none-eabi/arm-none-eabi/include/c++/14.2.1/bits/stl_algobase.h **** 		   _OI);
 530:/Applications/ArmGNUToolchain/14.2.rel1/arm-none-eabi/arm-none-eabi/include/c++/14.2.1/bits/stl_algobase.h **** 
 531:/Applications/ArmGNUToolchain/14.2.rel1/arm-none-eabi/arm-none-eabi/include/c++/14.2.1/bits/stl_algobase.h ****   template<bool _IsMove,
 532:/Applications/ArmGNUToolchain/14.2.rel1/arm-none-eabi/arm-none-eabi/include/c++/14.2.1/bits/stl_algobase.h **** 	   typename _ITp, typename _IRef, typename _IPtr, typename _OTp>
 533:/Applications/ArmGNUToolchain/14.2.rel1/arm-none-eabi/arm-none-eabi/include/c++/14.2.1/bits/stl_algobase.h ****     _GLIBCXX_STD_C::_Deque_iterator<_OTp, _OTp&, _OTp*>
 534:/Applications/ArmGNUToolchain/14.2.rel1/arm-none-eabi/arm-none-eabi/include/c++/14.2.1/bits/stl_algobase.h ****     __copy_move_a1(_GLIBCXX_STD_C::_Deque_iterator<_ITp, _IRef, _IPtr>,
 535:/Applications/ArmGNUToolchain/14.2.rel1/arm-none-eabi/arm-none-eabi/include/c++/14.2.1/bits/stl_algobase.h **** 		   _GLIBCXX_STD_C::_Deque_iterator<_ITp, _IRef, _IPtr>,
 536:/Applications/ArmGNUToolchain/14.2.rel1/arm-none-eabi/arm-none-eabi/include/c++/14.2.1/bits/stl_algobase.h **** 		   _GLIBCXX_STD_C::_Deque_iterator<_OTp, _OTp&, _OTp*>);
 537:/Applications/ArmGNUToolchain/14.2.rel1/arm-none-eabi/arm-none-eabi/include/c++/14.2.1/bits/stl_algobase.h **** 
 538:/Applications/ArmGNUToolchain/14.2.rel1/arm-none-eabi/arm-none-eabi/include/c++/14.2.1/bits/stl_algobase.h ****   template<bool _IsMove, typename _II, typename _Tp>
 539:/Applications/ArmGNUToolchain/14.2.rel1/arm-none-eabi/arm-none-eabi/include/c++/14.2.1/bits/stl_algobase.h ****     typename __gnu_cxx::__enable_if<
 540:/Applications/ArmGNUToolchain/14.2.rel1/arm-none-eabi/arm-none-eabi/include/c++/14.2.1/bits/stl_algobase.h ****       __is_random_access_iter<_II>::__value,
 541:/Applications/ArmGNUToolchain/14.2.rel1/arm-none-eabi/arm-none-eabi/include/c++/14.2.1/bits/stl_algobase.h ****       _GLIBCXX_STD_C::_Deque_iterator<_Tp, _Tp&, _Tp*> >::__type
 542:/Applications/ArmGNUToolchain/14.2.rel1/arm-none-eabi/arm-none-eabi/include/c++/14.2.1/bits/stl_algobase.h ****     __copy_move_a1(_II, _II, _GLIBCXX_STD_C::_Deque_iterator<_Tp, _Tp&, _Tp*>);
 543:/Applications/ArmGNUToolchain/14.2.rel1/arm-none-eabi/arm-none-eabi/include/c++/14.2.1/bits/stl_algobase.h **** 
 544:/Applications/ArmGNUToolchain/14.2.rel1/arm-none-eabi/arm-none-eabi/include/c++/14.2.1/bits/stl_algobase.h ****   template<bool _IsMove, typename _II, typename _OI>
 545:/Applications/ArmGNUToolchain/14.2.rel1/arm-none-eabi/arm-none-eabi/include/c++/14.2.1/bits/stl_algobase.h ****     _GLIBCXX20_CONSTEXPR
 546:/Applications/ArmGNUToolchain/14.2.rel1/arm-none-eabi/arm-none-eabi/include/c++/14.2.1/bits/stl_algobase.h ****     inline _OI
 547:/Applications/ArmGNUToolchain/14.2.rel1/arm-none-eabi/arm-none-eabi/include/c++/14.2.1/bits/stl_algobase.h ****     __copy_move_a1(_II __first, _II __last, _OI __result)
 548:/Applications/ArmGNUToolchain/14.2.rel1/arm-none-eabi/arm-none-eabi/include/c++/14.2.1/bits/stl_algobase.h ****     { return std::__copy_move_a2<_IsMove>(__first, __last, __result); }
 549:/Applications/ArmGNUToolchain/14.2.rel1/arm-none-eabi/arm-none-eabi/include/c++/14.2.1/bits/stl_algobase.h **** 
 550:/Applications/ArmGNUToolchain/14.2.rel1/arm-none-eabi/arm-none-eabi/include/c++/14.2.1/bits/stl_algobase.h ****   template<bool _IsMove, typename _II, typename _OI>
 551:/Applications/ArmGNUToolchain/14.2.rel1/arm-none-eabi/arm-none-eabi/include/c++/14.2.1/bits/stl_algobase.h ****     _GLIBCXX20_CONSTEXPR
 552:/Applications/ArmGNUToolchain/14.2.rel1/arm-none-eabi/arm-none-eabi/include/c++/14.2.1/bits/stl_algobase.h ****     inline _OI
 553:/Applications/ArmGNUToolchain/14.2.rel1/arm-none-eabi/arm-none-eabi/include/c++/14.2.1/bits/stl_algobase.h ****     __copy_move_a(_II __first, _II __last, _OI __result)
 554:/Applications/ArmGNUToolchain/14.2.rel1/arm-none-eabi/arm-none-eabi/include/c++/14.2.1/bits/stl_algobase.h ****     {
 555:/Applications/ArmGNUToolchain/14.2.rel1/arm-none-eabi/arm-none-eabi/include/c++/14.2.1/bits/stl_algobase.h ****       return std::__niter_wrap(__result,
 556:/Applications/ArmGNUToolchain/14.2.rel1/arm-none-eabi/arm-none-eabi/include/c++/14.2.1/bits/stl_algobase.h **** 		std::__copy_move_a1<_IsMove>(std::__niter_base(__first),
 557:/Applications/ArmGNUToolchain/14.2.rel1/arm-none-eabi/arm-none-eabi/include/c++/14.2.1/bits/stl_algobase.h **** 					     std::__niter_base(__last),
 558:/Applications/ArmGNUToolchain/14.2.rel1/arm-none-eabi/arm-none-eabi/include/c++/14.2.1/bits/stl_algobase.h **** 					     std::__niter_base(__result)));
 559:/Applications/ArmGNUToolchain/14.2.rel1/arm-none-eabi/arm-none-eabi/include/c++/14.2.1/bits/stl_algobase.h ****     }
ARM GAS  /var/folders/y7/g6pkzsp12sx54x3s3mvyn15r0000gn/T//ccwVequI.s 			page 23


 560:/Applications/ArmGNUToolchain/14.2.rel1/arm-none-eabi/arm-none-eabi/include/c++/14.2.1/bits/stl_algobase.h **** 
 561:/Applications/ArmGNUToolchain/14.2.rel1/arm-none-eabi/arm-none-eabi/include/c++/14.2.1/bits/stl_algobase.h ****   template<bool _IsMove,
 562:/Applications/ArmGNUToolchain/14.2.rel1/arm-none-eabi/arm-none-eabi/include/c++/14.2.1/bits/stl_algobase.h **** 	   typename _Ite, typename _Seq, typename _Cat, typename _OI>
 563:/Applications/ArmGNUToolchain/14.2.rel1/arm-none-eabi/arm-none-eabi/include/c++/14.2.1/bits/stl_algobase.h ****     _GLIBCXX20_CONSTEXPR
 564:/Applications/ArmGNUToolchain/14.2.rel1/arm-none-eabi/arm-none-eabi/include/c++/14.2.1/bits/stl_algobase.h ****     _OI
 565:/Applications/ArmGNUToolchain/14.2.rel1/arm-none-eabi/arm-none-eabi/include/c++/14.2.1/bits/stl_algobase.h ****     __copy_move_a(const ::__gnu_debug::_Safe_iterator<_Ite, _Seq, _Cat>&,
 566:/Applications/ArmGNUToolchain/14.2.rel1/arm-none-eabi/arm-none-eabi/include/c++/14.2.1/bits/stl_algobase.h **** 		  const ::__gnu_debug::_Safe_iterator<_Ite, _Seq, _Cat>&,
 567:/Applications/ArmGNUToolchain/14.2.rel1/arm-none-eabi/arm-none-eabi/include/c++/14.2.1/bits/stl_algobase.h **** 		  _OI);
 568:/Applications/ArmGNUToolchain/14.2.rel1/arm-none-eabi/arm-none-eabi/include/c++/14.2.1/bits/stl_algobase.h **** 
 569:/Applications/ArmGNUToolchain/14.2.rel1/arm-none-eabi/arm-none-eabi/include/c++/14.2.1/bits/stl_algobase.h ****   template<bool _IsMove,
 570:/Applications/ArmGNUToolchain/14.2.rel1/arm-none-eabi/arm-none-eabi/include/c++/14.2.1/bits/stl_algobase.h **** 	   typename _II, typename _Ite, typename _Seq, typename _Cat>
 571:/Applications/ArmGNUToolchain/14.2.rel1/arm-none-eabi/arm-none-eabi/include/c++/14.2.1/bits/stl_algobase.h ****     _GLIBCXX20_CONSTEXPR
 572:/Applications/ArmGNUToolchain/14.2.rel1/arm-none-eabi/arm-none-eabi/include/c++/14.2.1/bits/stl_algobase.h ****     __gnu_debug::_Safe_iterator<_Ite, _Seq, _Cat>
 573:/Applications/ArmGNUToolchain/14.2.rel1/arm-none-eabi/arm-none-eabi/include/c++/14.2.1/bits/stl_algobase.h ****     __copy_move_a(_II, _II,
 574:/Applications/ArmGNUToolchain/14.2.rel1/arm-none-eabi/arm-none-eabi/include/c++/14.2.1/bits/stl_algobase.h **** 		  const ::__gnu_debug::_Safe_iterator<_Ite, _Seq, _Cat>&);
 575:/Applications/ArmGNUToolchain/14.2.rel1/arm-none-eabi/arm-none-eabi/include/c++/14.2.1/bits/stl_algobase.h **** 
 576:/Applications/ArmGNUToolchain/14.2.rel1/arm-none-eabi/arm-none-eabi/include/c++/14.2.1/bits/stl_algobase.h ****   template<bool _IsMove,
 577:/Applications/ArmGNUToolchain/14.2.rel1/arm-none-eabi/arm-none-eabi/include/c++/14.2.1/bits/stl_algobase.h **** 	   typename _IIte, typename _ISeq, typename _ICat,
 578:/Applications/ArmGNUToolchain/14.2.rel1/arm-none-eabi/arm-none-eabi/include/c++/14.2.1/bits/stl_algobase.h **** 	   typename _OIte, typename _OSeq, typename _OCat>
 579:/Applications/ArmGNUToolchain/14.2.rel1/arm-none-eabi/arm-none-eabi/include/c++/14.2.1/bits/stl_algobase.h ****     _GLIBCXX20_CONSTEXPR
 580:/Applications/ArmGNUToolchain/14.2.rel1/arm-none-eabi/arm-none-eabi/include/c++/14.2.1/bits/stl_algobase.h ****     ::__gnu_debug::_Safe_iterator<_OIte, _OSeq, _OCat>
 581:/Applications/ArmGNUToolchain/14.2.rel1/arm-none-eabi/arm-none-eabi/include/c++/14.2.1/bits/stl_algobase.h ****     __copy_move_a(const ::__gnu_debug::_Safe_iterator<_IIte, _ISeq, _ICat>&,
 582:/Applications/ArmGNUToolchain/14.2.rel1/arm-none-eabi/arm-none-eabi/include/c++/14.2.1/bits/stl_algobase.h **** 		  const ::__gnu_debug::_Safe_iterator<_IIte, _ISeq, _ICat>&,
 583:/Applications/ArmGNUToolchain/14.2.rel1/arm-none-eabi/arm-none-eabi/include/c++/14.2.1/bits/stl_algobase.h **** 		  const ::__gnu_debug::_Safe_iterator<_OIte, _OSeq, _OCat>&);
 584:/Applications/ArmGNUToolchain/14.2.rel1/arm-none-eabi/arm-none-eabi/include/c++/14.2.1/bits/stl_algobase.h **** 
 585:/Applications/ArmGNUToolchain/14.2.rel1/arm-none-eabi/arm-none-eabi/include/c++/14.2.1/bits/stl_algobase.h ****   template<typename _InputIterator, typename _Size, typename _OutputIterator>
 586:/Applications/ArmGNUToolchain/14.2.rel1/arm-none-eabi/arm-none-eabi/include/c++/14.2.1/bits/stl_algobase.h ****     _GLIBCXX20_CONSTEXPR
 587:/Applications/ArmGNUToolchain/14.2.rel1/arm-none-eabi/arm-none-eabi/include/c++/14.2.1/bits/stl_algobase.h ****     _OutputIterator
 588:/Applications/ArmGNUToolchain/14.2.rel1/arm-none-eabi/arm-none-eabi/include/c++/14.2.1/bits/stl_algobase.h ****     __copy_n_a(_InputIterator __first, _Size __n, _OutputIterator __result,
 589:/Applications/ArmGNUToolchain/14.2.rel1/arm-none-eabi/arm-none-eabi/include/c++/14.2.1/bits/stl_algobase.h **** 	       bool)
 590:/Applications/ArmGNUToolchain/14.2.rel1/arm-none-eabi/arm-none-eabi/include/c++/14.2.1/bits/stl_algobase.h ****     {
 591:/Applications/ArmGNUToolchain/14.2.rel1/arm-none-eabi/arm-none-eabi/include/c++/14.2.1/bits/stl_algobase.h ****       if (__n > 0)
 592:/Applications/ArmGNUToolchain/14.2.rel1/arm-none-eabi/arm-none-eabi/include/c++/14.2.1/bits/stl_algobase.h **** 	{
 593:/Applications/ArmGNUToolchain/14.2.rel1/arm-none-eabi/arm-none-eabi/include/c++/14.2.1/bits/stl_algobase.h **** 	  while (true)
 594:/Applications/ArmGNUToolchain/14.2.rel1/arm-none-eabi/arm-none-eabi/include/c++/14.2.1/bits/stl_algobase.h **** 	    {
 595:/Applications/ArmGNUToolchain/14.2.rel1/arm-none-eabi/arm-none-eabi/include/c++/14.2.1/bits/stl_algobase.h **** 	      *__result = *__first;
 596:/Applications/ArmGNUToolchain/14.2.rel1/arm-none-eabi/arm-none-eabi/include/c++/14.2.1/bits/stl_algobase.h **** 	      ++__result;
 597:/Applications/ArmGNUToolchain/14.2.rel1/arm-none-eabi/arm-none-eabi/include/c++/14.2.1/bits/stl_algobase.h **** 	      if (--__n > 0)
 598:/Applications/ArmGNUToolchain/14.2.rel1/arm-none-eabi/arm-none-eabi/include/c++/14.2.1/bits/stl_algobase.h **** 		++__first;
 599:/Applications/ArmGNUToolchain/14.2.rel1/arm-none-eabi/arm-none-eabi/include/c++/14.2.1/bits/stl_algobase.h **** 	      else
 600:/Applications/ArmGNUToolchain/14.2.rel1/arm-none-eabi/arm-none-eabi/include/c++/14.2.1/bits/stl_algobase.h **** 		break;
 601:/Applications/ArmGNUToolchain/14.2.rel1/arm-none-eabi/arm-none-eabi/include/c++/14.2.1/bits/stl_algobase.h **** 	    }
 602:/Applications/ArmGNUToolchain/14.2.rel1/arm-none-eabi/arm-none-eabi/include/c++/14.2.1/bits/stl_algobase.h **** 	}
 603:/Applications/ArmGNUToolchain/14.2.rel1/arm-none-eabi/arm-none-eabi/include/c++/14.2.1/bits/stl_algobase.h ****       return __result;
 604:/Applications/ArmGNUToolchain/14.2.rel1/arm-none-eabi/arm-none-eabi/include/c++/14.2.1/bits/stl_algobase.h ****     }
 605:/Applications/ArmGNUToolchain/14.2.rel1/arm-none-eabi/arm-none-eabi/include/c++/14.2.1/bits/stl_algobase.h **** 
 606:/Applications/ArmGNUToolchain/14.2.rel1/arm-none-eabi/arm-none-eabi/include/c++/14.2.1/bits/stl_algobase.h **** #if _GLIBCXX_HOSTED
 607:/Applications/ArmGNUToolchain/14.2.rel1/arm-none-eabi/arm-none-eabi/include/c++/14.2.1/bits/stl_algobase.h ****   template<typename _CharT, typename _Size>
 608:/Applications/ArmGNUToolchain/14.2.rel1/arm-none-eabi/arm-none-eabi/include/c++/14.2.1/bits/stl_algobase.h ****     typename __gnu_cxx::__enable_if<
 609:/Applications/ArmGNUToolchain/14.2.rel1/arm-none-eabi/arm-none-eabi/include/c++/14.2.1/bits/stl_algobase.h ****       __is_char<_CharT>::__value, _CharT*>::__type
 610:/Applications/ArmGNUToolchain/14.2.rel1/arm-none-eabi/arm-none-eabi/include/c++/14.2.1/bits/stl_algobase.h ****     __copy_n_a(istreambuf_iterator<_CharT, char_traits<_CharT> >,
 611:/Applications/ArmGNUToolchain/14.2.rel1/arm-none-eabi/arm-none-eabi/include/c++/14.2.1/bits/stl_algobase.h **** 	       _Size, _CharT*, bool);
 612:/Applications/ArmGNUToolchain/14.2.rel1/arm-none-eabi/arm-none-eabi/include/c++/14.2.1/bits/stl_algobase.h **** 
 613:/Applications/ArmGNUToolchain/14.2.rel1/arm-none-eabi/arm-none-eabi/include/c++/14.2.1/bits/stl_algobase.h ****   template<typename _CharT, typename _Size>
 614:/Applications/ArmGNUToolchain/14.2.rel1/arm-none-eabi/arm-none-eabi/include/c++/14.2.1/bits/stl_algobase.h ****     typename __gnu_cxx::__enable_if<
 615:/Applications/ArmGNUToolchain/14.2.rel1/arm-none-eabi/arm-none-eabi/include/c++/14.2.1/bits/stl_algobase.h ****       __is_char<_CharT>::__value,
 616:/Applications/ArmGNUToolchain/14.2.rel1/arm-none-eabi/arm-none-eabi/include/c++/14.2.1/bits/stl_algobase.h ****       _GLIBCXX_STD_C::_Deque_iterator<_CharT, _CharT&, _CharT*> >::__type
ARM GAS  /var/folders/y7/g6pkzsp12sx54x3s3mvyn15r0000gn/T//ccwVequI.s 			page 24


 617:/Applications/ArmGNUToolchain/14.2.rel1/arm-none-eabi/arm-none-eabi/include/c++/14.2.1/bits/stl_algobase.h ****     __copy_n_a(istreambuf_iterator<_CharT, char_traits<_CharT> >, _Size,
 618:/Applications/ArmGNUToolchain/14.2.rel1/arm-none-eabi/arm-none-eabi/include/c++/14.2.1/bits/stl_algobase.h **** 	       _GLIBCXX_STD_C::_Deque_iterator<_CharT, _CharT&, _CharT*>,
 619:/Applications/ArmGNUToolchain/14.2.rel1/arm-none-eabi/arm-none-eabi/include/c++/14.2.1/bits/stl_algobase.h **** 	       bool);
 620:/Applications/ArmGNUToolchain/14.2.rel1/arm-none-eabi/arm-none-eabi/include/c++/14.2.1/bits/stl_algobase.h **** #endif
 621:/Applications/ArmGNUToolchain/14.2.rel1/arm-none-eabi/arm-none-eabi/include/c++/14.2.1/bits/stl_algobase.h **** 
 622:/Applications/ArmGNUToolchain/14.2.rel1/arm-none-eabi/arm-none-eabi/include/c++/14.2.1/bits/stl_algobase.h ****   /**
 623:/Applications/ArmGNUToolchain/14.2.rel1/arm-none-eabi/arm-none-eabi/include/c++/14.2.1/bits/stl_algobase.h ****    *  @brief Copies the range [first,last) into result.
 624:/Applications/ArmGNUToolchain/14.2.rel1/arm-none-eabi/arm-none-eabi/include/c++/14.2.1/bits/stl_algobase.h ****    *  @ingroup mutating_algorithms
 625:/Applications/ArmGNUToolchain/14.2.rel1/arm-none-eabi/arm-none-eabi/include/c++/14.2.1/bits/stl_algobase.h ****    *  @param  __first  An input iterator.
 626:/Applications/ArmGNUToolchain/14.2.rel1/arm-none-eabi/arm-none-eabi/include/c++/14.2.1/bits/stl_algobase.h ****    *  @param  __last   An input iterator.
 627:/Applications/ArmGNUToolchain/14.2.rel1/arm-none-eabi/arm-none-eabi/include/c++/14.2.1/bits/stl_algobase.h ****    *  @param  __result An output iterator.
 628:/Applications/ArmGNUToolchain/14.2.rel1/arm-none-eabi/arm-none-eabi/include/c++/14.2.1/bits/stl_algobase.h ****    *  @return   result + (last - first)
 629:/Applications/ArmGNUToolchain/14.2.rel1/arm-none-eabi/arm-none-eabi/include/c++/14.2.1/bits/stl_algobase.h ****    *
 630:/Applications/ArmGNUToolchain/14.2.rel1/arm-none-eabi/arm-none-eabi/include/c++/14.2.1/bits/stl_algobase.h ****    *  This inline function will boil down to a call to @c memmove whenever
 631:/Applications/ArmGNUToolchain/14.2.rel1/arm-none-eabi/arm-none-eabi/include/c++/14.2.1/bits/stl_algobase.h ****    *  possible.  Failing that, if random access iterators are passed, then the
 632:/Applications/ArmGNUToolchain/14.2.rel1/arm-none-eabi/arm-none-eabi/include/c++/14.2.1/bits/stl_algobase.h ****    *  loop count will be known (and therefore a candidate for compiler
 633:/Applications/ArmGNUToolchain/14.2.rel1/arm-none-eabi/arm-none-eabi/include/c++/14.2.1/bits/stl_algobase.h ****    *  optimizations such as unrolling).  Result may not be contained within
 634:/Applications/ArmGNUToolchain/14.2.rel1/arm-none-eabi/arm-none-eabi/include/c++/14.2.1/bits/stl_algobase.h ****    *  [first,last); the copy_backward function should be used instead.
 635:/Applications/ArmGNUToolchain/14.2.rel1/arm-none-eabi/arm-none-eabi/include/c++/14.2.1/bits/stl_algobase.h ****    *
 636:/Applications/ArmGNUToolchain/14.2.rel1/arm-none-eabi/arm-none-eabi/include/c++/14.2.1/bits/stl_algobase.h ****    *  Note that the end of the output range is permitted to be contained
 637:/Applications/ArmGNUToolchain/14.2.rel1/arm-none-eabi/arm-none-eabi/include/c++/14.2.1/bits/stl_algobase.h ****    *  within [first,last).
 638:/Applications/ArmGNUToolchain/14.2.rel1/arm-none-eabi/arm-none-eabi/include/c++/14.2.1/bits/stl_algobase.h ****   */
 639:/Applications/ArmGNUToolchain/14.2.rel1/arm-none-eabi/arm-none-eabi/include/c++/14.2.1/bits/stl_algobase.h ****   template<typename _II, typename _OI>
 640:/Applications/ArmGNUToolchain/14.2.rel1/arm-none-eabi/arm-none-eabi/include/c++/14.2.1/bits/stl_algobase.h ****     _GLIBCXX20_CONSTEXPR
 641:/Applications/ArmGNUToolchain/14.2.rel1/arm-none-eabi/arm-none-eabi/include/c++/14.2.1/bits/stl_algobase.h ****     inline _OI
 642:/Applications/ArmGNUToolchain/14.2.rel1/arm-none-eabi/arm-none-eabi/include/c++/14.2.1/bits/stl_algobase.h ****     copy(_II __first, _II __last, _OI __result)
 643:/Applications/ArmGNUToolchain/14.2.rel1/arm-none-eabi/arm-none-eabi/include/c++/14.2.1/bits/stl_algobase.h ****     {
 644:/Applications/ArmGNUToolchain/14.2.rel1/arm-none-eabi/arm-none-eabi/include/c++/14.2.1/bits/stl_algobase.h ****       // concept requirements
 645:/Applications/ArmGNUToolchain/14.2.rel1/arm-none-eabi/arm-none-eabi/include/c++/14.2.1/bits/stl_algobase.h ****       __glibcxx_function_requires(_InputIteratorConcept<_II>)
 646:/Applications/ArmGNUToolchain/14.2.rel1/arm-none-eabi/arm-none-eabi/include/c++/14.2.1/bits/stl_algobase.h ****       __glibcxx_function_requires(_OutputIteratorConcept<_OI,
 647:/Applications/ArmGNUToolchain/14.2.rel1/arm-none-eabi/arm-none-eabi/include/c++/14.2.1/bits/stl_algobase.h **** 	    typename iterator_traits<_II>::reference>)
 648:/Applications/ArmGNUToolchain/14.2.rel1/arm-none-eabi/arm-none-eabi/include/c++/14.2.1/bits/stl_algobase.h ****       __glibcxx_requires_can_increment_range(__first, __last, __result);
 649:/Applications/ArmGNUToolchain/14.2.rel1/arm-none-eabi/arm-none-eabi/include/c++/14.2.1/bits/stl_algobase.h **** 
 650:/Applications/ArmGNUToolchain/14.2.rel1/arm-none-eabi/arm-none-eabi/include/c++/14.2.1/bits/stl_algobase.h ****       return std::__copy_move_a<__is_move_iterator<_II>::__value>
 651:/Applications/ArmGNUToolchain/14.2.rel1/arm-none-eabi/arm-none-eabi/include/c++/14.2.1/bits/stl_algobase.h **** 	     (std::__miter_base(__first), std::__miter_base(__last), __result);
 652:/Applications/ArmGNUToolchain/14.2.rel1/arm-none-eabi/arm-none-eabi/include/c++/14.2.1/bits/stl_algobase.h ****     }
 653:/Applications/ArmGNUToolchain/14.2.rel1/arm-none-eabi/arm-none-eabi/include/c++/14.2.1/bits/stl_algobase.h **** 
 654:/Applications/ArmGNUToolchain/14.2.rel1/arm-none-eabi/arm-none-eabi/include/c++/14.2.1/bits/stl_algobase.h **** #if __cplusplus >= 201103L
 655:/Applications/ArmGNUToolchain/14.2.rel1/arm-none-eabi/arm-none-eabi/include/c++/14.2.1/bits/stl_algobase.h ****   /**
 656:/Applications/ArmGNUToolchain/14.2.rel1/arm-none-eabi/arm-none-eabi/include/c++/14.2.1/bits/stl_algobase.h ****    *  @brief Moves the range [first,last) into result.
 657:/Applications/ArmGNUToolchain/14.2.rel1/arm-none-eabi/arm-none-eabi/include/c++/14.2.1/bits/stl_algobase.h ****    *  @ingroup mutating_algorithms
 658:/Applications/ArmGNUToolchain/14.2.rel1/arm-none-eabi/arm-none-eabi/include/c++/14.2.1/bits/stl_algobase.h ****    *  @param  __first  An input iterator.
 659:/Applications/ArmGNUToolchain/14.2.rel1/arm-none-eabi/arm-none-eabi/include/c++/14.2.1/bits/stl_algobase.h ****    *  @param  __last   An input iterator.
 660:/Applications/ArmGNUToolchain/14.2.rel1/arm-none-eabi/arm-none-eabi/include/c++/14.2.1/bits/stl_algobase.h ****    *  @param  __result An output iterator.
 661:/Applications/ArmGNUToolchain/14.2.rel1/arm-none-eabi/arm-none-eabi/include/c++/14.2.1/bits/stl_algobase.h ****    *  @return   result + (last - first)
 662:/Applications/ArmGNUToolchain/14.2.rel1/arm-none-eabi/arm-none-eabi/include/c++/14.2.1/bits/stl_algobase.h ****    *
 663:/Applications/ArmGNUToolchain/14.2.rel1/arm-none-eabi/arm-none-eabi/include/c++/14.2.1/bits/stl_algobase.h ****    *  This inline function will boil down to a call to @c memmove whenever
 664:/Applications/ArmGNUToolchain/14.2.rel1/arm-none-eabi/arm-none-eabi/include/c++/14.2.1/bits/stl_algobase.h ****    *  possible.  Failing that, if random access iterators are passed, then the
 665:/Applications/ArmGNUToolchain/14.2.rel1/arm-none-eabi/arm-none-eabi/include/c++/14.2.1/bits/stl_algobase.h ****    *  loop count will be known (and therefore a candidate for compiler
 666:/Applications/ArmGNUToolchain/14.2.rel1/arm-none-eabi/arm-none-eabi/include/c++/14.2.1/bits/stl_algobase.h ****    *  optimizations such as unrolling).  Result may not be contained within
 667:/Applications/ArmGNUToolchain/14.2.rel1/arm-none-eabi/arm-none-eabi/include/c++/14.2.1/bits/stl_algobase.h ****    *  [first,last); the move_backward function should be used instead.
 668:/Applications/ArmGNUToolchain/14.2.rel1/arm-none-eabi/arm-none-eabi/include/c++/14.2.1/bits/stl_algobase.h ****    *
 669:/Applications/ArmGNUToolchain/14.2.rel1/arm-none-eabi/arm-none-eabi/include/c++/14.2.1/bits/stl_algobase.h ****    *  Note that the end of the output range is permitted to be contained
 670:/Applications/ArmGNUToolchain/14.2.rel1/arm-none-eabi/arm-none-eabi/include/c++/14.2.1/bits/stl_algobase.h ****    *  within [first,last).
 671:/Applications/ArmGNUToolchain/14.2.rel1/arm-none-eabi/arm-none-eabi/include/c++/14.2.1/bits/stl_algobase.h ****   */
 672:/Applications/ArmGNUToolchain/14.2.rel1/arm-none-eabi/arm-none-eabi/include/c++/14.2.1/bits/stl_algobase.h ****   template<typename _II, typename _OI>
 673:/Applications/ArmGNUToolchain/14.2.rel1/arm-none-eabi/arm-none-eabi/include/c++/14.2.1/bits/stl_algobase.h ****     _GLIBCXX20_CONSTEXPR
ARM GAS  /var/folders/y7/g6pkzsp12sx54x3s3mvyn15r0000gn/T//ccwVequI.s 			page 25


 674:/Applications/ArmGNUToolchain/14.2.rel1/arm-none-eabi/arm-none-eabi/include/c++/14.2.1/bits/stl_algobase.h ****     inline _OI
 675:/Applications/ArmGNUToolchain/14.2.rel1/arm-none-eabi/arm-none-eabi/include/c++/14.2.1/bits/stl_algobase.h ****     move(_II __first, _II __last, _OI __result)
 676:/Applications/ArmGNUToolchain/14.2.rel1/arm-none-eabi/arm-none-eabi/include/c++/14.2.1/bits/stl_algobase.h ****     {
 677:/Applications/ArmGNUToolchain/14.2.rel1/arm-none-eabi/arm-none-eabi/include/c++/14.2.1/bits/stl_algobase.h ****       // concept requirements
 678:/Applications/ArmGNUToolchain/14.2.rel1/arm-none-eabi/arm-none-eabi/include/c++/14.2.1/bits/stl_algobase.h ****       __glibcxx_function_requires(_InputIteratorConcept<_II>)
 679:/Applications/ArmGNUToolchain/14.2.rel1/arm-none-eabi/arm-none-eabi/include/c++/14.2.1/bits/stl_algobase.h ****       __glibcxx_function_requires(_OutputIteratorConcept<_OI,
 680:/Applications/ArmGNUToolchain/14.2.rel1/arm-none-eabi/arm-none-eabi/include/c++/14.2.1/bits/stl_algobase.h **** 	    typename iterator_traits<_II>::value_type&&>)
 681:/Applications/ArmGNUToolchain/14.2.rel1/arm-none-eabi/arm-none-eabi/include/c++/14.2.1/bits/stl_algobase.h ****       __glibcxx_requires_can_increment_range(__first, __last, __result);
 682:/Applications/ArmGNUToolchain/14.2.rel1/arm-none-eabi/arm-none-eabi/include/c++/14.2.1/bits/stl_algobase.h **** 
 683:/Applications/ArmGNUToolchain/14.2.rel1/arm-none-eabi/arm-none-eabi/include/c++/14.2.1/bits/stl_algobase.h ****       return std::__copy_move_a<true>(std::__miter_base(__first),
 684:/Applications/ArmGNUToolchain/14.2.rel1/arm-none-eabi/arm-none-eabi/include/c++/14.2.1/bits/stl_algobase.h **** 				      std::__miter_base(__last), __result);
 685:/Applications/ArmGNUToolchain/14.2.rel1/arm-none-eabi/arm-none-eabi/include/c++/14.2.1/bits/stl_algobase.h ****     }
 686:/Applications/ArmGNUToolchain/14.2.rel1/arm-none-eabi/arm-none-eabi/include/c++/14.2.1/bits/stl_algobase.h **** 
 687:/Applications/ArmGNUToolchain/14.2.rel1/arm-none-eabi/arm-none-eabi/include/c++/14.2.1/bits/stl_algobase.h **** #define _GLIBCXX_MOVE3(_Tp, _Up, _Vp) std::move(_Tp, _Up, _Vp)
 688:/Applications/ArmGNUToolchain/14.2.rel1/arm-none-eabi/arm-none-eabi/include/c++/14.2.1/bits/stl_algobase.h **** #else
 689:/Applications/ArmGNUToolchain/14.2.rel1/arm-none-eabi/arm-none-eabi/include/c++/14.2.1/bits/stl_algobase.h **** #define _GLIBCXX_MOVE3(_Tp, _Up, _Vp) std::copy(_Tp, _Up, _Vp)
 690:/Applications/ArmGNUToolchain/14.2.rel1/arm-none-eabi/arm-none-eabi/include/c++/14.2.1/bits/stl_algobase.h **** #endif
 691:/Applications/ArmGNUToolchain/14.2.rel1/arm-none-eabi/arm-none-eabi/include/c++/14.2.1/bits/stl_algobase.h **** 
 692:/Applications/ArmGNUToolchain/14.2.rel1/arm-none-eabi/arm-none-eabi/include/c++/14.2.1/bits/stl_algobase.h ****   template<bool _IsMove, bool _IsSimple, typename _Category>
 693:/Applications/ArmGNUToolchain/14.2.rel1/arm-none-eabi/arm-none-eabi/include/c++/14.2.1/bits/stl_algobase.h ****     struct __copy_move_backward
 694:/Applications/ArmGNUToolchain/14.2.rel1/arm-none-eabi/arm-none-eabi/include/c++/14.2.1/bits/stl_algobase.h ****     {
 695:/Applications/ArmGNUToolchain/14.2.rel1/arm-none-eabi/arm-none-eabi/include/c++/14.2.1/bits/stl_algobase.h ****       template<typename _BI1, typename _BI2>
 696:/Applications/ArmGNUToolchain/14.2.rel1/arm-none-eabi/arm-none-eabi/include/c++/14.2.1/bits/stl_algobase.h **** 	_GLIBCXX20_CONSTEXPR
 697:/Applications/ArmGNUToolchain/14.2.rel1/arm-none-eabi/arm-none-eabi/include/c++/14.2.1/bits/stl_algobase.h **** 	static _BI2
 698:/Applications/ArmGNUToolchain/14.2.rel1/arm-none-eabi/arm-none-eabi/include/c++/14.2.1/bits/stl_algobase.h **** 	__copy_move_b(_BI1 __first, _BI1 __last, _BI2 __result)
 699:/Applications/ArmGNUToolchain/14.2.rel1/arm-none-eabi/arm-none-eabi/include/c++/14.2.1/bits/stl_algobase.h **** 	{
 700:/Applications/ArmGNUToolchain/14.2.rel1/arm-none-eabi/arm-none-eabi/include/c++/14.2.1/bits/stl_algobase.h **** 	  while (__first != __last)
 701:/Applications/ArmGNUToolchain/14.2.rel1/arm-none-eabi/arm-none-eabi/include/c++/14.2.1/bits/stl_algobase.h **** 	    *--__result = *--__last;
 702:/Applications/ArmGNUToolchain/14.2.rel1/arm-none-eabi/arm-none-eabi/include/c++/14.2.1/bits/stl_algobase.h **** 	  return __result;
 703:/Applications/ArmGNUToolchain/14.2.rel1/arm-none-eabi/arm-none-eabi/include/c++/14.2.1/bits/stl_algobase.h **** 	}
 704:/Applications/ArmGNUToolchain/14.2.rel1/arm-none-eabi/arm-none-eabi/include/c++/14.2.1/bits/stl_algobase.h ****     };
 705:/Applications/ArmGNUToolchain/14.2.rel1/arm-none-eabi/arm-none-eabi/include/c++/14.2.1/bits/stl_algobase.h **** 
 706:/Applications/ArmGNUToolchain/14.2.rel1/arm-none-eabi/arm-none-eabi/include/c++/14.2.1/bits/stl_algobase.h **** #if __cplusplus >= 201103L
 707:/Applications/ArmGNUToolchain/14.2.rel1/arm-none-eabi/arm-none-eabi/include/c++/14.2.1/bits/stl_algobase.h ****   template<typename _Category>
 708:/Applications/ArmGNUToolchain/14.2.rel1/arm-none-eabi/arm-none-eabi/include/c++/14.2.1/bits/stl_algobase.h ****     struct __copy_move_backward<true, false, _Category>
 709:/Applications/ArmGNUToolchain/14.2.rel1/arm-none-eabi/arm-none-eabi/include/c++/14.2.1/bits/stl_algobase.h ****     {
 710:/Applications/ArmGNUToolchain/14.2.rel1/arm-none-eabi/arm-none-eabi/include/c++/14.2.1/bits/stl_algobase.h ****       template<typename _BI1, typename _BI2>
 711:/Applications/ArmGNUToolchain/14.2.rel1/arm-none-eabi/arm-none-eabi/include/c++/14.2.1/bits/stl_algobase.h **** 	_GLIBCXX20_CONSTEXPR
 712:/Applications/ArmGNUToolchain/14.2.rel1/arm-none-eabi/arm-none-eabi/include/c++/14.2.1/bits/stl_algobase.h **** 	static _BI2
 713:/Applications/ArmGNUToolchain/14.2.rel1/arm-none-eabi/arm-none-eabi/include/c++/14.2.1/bits/stl_algobase.h **** 	__copy_move_b(_BI1 __first, _BI1 __last, _BI2 __result)
 714:/Applications/ArmGNUToolchain/14.2.rel1/arm-none-eabi/arm-none-eabi/include/c++/14.2.1/bits/stl_algobase.h **** 	{
 715:/Applications/ArmGNUToolchain/14.2.rel1/arm-none-eabi/arm-none-eabi/include/c++/14.2.1/bits/stl_algobase.h **** 	  while (__first != __last)
 716:/Applications/ArmGNUToolchain/14.2.rel1/arm-none-eabi/arm-none-eabi/include/c++/14.2.1/bits/stl_algobase.h **** 	    *--__result = std::move(*--__last);
 717:/Applications/ArmGNUToolchain/14.2.rel1/arm-none-eabi/arm-none-eabi/include/c++/14.2.1/bits/stl_algobase.h **** 	  return __result;
 718:/Applications/ArmGNUToolchain/14.2.rel1/arm-none-eabi/arm-none-eabi/include/c++/14.2.1/bits/stl_algobase.h **** 	}
 719:/Applications/ArmGNUToolchain/14.2.rel1/arm-none-eabi/arm-none-eabi/include/c++/14.2.1/bits/stl_algobase.h ****     };
 720:/Applications/ArmGNUToolchain/14.2.rel1/arm-none-eabi/arm-none-eabi/include/c++/14.2.1/bits/stl_algobase.h **** #endif
 721:/Applications/ArmGNUToolchain/14.2.rel1/arm-none-eabi/arm-none-eabi/include/c++/14.2.1/bits/stl_algobase.h **** 
 722:/Applications/ArmGNUToolchain/14.2.rel1/arm-none-eabi/arm-none-eabi/include/c++/14.2.1/bits/stl_algobase.h ****   template<>
 723:/Applications/ArmGNUToolchain/14.2.rel1/arm-none-eabi/arm-none-eabi/include/c++/14.2.1/bits/stl_algobase.h ****     struct __copy_move_backward<false, false, random_access_iterator_tag>
 724:/Applications/ArmGNUToolchain/14.2.rel1/arm-none-eabi/arm-none-eabi/include/c++/14.2.1/bits/stl_algobase.h ****     {
 725:/Applications/ArmGNUToolchain/14.2.rel1/arm-none-eabi/arm-none-eabi/include/c++/14.2.1/bits/stl_algobase.h ****       template<typename _BI1, typename _BI2>
 726:/Applications/ArmGNUToolchain/14.2.rel1/arm-none-eabi/arm-none-eabi/include/c++/14.2.1/bits/stl_algobase.h **** 	_GLIBCXX20_CONSTEXPR
 727:/Applications/ArmGNUToolchain/14.2.rel1/arm-none-eabi/arm-none-eabi/include/c++/14.2.1/bits/stl_algobase.h **** 	static _BI2
 728:/Applications/ArmGNUToolchain/14.2.rel1/arm-none-eabi/arm-none-eabi/include/c++/14.2.1/bits/stl_algobase.h **** 	__copy_move_b(_BI1 __first, _BI1 __last, _BI2 __result)
 729:/Applications/ArmGNUToolchain/14.2.rel1/arm-none-eabi/arm-none-eabi/include/c++/14.2.1/bits/stl_algobase.h **** 	{
 730:/Applications/ArmGNUToolchain/14.2.rel1/arm-none-eabi/arm-none-eabi/include/c++/14.2.1/bits/stl_algobase.h **** 	  typename iterator_traits<_BI1>::difference_type
ARM GAS  /var/folders/y7/g6pkzsp12sx54x3s3mvyn15r0000gn/T//ccwVequI.s 			page 26


 731:/Applications/ArmGNUToolchain/14.2.rel1/arm-none-eabi/arm-none-eabi/include/c++/14.2.1/bits/stl_algobase.h **** 	    __n = __last - __first;
 732:/Applications/ArmGNUToolchain/14.2.rel1/arm-none-eabi/arm-none-eabi/include/c++/14.2.1/bits/stl_algobase.h **** 	  for (; __n > 0; --__n)
 733:/Applications/ArmGNUToolchain/14.2.rel1/arm-none-eabi/arm-none-eabi/include/c++/14.2.1/bits/stl_algobase.h **** 	    *--__result = *--__last;
 734:/Applications/ArmGNUToolchain/14.2.rel1/arm-none-eabi/arm-none-eabi/include/c++/14.2.1/bits/stl_algobase.h **** 	  return __result;
 735:/Applications/ArmGNUToolchain/14.2.rel1/arm-none-eabi/arm-none-eabi/include/c++/14.2.1/bits/stl_algobase.h **** 	}
 736:/Applications/ArmGNUToolchain/14.2.rel1/arm-none-eabi/arm-none-eabi/include/c++/14.2.1/bits/stl_algobase.h ****     };
 737:/Applications/ArmGNUToolchain/14.2.rel1/arm-none-eabi/arm-none-eabi/include/c++/14.2.1/bits/stl_algobase.h **** 
 738:/Applications/ArmGNUToolchain/14.2.rel1/arm-none-eabi/arm-none-eabi/include/c++/14.2.1/bits/stl_algobase.h **** #if __cplusplus >= 201103L
 739:/Applications/ArmGNUToolchain/14.2.rel1/arm-none-eabi/arm-none-eabi/include/c++/14.2.1/bits/stl_algobase.h ****   template<>
 740:/Applications/ArmGNUToolchain/14.2.rel1/arm-none-eabi/arm-none-eabi/include/c++/14.2.1/bits/stl_algobase.h ****     struct __copy_move_backward<true, false, random_access_iterator_tag>
 741:/Applications/ArmGNUToolchain/14.2.rel1/arm-none-eabi/arm-none-eabi/include/c++/14.2.1/bits/stl_algobase.h ****     {
 742:/Applications/ArmGNUToolchain/14.2.rel1/arm-none-eabi/arm-none-eabi/include/c++/14.2.1/bits/stl_algobase.h ****       template<typename _BI1, typename _BI2>
 743:/Applications/ArmGNUToolchain/14.2.rel1/arm-none-eabi/arm-none-eabi/include/c++/14.2.1/bits/stl_algobase.h **** 	_GLIBCXX20_CONSTEXPR
 744:/Applications/ArmGNUToolchain/14.2.rel1/arm-none-eabi/arm-none-eabi/include/c++/14.2.1/bits/stl_algobase.h **** 	static _BI2
 745:/Applications/ArmGNUToolchain/14.2.rel1/arm-none-eabi/arm-none-eabi/include/c++/14.2.1/bits/stl_algobase.h **** 	__copy_move_b(_BI1 __first, _BI1 __last, _BI2 __result)
 746:/Applications/ArmGNUToolchain/14.2.rel1/arm-none-eabi/arm-none-eabi/include/c++/14.2.1/bits/stl_algobase.h **** 	{
 747:/Applications/ArmGNUToolchain/14.2.rel1/arm-none-eabi/arm-none-eabi/include/c++/14.2.1/bits/stl_algobase.h **** 	  typename iterator_traits<_BI1>::difference_type
 748:/Applications/ArmGNUToolchain/14.2.rel1/arm-none-eabi/arm-none-eabi/include/c++/14.2.1/bits/stl_algobase.h **** 	    __n = __last - __first;
 749:/Applications/ArmGNUToolchain/14.2.rel1/arm-none-eabi/arm-none-eabi/include/c++/14.2.1/bits/stl_algobase.h **** 	  for (; __n > 0; --__n)
 750:/Applications/ArmGNUToolchain/14.2.rel1/arm-none-eabi/arm-none-eabi/include/c++/14.2.1/bits/stl_algobase.h **** 	    *--__result = std::move(*--__last);
 751:/Applications/ArmGNUToolchain/14.2.rel1/arm-none-eabi/arm-none-eabi/include/c++/14.2.1/bits/stl_algobase.h **** 	  return __result;
 752:/Applications/ArmGNUToolchain/14.2.rel1/arm-none-eabi/arm-none-eabi/include/c++/14.2.1/bits/stl_algobase.h **** 	}
 753:/Applications/ArmGNUToolchain/14.2.rel1/arm-none-eabi/arm-none-eabi/include/c++/14.2.1/bits/stl_algobase.h ****     };
 754:/Applications/ArmGNUToolchain/14.2.rel1/arm-none-eabi/arm-none-eabi/include/c++/14.2.1/bits/stl_algobase.h **** #endif
 755:/Applications/ArmGNUToolchain/14.2.rel1/arm-none-eabi/arm-none-eabi/include/c++/14.2.1/bits/stl_algobase.h **** 
 756:/Applications/ArmGNUToolchain/14.2.rel1/arm-none-eabi/arm-none-eabi/include/c++/14.2.1/bits/stl_algobase.h ****   template<bool _IsMove>
 757:/Applications/ArmGNUToolchain/14.2.rel1/arm-none-eabi/arm-none-eabi/include/c++/14.2.1/bits/stl_algobase.h ****     struct __copy_move_backward<_IsMove, true, random_access_iterator_tag>
 758:/Applications/ArmGNUToolchain/14.2.rel1/arm-none-eabi/arm-none-eabi/include/c++/14.2.1/bits/stl_algobase.h ****     {
 759:/Applications/ArmGNUToolchain/14.2.rel1/arm-none-eabi/arm-none-eabi/include/c++/14.2.1/bits/stl_algobase.h ****       template<typename _Tp, typename _Up>
 760:/Applications/ArmGNUToolchain/14.2.rel1/arm-none-eabi/arm-none-eabi/include/c++/14.2.1/bits/stl_algobase.h **** 	_GLIBCXX20_CONSTEXPR
 761:/Applications/ArmGNUToolchain/14.2.rel1/arm-none-eabi/arm-none-eabi/include/c++/14.2.1/bits/stl_algobase.h **** 	static _Up*
 762:/Applications/ArmGNUToolchain/14.2.rel1/arm-none-eabi/arm-none-eabi/include/c++/14.2.1/bits/stl_algobase.h **** 	__copy_move_b(_Tp* __first, _Tp* __last, _Up* __result)
 763:/Applications/ArmGNUToolchain/14.2.rel1/arm-none-eabi/arm-none-eabi/include/c++/14.2.1/bits/stl_algobase.h **** 	{
 764:/Applications/ArmGNUToolchain/14.2.rel1/arm-none-eabi/arm-none-eabi/include/c++/14.2.1/bits/stl_algobase.h **** 	  const ptrdiff_t _Num = __last - __first;
 765:/Applications/ArmGNUToolchain/14.2.rel1/arm-none-eabi/arm-none-eabi/include/c++/14.2.1/bits/stl_algobase.h **** 	  if (__builtin_expect(_Num > 1, true))
 766:/Applications/ArmGNUToolchain/14.2.rel1/arm-none-eabi/arm-none-eabi/include/c++/14.2.1/bits/stl_algobase.h **** 	    __builtin_memmove(__result - _Num, __first, sizeof(_Tp) * _Num);
 767:/Applications/ArmGNUToolchain/14.2.rel1/arm-none-eabi/arm-none-eabi/include/c++/14.2.1/bits/stl_algobase.h **** 	  else if (_Num == 1)
 768:/Applications/ArmGNUToolchain/14.2.rel1/arm-none-eabi/arm-none-eabi/include/c++/14.2.1/bits/stl_algobase.h **** 	    std::__copy_move<_IsMove, false, random_access_iterator_tag>::
 769:/Applications/ArmGNUToolchain/14.2.rel1/arm-none-eabi/arm-none-eabi/include/c++/14.2.1/bits/stl_algobase.h **** 	      __assign_one(__result - 1, __first);
 770:/Applications/ArmGNUToolchain/14.2.rel1/arm-none-eabi/arm-none-eabi/include/c++/14.2.1/bits/stl_algobase.h **** 	  return __result - _Num;
 771:/Applications/ArmGNUToolchain/14.2.rel1/arm-none-eabi/arm-none-eabi/include/c++/14.2.1/bits/stl_algobase.h **** 	}
 772:/Applications/ArmGNUToolchain/14.2.rel1/arm-none-eabi/arm-none-eabi/include/c++/14.2.1/bits/stl_algobase.h ****     };
 773:/Applications/ArmGNUToolchain/14.2.rel1/arm-none-eabi/arm-none-eabi/include/c++/14.2.1/bits/stl_algobase.h **** 
 774:/Applications/ArmGNUToolchain/14.2.rel1/arm-none-eabi/arm-none-eabi/include/c++/14.2.1/bits/stl_algobase.h ****   template<bool _IsMove, typename _BI1, typename _BI2>
 775:/Applications/ArmGNUToolchain/14.2.rel1/arm-none-eabi/arm-none-eabi/include/c++/14.2.1/bits/stl_algobase.h ****     _GLIBCXX20_CONSTEXPR
 776:/Applications/ArmGNUToolchain/14.2.rel1/arm-none-eabi/arm-none-eabi/include/c++/14.2.1/bits/stl_algobase.h ****     inline _BI2
 777:/Applications/ArmGNUToolchain/14.2.rel1/arm-none-eabi/arm-none-eabi/include/c++/14.2.1/bits/stl_algobase.h ****     __copy_move_backward_a2(_BI1 __first, _BI1 __last, _BI2 __result)
 778:/Applications/ArmGNUToolchain/14.2.rel1/arm-none-eabi/arm-none-eabi/include/c++/14.2.1/bits/stl_algobase.h ****     {
 779:/Applications/ArmGNUToolchain/14.2.rel1/arm-none-eabi/arm-none-eabi/include/c++/14.2.1/bits/stl_algobase.h ****       typedef typename iterator_traits<_BI1>::iterator_category _Category;
 780:/Applications/ArmGNUToolchain/14.2.rel1/arm-none-eabi/arm-none-eabi/include/c++/14.2.1/bits/stl_algobase.h **** #ifdef __cpp_lib_is_constant_evaluated
 781:/Applications/ArmGNUToolchain/14.2.rel1/arm-none-eabi/arm-none-eabi/include/c++/14.2.1/bits/stl_algobase.h ****       if (std::is_constant_evaluated())
 782:/Applications/ArmGNUToolchain/14.2.rel1/arm-none-eabi/arm-none-eabi/include/c++/14.2.1/bits/stl_algobase.h **** 	return std::__copy_move_backward<_IsMove, false, _Category>::
 783:/Applications/ArmGNUToolchain/14.2.rel1/arm-none-eabi/arm-none-eabi/include/c++/14.2.1/bits/stl_algobase.h **** 	  __copy_move_b(__first, __last, __result);
 784:/Applications/ArmGNUToolchain/14.2.rel1/arm-none-eabi/arm-none-eabi/include/c++/14.2.1/bits/stl_algobase.h **** #endif
 785:/Applications/ArmGNUToolchain/14.2.rel1/arm-none-eabi/arm-none-eabi/include/c++/14.2.1/bits/stl_algobase.h ****       return std::__copy_move_backward<_IsMove,
 786:/Applications/ArmGNUToolchain/14.2.rel1/arm-none-eabi/arm-none-eabi/include/c++/14.2.1/bits/stl_algobase.h **** 				       __memcpyable<_BI2, _BI1>::__value,
 787:/Applications/ArmGNUToolchain/14.2.rel1/arm-none-eabi/arm-none-eabi/include/c++/14.2.1/bits/stl_algobase.h **** 				       _Category>::__copy_move_b(__first,
ARM GAS  /var/folders/y7/g6pkzsp12sx54x3s3mvyn15r0000gn/T//ccwVequI.s 			page 27


 788:/Applications/ArmGNUToolchain/14.2.rel1/arm-none-eabi/arm-none-eabi/include/c++/14.2.1/bits/stl_algobase.h **** 								 __last,
 789:/Applications/ArmGNUToolchain/14.2.rel1/arm-none-eabi/arm-none-eabi/include/c++/14.2.1/bits/stl_algobase.h **** 								 __result);
 790:/Applications/ArmGNUToolchain/14.2.rel1/arm-none-eabi/arm-none-eabi/include/c++/14.2.1/bits/stl_algobase.h ****     }
 791:/Applications/ArmGNUToolchain/14.2.rel1/arm-none-eabi/arm-none-eabi/include/c++/14.2.1/bits/stl_algobase.h **** 
 792:/Applications/ArmGNUToolchain/14.2.rel1/arm-none-eabi/arm-none-eabi/include/c++/14.2.1/bits/stl_algobase.h ****   template<bool _IsMove, typename _BI1, typename _BI2>
 793:/Applications/ArmGNUToolchain/14.2.rel1/arm-none-eabi/arm-none-eabi/include/c++/14.2.1/bits/stl_algobase.h ****     _GLIBCXX20_CONSTEXPR
 794:/Applications/ArmGNUToolchain/14.2.rel1/arm-none-eabi/arm-none-eabi/include/c++/14.2.1/bits/stl_algobase.h ****     inline _BI2
 795:/Applications/ArmGNUToolchain/14.2.rel1/arm-none-eabi/arm-none-eabi/include/c++/14.2.1/bits/stl_algobase.h ****     __copy_move_backward_a1(_BI1 __first, _BI1 __last, _BI2 __result)
 796:/Applications/ArmGNUToolchain/14.2.rel1/arm-none-eabi/arm-none-eabi/include/c++/14.2.1/bits/stl_algobase.h ****     { return std::__copy_move_backward_a2<_IsMove>(__first, __last, __result); }
 797:/Applications/ArmGNUToolchain/14.2.rel1/arm-none-eabi/arm-none-eabi/include/c++/14.2.1/bits/stl_algobase.h **** 
 798:/Applications/ArmGNUToolchain/14.2.rel1/arm-none-eabi/arm-none-eabi/include/c++/14.2.1/bits/stl_algobase.h ****   template<bool _IsMove,
 799:/Applications/ArmGNUToolchain/14.2.rel1/arm-none-eabi/arm-none-eabi/include/c++/14.2.1/bits/stl_algobase.h **** 	   typename _Tp, typename _Ref, typename _Ptr, typename _OI>
 800:/Applications/ArmGNUToolchain/14.2.rel1/arm-none-eabi/arm-none-eabi/include/c++/14.2.1/bits/stl_algobase.h ****     _OI
 801:/Applications/ArmGNUToolchain/14.2.rel1/arm-none-eabi/arm-none-eabi/include/c++/14.2.1/bits/stl_algobase.h ****     __copy_move_backward_a1(_GLIBCXX_STD_C::_Deque_iterator<_Tp, _Ref, _Ptr>,
 802:/Applications/ArmGNUToolchain/14.2.rel1/arm-none-eabi/arm-none-eabi/include/c++/14.2.1/bits/stl_algobase.h **** 			    _GLIBCXX_STD_C::_Deque_iterator<_Tp, _Ref, _Ptr>,
 803:/Applications/ArmGNUToolchain/14.2.rel1/arm-none-eabi/arm-none-eabi/include/c++/14.2.1/bits/stl_algobase.h **** 			    _OI);
 804:/Applications/ArmGNUToolchain/14.2.rel1/arm-none-eabi/arm-none-eabi/include/c++/14.2.1/bits/stl_algobase.h **** 
 805:/Applications/ArmGNUToolchain/14.2.rel1/arm-none-eabi/arm-none-eabi/include/c++/14.2.1/bits/stl_algobase.h ****   template<bool _IsMove,
 806:/Applications/ArmGNUToolchain/14.2.rel1/arm-none-eabi/arm-none-eabi/include/c++/14.2.1/bits/stl_algobase.h **** 	   typename _ITp, typename _IRef, typename _IPtr, typename _OTp>
 807:/Applications/ArmGNUToolchain/14.2.rel1/arm-none-eabi/arm-none-eabi/include/c++/14.2.1/bits/stl_algobase.h ****     _GLIBCXX_STD_C::_Deque_iterator<_OTp, _OTp&, _OTp*>
 808:/Applications/ArmGNUToolchain/14.2.rel1/arm-none-eabi/arm-none-eabi/include/c++/14.2.1/bits/stl_algobase.h ****     __copy_move_backward_a1(
 809:/Applications/ArmGNUToolchain/14.2.rel1/arm-none-eabi/arm-none-eabi/include/c++/14.2.1/bits/stl_algobase.h **** 			_GLIBCXX_STD_C::_Deque_iterator<_ITp, _IRef, _IPtr>,
 810:/Applications/ArmGNUToolchain/14.2.rel1/arm-none-eabi/arm-none-eabi/include/c++/14.2.1/bits/stl_algobase.h **** 			_GLIBCXX_STD_C::_Deque_iterator<_ITp, _IRef, _IPtr>,
 811:/Applications/ArmGNUToolchain/14.2.rel1/arm-none-eabi/arm-none-eabi/include/c++/14.2.1/bits/stl_algobase.h **** 			_GLIBCXX_STD_C::_Deque_iterator<_OTp, _OTp&, _OTp*>);
 812:/Applications/ArmGNUToolchain/14.2.rel1/arm-none-eabi/arm-none-eabi/include/c++/14.2.1/bits/stl_algobase.h **** 
 813:/Applications/ArmGNUToolchain/14.2.rel1/arm-none-eabi/arm-none-eabi/include/c++/14.2.1/bits/stl_algobase.h ****   template<bool _IsMove, typename _II, typename _Tp>
 814:/Applications/ArmGNUToolchain/14.2.rel1/arm-none-eabi/arm-none-eabi/include/c++/14.2.1/bits/stl_algobase.h ****     typename __gnu_cxx::__enable_if<
 815:/Applications/ArmGNUToolchain/14.2.rel1/arm-none-eabi/arm-none-eabi/include/c++/14.2.1/bits/stl_algobase.h ****       __is_random_access_iter<_II>::__value,
 816:/Applications/ArmGNUToolchain/14.2.rel1/arm-none-eabi/arm-none-eabi/include/c++/14.2.1/bits/stl_algobase.h ****       _GLIBCXX_STD_C::_Deque_iterator<_Tp, _Tp&, _Tp*> >::__type
 817:/Applications/ArmGNUToolchain/14.2.rel1/arm-none-eabi/arm-none-eabi/include/c++/14.2.1/bits/stl_algobase.h ****     __copy_move_backward_a1(_II, _II,
 818:/Applications/ArmGNUToolchain/14.2.rel1/arm-none-eabi/arm-none-eabi/include/c++/14.2.1/bits/stl_algobase.h **** 			    _GLIBCXX_STD_C::_Deque_iterator<_Tp, _Tp&, _Tp*>);
 819:/Applications/ArmGNUToolchain/14.2.rel1/arm-none-eabi/arm-none-eabi/include/c++/14.2.1/bits/stl_algobase.h **** 
 820:/Applications/ArmGNUToolchain/14.2.rel1/arm-none-eabi/arm-none-eabi/include/c++/14.2.1/bits/stl_algobase.h ****   template<bool _IsMove, typename _II, typename _OI>
 821:/Applications/ArmGNUToolchain/14.2.rel1/arm-none-eabi/arm-none-eabi/include/c++/14.2.1/bits/stl_algobase.h ****     _GLIBCXX20_CONSTEXPR
 822:/Applications/ArmGNUToolchain/14.2.rel1/arm-none-eabi/arm-none-eabi/include/c++/14.2.1/bits/stl_algobase.h ****     inline _OI
 823:/Applications/ArmGNUToolchain/14.2.rel1/arm-none-eabi/arm-none-eabi/include/c++/14.2.1/bits/stl_algobase.h ****     __copy_move_backward_a(_II __first, _II __last, _OI __result)
 824:/Applications/ArmGNUToolchain/14.2.rel1/arm-none-eabi/arm-none-eabi/include/c++/14.2.1/bits/stl_algobase.h ****     {
 825:/Applications/ArmGNUToolchain/14.2.rel1/arm-none-eabi/arm-none-eabi/include/c++/14.2.1/bits/stl_algobase.h ****       return std::__niter_wrap(__result,
 826:/Applications/ArmGNUToolchain/14.2.rel1/arm-none-eabi/arm-none-eabi/include/c++/14.2.1/bits/stl_algobase.h **** 		std::__copy_move_backward_a1<_IsMove>
 827:/Applications/ArmGNUToolchain/14.2.rel1/arm-none-eabi/arm-none-eabi/include/c++/14.2.1/bits/stl_algobase.h **** 		  (std::__niter_base(__first), std::__niter_base(__last),
 828:/Applications/ArmGNUToolchain/14.2.rel1/arm-none-eabi/arm-none-eabi/include/c++/14.2.1/bits/stl_algobase.h **** 		   std::__niter_base(__result)));
 829:/Applications/ArmGNUToolchain/14.2.rel1/arm-none-eabi/arm-none-eabi/include/c++/14.2.1/bits/stl_algobase.h ****     }
 830:/Applications/ArmGNUToolchain/14.2.rel1/arm-none-eabi/arm-none-eabi/include/c++/14.2.1/bits/stl_algobase.h **** 
 831:/Applications/ArmGNUToolchain/14.2.rel1/arm-none-eabi/arm-none-eabi/include/c++/14.2.1/bits/stl_algobase.h ****   template<bool _IsMove,
 832:/Applications/ArmGNUToolchain/14.2.rel1/arm-none-eabi/arm-none-eabi/include/c++/14.2.1/bits/stl_algobase.h **** 	   typename _Ite, typename _Seq, typename _Cat, typename _OI>
 833:/Applications/ArmGNUToolchain/14.2.rel1/arm-none-eabi/arm-none-eabi/include/c++/14.2.1/bits/stl_algobase.h ****     _GLIBCXX20_CONSTEXPR
 834:/Applications/ArmGNUToolchain/14.2.rel1/arm-none-eabi/arm-none-eabi/include/c++/14.2.1/bits/stl_algobase.h ****     _OI
 835:/Applications/ArmGNUToolchain/14.2.rel1/arm-none-eabi/arm-none-eabi/include/c++/14.2.1/bits/stl_algobase.h ****     __copy_move_backward_a(
 836:/Applications/ArmGNUToolchain/14.2.rel1/arm-none-eabi/arm-none-eabi/include/c++/14.2.1/bits/stl_algobase.h **** 		const ::__gnu_debug::_Safe_iterator<_Ite, _Seq, _Cat>&,
 837:/Applications/ArmGNUToolchain/14.2.rel1/arm-none-eabi/arm-none-eabi/include/c++/14.2.1/bits/stl_algobase.h **** 		const ::__gnu_debug::_Safe_iterator<_Ite, _Seq, _Cat>&,
 838:/Applications/ArmGNUToolchain/14.2.rel1/arm-none-eabi/arm-none-eabi/include/c++/14.2.1/bits/stl_algobase.h **** 		_OI);
 839:/Applications/ArmGNUToolchain/14.2.rel1/arm-none-eabi/arm-none-eabi/include/c++/14.2.1/bits/stl_algobase.h **** 
 840:/Applications/ArmGNUToolchain/14.2.rel1/arm-none-eabi/arm-none-eabi/include/c++/14.2.1/bits/stl_algobase.h ****   template<bool _IsMove,
 841:/Applications/ArmGNUToolchain/14.2.rel1/arm-none-eabi/arm-none-eabi/include/c++/14.2.1/bits/stl_algobase.h **** 	   typename _II, typename _Ite, typename _Seq, typename _Cat>
 842:/Applications/ArmGNUToolchain/14.2.rel1/arm-none-eabi/arm-none-eabi/include/c++/14.2.1/bits/stl_algobase.h ****     _GLIBCXX20_CONSTEXPR
 843:/Applications/ArmGNUToolchain/14.2.rel1/arm-none-eabi/arm-none-eabi/include/c++/14.2.1/bits/stl_algobase.h ****     __gnu_debug::_Safe_iterator<_Ite, _Seq, _Cat>
 844:/Applications/ArmGNUToolchain/14.2.rel1/arm-none-eabi/arm-none-eabi/include/c++/14.2.1/bits/stl_algobase.h ****     __copy_move_backward_a(_II, _II,
ARM GAS  /var/folders/y7/g6pkzsp12sx54x3s3mvyn15r0000gn/T//ccwVequI.s 			page 28


 845:/Applications/ArmGNUToolchain/14.2.rel1/arm-none-eabi/arm-none-eabi/include/c++/14.2.1/bits/stl_algobase.h **** 		const ::__gnu_debug::_Safe_iterator<_Ite, _Seq, _Cat>&);
 846:/Applications/ArmGNUToolchain/14.2.rel1/arm-none-eabi/arm-none-eabi/include/c++/14.2.1/bits/stl_algobase.h **** 
 847:/Applications/ArmGNUToolchain/14.2.rel1/arm-none-eabi/arm-none-eabi/include/c++/14.2.1/bits/stl_algobase.h ****   template<bool _IsMove,
 848:/Applications/ArmGNUToolchain/14.2.rel1/arm-none-eabi/arm-none-eabi/include/c++/14.2.1/bits/stl_algobase.h **** 	   typename _IIte, typename _ISeq, typename _ICat,
 849:/Applications/ArmGNUToolchain/14.2.rel1/arm-none-eabi/arm-none-eabi/include/c++/14.2.1/bits/stl_algobase.h **** 	   typename _OIte, typename _OSeq, typename _OCat>
 850:/Applications/ArmGNUToolchain/14.2.rel1/arm-none-eabi/arm-none-eabi/include/c++/14.2.1/bits/stl_algobase.h ****     _GLIBCXX20_CONSTEXPR
 851:/Applications/ArmGNUToolchain/14.2.rel1/arm-none-eabi/arm-none-eabi/include/c++/14.2.1/bits/stl_algobase.h ****     ::__gnu_debug::_Safe_iterator<_OIte, _OSeq, _OCat>
 852:/Applications/ArmGNUToolchain/14.2.rel1/arm-none-eabi/arm-none-eabi/include/c++/14.2.1/bits/stl_algobase.h ****     __copy_move_backward_a(
 853:/Applications/ArmGNUToolchain/14.2.rel1/arm-none-eabi/arm-none-eabi/include/c++/14.2.1/bits/stl_algobase.h **** 		const ::__gnu_debug::_Safe_iterator<_IIte, _ISeq, _ICat>&,
 854:/Applications/ArmGNUToolchain/14.2.rel1/arm-none-eabi/arm-none-eabi/include/c++/14.2.1/bits/stl_algobase.h **** 		const ::__gnu_debug::_Safe_iterator<_IIte, _ISeq, _ICat>&,
 855:/Applications/ArmGNUToolchain/14.2.rel1/arm-none-eabi/arm-none-eabi/include/c++/14.2.1/bits/stl_algobase.h **** 		const ::__gnu_debug::_Safe_iterator<_OIte, _OSeq, _OCat>&);
 856:/Applications/ArmGNUToolchain/14.2.rel1/arm-none-eabi/arm-none-eabi/include/c++/14.2.1/bits/stl_algobase.h **** 
 857:/Applications/ArmGNUToolchain/14.2.rel1/arm-none-eabi/arm-none-eabi/include/c++/14.2.1/bits/stl_algobase.h ****   /**
 858:/Applications/ArmGNUToolchain/14.2.rel1/arm-none-eabi/arm-none-eabi/include/c++/14.2.1/bits/stl_algobase.h ****    *  @brief Copies the range [first,last) into result.
 859:/Applications/ArmGNUToolchain/14.2.rel1/arm-none-eabi/arm-none-eabi/include/c++/14.2.1/bits/stl_algobase.h ****    *  @ingroup mutating_algorithms
 860:/Applications/ArmGNUToolchain/14.2.rel1/arm-none-eabi/arm-none-eabi/include/c++/14.2.1/bits/stl_algobase.h ****    *  @param  __first  A bidirectional iterator.
 861:/Applications/ArmGNUToolchain/14.2.rel1/arm-none-eabi/arm-none-eabi/include/c++/14.2.1/bits/stl_algobase.h ****    *  @param  __last   A bidirectional iterator.
 862:/Applications/ArmGNUToolchain/14.2.rel1/arm-none-eabi/arm-none-eabi/include/c++/14.2.1/bits/stl_algobase.h ****    *  @param  __result A bidirectional iterator.
 863:/Applications/ArmGNUToolchain/14.2.rel1/arm-none-eabi/arm-none-eabi/include/c++/14.2.1/bits/stl_algobase.h ****    *  @return   result - (last - first)
 864:/Applications/ArmGNUToolchain/14.2.rel1/arm-none-eabi/arm-none-eabi/include/c++/14.2.1/bits/stl_algobase.h ****    *
 865:/Applications/ArmGNUToolchain/14.2.rel1/arm-none-eabi/arm-none-eabi/include/c++/14.2.1/bits/stl_algobase.h ****    *  The function has the same effect as copy, but starts at the end of the
 866:/Applications/ArmGNUToolchain/14.2.rel1/arm-none-eabi/arm-none-eabi/include/c++/14.2.1/bits/stl_algobase.h ****    *  range and works its way to the start, returning the start of the result.
 867:/Applications/ArmGNUToolchain/14.2.rel1/arm-none-eabi/arm-none-eabi/include/c++/14.2.1/bits/stl_algobase.h ****    *  This inline function will boil down to a call to @c memmove whenever
 868:/Applications/ArmGNUToolchain/14.2.rel1/arm-none-eabi/arm-none-eabi/include/c++/14.2.1/bits/stl_algobase.h ****    *  possible.  Failing that, if random access iterators are passed, then the
 869:/Applications/ArmGNUToolchain/14.2.rel1/arm-none-eabi/arm-none-eabi/include/c++/14.2.1/bits/stl_algobase.h ****    *  loop count will be known (and therefore a candidate for compiler
 870:/Applications/ArmGNUToolchain/14.2.rel1/arm-none-eabi/arm-none-eabi/include/c++/14.2.1/bits/stl_algobase.h ****    *  optimizations such as unrolling).
 871:/Applications/ArmGNUToolchain/14.2.rel1/arm-none-eabi/arm-none-eabi/include/c++/14.2.1/bits/stl_algobase.h ****    *
 872:/Applications/ArmGNUToolchain/14.2.rel1/arm-none-eabi/arm-none-eabi/include/c++/14.2.1/bits/stl_algobase.h ****    *  Result may not be in the range (first,last].  Use copy instead.  Note
 873:/Applications/ArmGNUToolchain/14.2.rel1/arm-none-eabi/arm-none-eabi/include/c++/14.2.1/bits/stl_algobase.h ****    *  that the start of the output range may overlap [first,last).
 874:/Applications/ArmGNUToolchain/14.2.rel1/arm-none-eabi/arm-none-eabi/include/c++/14.2.1/bits/stl_algobase.h ****   */
 875:/Applications/ArmGNUToolchain/14.2.rel1/arm-none-eabi/arm-none-eabi/include/c++/14.2.1/bits/stl_algobase.h ****   template<typename _BI1, typename _BI2>
 876:/Applications/ArmGNUToolchain/14.2.rel1/arm-none-eabi/arm-none-eabi/include/c++/14.2.1/bits/stl_algobase.h ****     _GLIBCXX20_CONSTEXPR
 877:/Applications/ArmGNUToolchain/14.2.rel1/arm-none-eabi/arm-none-eabi/include/c++/14.2.1/bits/stl_algobase.h ****     inline _BI2
 878:/Applications/ArmGNUToolchain/14.2.rel1/arm-none-eabi/arm-none-eabi/include/c++/14.2.1/bits/stl_algobase.h ****     copy_backward(_BI1 __first, _BI1 __last, _BI2 __result)
 879:/Applications/ArmGNUToolchain/14.2.rel1/arm-none-eabi/arm-none-eabi/include/c++/14.2.1/bits/stl_algobase.h ****     {
 880:/Applications/ArmGNUToolchain/14.2.rel1/arm-none-eabi/arm-none-eabi/include/c++/14.2.1/bits/stl_algobase.h ****       // concept requirements
 881:/Applications/ArmGNUToolchain/14.2.rel1/arm-none-eabi/arm-none-eabi/include/c++/14.2.1/bits/stl_algobase.h ****       __glibcxx_function_requires(_BidirectionalIteratorConcept<_BI1>)
 882:/Applications/ArmGNUToolchain/14.2.rel1/arm-none-eabi/arm-none-eabi/include/c++/14.2.1/bits/stl_algobase.h ****       __glibcxx_function_requires(_Mutable_BidirectionalIteratorConcept<_BI2>)
 883:/Applications/ArmGNUToolchain/14.2.rel1/arm-none-eabi/arm-none-eabi/include/c++/14.2.1/bits/stl_algobase.h ****       __glibcxx_function_requires(_OutputIteratorConcept<_BI2,
 884:/Applications/ArmGNUToolchain/14.2.rel1/arm-none-eabi/arm-none-eabi/include/c++/14.2.1/bits/stl_algobase.h **** 	    typename iterator_traits<_BI1>::reference>)
 885:/Applications/ArmGNUToolchain/14.2.rel1/arm-none-eabi/arm-none-eabi/include/c++/14.2.1/bits/stl_algobase.h ****       __glibcxx_requires_can_decrement_range(__first, __last, __result);
 886:/Applications/ArmGNUToolchain/14.2.rel1/arm-none-eabi/arm-none-eabi/include/c++/14.2.1/bits/stl_algobase.h **** 
 887:/Applications/ArmGNUToolchain/14.2.rel1/arm-none-eabi/arm-none-eabi/include/c++/14.2.1/bits/stl_algobase.h ****       return std::__copy_move_backward_a<__is_move_iterator<_BI1>::__value>
 888:/Applications/ArmGNUToolchain/14.2.rel1/arm-none-eabi/arm-none-eabi/include/c++/14.2.1/bits/stl_algobase.h **** 	     (std::__miter_base(__first), std::__miter_base(__last), __result);
 889:/Applications/ArmGNUToolchain/14.2.rel1/arm-none-eabi/arm-none-eabi/include/c++/14.2.1/bits/stl_algobase.h ****     }
 890:/Applications/ArmGNUToolchain/14.2.rel1/arm-none-eabi/arm-none-eabi/include/c++/14.2.1/bits/stl_algobase.h **** 
 891:/Applications/ArmGNUToolchain/14.2.rel1/arm-none-eabi/arm-none-eabi/include/c++/14.2.1/bits/stl_algobase.h **** #if __cplusplus >= 201103L
 892:/Applications/ArmGNUToolchain/14.2.rel1/arm-none-eabi/arm-none-eabi/include/c++/14.2.1/bits/stl_algobase.h ****   /**
 893:/Applications/ArmGNUToolchain/14.2.rel1/arm-none-eabi/arm-none-eabi/include/c++/14.2.1/bits/stl_algobase.h ****    *  @brief Moves the range [first,last) into result.
 894:/Applications/ArmGNUToolchain/14.2.rel1/arm-none-eabi/arm-none-eabi/include/c++/14.2.1/bits/stl_algobase.h ****    *  @ingroup mutating_algorithms
 895:/Applications/ArmGNUToolchain/14.2.rel1/arm-none-eabi/arm-none-eabi/include/c++/14.2.1/bits/stl_algobase.h ****    *  @param  __first  A bidirectional iterator.
 896:/Applications/ArmGNUToolchain/14.2.rel1/arm-none-eabi/arm-none-eabi/include/c++/14.2.1/bits/stl_algobase.h ****    *  @param  __last   A bidirectional iterator.
 897:/Applications/ArmGNUToolchain/14.2.rel1/arm-none-eabi/arm-none-eabi/include/c++/14.2.1/bits/stl_algobase.h ****    *  @param  __result A bidirectional iterator.
 898:/Applications/ArmGNUToolchain/14.2.rel1/arm-none-eabi/arm-none-eabi/include/c++/14.2.1/bits/stl_algobase.h ****    *  @return   result - (last - first)
 899:/Applications/ArmGNUToolchain/14.2.rel1/arm-none-eabi/arm-none-eabi/include/c++/14.2.1/bits/stl_algobase.h ****    *
 900:/Applications/ArmGNUToolchain/14.2.rel1/arm-none-eabi/arm-none-eabi/include/c++/14.2.1/bits/stl_algobase.h ****    *  The function has the same effect as move, but starts at the end of the
 901:/Applications/ArmGNUToolchain/14.2.rel1/arm-none-eabi/arm-none-eabi/include/c++/14.2.1/bits/stl_algobase.h ****    *  range and works its way to the start, returning the start of the result.
ARM GAS  /var/folders/y7/g6pkzsp12sx54x3s3mvyn15r0000gn/T//ccwVequI.s 			page 29


 902:/Applications/ArmGNUToolchain/14.2.rel1/arm-none-eabi/arm-none-eabi/include/c++/14.2.1/bits/stl_algobase.h ****    *  This inline function will boil down to a call to @c memmove whenever
 903:/Applications/ArmGNUToolchain/14.2.rel1/arm-none-eabi/arm-none-eabi/include/c++/14.2.1/bits/stl_algobase.h ****    *  possible.  Failing that, if random access iterators are passed, then the
 904:/Applications/ArmGNUToolchain/14.2.rel1/arm-none-eabi/arm-none-eabi/include/c++/14.2.1/bits/stl_algobase.h ****    *  loop count will be known (and therefore a candidate for compiler
 905:/Applications/ArmGNUToolchain/14.2.rel1/arm-none-eabi/arm-none-eabi/include/c++/14.2.1/bits/stl_algobase.h ****    *  optimizations such as unrolling).
 906:/Applications/ArmGNUToolchain/14.2.rel1/arm-none-eabi/arm-none-eabi/include/c++/14.2.1/bits/stl_algobase.h ****    *
 907:/Applications/ArmGNUToolchain/14.2.rel1/arm-none-eabi/arm-none-eabi/include/c++/14.2.1/bits/stl_algobase.h ****    *  Result may not be in the range (first,last].  Use move instead.  Note
 908:/Applications/ArmGNUToolchain/14.2.rel1/arm-none-eabi/arm-none-eabi/include/c++/14.2.1/bits/stl_algobase.h ****    *  that the start of the output range may overlap [first,last).
 909:/Applications/ArmGNUToolchain/14.2.rel1/arm-none-eabi/arm-none-eabi/include/c++/14.2.1/bits/stl_algobase.h ****   */
 910:/Applications/ArmGNUToolchain/14.2.rel1/arm-none-eabi/arm-none-eabi/include/c++/14.2.1/bits/stl_algobase.h ****   template<typename _BI1, typename _BI2>
 911:/Applications/ArmGNUToolchain/14.2.rel1/arm-none-eabi/arm-none-eabi/include/c++/14.2.1/bits/stl_algobase.h ****     _GLIBCXX20_CONSTEXPR
 912:/Applications/ArmGNUToolchain/14.2.rel1/arm-none-eabi/arm-none-eabi/include/c++/14.2.1/bits/stl_algobase.h ****     inline _BI2
 913:/Applications/ArmGNUToolchain/14.2.rel1/arm-none-eabi/arm-none-eabi/include/c++/14.2.1/bits/stl_algobase.h ****     move_backward(_BI1 __first, _BI1 __last, _BI2 __result)
 914:/Applications/ArmGNUToolchain/14.2.rel1/arm-none-eabi/arm-none-eabi/include/c++/14.2.1/bits/stl_algobase.h ****     {
 915:/Applications/ArmGNUToolchain/14.2.rel1/arm-none-eabi/arm-none-eabi/include/c++/14.2.1/bits/stl_algobase.h ****       // concept requirements
 916:/Applications/ArmGNUToolchain/14.2.rel1/arm-none-eabi/arm-none-eabi/include/c++/14.2.1/bits/stl_algobase.h ****       __glibcxx_function_requires(_BidirectionalIteratorConcept<_BI1>)
 917:/Applications/ArmGNUToolchain/14.2.rel1/arm-none-eabi/arm-none-eabi/include/c++/14.2.1/bits/stl_algobase.h ****       __glibcxx_function_requires(_Mutable_BidirectionalIteratorConcept<_BI2>)
 918:/Applications/ArmGNUToolchain/14.2.rel1/arm-none-eabi/arm-none-eabi/include/c++/14.2.1/bits/stl_algobase.h ****       __glibcxx_function_requires(_OutputIteratorConcept<_BI2,
 919:/Applications/ArmGNUToolchain/14.2.rel1/arm-none-eabi/arm-none-eabi/include/c++/14.2.1/bits/stl_algobase.h **** 	    typename iterator_traits<_BI1>::value_type&&>)
 920:/Applications/ArmGNUToolchain/14.2.rel1/arm-none-eabi/arm-none-eabi/include/c++/14.2.1/bits/stl_algobase.h ****       __glibcxx_requires_can_decrement_range(__first, __last, __result);
 921:/Applications/ArmGNUToolchain/14.2.rel1/arm-none-eabi/arm-none-eabi/include/c++/14.2.1/bits/stl_algobase.h **** 
 922:/Applications/ArmGNUToolchain/14.2.rel1/arm-none-eabi/arm-none-eabi/include/c++/14.2.1/bits/stl_algobase.h ****       return std::__copy_move_backward_a<true>(std::__miter_base(__first),
 923:/Applications/ArmGNUToolchain/14.2.rel1/arm-none-eabi/arm-none-eabi/include/c++/14.2.1/bits/stl_algobase.h **** 					       std::__miter_base(__last),
 924:/Applications/ArmGNUToolchain/14.2.rel1/arm-none-eabi/arm-none-eabi/include/c++/14.2.1/bits/stl_algobase.h **** 					       __result);
 925:/Applications/ArmGNUToolchain/14.2.rel1/arm-none-eabi/arm-none-eabi/include/c++/14.2.1/bits/stl_algobase.h ****     }
 926:/Applications/ArmGNUToolchain/14.2.rel1/arm-none-eabi/arm-none-eabi/include/c++/14.2.1/bits/stl_algobase.h **** 
 927:/Applications/ArmGNUToolchain/14.2.rel1/arm-none-eabi/arm-none-eabi/include/c++/14.2.1/bits/stl_algobase.h **** #define _GLIBCXX_MOVE_BACKWARD3(_Tp, _Up, _Vp) std::move_backward(_Tp, _Up, _Vp)
 928:/Applications/ArmGNUToolchain/14.2.rel1/arm-none-eabi/arm-none-eabi/include/c++/14.2.1/bits/stl_algobase.h **** #else
 929:/Applications/ArmGNUToolchain/14.2.rel1/arm-none-eabi/arm-none-eabi/include/c++/14.2.1/bits/stl_algobase.h **** #define _GLIBCXX_MOVE_BACKWARD3(_Tp, _Up, _Vp) std::copy_backward(_Tp, _Up, _Vp)
 930:/Applications/ArmGNUToolchain/14.2.rel1/arm-none-eabi/arm-none-eabi/include/c++/14.2.1/bits/stl_algobase.h **** #endif
 931:/Applications/ArmGNUToolchain/14.2.rel1/arm-none-eabi/arm-none-eabi/include/c++/14.2.1/bits/stl_algobase.h **** 
 932:/Applications/ArmGNUToolchain/14.2.rel1/arm-none-eabi/arm-none-eabi/include/c++/14.2.1/bits/stl_algobase.h ****   template<typename _ForwardIterator, typename _Tp>
 933:/Applications/ArmGNUToolchain/14.2.rel1/arm-none-eabi/arm-none-eabi/include/c++/14.2.1/bits/stl_algobase.h ****     _GLIBCXX20_CONSTEXPR
 934:/Applications/ArmGNUToolchain/14.2.rel1/arm-none-eabi/arm-none-eabi/include/c++/14.2.1/bits/stl_algobase.h ****     inline typename
 935:/Applications/ArmGNUToolchain/14.2.rel1/arm-none-eabi/arm-none-eabi/include/c++/14.2.1/bits/stl_algobase.h ****     __gnu_cxx::__enable_if<!__is_scalar<_Tp>::__value, void>::__type
 936:/Applications/ArmGNUToolchain/14.2.rel1/arm-none-eabi/arm-none-eabi/include/c++/14.2.1/bits/stl_algobase.h ****     __fill_a1(_ForwardIterator __first, _ForwardIterator __last,
 937:/Applications/ArmGNUToolchain/14.2.rel1/arm-none-eabi/arm-none-eabi/include/c++/14.2.1/bits/stl_algobase.h **** 	      const _Tp& __value)
 938:/Applications/ArmGNUToolchain/14.2.rel1/arm-none-eabi/arm-none-eabi/include/c++/14.2.1/bits/stl_algobase.h ****     {
 939:/Applications/ArmGNUToolchain/14.2.rel1/arm-none-eabi/arm-none-eabi/include/c++/14.2.1/bits/stl_algobase.h ****       for (; __first != __last; ++__first)
 940:/Applications/ArmGNUToolchain/14.2.rel1/arm-none-eabi/arm-none-eabi/include/c++/14.2.1/bits/stl_algobase.h **** 	*__first = __value;
 941:/Applications/ArmGNUToolchain/14.2.rel1/arm-none-eabi/arm-none-eabi/include/c++/14.2.1/bits/stl_algobase.h ****     }
 942:/Applications/ArmGNUToolchain/14.2.rel1/arm-none-eabi/arm-none-eabi/include/c++/14.2.1/bits/stl_algobase.h **** 
 943:/Applications/ArmGNUToolchain/14.2.rel1/arm-none-eabi/arm-none-eabi/include/c++/14.2.1/bits/stl_algobase.h ****   template<typename _ForwardIterator, typename _Tp>
 944:/Applications/ArmGNUToolchain/14.2.rel1/arm-none-eabi/arm-none-eabi/include/c++/14.2.1/bits/stl_algobase.h ****     _GLIBCXX20_CONSTEXPR
 945:/Applications/ArmGNUToolchain/14.2.rel1/arm-none-eabi/arm-none-eabi/include/c++/14.2.1/bits/stl_algobase.h ****     inline typename
 946:/Applications/ArmGNUToolchain/14.2.rel1/arm-none-eabi/arm-none-eabi/include/c++/14.2.1/bits/stl_algobase.h ****     __gnu_cxx::__enable_if<__is_scalar<_Tp>::__value, void>::__type
 947:/Applications/ArmGNUToolchain/14.2.rel1/arm-none-eabi/arm-none-eabi/include/c++/14.2.1/bits/stl_algobase.h ****     __fill_a1(_ForwardIterator __first, _ForwardIterator __last,
 948:/Applications/ArmGNUToolchain/14.2.rel1/arm-none-eabi/arm-none-eabi/include/c++/14.2.1/bits/stl_algobase.h **** 	      const _Tp& __value)
 949:/Applications/ArmGNUToolchain/14.2.rel1/arm-none-eabi/arm-none-eabi/include/c++/14.2.1/bits/stl_algobase.h ****     {
 950:/Applications/ArmGNUToolchain/14.2.rel1/arm-none-eabi/arm-none-eabi/include/c++/14.2.1/bits/stl_algobase.h ****       const _Tp __tmp = __value;
 951:/Applications/ArmGNUToolchain/14.2.rel1/arm-none-eabi/arm-none-eabi/include/c++/14.2.1/bits/stl_algobase.h ****       for (; __first != __last; ++__first)
 952:/Applications/ArmGNUToolchain/14.2.rel1/arm-none-eabi/arm-none-eabi/include/c++/14.2.1/bits/stl_algobase.h **** 	*__first = __tmp;
 953:/Applications/ArmGNUToolchain/14.2.rel1/arm-none-eabi/arm-none-eabi/include/c++/14.2.1/bits/stl_algobase.h ****     }
 954:/Applications/ArmGNUToolchain/14.2.rel1/arm-none-eabi/arm-none-eabi/include/c++/14.2.1/bits/stl_algobase.h **** 
 955:/Applications/ArmGNUToolchain/14.2.rel1/arm-none-eabi/arm-none-eabi/include/c++/14.2.1/bits/stl_algobase.h ****   // Specialization: for char types we can use memset.
 956:/Applications/ArmGNUToolchain/14.2.rel1/arm-none-eabi/arm-none-eabi/include/c++/14.2.1/bits/stl_algobase.h ****   template<typename _Tp>
 957:/Applications/ArmGNUToolchain/14.2.rel1/arm-none-eabi/arm-none-eabi/include/c++/14.2.1/bits/stl_algobase.h ****     _GLIBCXX20_CONSTEXPR
 958:/Applications/ArmGNUToolchain/14.2.rel1/arm-none-eabi/arm-none-eabi/include/c++/14.2.1/bits/stl_algobase.h ****     inline typename
ARM GAS  /var/folders/y7/g6pkzsp12sx54x3s3mvyn15r0000gn/T//ccwVequI.s 			page 30


 959:/Applications/ArmGNUToolchain/14.2.rel1/arm-none-eabi/arm-none-eabi/include/c++/14.2.1/bits/stl_algobase.h ****     __gnu_cxx::__enable_if<__is_byte<_Tp>::__value, void>::__type
 960:/Applications/ArmGNUToolchain/14.2.rel1/arm-none-eabi/arm-none-eabi/include/c++/14.2.1/bits/stl_algobase.h ****     __fill_a1(_Tp* __first, _Tp* __last, const _Tp& __c)
 961:/Applications/ArmGNUToolchain/14.2.rel1/arm-none-eabi/arm-none-eabi/include/c++/14.2.1/bits/stl_algobase.h ****     {
 962:/Applications/ArmGNUToolchain/14.2.rel1/arm-none-eabi/arm-none-eabi/include/c++/14.2.1/bits/stl_algobase.h ****       const _Tp __tmp = __c;
 963:/Applications/ArmGNUToolchain/14.2.rel1/arm-none-eabi/arm-none-eabi/include/c++/14.2.1/bits/stl_algobase.h **** #if __cpp_lib_is_constant_evaluated
 964:/Applications/ArmGNUToolchain/14.2.rel1/arm-none-eabi/arm-none-eabi/include/c++/14.2.1/bits/stl_algobase.h ****       if (std::is_constant_evaluated())
 965:/Applications/ArmGNUToolchain/14.2.rel1/arm-none-eabi/arm-none-eabi/include/c++/14.2.1/bits/stl_algobase.h **** 	{
 966:/Applications/ArmGNUToolchain/14.2.rel1/arm-none-eabi/arm-none-eabi/include/c++/14.2.1/bits/stl_algobase.h **** 	  for (; __first != __last; ++__first)
 967:/Applications/ArmGNUToolchain/14.2.rel1/arm-none-eabi/arm-none-eabi/include/c++/14.2.1/bits/stl_algobase.h **** 	    *__first = __tmp;
 968:/Applications/ArmGNUToolchain/14.2.rel1/arm-none-eabi/arm-none-eabi/include/c++/14.2.1/bits/stl_algobase.h **** 	  return;
 969:/Applications/ArmGNUToolchain/14.2.rel1/arm-none-eabi/arm-none-eabi/include/c++/14.2.1/bits/stl_algobase.h **** 	}
 970:/Applications/ArmGNUToolchain/14.2.rel1/arm-none-eabi/arm-none-eabi/include/c++/14.2.1/bits/stl_algobase.h **** #endif
 971:/Applications/ArmGNUToolchain/14.2.rel1/arm-none-eabi/arm-none-eabi/include/c++/14.2.1/bits/stl_algobase.h ****       if (const size_t __len = __last - __first)
 972:/Applications/ArmGNUToolchain/14.2.rel1/arm-none-eabi/arm-none-eabi/include/c++/14.2.1/bits/stl_algobase.h **** 	__builtin_memset(__first, static_cast<unsigned char>(__tmp), __len);
 973:/Applications/ArmGNUToolchain/14.2.rel1/arm-none-eabi/arm-none-eabi/include/c++/14.2.1/bits/stl_algobase.h ****     }
 974:/Applications/ArmGNUToolchain/14.2.rel1/arm-none-eabi/arm-none-eabi/include/c++/14.2.1/bits/stl_algobase.h **** 
 975:/Applications/ArmGNUToolchain/14.2.rel1/arm-none-eabi/arm-none-eabi/include/c++/14.2.1/bits/stl_algobase.h ****   template<typename _Ite, typename _Cont, typename _Tp>
 976:/Applications/ArmGNUToolchain/14.2.rel1/arm-none-eabi/arm-none-eabi/include/c++/14.2.1/bits/stl_algobase.h ****     _GLIBCXX20_CONSTEXPR
 977:/Applications/ArmGNUToolchain/14.2.rel1/arm-none-eabi/arm-none-eabi/include/c++/14.2.1/bits/stl_algobase.h ****     inline void
 978:/Applications/ArmGNUToolchain/14.2.rel1/arm-none-eabi/arm-none-eabi/include/c++/14.2.1/bits/stl_algobase.h ****     __fill_a1(::__gnu_cxx::__normal_iterator<_Ite, _Cont> __first,
 979:/Applications/ArmGNUToolchain/14.2.rel1/arm-none-eabi/arm-none-eabi/include/c++/14.2.1/bits/stl_algobase.h **** 	      ::__gnu_cxx::__normal_iterator<_Ite, _Cont> __last,
 980:/Applications/ArmGNUToolchain/14.2.rel1/arm-none-eabi/arm-none-eabi/include/c++/14.2.1/bits/stl_algobase.h **** 	      const _Tp& __value)
 981:/Applications/ArmGNUToolchain/14.2.rel1/arm-none-eabi/arm-none-eabi/include/c++/14.2.1/bits/stl_algobase.h ****     { std::__fill_a1(__first.base(), __last.base(), __value); }
 982:/Applications/ArmGNUToolchain/14.2.rel1/arm-none-eabi/arm-none-eabi/include/c++/14.2.1/bits/stl_algobase.h **** 
 983:/Applications/ArmGNUToolchain/14.2.rel1/arm-none-eabi/arm-none-eabi/include/c++/14.2.1/bits/stl_algobase.h ****   template<typename _Tp, typename _VTp>
 984:/Applications/ArmGNUToolchain/14.2.rel1/arm-none-eabi/arm-none-eabi/include/c++/14.2.1/bits/stl_algobase.h ****     void
 985:/Applications/ArmGNUToolchain/14.2.rel1/arm-none-eabi/arm-none-eabi/include/c++/14.2.1/bits/stl_algobase.h ****     __fill_a1(const _GLIBCXX_STD_C::_Deque_iterator<_Tp, _Tp&, _Tp*>&,
 986:/Applications/ArmGNUToolchain/14.2.rel1/arm-none-eabi/arm-none-eabi/include/c++/14.2.1/bits/stl_algobase.h **** 	      const _GLIBCXX_STD_C::_Deque_iterator<_Tp, _Tp&, _Tp*>&,
 987:/Applications/ArmGNUToolchain/14.2.rel1/arm-none-eabi/arm-none-eabi/include/c++/14.2.1/bits/stl_algobase.h **** 	      const _VTp&);
 988:/Applications/ArmGNUToolchain/14.2.rel1/arm-none-eabi/arm-none-eabi/include/c++/14.2.1/bits/stl_algobase.h **** 
 989:/Applications/ArmGNUToolchain/14.2.rel1/arm-none-eabi/arm-none-eabi/include/c++/14.2.1/bits/stl_algobase.h ****   _GLIBCXX20_CONSTEXPR
 990:/Applications/ArmGNUToolchain/14.2.rel1/arm-none-eabi/arm-none-eabi/include/c++/14.2.1/bits/stl_algobase.h ****   void
 991:/Applications/ArmGNUToolchain/14.2.rel1/arm-none-eabi/arm-none-eabi/include/c++/14.2.1/bits/stl_algobase.h ****   __fill_a1(_GLIBCXX_STD_C::_Bit_iterator, _GLIBCXX_STD_C::_Bit_iterator,
 992:/Applications/ArmGNUToolchain/14.2.rel1/arm-none-eabi/arm-none-eabi/include/c++/14.2.1/bits/stl_algobase.h **** 	    const bool&);
 993:/Applications/ArmGNUToolchain/14.2.rel1/arm-none-eabi/arm-none-eabi/include/c++/14.2.1/bits/stl_algobase.h **** 
 994:/Applications/ArmGNUToolchain/14.2.rel1/arm-none-eabi/arm-none-eabi/include/c++/14.2.1/bits/stl_algobase.h ****   template<typename _FIte, typename _Tp>
 995:/Applications/ArmGNUToolchain/14.2.rel1/arm-none-eabi/arm-none-eabi/include/c++/14.2.1/bits/stl_algobase.h ****     _GLIBCXX20_CONSTEXPR
 996:/Applications/ArmGNUToolchain/14.2.rel1/arm-none-eabi/arm-none-eabi/include/c++/14.2.1/bits/stl_algobase.h ****     inline void
 997:/Applications/ArmGNUToolchain/14.2.rel1/arm-none-eabi/arm-none-eabi/include/c++/14.2.1/bits/stl_algobase.h ****     __fill_a(_FIte __first, _FIte __last, const _Tp& __value)
 998:/Applications/ArmGNUToolchain/14.2.rel1/arm-none-eabi/arm-none-eabi/include/c++/14.2.1/bits/stl_algobase.h ****     { std::__fill_a1(__first, __last, __value); }
 999:/Applications/ArmGNUToolchain/14.2.rel1/arm-none-eabi/arm-none-eabi/include/c++/14.2.1/bits/stl_algobase.h **** 
1000:/Applications/ArmGNUToolchain/14.2.rel1/arm-none-eabi/arm-none-eabi/include/c++/14.2.1/bits/stl_algobase.h ****   template<typename _Ite, typename _Seq, typename _Cat, typename _Tp>
1001:/Applications/ArmGNUToolchain/14.2.rel1/arm-none-eabi/arm-none-eabi/include/c++/14.2.1/bits/stl_algobase.h ****     _GLIBCXX20_CONSTEXPR
1002:/Applications/ArmGNUToolchain/14.2.rel1/arm-none-eabi/arm-none-eabi/include/c++/14.2.1/bits/stl_algobase.h ****     void
1003:/Applications/ArmGNUToolchain/14.2.rel1/arm-none-eabi/arm-none-eabi/include/c++/14.2.1/bits/stl_algobase.h ****     __fill_a(const ::__gnu_debug::_Safe_iterator<_Ite, _Seq, _Cat>&,
1004:/Applications/ArmGNUToolchain/14.2.rel1/arm-none-eabi/arm-none-eabi/include/c++/14.2.1/bits/stl_algobase.h **** 	     const ::__gnu_debug::_Safe_iterator<_Ite, _Seq, _Cat>&,
1005:/Applications/ArmGNUToolchain/14.2.rel1/arm-none-eabi/arm-none-eabi/include/c++/14.2.1/bits/stl_algobase.h **** 	     const _Tp&);
1006:/Applications/ArmGNUToolchain/14.2.rel1/arm-none-eabi/arm-none-eabi/include/c++/14.2.1/bits/stl_algobase.h **** 
1007:/Applications/ArmGNUToolchain/14.2.rel1/arm-none-eabi/arm-none-eabi/include/c++/14.2.1/bits/stl_algobase.h ****   /**
1008:/Applications/ArmGNUToolchain/14.2.rel1/arm-none-eabi/arm-none-eabi/include/c++/14.2.1/bits/stl_algobase.h ****    *  @brief Fills the range [first,last) with copies of value.
1009:/Applications/ArmGNUToolchain/14.2.rel1/arm-none-eabi/arm-none-eabi/include/c++/14.2.1/bits/stl_algobase.h ****    *  @ingroup mutating_algorithms
1010:/Applications/ArmGNUToolchain/14.2.rel1/arm-none-eabi/arm-none-eabi/include/c++/14.2.1/bits/stl_algobase.h ****    *  @param  __first  A forward iterator.
1011:/Applications/ArmGNUToolchain/14.2.rel1/arm-none-eabi/arm-none-eabi/include/c++/14.2.1/bits/stl_algobase.h ****    *  @param  __last   A forward iterator.
1012:/Applications/ArmGNUToolchain/14.2.rel1/arm-none-eabi/arm-none-eabi/include/c++/14.2.1/bits/stl_algobase.h ****    *  @param  __value  A reference-to-const of arbitrary type.
1013:/Applications/ArmGNUToolchain/14.2.rel1/arm-none-eabi/arm-none-eabi/include/c++/14.2.1/bits/stl_algobase.h ****    *  @return   Nothing.
1014:/Applications/ArmGNUToolchain/14.2.rel1/arm-none-eabi/arm-none-eabi/include/c++/14.2.1/bits/stl_algobase.h ****    *
1015:/Applications/ArmGNUToolchain/14.2.rel1/arm-none-eabi/arm-none-eabi/include/c++/14.2.1/bits/stl_algobase.h ****    *  This function fills a range with copies of the same value.  For char
ARM GAS  /var/folders/y7/g6pkzsp12sx54x3s3mvyn15r0000gn/T//ccwVequI.s 			page 31


1016:/Applications/ArmGNUToolchain/14.2.rel1/arm-none-eabi/arm-none-eabi/include/c++/14.2.1/bits/stl_algobase.h ****    *  types filling contiguous areas of memory, this becomes an inline call
1017:/Applications/ArmGNUToolchain/14.2.rel1/arm-none-eabi/arm-none-eabi/include/c++/14.2.1/bits/stl_algobase.h ****    *  to @c memset or @c wmemset.
1018:/Applications/ArmGNUToolchain/14.2.rel1/arm-none-eabi/arm-none-eabi/include/c++/14.2.1/bits/stl_algobase.h ****   */
1019:/Applications/ArmGNUToolchain/14.2.rel1/arm-none-eabi/arm-none-eabi/include/c++/14.2.1/bits/stl_algobase.h ****   template<typename _ForwardIterator, typename _Tp>
1020:/Applications/ArmGNUToolchain/14.2.rel1/arm-none-eabi/arm-none-eabi/include/c++/14.2.1/bits/stl_algobase.h ****     _GLIBCXX20_CONSTEXPR
1021:/Applications/ArmGNUToolchain/14.2.rel1/arm-none-eabi/arm-none-eabi/include/c++/14.2.1/bits/stl_algobase.h ****     inline void
1022:/Applications/ArmGNUToolchain/14.2.rel1/arm-none-eabi/arm-none-eabi/include/c++/14.2.1/bits/stl_algobase.h ****     fill(_ForwardIterator __first, _ForwardIterator __last, const _Tp& __value)
 194              		.loc 5 1022 5 view .LVU34
 195              	.LBB143:
 196              	.LBI143:
 997:/Applications/ArmGNUToolchain/14.2.rel1/arm-none-eabi/arm-none-eabi/include/c++/14.2.1/bits/stl_algobase.h ****     { std::__fill_a1(__first, __last, __value); }
 197              		.loc 5 997 5 view .LVU35
 198              	.LBB144:
 199              	.LBI144:
 947:/Applications/ArmGNUToolchain/14.2.rel1/arm-none-eabi/arm-none-eabi/include/c++/14.2.1/bits/stl_algobase.h **** 	      const _Tp& __value)
 200              		.loc 5 947 5 view .LVU36
 201              	.L7:
 202              	.LBB145:
 951:/Applications/ArmGNUToolchain/14.2.rel1/arm-none-eabi/arm-none-eabi/include/c++/14.2.1/bits/stl_algobase.h **** 	*__first = __tmp;
 203              		.loc 5 951 22 discriminator 1 view .LVU37
 204 001c 9842     		cmp	r0, r3
 205 001e 33D1     		bne	.L8
 206              	.LVL8:
 951:/Applications/ArmGNUToolchain/14.2.rel1/arm-none-eabi/arm-none-eabi/include/c++/14.2.1/bits/stl_algobase.h **** 	*__first = __tmp;
 207              		.loc 5 951 22 is_stmt 0 discriminator 1 view .LVU38
 208              	.LBE145:
 209              	.LBE144:
 210              	.LBE143:
 211              	.LBE142:
 212              	.LBE151:
 213              	.LBE154:
 178:../eurorack/plaits/dsp/drums/hi_hat.h **** 
 179:../eurorack/plaits/dsp/drums/hi_hat.h ****     metallic_noise_.Init();
 180:../eurorack/plaits/dsp/drums/hi_hat.h ****     noise_coloration_svf_.Init();
 214              		.loc 4 180 31 view .LVU39
 215 0020 FFF7FEFF 		bl	_ZN6stmlib3Svf4InitEv
 216              	.LVL9:
 181:../eurorack/plaits/dsp/drums/hi_hat.h ****     hpf_.Init();
 217              		.loc 4 181 14 view .LVU40
 218 0024 04F14C00 		add	r0, r4, #76
 219 0028 FFF7FEFF 		bl	_ZN6stmlib3Svf4InitEv
 220              	.LVL10:
 221              		.loc 4 181 14 view .LVU41
 222              	.LBE157:
 223              	.LBE161:
  38:../eurorack/plaits/dsp/engine/hi_hat_engine.cc ****   temp_buffer_ = allocator->Allocate<float>(kMaxBlockSize * 2);
 224              		.loc 1 38 3 is_stmt 1 view .LVU42
 225              	.LBB162:
 226              	.LBI162:
 173:../eurorack/plaits/dsp/drums/hi_hat.h ****     envelope_ = 0.0f;
 227              		.loc 4 173 8 view .LVU43
 228 002c 2346     		mov	r3, r4
 229 002e 04F1A801 		add	r1, r4, #168
 230              	.LBB163:
 174:../eurorack/plaits/dsp/drums/hi_hat.h ****     noise_clock_ = 0.0f;
 231              		.loc 4 174 15 is_stmt 0 view .LVU44
 232 0032 2566     		str	r5, [r4, #96]	@ float
ARM GAS  /var/folders/y7/g6pkzsp12sx54x3s3mvyn15r0000gn/T//ccwVequI.s 			page 32


 175:../eurorack/plaits/dsp/drums/hi_hat.h ****     noise_sample_ = 0.0f;
 233              		.loc 4 175 18 view .LVU45
 234 0034 6566     		str	r5, [r4, #100]	@ float
 176:../eurorack/plaits/dsp/drums/hi_hat.h ****     sustain_gain_ = 0.0f;
 235              		.loc 4 176 19 view .LVU46
 236 0036 A566     		str	r5, [r4, #104]	@ float
 177:../eurorack/plaits/dsp/drums/hi_hat.h **** 
 237              		.loc 4 177 19 view .LVU47
 238 0038 E566     		str	r5, [r4, #108]	@ float
 239              	.LVL11:
 240              	.LBB164:
 241              	.LBI164:
 105:../eurorack/plaits/dsp/drums/hi_hat.h ****     for (int i = 0; i < 6; ++i) {
 242              		.loc 4 105 8 is_stmt 1 view .LVU48
 106:../eurorack/plaits/dsp/drums/hi_hat.h ****       oscillator_[i].Init();
 243              		.loc 4 106 5 view .LVU49
 244              	.LBB165:
 106:../eurorack/plaits/dsp/drums/hi_hat.h ****       oscillator_[i].Init();
 245              		.loc 4 106 23 discriminator 1 view .LVU50
 246              	.L9:
 107:../eurorack/plaits/dsp/drums/hi_hat.h ****     }
 247              		.loc 4 107 7 view .LVU51
 248              	.LBB166:
 249              	.LBI166:
 250              		.file 6 "../eurorack/plaits/dsp/oscillator/oscillator.h"
   1:../eurorack/plaits/dsp/oscillator/oscillator.h **** // Copyright 2016 Emilie Gillet.
   2:../eurorack/plaits/dsp/oscillator/oscillator.h **** //
   3:../eurorack/plaits/dsp/oscillator/oscillator.h **** // Author: Emilie Gillet (emilie.o.gillet@gmail.com)
   4:../eurorack/plaits/dsp/oscillator/oscillator.h **** //
   5:../eurorack/plaits/dsp/oscillator/oscillator.h **** // Permission is hereby granted, free of charge, to any person obtaining a copy
   6:../eurorack/plaits/dsp/oscillator/oscillator.h **** // of this software and associated documentation files (the "Software"), to deal
   7:../eurorack/plaits/dsp/oscillator/oscillator.h **** // in the Software without restriction, including without limitation the rights
   8:../eurorack/plaits/dsp/oscillator/oscillator.h **** // to use, copy, modify, merge, publish, distribute, sublicense, and/or sell
   9:../eurorack/plaits/dsp/oscillator/oscillator.h **** // copies of the Software, and to permit persons to whom the Software is
  10:../eurorack/plaits/dsp/oscillator/oscillator.h **** // furnished to do so, subject to the following conditions:
  11:../eurorack/plaits/dsp/oscillator/oscillator.h **** // 
  12:../eurorack/plaits/dsp/oscillator/oscillator.h **** // The above copyright notice and this permission notice shall be included in
  13:../eurorack/plaits/dsp/oscillator/oscillator.h **** // all copies or substantial portions of the Software.
  14:../eurorack/plaits/dsp/oscillator/oscillator.h **** // 
  15:../eurorack/plaits/dsp/oscillator/oscillator.h **** // THE SOFTWARE IS PROVIDED "AS IS", WITHOUT WARRANTY OF ANY KIND, EXPRESS OR
  16:../eurorack/plaits/dsp/oscillator/oscillator.h **** // IMPLIED, INCLUDING BUT NOT LIMITED TO THE WARRANTIES OF MERCHANTABILITY,
  17:../eurorack/plaits/dsp/oscillator/oscillator.h **** // FITNESS FOR A PARTICULAR PURPOSE AND NONINFRINGEMENT. IN NO EVENT SHALL THE
  18:../eurorack/plaits/dsp/oscillator/oscillator.h **** // AUTHORS OR COPYRIGHT HOLDERS BE LIABLE FOR ANY CLAIM, DAMAGES OR OTHER
  19:../eurorack/plaits/dsp/oscillator/oscillator.h **** // LIABILITY, WHETHER IN AN ACTION OF CONTRACT, TORT OR OTHERWISE, ARISING FROM,
  20:../eurorack/plaits/dsp/oscillator/oscillator.h **** // OUT OF OR IN CONNECTION WITH THE SOFTWARE OR THE USE OR OTHER DEALINGS IN
  21:../eurorack/plaits/dsp/oscillator/oscillator.h **** // THE SOFTWARE.
  22:../eurorack/plaits/dsp/oscillator/oscillator.h **** // 
  23:../eurorack/plaits/dsp/oscillator/oscillator.h **** // See http://creativecommons.org/licenses/MIT/ for more information.
  24:../eurorack/plaits/dsp/oscillator/oscillator.h **** //
  25:../eurorack/plaits/dsp/oscillator/oscillator.h **** // -----------------------------------------------------------------------------
  26:../eurorack/plaits/dsp/oscillator/oscillator.h **** //
  27:../eurorack/plaits/dsp/oscillator/oscillator.h **** // Single waveform oscillator. Can optionally do audio-rate linear FM, with
  28:../eurorack/plaits/dsp/oscillator/oscillator.h **** // through-zero capabilities (negative frequencies).
  29:../eurorack/plaits/dsp/oscillator/oscillator.h **** 
  30:../eurorack/plaits/dsp/oscillator/oscillator.h **** #ifndef PLAITS_DSP_OSCILLATOR_OSCILLATOR_H_
  31:../eurorack/plaits/dsp/oscillator/oscillator.h **** #define PLAITS_DSP_OSCILLATOR_OSCILLATOR_H_
  32:../eurorack/plaits/dsp/oscillator/oscillator.h **** 
ARM GAS  /var/folders/y7/g6pkzsp12sx54x3s3mvyn15r0000gn/T//ccwVequI.s 			page 33


  33:../eurorack/plaits/dsp/oscillator/oscillator.h **** #include "stmlib/dsp/dsp.h"
  34:../eurorack/plaits/dsp/oscillator/oscillator.h **** #include "stmlib/dsp/parameter_interpolator.h"
  35:../eurorack/plaits/dsp/oscillator/oscillator.h **** #include "stmlib/dsp/polyblep.h"
  36:../eurorack/plaits/dsp/oscillator/oscillator.h **** 
  37:../eurorack/plaits/dsp/oscillator/oscillator.h **** namespace plaits {
  38:../eurorack/plaits/dsp/oscillator/oscillator.h **** 
  39:../eurorack/plaits/dsp/oscillator/oscillator.h **** enum OscillatorShape {
  40:../eurorack/plaits/dsp/oscillator/oscillator.h ****   OSCILLATOR_SHAPE_IMPULSE_TRAIN,
  41:../eurorack/plaits/dsp/oscillator/oscillator.h ****   OSCILLATOR_SHAPE_SAW,
  42:../eurorack/plaits/dsp/oscillator/oscillator.h ****   OSCILLATOR_SHAPE_TRIANGLE,
  43:../eurorack/plaits/dsp/oscillator/oscillator.h ****   OSCILLATOR_SHAPE_SLOPE,
  44:../eurorack/plaits/dsp/oscillator/oscillator.h ****   OSCILLATOR_SHAPE_SQUARE,
  45:../eurorack/plaits/dsp/oscillator/oscillator.h ****   OSCILLATOR_SHAPE_SQUARE_BRIGHT,
  46:../eurorack/plaits/dsp/oscillator/oscillator.h ****   OSCILLATOR_SHAPE_SQUARE_DARK,
  47:../eurorack/plaits/dsp/oscillator/oscillator.h ****   OSCILLATOR_SHAPE_SQUARE_TRIANGLE
  48:../eurorack/plaits/dsp/oscillator/oscillator.h **** };
  49:../eurorack/plaits/dsp/oscillator/oscillator.h **** 
  50:../eurorack/plaits/dsp/oscillator/oscillator.h **** const float kMaxFrequency = 0.25f;
  51:../eurorack/plaits/dsp/oscillator/oscillator.h **** const float kMinFrequency = 0.000001f;
  52:../eurorack/plaits/dsp/oscillator/oscillator.h **** 
  53:../eurorack/plaits/dsp/oscillator/oscillator.h **** class Oscillator {
  54:../eurorack/plaits/dsp/oscillator/oscillator.h ****  public:
  55:../eurorack/plaits/dsp/oscillator/oscillator.h ****   Oscillator() { }
  56:../eurorack/plaits/dsp/oscillator/oscillator.h ****   ~Oscillator() { }
  57:../eurorack/plaits/dsp/oscillator/oscillator.h ****   
  58:../eurorack/plaits/dsp/oscillator/oscillator.h ****   void Init() {
 251              		.loc 6 58 8 view .LVU52
 252              	.LBB167:
  59:../eurorack/plaits/dsp/oscillator/oscillator.h ****     phase_ = 0.5f;
 253              		.loc 6 59 5 view .LVU53
  60:../eurorack/plaits/dsp/oscillator/oscillator.h ****     next_sample_ = 0.0f;
  61:../eurorack/plaits/dsp/oscillator/oscillator.h ****     lp_state_ = 1.0f;
 254              		.loc 6 61 15 is_stmt 0 view .LVU54
 255 003a 4FF07E50 		mov	r0, #1065353216
  59:../eurorack/plaits/dsp/oscillator/oscillator.h ****     phase_ = 0.5f;
 256              		.loc 6 59 12 view .LVU55
 257 003e 4FF07C52 		mov	r2, #1056964608
  60:../eurorack/plaits/dsp/oscillator/oscillator.h ****     next_sample_ = 0.0f;
 258              		.loc 6 60 18 view .LVU56
 259 0042 5D67     		str	r5, [r3, #116]	@ float
 260              	.LBE167:
 261              	.LBE166:
 106:../eurorack/plaits/dsp/drums/hi_hat.h ****       oscillator_[i].Init();
 262              		.loc 4 106 23 discriminator 1 view .LVU57
 263 0044 1C33     		adds	r3, r3, #28
 264              	.LBB169:
 265              	.LBB168:
 266              		.loc 6 61 15 view .LVU58
 267 0046 D865     		str	r0, [r3, #92]	@ float
  62:../eurorack/plaits/dsp/oscillator/oscillator.h ****     hp_state_ = 0.0f;
  63:../eurorack/plaits/dsp/oscillator/oscillator.h ****     high_ = true;
 268              		.loc 6 63 11 view .LVU59
 269 0048 0120     		movs	r0, #1
  59:../eurorack/plaits/dsp/oscillator/oscillator.h ****     next_sample_ = 0.0f;
 270              		.loc 6 59 12 view .LVU60
 271 004a 5A65     		str	r2, [r3, #84]	@ float
  60:../eurorack/plaits/dsp/oscillator/oscillator.h ****     lp_state_ = 1.0f;
ARM GAS  /var/folders/y7/g6pkzsp12sx54x3s3mvyn15r0000gn/T//ccwVequI.s 			page 34


 272              		.loc 6 60 5 is_stmt 1 view .LVU61
  61:../eurorack/plaits/dsp/oscillator/oscillator.h ****     hp_state_ = 0.0f;
 273              		.loc 6 61 5 view .LVU62
  62:../eurorack/plaits/dsp/oscillator/oscillator.h ****     high_ = true;
 274              		.loc 6 62 5 view .LVU63
 275              		.loc 6 63 11 is_stmt 0 view .LVU64
 276 004c 83F86400 		strb	r0, [r3, #100]
  64:../eurorack/plaits/dsp/oscillator/oscillator.h **** 
  65:../eurorack/plaits/dsp/oscillator/oscillator.h ****     frequency_ = 0.001f;
 277              		.loc 6 65 16 view .LVU65
 278 0050 0F48     		ldr	r0, .L13
  62:../eurorack/plaits/dsp/oscillator/oscillator.h ****     high_ = true;
 279              		.loc 6 62 15 view .LVU66
 280 0052 1D66     		str	r5, [r3, #96]	@ float
  63:../eurorack/plaits/dsp/oscillator/oscillator.h **** 
 281              		.loc 6 63 5 is_stmt 1 view .LVU67
 282              		.loc 6 65 5 view .LVU68
 283              		.loc 6 65 16 is_stmt 0 view .LVU69
 284 0054 9866     		str	r0, [r3, #104]	@ float
  66:../eurorack/plaits/dsp/oscillator/oscillator.h ****     pw_ = 0.5f;
 285              		.loc 6 66 5 is_stmt 1 view .LVU70
 286              		.loc 6 66 9 is_stmt 0 view .LVU71
 287 0056 DA66     		str	r2, [r3, #108]	@ float
 288              	.LBE168:
 289              	.LBE169:
 106:../eurorack/plaits/dsp/drums/hi_hat.h ****       oscillator_[i].Init();
 290              		.loc 4 106 5 is_stmt 1 discriminator 3 view .LVU72
 106:../eurorack/plaits/dsp/drums/hi_hat.h ****       oscillator_[i].Init();
 291              		.loc 4 106 23 discriminator 1 view .LVU73
 292 0058 9942     		cmp	r1, r3
 293 005a EED1     		bne	.L9
 294              	.LVL12:
 106:../eurorack/plaits/dsp/drums/hi_hat.h ****       oscillator_[i].Init();
 295              		.loc 4 106 23 is_stmt 0 discriminator 1 view .LVU74
 296              	.LBE165:
 297              	.LBE164:
 180:../eurorack/plaits/dsp/drums/hi_hat.h ****     hpf_.Init();
 298              		.loc 4 180 31 view .LVU75
 299 005c 04F58C70 		add	r0, r4, #280
 300 0060 FFF7FEFF 		bl	_ZN6stmlib3Svf4InitEv
 301              	.LVL13:
 302              		.loc 4 181 14 view .LVU76
 303 0064 04F59670 		add	r0, r4, #300
 304 0068 FFF7FEFF 		bl	_ZN6stmlib3Svf4InitEv
 305              	.LVL14:
 306              		.loc 4 181 14 view .LVU77
 307              	.LBE163:
 308              	.LBE162:
  39:../eurorack/plaits/dsp/engine/hi_hat_engine.cc **** }
 309              		.loc 1 39 3 is_stmt 1 view .LVU78
 310              	.LBB170:
 311              	.LBI170:
 312              		.file 7 "../eurorack/stmlib/utils/buffer_allocator.h"
   1:../eurorack/stmlib/utils/buffer_allocator.h **** // Copyright 2014 Emilie Gillet.
   2:../eurorack/stmlib/utils/buffer_allocator.h **** //
   3:../eurorack/stmlib/utils/buffer_allocator.h **** // Author: Emilie Gillet (emilie.o.gillet@gmail.com)
   4:../eurorack/stmlib/utils/buffer_allocator.h **** //
ARM GAS  /var/folders/y7/g6pkzsp12sx54x3s3mvyn15r0000gn/T//ccwVequI.s 			page 35


   5:../eurorack/stmlib/utils/buffer_allocator.h **** // Permission is hereby granted, free of charge, to any person obtaining a copy
   6:../eurorack/stmlib/utils/buffer_allocator.h **** // of this software and associated documentation files (the "Software"), to deal
   7:../eurorack/stmlib/utils/buffer_allocator.h **** // in the Software without restriction, including without limitation the rights
   8:../eurorack/stmlib/utils/buffer_allocator.h **** // to use, copy, modify, merge, publish, distribute, sublicense, and/or sell
   9:../eurorack/stmlib/utils/buffer_allocator.h **** // copies of the Software, and to permit persons to whom the Software is
  10:../eurorack/stmlib/utils/buffer_allocator.h **** // furnished to do so, subject to the following conditions:
  11:../eurorack/stmlib/utils/buffer_allocator.h **** // 
  12:../eurorack/stmlib/utils/buffer_allocator.h **** // The above copyright notice and this permission notice shall be included in
  13:../eurorack/stmlib/utils/buffer_allocator.h **** // all copies or substantial portions of the Software.
  14:../eurorack/stmlib/utils/buffer_allocator.h **** // 
  15:../eurorack/stmlib/utils/buffer_allocator.h **** // THE SOFTWARE IS PROVIDED "AS IS", WITHOUT WARRANTY OF ANY KIND, EXPRESS OR
  16:../eurorack/stmlib/utils/buffer_allocator.h **** // IMPLIED, INCLUDING BUT NOT LIMITED TO THE WARRANTIES OF MERCHANTABILITY,
  17:../eurorack/stmlib/utils/buffer_allocator.h **** // FITNESS FOR A PARTICULAR PURPOSE AND NONINFRINGEMENT. IN NO EVENT SHALL THE
  18:../eurorack/stmlib/utils/buffer_allocator.h **** // AUTHORS OR COPYRIGHT HOLDERS BE LIABLE FOR ANY CLAIM, DAMAGES OR OTHER
  19:../eurorack/stmlib/utils/buffer_allocator.h **** // LIABILITY, WHETHER IN AN ACTION OF CONTRACT, TORT OR OTHERWISE, ARISING FROM,
  20:../eurorack/stmlib/utils/buffer_allocator.h **** // OUT OF OR IN CONNECTION WITH THE SOFTWARE OR THE USE OR OTHER DEALINGS IN
  21:../eurorack/stmlib/utils/buffer_allocator.h **** // THE SOFTWARE.
  22:../eurorack/stmlib/utils/buffer_allocator.h **** // 
  23:../eurorack/stmlib/utils/buffer_allocator.h **** // See http://creativecommons.org/licenses/MIT/ for more information.
  24:../eurorack/stmlib/utils/buffer_allocator.h **** //
  25:../eurorack/stmlib/utils/buffer_allocator.h **** // -----------------------------------------------------------------------------
  26:../eurorack/stmlib/utils/buffer_allocator.h **** //
  27:../eurorack/stmlib/utils/buffer_allocator.h **** // Stream buffer for serialization.
  28:../eurorack/stmlib/utils/buffer_allocator.h **** 
  29:../eurorack/stmlib/utils/buffer_allocator.h **** #ifndef STMLIB_UTILS_BUFFER_ALLOCATOR_H_
  30:../eurorack/stmlib/utils/buffer_allocator.h **** #define STMLIB_UTILS_BUFFER_ALLOCATOR_H_
  31:../eurorack/stmlib/utils/buffer_allocator.h **** 
  32:../eurorack/stmlib/utils/buffer_allocator.h **** #include "stmlib/stmlib.h"
  33:../eurorack/stmlib/utils/buffer_allocator.h **** 
  34:../eurorack/stmlib/utils/buffer_allocator.h **** namespace stmlib {
  35:../eurorack/stmlib/utils/buffer_allocator.h **** 
  36:../eurorack/stmlib/utils/buffer_allocator.h **** class BufferAllocator {
  37:../eurorack/stmlib/utils/buffer_allocator.h ****  public:
  38:../eurorack/stmlib/utils/buffer_allocator.h ****   BufferAllocator() { }
  39:../eurorack/stmlib/utils/buffer_allocator.h ****   ~BufferAllocator() { }
  40:../eurorack/stmlib/utils/buffer_allocator.h ****   
  41:../eurorack/stmlib/utils/buffer_allocator.h ****   BufferAllocator(void* buffer, size_t size) {
  42:../eurorack/stmlib/utils/buffer_allocator.h ****     Init(buffer, size);
  43:../eurorack/stmlib/utils/buffer_allocator.h ****   }
  44:../eurorack/stmlib/utils/buffer_allocator.h ****   
  45:../eurorack/stmlib/utils/buffer_allocator.h ****   inline void Init(void* buffer, size_t size) {
  46:../eurorack/stmlib/utils/buffer_allocator.h ****     buffer_ = static_cast<uint8_t*>(buffer);
  47:../eurorack/stmlib/utils/buffer_allocator.h ****     size_ = size;
  48:../eurorack/stmlib/utils/buffer_allocator.h ****     Free();
  49:../eurorack/stmlib/utils/buffer_allocator.h ****   }
  50:../eurorack/stmlib/utils/buffer_allocator.h **** 
  51:../eurorack/stmlib/utils/buffer_allocator.h ****   template<typename T>
  52:../eurorack/stmlib/utils/buffer_allocator.h ****   inline T* Allocate() {
  53:../eurorack/stmlib/utils/buffer_allocator.h ****     return Allocate<T>(1);
  54:../eurorack/stmlib/utils/buffer_allocator.h ****   }
  55:../eurorack/stmlib/utils/buffer_allocator.h ****   
  56:../eurorack/stmlib/utils/buffer_allocator.h ****   template<typename T>
  57:../eurorack/stmlib/utils/buffer_allocator.h ****   inline T* Allocate(size_t size) {
 313              		.loc 7 57 13 view .LVU79
 314              	.LBB171:
 315              	.LBB172:
  58:../eurorack/stmlib/utils/buffer_allocator.h ****     size_t size_bytes = sizeof(T) * size;
ARM GAS  /var/folders/y7/g6pkzsp12sx54x3s3mvyn15r0000gn/T//ccwVequI.s 			page 36


  59:../eurorack/stmlib/utils/buffer_allocator.h ****     if (size_bytes <= free_) {
 316              		.loc 7 59 23 is_stmt 0 view .LVU80
 317 006c B368     		ldr	r3, [r6, #8]
 318              		.loc 7 59 5 view .LVU81
 319 006e BF2B     		cmp	r3, #191
 320              	.LBB173:
  60:../eurorack/stmlib/utils/buffer_allocator.h ****       T* start = static_cast<T*>(static_cast<void*>(next_));
 321              		.loc 7 60 10 view .LVU82
 322 0070 85BF     		ittet	hi
 323 0072 3268     		ldrhi	r2, [r6]
 324              	.LVL15:
  61:../eurorack/stmlib/utils/buffer_allocator.h ****       next_ += size_bytes;
  62:../eurorack/stmlib/utils/buffer_allocator.h ****       free_ -= size_bytes;
 325              		.loc 7 62 13 view .LVU83
 326 0074 C03B     		subhi	r3, r3, #192
 327              	.LBE173:
  63:../eurorack/stmlib/utils/buffer_allocator.h ****       return start;
  64:../eurorack/stmlib/utils/buffer_allocator.h ****     } else {
  65:../eurorack/stmlib/utils/buffer_allocator.h ****       return NULL;
 328              		.loc 7 65 14 view .LVU84
 329 0076 0022     		movls	r2, #0
 330              	.LVL16:
 331              	.LBB174:
  61:../eurorack/stmlib/utils/buffer_allocator.h ****       next_ += size_bytes;
 332              		.loc 7 61 13 view .LVU85
 333 0078 02F1C001 		addhi	r1, r2, #192
  62:../eurorack/stmlib/utils/buffer_allocator.h ****       return start;
 334              		.loc 7 62 13 view .LVU86
 335 007c 84BF     		itt	hi
 336 007e B360     		strhi	r3, [r6, #8]
  61:../eurorack/stmlib/utils/buffer_allocator.h ****       next_ += size_bytes;
 337              		.loc 7 61 13 view .LVU87
 338 0080 3160     		strhi	r1, [r6]
 339              	.LBE174:
 340              	.LBE172:
 341              	.LBE171:
 342              	.LBE170:
  39:../eurorack/plaits/dsp/engine/hi_hat_engine.cc **** }
 343              		.loc 1 39 16 discriminator 1 view .LVU88
 344 0082 C4F84021 		str	r2, [r4, #320]
  40:../eurorack/plaits/dsp/engine/hi_hat_engine.cc **** 
 345              		.loc 1 40 1 view .LVU89
 346 0086 70BD     		pop	{r4, r5, r6, pc}
 347              	.LVL17:
 348              	.L8:
 349              	.LBB175:
 350              	.LBB158:
 351              	.LBB155:
 352              	.LBB152:
 353              	.LBB149:
 354              	.LBB148:
 355              	.LBB147:
 356              	.LBB146:
 952:/Applications/ArmGNUToolchain/14.2.rel1/arm-none-eabi/arm-none-eabi/include/c++/14.2.1/bits/stl_algobase.h ****     }
 357              		.loc 5 952 11 view .LVU90
 358 0088 0022     		movs	r2, #0
 359 008a 43F8042B 		str	r2, [r3], #4
ARM GAS  /var/folders/y7/g6pkzsp12sx54x3s3mvyn15r0000gn/T//ccwVequI.s 			page 37


 360              	.LVL18:
 951:/Applications/ArmGNUToolchain/14.2.rel1/arm-none-eabi/arm-none-eabi/include/c++/14.2.1/bits/stl_algobase.h **** 	*__first = __tmp;
 361              		.loc 5 951 7 is_stmt 1 discriminator 2 view .LVU91
 362 008e C5E7     		b	.L7
 363              	.L14:
 364              		.align	2
 365              	.L13:
 366 0090 6F12833A 		.word	981668463
 367              	.LBE146:
 368              	.LBE147:
 369              	.LBE148:
 370              	.LBE149:
 371              	.LBE152:
 372              	.LBE155:
 373              	.LBE158:
 374              	.LBE175:
 375              		.cfi_endproc
 376              	.LFE1389:
 378              		.section	.text._ZN6stmlib16SemitonesToRatioEf,"axG",%progbits,_ZN6stmlib16SemitonesToRatioEf,comda
 379              		.align	1
 380              		.weak	_ZN6stmlib16SemitonesToRatioEf
 381              		.syntax unified
 382              		.thumb
 383              		.thumb_func
 385              	_ZN6stmlib16SemitonesToRatioEf:
 386              	.LVL19:
 387              	.LFB1310:
 388              		.file 8 "../eurorack/stmlib/dsp/units.h"
   1:../eurorack/stmlib/dsp/units.h **** // Copyright 2014 Emilie Gillet.
   2:../eurorack/stmlib/dsp/units.h **** //
   3:../eurorack/stmlib/dsp/units.h **** // Author: Emilie Gillet (emilie.o.gillet@gmail.com)
   4:../eurorack/stmlib/dsp/units.h **** //
   5:../eurorack/stmlib/dsp/units.h **** // Permission is hereby granted, free of charge, to any person obtaining a copy
   6:../eurorack/stmlib/dsp/units.h **** // of this software and associated documentation files (the "Software"), to deal
   7:../eurorack/stmlib/dsp/units.h **** // in the Software without restriction, including without limitation the rights
   8:../eurorack/stmlib/dsp/units.h **** // to use, copy, modify, merge, publish, distribute, sublicense, and/or sell
   9:../eurorack/stmlib/dsp/units.h **** // copies of the Software, and to permit persons to whom the Software is
  10:../eurorack/stmlib/dsp/units.h **** // furnished to do so, subject to the following conditions:
  11:../eurorack/stmlib/dsp/units.h **** // 
  12:../eurorack/stmlib/dsp/units.h **** // The above copyright notice and this permission notice shall be included in
  13:../eurorack/stmlib/dsp/units.h **** // all copies or substantial portions of the Software.
  14:../eurorack/stmlib/dsp/units.h **** // 
  15:../eurorack/stmlib/dsp/units.h **** // THE SOFTWARE IS PROVIDED "AS IS", WITHOUT WARRANTY OF ANY KIND, EXPRESS OR
  16:../eurorack/stmlib/dsp/units.h **** // IMPLIED, INCLUDING BUT NOT LIMITED TO THE WARRANTIES OF MERCHANTABILITY,
  17:../eurorack/stmlib/dsp/units.h **** // FITNESS FOR A PARTICULAR PURPOSE AND NONINFRINGEMENT. IN NO EVENT SHALL THE
  18:../eurorack/stmlib/dsp/units.h **** // AUTHORS OR COPYRIGHT HOLDERS BE LIABLE FOR ANY CLAIM, DAMAGES OR OTHER
  19:../eurorack/stmlib/dsp/units.h **** // LIABILITY, WHETHER IN AN ACTION OF CONTRACT, TORT OR OTHERWISE, ARISING FROM,
  20:../eurorack/stmlib/dsp/units.h **** // OUT OF OR IN CONNECTION WITH THE SOFTWARE OR THE USE OR OTHER DEALINGS IN
  21:../eurorack/stmlib/dsp/units.h **** // THE SOFTWARE.
  22:../eurorack/stmlib/dsp/units.h **** // 
  23:../eurorack/stmlib/dsp/units.h **** // See http://creativecommons.org/licenses/MIT/ for more information.
  24:../eurorack/stmlib/dsp/units.h **** //
  25:../eurorack/stmlib/dsp/units.h **** // -----------------------------------------------------------------------------
  26:../eurorack/stmlib/dsp/units.h **** //
  27:../eurorack/stmlib/dsp/units.h **** // Conversion from semitones to frequency ratio.
  28:../eurorack/stmlib/dsp/units.h **** 
  29:../eurorack/stmlib/dsp/units.h **** #ifndef STMLIB_DSP_UNITS_H_
ARM GAS  /var/folders/y7/g6pkzsp12sx54x3s3mvyn15r0000gn/T//ccwVequI.s 			page 38


  30:../eurorack/stmlib/dsp/units.h **** #define STMLIB_DSP_UNITS_H_
  31:../eurorack/stmlib/dsp/units.h **** 
  32:../eurorack/stmlib/dsp/units.h **** #include "stmlib/stmlib.h"
  33:../eurorack/stmlib/dsp/units.h **** #include "stmlib/dsp/dsp.h"
  34:../eurorack/stmlib/dsp/units.h **** 
  35:../eurorack/stmlib/dsp/units.h **** namespace stmlib {
  36:../eurorack/stmlib/dsp/units.h **** 
  37:../eurorack/stmlib/dsp/units.h **** extern const float lut_pitch_ratio_high[257];
  38:../eurorack/stmlib/dsp/units.h **** extern const float lut_pitch_ratio_low[257];
  39:../eurorack/stmlib/dsp/units.h **** 
  40:../eurorack/stmlib/dsp/units.h **** inline float SemitonesToRatio(float semitones) {
 389              		.loc 8 40 48 view -0
 390              		.cfi_startproc
 391              		@ args = 0, pretend = 0, frame = 0
 392              		@ frame_needed = 0, uses_anonymous_args = 0
 393              		@ link register save eliminated.
  41:../eurorack/stmlib/dsp/units.h ****   float pitch = semitones + 128.0f;
 394              		.loc 8 41 3 view .LVU93
 395              		.loc 8 41 9 is_stmt 0 view .LVU94
 396 0000 DFED0E7A 		vldr.32	s15, .L16
  42:../eurorack/stmlib/dsp/units.h ****   MAKE_INTEGRAL_FRACTIONAL(pitch)
  43:../eurorack/stmlib/dsp/units.h **** 
  44:../eurorack/stmlib/dsp/units.h ****   return lut_pitch_ratio_high[pitch_integral] * \
  45:../eurorack/stmlib/dsp/units.h ****       lut_pitch_ratio_low[static_cast<int32_t>(pitch_fractional * 256.0f)];
 397              		.loc 8 45 74 view .LVU95
 398 0004 0E4A     		ldr	r2, .L16+4
  41:../eurorack/stmlib/dsp/units.h ****   float pitch = semitones + 128.0f;
 399              		.loc 8 41 9 view .LVU96
 400 0006 30EE270A 		vadd.f32	s0, s0, s15
 401              	.LVL20:
  42:../eurorack/stmlib/dsp/units.h ****   MAKE_INTEGRAL_FRACTIONAL(pitch)
 402              		.loc 8 42 3 is_stmt 1 view .LVU97
 403 000a FDEEC07A 		vcvt.s32.f32	s15, s0
 404              	.LVL21:
  42:../eurorack/stmlib/dsp/units.h ****   MAKE_INTEGRAL_FRACTIONAL(pitch)
 405              		.loc 8 42 3 view .LVU98
  44:../eurorack/stmlib/dsp/units.h ****       lut_pitch_ratio_low[static_cast<int32_t>(pitch_fractional * 256.0f)];
 406              		.loc 8 44 3 view .LVU99
  42:../eurorack/stmlib/dsp/units.h ****   MAKE_INTEGRAL_FRACTIONAL(pitch)
 407              		.loc 8 42 3 is_stmt 0 view .LVU100
 408 000e B8EEE77A 		vcvt.f32.s32	s14, s15
  44:../eurorack/stmlib/dsp/units.h ****       lut_pitch_ratio_low[static_cast<int32_t>(pitch_fractional * 256.0f)];
 409              		.loc 8 44 45 view .LVU101
 410 0012 17EE901A 		vmov	r1, s15	@ int
  42:../eurorack/stmlib/dsp/units.h ****   MAKE_INTEGRAL_FRACTIONAL(pitch)
 411              		.loc 8 42 3 view .LVU102
 412 0016 30EE470A 		vsub.f32	s0, s0, s14
 413              	.LVL22:
 414              		.loc 8 45 27 view .LVU103
 415 001a BEEECC0A 		vcvt.s32.f32	s0, s0, #8
 416              	.LVL23:
 417              		.loc 8 45 74 view .LVU104
 418 001e 10EE103A 		vmov	r3, s0	@ int
 419 0022 02EB8302 		add	r2, r2, r3, lsl #2
  44:../eurorack/stmlib/dsp/units.h ****       lut_pitch_ratio_low[static_cast<int32_t>(pitch_fractional * 256.0f)];
 420              		.loc 8 44 45 view .LVU105
 421 0026 074B     		ldr	r3, .L16+8
ARM GAS  /var/folders/y7/g6pkzsp12sx54x3s3mvyn15r0000gn/T//ccwVequI.s 			page 39


 422 0028 03EB8103 		add	r3, r3, r1, lsl #2
 423              		.loc 8 45 74 view .LVU106
 424 002c 92ED000A 		vldr.32	s0, [r2]
 425 0030 D3ED007A 		vldr.32	s15, [r3]
 426              	.LVL24:
  46:../eurorack/stmlib/dsp/units.h **** }
 427              		.loc 8 46 1 view .LVU107
 428 0034 20EE270A 		vmul.f32	s0, s0, s15
 429 0038 7047     		bx	lr
 430              	.L17:
 431 003a 00BF     		.align	2
 432              	.L16:
 433 003c 00000043 		.word	1124073472
 434 0040 00000000 		.word	_ZN6stmlib19lut_pitch_ratio_lowE
 435 0044 00000000 		.word	_ZN6stmlib20lut_pitch_ratio_highE
 436              		.cfi_endproc
 437              	.LFE1310:
 439              		.section	.text._ZN6stmlib6Random8GetFloatEv,"axG",%progbits,_ZN6stmlib6Random8GetFloatEv,comdat
 440              		.align	1
 441              		.weak	_ZN6stmlib6Random8GetFloatEv
 442              		.syntax unified
 443              		.thumb
 444              		.thumb_func
 446              	_ZN6stmlib6Random8GetFloatEv:
 447              	.LFB1317:
 448              		.file 9 "../eurorack/stmlib/utils/random.h"
   1:../eurorack/stmlib/utils/random.h **** // Copyright 2012 Emilie Gillet.
   2:../eurorack/stmlib/utils/random.h **** //
   3:../eurorack/stmlib/utils/random.h **** // Author: Emilie Gillet (emilie.o.gillet@gmail.com)
   4:../eurorack/stmlib/utils/random.h **** //
   5:../eurorack/stmlib/utils/random.h **** // Permission is hereby granted, free of charge, to any person obtaining a copy
   6:../eurorack/stmlib/utils/random.h **** // of this software and associated documentation files (the "Software"), to deal
   7:../eurorack/stmlib/utils/random.h **** // in the Software without restriction, including without limitation the rights
   8:../eurorack/stmlib/utils/random.h **** // to use, copy, modify, merge, publish, distribute, sublicense, and/or sell
   9:../eurorack/stmlib/utils/random.h **** // copies of the Software, and to permit persons to whom the Software is
  10:../eurorack/stmlib/utils/random.h **** // furnished to do so, subject to the following conditions:
  11:../eurorack/stmlib/utils/random.h **** // 
  12:../eurorack/stmlib/utils/random.h **** // The above copyright notice and this permission notice shall be included in
  13:../eurorack/stmlib/utils/random.h **** // all copies or substantial portions of the Software.
  14:../eurorack/stmlib/utils/random.h **** // 
  15:../eurorack/stmlib/utils/random.h **** // THE SOFTWARE IS PROVIDED "AS IS", WITHOUT WARRANTY OF ANY KIND, EXPRESS OR
  16:../eurorack/stmlib/utils/random.h **** // IMPLIED, INCLUDING BUT NOT LIMITED TO THE WARRANTIES OF MERCHANTABILITY,
  17:../eurorack/stmlib/utils/random.h **** // FITNESS FOR A PARTICULAR PURPOSE AND NONINFRINGEMENT. IN NO EVENT SHALL THE
  18:../eurorack/stmlib/utils/random.h **** // AUTHORS OR COPYRIGHT HOLDERS BE LIABLE FOR ANY CLAIM, DAMAGES OR OTHER
  19:../eurorack/stmlib/utils/random.h **** // LIABILITY, WHETHER IN AN ACTION OF CONTRACT, TORT OR OTHERWISE, ARISING FROM,
  20:../eurorack/stmlib/utils/random.h **** // OUT OF OR IN CONNECTION WITH THE SOFTWARE OR THE USE OR OTHER DEALINGS IN
  21:../eurorack/stmlib/utils/random.h **** // THE SOFTWARE.
  22:../eurorack/stmlib/utils/random.h **** // 
  23:../eurorack/stmlib/utils/random.h **** // See http://creativecommons.org/licenses/MIT/ for more information.
  24:../eurorack/stmlib/utils/random.h **** //
  25:../eurorack/stmlib/utils/random.h **** // -----------------------------------------------------------------------------
  26:../eurorack/stmlib/utils/random.h **** //
  27:../eurorack/stmlib/utils/random.h **** // Fast 16-bit pseudo random number generator.
  28:../eurorack/stmlib/utils/random.h **** 
  29:../eurorack/stmlib/utils/random.h **** #ifndef STMLIB_UTILS_RANDOM_H_
  30:../eurorack/stmlib/utils/random.h **** #define STMLIB_UTILS_RANDOM_H_
  31:../eurorack/stmlib/utils/random.h **** 
ARM GAS  /var/folders/y7/g6pkzsp12sx54x3s3mvyn15r0000gn/T//ccwVequI.s 			page 40


  32:../eurorack/stmlib/utils/random.h **** #include "stmlib/stmlib.h"
  33:../eurorack/stmlib/utils/random.h **** 
  34:../eurorack/stmlib/utils/random.h **** namespace stmlib {
  35:../eurorack/stmlib/utils/random.h **** 
  36:../eurorack/stmlib/utils/random.h **** class Random {
  37:../eurorack/stmlib/utils/random.h ****  public:
  38:../eurorack/stmlib/utils/random.h ****   static inline uint32_t state() { return rng_state_; }
  39:../eurorack/stmlib/utils/random.h **** 
  40:../eurorack/stmlib/utils/random.h ****   static inline void Seed(uint32_t seed) {
  41:../eurorack/stmlib/utils/random.h ****     rng_state_ = seed;
  42:../eurorack/stmlib/utils/random.h ****   }
  43:../eurorack/stmlib/utils/random.h **** 
  44:../eurorack/stmlib/utils/random.h ****   static inline uint32_t GetWord() {
  45:../eurorack/stmlib/utils/random.h ****     rng_state_ = rng_state_ * 1664525L + 1013904223L;
  46:../eurorack/stmlib/utils/random.h ****     return state();
  47:../eurorack/stmlib/utils/random.h ****   }
  48:../eurorack/stmlib/utils/random.h ****   
  49:../eurorack/stmlib/utils/random.h ****   static inline int16_t GetSample() {
  50:../eurorack/stmlib/utils/random.h ****     return static_cast<int16_t>(GetWord() >> 16);
  51:../eurorack/stmlib/utils/random.h ****   }
  52:../eurorack/stmlib/utils/random.h **** 
  53:../eurorack/stmlib/utils/random.h ****   static inline float GetFloat() {
 449              		.loc 9 53 23 is_stmt 1 view -0
 450              		.cfi_startproc
 451              		@ args = 0, pretend = 0, frame = 0
 452              		@ frame_needed = 0, uses_anonymous_args = 0
 453              		@ link register save eliminated.
  54:../eurorack/stmlib/utils/random.h ****     return static_cast<float>(GetWord()) / 4294967296.0f;
 454              		.loc 9 54 5 view .LVU109
 455              	.LBB178:
 456              	.LBI178:
  44:../eurorack/stmlib/utils/random.h ****     rng_state_ = rng_state_ * 1664525L + 1013904223L;
 457              		.loc 9 44 26 view .LVU110
 458              	.LBB179:
  45:../eurorack/stmlib/utils/random.h ****     return state();
 459              		.loc 9 45 5 view .LVU111
  45:../eurorack/stmlib/utils/random.h ****     return state();
 460              		.loc 9 45 29 is_stmt 0 view .LVU112
 461 0000 074A     		ldr	r2, .L19
  45:../eurorack/stmlib/utils/random.h ****     return state();
 462              		.loc 9 45 40 view .LVU113
 463 0002 0848     		ldr	r0, .L19+4
  45:../eurorack/stmlib/utils/random.h ****     return state();
 464              		.loc 9 45 29 view .LVU114
 465 0004 1168     		ldr	r1, [r2]
  45:../eurorack/stmlib/utils/random.h ****     return state();
 466              		.loc 9 45 40 view .LVU115
 467 0006 084B     		ldr	r3, .L19+8
 468 0008 00FB0133 		mla	r3, r0, r1, r3
 469              	.LBE179:
 470              	.LBE178:
 471              		.loc 9 54 12 discriminator 1 view .LVU116
 472 000c 07EE903A 		vmov	s15, r3	@ int
 473              	.LBB181:
 474              	.LBB180:
  45:../eurorack/stmlib/utils/random.h ****     return state();
 475              		.loc 9 45 16 view .LVU117
ARM GAS  /var/folders/y7/g6pkzsp12sx54x3s3mvyn15r0000gn/T//ccwVequI.s 			page 41


 476 0010 1360     		str	r3, [r2]
  46:../eurorack/stmlib/utils/random.h ****   }
 477              		.loc 9 46 5 is_stmt 1 view .LVU118
 478              	.LBE180:
 479              	.LBE181:
 480              		.loc 9 54 12 is_stmt 0 discriminator 1 view .LVU119
 481 0012 B8EE670A 		vcvt.f32.u32	s0, s15
  55:../eurorack/stmlib/utils/random.h ****   }
 482              		.loc 9 55 3 view .LVU120
 483 0016 DFED057A 		vldr.32	s15, .L19+12
 484 001a 20EE270A 		vmul.f32	s0, s0, s15
 485 001e 7047     		bx	lr
 486              	.L20:
 487              		.align	2
 488              	.L19:
 489 0020 00000000 		.word	_ZN6stmlib6Random10rng_state_E
 490 0024 0D661900 		.word	1664525
 491 0028 5FF36E3C 		.word	1013904223
 492 002c 0000802F 		.word	796917760
 493              		.cfi_endproc
 494              	.LFE1317:
 496              		.section	.text._ZN6plaits12RingModNoise6RenderEfPfS1_S1_j,"axG",%progbits,_ZN6plaits12RingModNoise
 497              		.align	1
 498              		.weak	_ZN6plaits12RingModNoise6RenderEfPfS1_S1_j
 499              		.syntax unified
 500              		.thumb
 501              		.thumb_func
 503              	_ZN6plaits12RingModNoise6RenderEfPfS1_S1_j:
 504              	.LVL25:
 505              	.LFB1347:
 111:../eurorack/plaits/dsp/drums/hi_hat.h ****     const float ratio = f0 / (0.01f + f0);
 506              		.loc 4 111 8 is_stmt 1 view -0
 507              		.cfi_startproc
 508              		@ args = 4, pretend = 0, frame = 24
 509              		@ frame_needed = 0, uses_anonymous_args = 0
 112:../eurorack/plaits/dsp/drums/hi_hat.h ****     const float f1a = 200.0f / kSampleRate * ratio;
 510              		.loc 4 112 5 view .LVU122
 112:../eurorack/plaits/dsp/drums/hi_hat.h ****     const float f1a = 200.0f / kSampleRate * ratio;
 511              		.loc 4 112 37 is_stmt 0 view .LVU123
 512 0000 9FED997A 		vldr.32	s14, .L50
 513 0004 30EE077A 		vadd.f32	s14, s0, s14
 111:../eurorack/plaits/dsp/drums/hi_hat.h ****     const float ratio = f0 / (0.01f + f0);
 514              		.loc 4 111 8 view .LVU124
 515 0008 F0B5     		push	{r4, r5, r6, r7, lr}
 516              		.cfi_def_cfa_offset 20
 517              		.cfi_offset 4, -20
 518              		.cfi_offset 5, -16
 519              		.cfi_offset 6, -12
 520              		.cfi_offset 7, -8
 521              		.cfi_offset 14, -4
 112:../eurorack/plaits/dsp/drums/hi_hat.h ****     const float f1a = 200.0f / kSampleRate * ratio;
 522              		.loc 4 112 17 view .LVU125
 523 000a C0EE077A 		vdiv.f32	s15, s0, s14
 524              	.LVL26:
 113:../eurorack/plaits/dsp/drums/hi_hat.h ****     const float f1b = 7530.0f / kSampleRate * ratio;
 525              		.loc 4 113 5 is_stmt 1 view .LVU126
 114:../eurorack/plaits/dsp/drums/hi_hat.h ****     const float f2a = 510.0f / kSampleRate * ratio;
ARM GAS  /var/folders/y7/g6pkzsp12sx54x3s3mvyn15r0000gn/T//ccwVequI.s 			page 42


 526              		.loc 4 114 5 view .LVU127
 115:../eurorack/plaits/dsp/drums/hi_hat.h ****     const float f2b = 8075.0f / kSampleRate * ratio;
 527              		.loc 4 115 5 view .LVU128
 116:../eurorack/plaits/dsp/drums/hi_hat.h ****     const float f3a = 730.0f / kSampleRate * ratio;
 528              		.loc 4 116 5 view .LVU129
 117:../eurorack/plaits/dsp/drums/hi_hat.h ****     const float f3b = 10500.0f / kSampleRate * ratio;
 529              		.loc 4 117 5 view .LVU130
 118:../eurorack/plaits/dsp/drums/hi_hat.h ****     const float f[3][2] = { { f1a, f1b }, { f2a, f2b }, { f3a, f3b } };
 530              		.loc 4 118 5 view .LVU131
 119:../eurorack/plaits/dsp/drums/hi_hat.h ****     
 531              		.loc 4 119 5 view .LVU132
 113:../eurorack/plaits/dsp/drums/hi_hat.h ****     const float f1b = 7530.0f / kSampleRate * ratio;
 532              		.loc 4 113 17 is_stmt 0 view .LVU133
 533 000e 9FED977A 		vldr.32	s14, .L50+4
 111:../eurorack/plaits/dsp/drums/hi_hat.h ****     const float ratio = f0 / (0.01f + f0);
 534              		.loc 4 111 8 view .LVU134
 535 0012 87B0     		sub	sp, sp, #28
 536              		.cfi_def_cfa_offset 48
 121:../eurorack/plaits/dsp/drums/hi_hat.h ****     
 537              		.loc 4 121 14 view .LVU135
 538 0014 0C9C     		ldr	r4, [sp, #48]
 539 0016 03EB8405 		add	r5, r3, r4, lsl #2
 540              	.LBB300:
 541              	.LBB301:
 542              	.LBB302:
 543              	.LBB303:
 951:/Applications/ArmGNUToolchain/14.2.rel1/arm-none-eabi/arm-none-eabi/include/c++/14.2.1/bits/stl_algobase.h **** 	*__first = __tmp;
 544              		.loc 5 951 7 view .LVU136
 545 001a 1C46     		mov	r4, r3
 546              	.LBE303:
 547              	.LBE302:
 548              	.LBE301:
 549              	.LBE300:
 113:../eurorack/plaits/dsp/drums/hi_hat.h ****     const float f1b = 7530.0f / kSampleRate * ratio;
 550              		.loc 4 113 17 view .LVU137
 551 001c 27EE877A 		vmul.f32	s14, s15, s14
 552              	.LVL27:
 119:../eurorack/plaits/dsp/drums/hi_hat.h ****     
 553              		.loc 4 119 70 view .LVU138
 554 0020 8DED007A 		vstr.32	s14, [sp]
 114:../eurorack/plaits/dsp/drums/hi_hat.h ****     const float f2a = 510.0f / kSampleRate * ratio;
 555              		.loc 4 114 17 view .LVU139
 556 0024 9FED927A 		vldr.32	s14, .L50+8
 557              	.LVL28:
 114:../eurorack/plaits/dsp/drums/hi_hat.h ****     const float f2a = 510.0f / kSampleRate * ratio;
 558              		.loc 4 114 17 view .LVU140
 559 0028 27EE877A 		vmul.f32	s14, s15, s14
 560              	.LVL29:
 119:../eurorack/plaits/dsp/drums/hi_hat.h ****     
 561              		.loc 4 119 70 view .LVU141
 562 002c 8DED017A 		vstr.32	s14, [sp, #4]
 115:../eurorack/plaits/dsp/drums/hi_hat.h ****     const float f2b = 8075.0f / kSampleRate * ratio;
 563              		.loc 4 115 17 view .LVU142
 564 0030 9FED907A 		vldr.32	s14, .L50+12
 565              	.LVL30:
 115:../eurorack/plaits/dsp/drums/hi_hat.h ****     const float f2b = 8075.0f / kSampleRate * ratio;
 566              		.loc 4 115 17 view .LVU143
ARM GAS  /var/folders/y7/g6pkzsp12sx54x3s3mvyn15r0000gn/T//ccwVequI.s 			page 43


 567 0034 27EE877A 		vmul.f32	s14, s15, s14
 568              	.LVL31:
 119:../eurorack/plaits/dsp/drums/hi_hat.h ****     
 569              		.loc 4 119 70 view .LVU144
 570 0038 8DED027A 		vstr.32	s14, [sp, #8]
 116:../eurorack/plaits/dsp/drums/hi_hat.h ****     const float f3a = 730.0f / kSampleRate * ratio;
 571              		.loc 4 116 17 view .LVU145
 572 003c 9FED8E7A 		vldr.32	s14, .L50+16
 573              	.LVL32:
 116:../eurorack/plaits/dsp/drums/hi_hat.h ****     const float f3a = 730.0f / kSampleRate * ratio;
 574              		.loc 4 116 17 view .LVU146
 575 0040 27EE877A 		vmul.f32	s14, s15, s14
 576              	.LVL33:
 119:../eurorack/plaits/dsp/drums/hi_hat.h ****     
 577              		.loc 4 119 70 view .LVU147
 578 0044 8DED037A 		vstr.32	s14, [sp, #12]
 117:../eurorack/plaits/dsp/drums/hi_hat.h ****     const float f3b = 10500.0f / kSampleRate * ratio;
 579              		.loc 4 117 17 view .LVU148
 580 0048 9FED8C7A 		vldr.32	s14, .L50+20
 581              	.LVL34:
 117:../eurorack/plaits/dsp/drums/hi_hat.h ****     const float f3b = 10500.0f / kSampleRate * ratio;
 582              		.loc 4 117 17 view .LVU149
 583 004c 27EE877A 		vmul.f32	s14, s15, s14
 584              	.LVL35:
 119:../eurorack/plaits/dsp/drums/hi_hat.h ****     
 585              		.loc 4 119 70 view .LVU150
 586 0050 8DED047A 		vstr.32	s14, [sp, #16]
 118:../eurorack/plaits/dsp/drums/hi_hat.h ****     const float f[3][2] = { { f1a, f1b }, { f2a, f2b }, { f3a, f3b } };
 587              		.loc 4 118 17 view .LVU151
 588 0054 B4EE0C7A 		vmov.f32	s14, #2.1875e-1
 589              	.LVL36:
 118:../eurorack/plaits/dsp/drums/hi_hat.h ****     const float f[3][2] = { { f1a, f1b }, { f2a, f2b }, { f3a, f3b } };
 590              		.loc 4 118 17 view .LVU152
 591 0058 67EE877A 		vmul.f32	s15, s15, s14
 592              	.LVL37:
 119:../eurorack/plaits/dsp/drums/hi_hat.h ****     
 593              		.loc 4 119 70 view .LVU153
 594 005c CDED057A 		vstr.32	s15, [sp, #20]
 121:../eurorack/plaits/dsp/drums/hi_hat.h ****     
 595              		.loc 4 121 5 is_stmt 1 view .LVU154
 596              	.LVL38:
 597              	.LBB310:
 598              	.LBI300:
 599              		.loc 5 1022 5 view .LVU155
 600              	.LBB308:
 601              	.LBI301:
 997:/Applications/ArmGNUToolchain/14.2.rel1/arm-none-eabi/arm-none-eabi/include/c++/14.2.1/bits/stl_algobase.h ****     { std::__fill_a1(__first, __last, __value); }
 602              		.loc 5 997 5 view .LVU156
 603              	.LBB306:
 604              	.LBI302:
 947:/Applications/ArmGNUToolchain/14.2.rel1/arm-none-eabi/arm-none-eabi/include/c++/14.2.1/bits/stl_algobase.h **** 	      const _Tp& __value)
 605              		.loc 5 947 5 view .LVU157
 606              	.L22:
 607              	.LBB304:
 951:/Applications/ArmGNUToolchain/14.2.rel1/arm-none-eabi/arm-none-eabi/include/c++/14.2.1/bits/stl_algobase.h **** 	*__first = __tmp;
 608              		.loc 5 951 22 discriminator 1 view .LVU158
 609 0060 A542     		cmp	r5, r4
ARM GAS  /var/folders/y7/g6pkzsp12sx54x3s3mvyn15r0000gn/T//ccwVequI.s 			page 44


 610 0062 66D1     		bne	.L23
 611 0064 6E46     		mov	r6, sp
 612 0066 00F1A80E 		add	lr, r0, #168
 613              	.LVL39:
 614              	.L39:
 951:/Applications/ArmGNUToolchain/14.2.rel1/arm-none-eabi/arm-none-eabi/include/c++/14.2.1/bits/stl_algobase.h **** 	*__first = __tmp;
 615              		.loc 5 951 22 is_stmt 0 discriminator 1 view .LVU159
 616              	.LBE304:
 617              	.LBE306:
 618              	.LBE308:
 619              	.LBE310:
 620              	.LBB311:
 124:../eurorack/plaits/dsp/drums/hi_hat.h ****     }
 621              		.loc 4 124 7 is_stmt 1 view .LVU160
 622              	.LBB312:
 623              	.LBI312:
 129:../eurorack/plaits/dsp/drums/hi_hat.h ****       Oscillator* osc,
 624              		.loc 4 129 8 view .LVU161
 625              	.LBB313:
 136:../eurorack/plaits/dsp/drums/hi_hat.h ****     osc[1].Render<OSCILLATOR_SHAPE_SAW>(f[1], 0.5f, temp_2, size);
 626              		.loc 4 136 5 view .LVU162
 136:../eurorack/plaits/dsp/drums/hi_hat.h ****     osc[1].Render<OSCILLATOR_SHAPE_SAW>(f[1], 0.5f, temp_2, size);
 627              		.loc 4 136 43 is_stmt 0 view .LVU163
 628 006a 96ED007A 		vldr.32	s14, [r6]
 629              	.LVL40:
 630              	.LBB314:
 631              	.LBI314:
  67:../eurorack/plaits/dsp/oscillator/oscillator.h ****   }
  68:../eurorack/plaits/dsp/oscillator/oscillator.h **** 
  69:../eurorack/plaits/dsp/oscillator/oscillator.h ****   template<OscillatorShape shape>
  70:../eurorack/plaits/dsp/oscillator/oscillator.h ****   void Render(float frequency, float pw, float* out, size_t size) {
 632              		.loc 6 70 8 is_stmt 1 view .LVU164
 633              	.LBB315:
