ARM GAS  /var/folders/y7/g6pkzsp12sx54x3s3mvyn15r0000gn/T//ccaxSVHj.s 			page 1


   1              		.cpu cortex-m7
   2              		.arch armv7e-m
   3              		.fpu fpv5-d16
   4              		.eabi_attribute 28, 1
   5              		.eabi_attribute 20, 1
   6              		.eabi_attribute 21, 1
   7              		.eabi_attribute 23, 3
   8              		.eabi_attribute 24, 1
   9              		.eabi_attribute 25, 1
  10              		.eabi_attribute 26, 1
  11              		.eabi_attribute 30, 4
  12              		.eabi_attribute 34, 1
  13              		.eabi_attribute 18, 4
  14              		.file	"modal_voice.cc"
  15              		.text
  16              	.Ltext0:
  17              		.cfi_sections	.debug_frame
  18              		.file 1 "../eurorack/plaits/dsp/physical_modelling/modal_voice.cc"
  19              		.section	.text._ZN6stmlib16SemitonesToRatioEf,"axG",%progbits,_ZN6stmlib16SemitonesToRatioEf,comda
  20              		.align	1
  21              		.weak	_ZN6stmlib16SemitonesToRatioEf
  22              		.syntax unified
  23              		.thumb
  24              		.thumb_func
  26              	_ZN6stmlib16SemitonesToRatioEf:
  27              	.LVL0:
  28              	.LFB1311:
  29              		.file 2 "../eurorack/stmlib/dsp/units.h"
   1:../eurorack/stmlib/dsp/units.h **** // Copyright 2014 Emilie Gillet.
   2:../eurorack/stmlib/dsp/units.h **** //
   3:../eurorack/stmlib/dsp/units.h **** // Author: Emilie Gillet (emilie.o.gillet@gmail.com)
   4:../eurorack/stmlib/dsp/units.h **** //
   5:../eurorack/stmlib/dsp/units.h **** // Permission is hereby granted, free of charge, to any person obtaining a copy
   6:../eurorack/stmlib/dsp/units.h **** // of this software and associated documentation files (the "Software"), to deal
   7:../eurorack/stmlib/dsp/units.h **** // in the Software without restriction, including without limitation the rights
   8:../eurorack/stmlib/dsp/units.h **** // to use, copy, modify, merge, publish, distribute, sublicense, and/or sell
   9:../eurorack/stmlib/dsp/units.h **** // copies of the Software, and to permit persons to whom the Software is
  10:../eurorack/stmlib/dsp/units.h **** // furnished to do so, subject to the following conditions:
  11:../eurorack/stmlib/dsp/units.h **** // 
  12:../eurorack/stmlib/dsp/units.h **** // The above copyright notice and this permission notice shall be included in
  13:../eurorack/stmlib/dsp/units.h **** // all copies or substantial portions of the Software.
  14:../eurorack/stmlib/dsp/units.h **** // 
  15:../eurorack/stmlib/dsp/units.h **** // THE SOFTWARE IS PROVIDED "AS IS", WITHOUT WARRANTY OF ANY KIND, EXPRESS OR
  16:../eurorack/stmlib/dsp/units.h **** // IMPLIED, INCLUDING BUT NOT LIMITED TO THE WARRANTIES OF MERCHANTABILITY,
  17:../eurorack/stmlib/dsp/units.h **** // FITNESS FOR A PARTICULAR PURPOSE AND NONINFRINGEMENT. IN NO EVENT SHALL THE
  18:../eurorack/stmlib/dsp/units.h **** // AUTHORS OR COPYRIGHT HOLDERS BE LIABLE FOR ANY CLAIM, DAMAGES OR OTHER
  19:../eurorack/stmlib/dsp/units.h **** // LIABILITY, WHETHER IN AN ACTION OF CONTRACT, TORT OR OTHERWISE, ARISING FROM,
  20:../eurorack/stmlib/dsp/units.h **** // OUT OF OR IN CONNECTION WITH THE SOFTWARE OR THE USE OR OTHER DEALINGS IN
  21:../eurorack/stmlib/dsp/units.h **** // THE SOFTWARE.
  22:../eurorack/stmlib/dsp/units.h **** // 
  23:../eurorack/stmlib/dsp/units.h **** // See http://creativecommons.org/licenses/MIT/ for more information.
  24:../eurorack/stmlib/dsp/units.h **** //
  25:../eurorack/stmlib/dsp/units.h **** // -----------------------------------------------------------------------------
  26:../eurorack/stmlib/dsp/units.h **** //
  27:../eurorack/stmlib/dsp/units.h **** // Conversion from semitones to frequency ratio.
  28:../eurorack/stmlib/dsp/units.h **** 
  29:../eurorack/stmlib/dsp/units.h **** #ifndef STMLIB_DSP_UNITS_H_
ARM GAS  /var/folders/y7/g6pkzsp12sx54x3s3mvyn15r0000gn/T//ccaxSVHj.s 			page 2


  30:../eurorack/stmlib/dsp/units.h **** #define STMLIB_DSP_UNITS_H_
  31:../eurorack/stmlib/dsp/units.h **** 
  32:../eurorack/stmlib/dsp/units.h **** #include "stmlib/stmlib.h"
  33:../eurorack/stmlib/dsp/units.h **** #include "stmlib/dsp/dsp.h"
  34:../eurorack/stmlib/dsp/units.h **** 
  35:../eurorack/stmlib/dsp/units.h **** namespace stmlib {
  36:../eurorack/stmlib/dsp/units.h **** 
  37:../eurorack/stmlib/dsp/units.h **** extern const float lut_pitch_ratio_high[257];
  38:../eurorack/stmlib/dsp/units.h **** extern const float lut_pitch_ratio_low[257];
  39:../eurorack/stmlib/dsp/units.h **** 
  40:../eurorack/stmlib/dsp/units.h **** inline float SemitonesToRatio(float semitones) {
  30              		.loc 2 40 48 view -0
  31              		.cfi_startproc
  32              		@ args = 0, pretend = 0, frame = 0
  33              		@ frame_needed = 0, uses_anonymous_args = 0
  34              		@ link register save eliminated.
  41:../eurorack/stmlib/dsp/units.h ****   float pitch = semitones + 128.0f;
  35              		.loc 2 41 3 view .LVU1
  36              		.loc 2 41 9 is_stmt 0 view .LVU2
  37 0000 DFED0E7A 		vldr.32	s15, .L2
  42:../eurorack/stmlib/dsp/units.h ****   MAKE_INTEGRAL_FRACTIONAL(pitch)
  43:../eurorack/stmlib/dsp/units.h **** 
  44:../eurorack/stmlib/dsp/units.h ****   return lut_pitch_ratio_high[pitch_integral] * \
  45:../eurorack/stmlib/dsp/units.h ****       lut_pitch_ratio_low[static_cast<int32_t>(pitch_fractional * 256.0f)];
  38              		.loc 2 45 74 view .LVU3
  39 0004 0E4A     		ldr	r2, .L2+4
  41:../eurorack/stmlib/dsp/units.h ****   float pitch = semitones + 128.0f;
  40              		.loc 2 41 9 view .LVU4
  41 0006 30EE270A 		vadd.f32	s0, s0, s15
  42              	.LVL1:
  42:../eurorack/stmlib/dsp/units.h ****   MAKE_INTEGRAL_FRACTIONAL(pitch)
  43              		.loc 2 42 3 is_stmt 1 view .LVU5
  44 000a FDEEC07A 		vcvt.s32.f32	s15, s0
  45              	.LVL2:
  42:../eurorack/stmlib/dsp/units.h ****   MAKE_INTEGRAL_FRACTIONAL(pitch)
  46              		.loc 2 42 3 view .LVU6
  44:../eurorack/stmlib/dsp/units.h ****       lut_pitch_ratio_low[static_cast<int32_t>(pitch_fractional * 256.0f)];
  47              		.loc 2 44 3 view .LVU7
  42:../eurorack/stmlib/dsp/units.h ****   MAKE_INTEGRAL_FRACTIONAL(pitch)
  48              		.loc 2 42 3 is_stmt 0 view .LVU8
  49 000e B8EEE77A 		vcvt.f32.s32	s14, s15
  44:../eurorack/stmlib/dsp/units.h ****       lut_pitch_ratio_low[static_cast<int32_t>(pitch_fractional * 256.0f)];
  50              		.loc 2 44 45 view .LVU9
  51 0012 17EE901A 		vmov	r1, s15	@ int
  42:../eurorack/stmlib/dsp/units.h ****   MAKE_INTEGRAL_FRACTIONAL(pitch)
  52              		.loc 2 42 3 view .LVU10
  53 0016 30EE470A 		vsub.f32	s0, s0, s14
  54              	.LVL3:
  55              		.loc 2 45 27 view .LVU11
  56 001a BEEECC0A 		vcvt.s32.f32	s0, s0, #8
  57              	.LVL4:
  58              		.loc 2 45 74 view .LVU12
  59 001e 10EE103A 		vmov	r3, s0	@ int
  60 0022 02EB8302 		add	r2, r2, r3, lsl #2
  44:../eurorack/stmlib/dsp/units.h ****       lut_pitch_ratio_low[static_cast<int32_t>(pitch_fractional * 256.0f)];
  61              		.loc 2 44 45 view .LVU13
  62 0026 074B     		ldr	r3, .L2+8
ARM GAS  /var/folders/y7/g6pkzsp12sx54x3s3mvyn15r0000gn/T//ccaxSVHj.s 			page 3


  63 0028 03EB8103 		add	r3, r3, r1, lsl #2
  64              		.loc 2 45 74 view .LVU14
  65 002c 92ED000A 		vldr.32	s0, [r2]
  66 0030 D3ED007A 		vldr.32	s15, [r3]
  67              	.LVL5:
  46:../eurorack/stmlib/dsp/units.h **** }
  68              		.loc 2 46 1 view .LVU15
  69 0034 20EE270A 		vmul.f32	s0, s0, s15
  70 0038 7047     		bx	lr
  71              	.L3:
  72 003a 00BF     		.align	2
  73              	.L2:
  74 003c 00000043 		.word	1124073472
  75 0040 00000000 		.word	_ZN6stmlib19lut_pitch_ratio_lowE
  76 0044 00000000 		.word	_ZN6stmlib20lut_pitch_ratio_highE
  77              		.cfi_endproc
  78              	.LFE1311:
  80              		.section	.text._ZN6plaits10ModalVoice4InitEv,"ax",%progbits
  81              		.align	1
  82              		.global	_ZN6plaits10ModalVoice4InitEv
  83              		.syntax unified
  84              		.thumb
  85              		.thumb_func
  87              	_ZN6plaits10ModalVoice4InitEv:
  88              	.LVL6:
  89              	.LFB1320:
   1:../eurorack/plaits/dsp/physical_modelling/modal_voice.cc **** // Copyright 2016 Emilie Gillet.
   2:../eurorack/plaits/dsp/physical_modelling/modal_voice.cc **** //
   3:../eurorack/plaits/dsp/physical_modelling/modal_voice.cc **** // Author: Emilie Gillet (emilie.o.gillet@gmail.com)
   4:../eurorack/plaits/dsp/physical_modelling/modal_voice.cc **** //
   5:../eurorack/plaits/dsp/physical_modelling/modal_voice.cc **** // Permission is hereby granted, free of charge, to any person obtaining a copy
   6:../eurorack/plaits/dsp/physical_modelling/modal_voice.cc **** // of this software and associated documentation files (the "Software"), to deal
   7:../eurorack/plaits/dsp/physical_modelling/modal_voice.cc **** // in the Software without restriction, including without limitation the rights
   8:../eurorack/plaits/dsp/physical_modelling/modal_voice.cc **** // to use, copy, modify, merge, publish, distribute, sublicense, and/or sell
   9:../eurorack/plaits/dsp/physical_modelling/modal_voice.cc **** // copies of the Software, and to permit persons to whom the Software is
  10:../eurorack/plaits/dsp/physical_modelling/modal_voice.cc **** // furnished to do so, subject to the following conditions:
  11:../eurorack/plaits/dsp/physical_modelling/modal_voice.cc **** // 
  12:../eurorack/plaits/dsp/physical_modelling/modal_voice.cc **** // The above copyright notice and this permission notice shall be included in
  13:../eurorack/plaits/dsp/physical_modelling/modal_voice.cc **** // all copies or substantial portions of the Software.
  14:../eurorack/plaits/dsp/physical_modelling/modal_voice.cc **** // 
  15:../eurorack/plaits/dsp/physical_modelling/modal_voice.cc **** // THE SOFTWARE IS PROVIDED "AS IS", WITHOUT WARRANTY OF ANY KIND, EXPRESS OR
  16:../eurorack/plaits/dsp/physical_modelling/modal_voice.cc **** // IMPLIED, INCLUDING BUT NOT LIMITED TO THE WARRANTIES OF MERCHANTABILITY,
  17:../eurorack/plaits/dsp/physical_modelling/modal_voice.cc **** // FITNESS FOR A PARTICULAR PURPOSE AND NONINFRINGEMENT. IN NO EVENT SHALL THE
  18:../eurorack/plaits/dsp/physical_modelling/modal_voice.cc **** // AUTHORS OR COPYRIGHT HOLDERS BE LIABLE FOR ANY CLAIM, DAMAGES OR OTHER
  19:../eurorack/plaits/dsp/physical_modelling/modal_voice.cc **** // LIABILITY, WHETHER IN AN ACTION OF CONTRACT, TORT OR OTHERWISE, ARISING FROM,
  20:../eurorack/plaits/dsp/physical_modelling/modal_voice.cc **** // OUT OF OR IN CONNECTION WITH THE SOFTWARE OR THE USE OR OTHER DEALINGS IN
  21:../eurorack/plaits/dsp/physical_modelling/modal_voice.cc **** // THE SOFTWARE.
  22:../eurorack/plaits/dsp/physical_modelling/modal_voice.cc **** // 
  23:../eurorack/plaits/dsp/physical_modelling/modal_voice.cc **** // See http://creativecommons.org/licenses/MIT/ for more information.
  24:../eurorack/plaits/dsp/physical_modelling/modal_voice.cc **** //
  25:../eurorack/plaits/dsp/physical_modelling/modal_voice.cc **** // -----------------------------------------------------------------------------
  26:../eurorack/plaits/dsp/physical_modelling/modal_voice.cc **** //
  27:../eurorack/plaits/dsp/physical_modelling/modal_voice.cc **** // Simple modal synthesis voice with a mallet exciter:
  28:../eurorack/plaits/dsp/physical_modelling/modal_voice.cc **** // click -> LPF -> resonator.
  29:../eurorack/plaits/dsp/physical_modelling/modal_voice.cc **** // 
  30:../eurorack/plaits/dsp/physical_modelling/modal_voice.cc **** // The click is replaced by continuous white noise when the trigger input
  31:../eurorack/plaits/dsp/physical_modelling/modal_voice.cc **** // of the module is not patched.
ARM GAS  /var/folders/y7/g6pkzsp12sx54x3s3mvyn15r0000gn/T//ccaxSVHj.s 			page 4


  32:../eurorack/plaits/dsp/physical_modelling/modal_voice.cc **** 
  33:../eurorack/plaits/dsp/physical_modelling/modal_voice.cc **** #include "plaits/dsp/physical_modelling/modal_voice.h"
  34:../eurorack/plaits/dsp/physical_modelling/modal_voice.cc **** 
  35:../eurorack/plaits/dsp/physical_modelling/modal_voice.cc **** #include <algorithm>
  36:../eurorack/plaits/dsp/physical_modelling/modal_voice.cc **** 
  37:../eurorack/plaits/dsp/physical_modelling/modal_voice.cc **** #include "stmlib/dsp/units.h"
  38:../eurorack/plaits/dsp/physical_modelling/modal_voice.cc **** #include "stmlib/utils/random.h"
  39:../eurorack/plaits/dsp/physical_modelling/modal_voice.cc **** 
  40:../eurorack/plaits/dsp/physical_modelling/modal_voice.cc **** #include "plaits/dsp/noise/dust.h"
  41:../eurorack/plaits/dsp/physical_modelling/modal_voice.cc **** 
  42:../eurorack/plaits/dsp/physical_modelling/modal_voice.cc **** namespace plaits {
  43:../eurorack/plaits/dsp/physical_modelling/modal_voice.cc **** 
  44:../eurorack/plaits/dsp/physical_modelling/modal_voice.cc **** using namespace std;
  45:../eurorack/plaits/dsp/physical_modelling/modal_voice.cc **** using namespace stmlib;
  46:../eurorack/plaits/dsp/physical_modelling/modal_voice.cc **** 
  47:../eurorack/plaits/dsp/physical_modelling/modal_voice.cc **** void ModalVoice::Init() {
  90              		.loc 1 47 25 is_stmt 1 view -0
  91              		.cfi_startproc
  92              		@ args = 0, pretend = 0, frame = 0
  93              		@ frame_needed = 0, uses_anonymous_args = 0
  94              		@ link register save eliminated.
  48:../eurorack/plaits/dsp/physical_modelling/modal_voice.cc ****   excitation_filter_.Init();
  95              		.loc 1 48 3 view .LVU17
  96              	.LBB22:
  97              	.LBI22:
  98              		.file 3 "../eurorack/plaits/dsp/physical_modelling/resonator.h"
   1:../eurorack/plaits/dsp/physical_modelling/resonator.h **** // Copyright 2016 Emilie Gillet.
   2:../eurorack/plaits/dsp/physical_modelling/resonator.h **** //
   3:../eurorack/plaits/dsp/physical_modelling/resonator.h **** // Author: Emilie Gillet (emilie.o.gillet@gmail.com)
   4:../eurorack/plaits/dsp/physical_modelling/resonator.h **** //
   5:../eurorack/plaits/dsp/physical_modelling/resonator.h **** // Permission is hereby granted, free of charge, to any person obtaining a copy
   6:../eurorack/plaits/dsp/physical_modelling/resonator.h **** // of this software and associated documentation files (the "Software"), to deal
   7:../eurorack/plaits/dsp/physical_modelling/resonator.h **** // in the Software without restriction, including without limitation the rights
   8:../eurorack/plaits/dsp/physical_modelling/resonator.h **** // to use, copy, modify, merge, publish, distribute, sublicense, and/or sell
   9:../eurorack/plaits/dsp/physical_modelling/resonator.h **** // copies of the Software, and to permit persons to whom the Software is
  10:../eurorack/plaits/dsp/physical_modelling/resonator.h **** // furnished to do so, subject to the following conditions:
  11:../eurorack/plaits/dsp/physical_modelling/resonator.h **** // 
  12:../eurorack/plaits/dsp/physical_modelling/resonator.h **** // The above copyright notice and this permission notice shall be included in
  13:../eurorack/plaits/dsp/physical_modelling/resonator.h **** // all copies or substantial portions of the Software.
  14:../eurorack/plaits/dsp/physical_modelling/resonator.h **** // 
  15:../eurorack/plaits/dsp/physical_modelling/resonator.h **** // THE SOFTWARE IS PROVIDED "AS IS", WITHOUT WARRANTY OF ANY KIND, EXPRESS OR
  16:../eurorack/plaits/dsp/physical_modelling/resonator.h **** // IMPLIED, INCLUDING BUT NOT LIMITED TO THE WARRANTIES OF MERCHANTABILITY,
  17:../eurorack/plaits/dsp/physical_modelling/resonator.h **** // FITNESS FOR A PARTICULAR PURPOSE AND NONINFRINGEMENT. IN NO EVENT SHALL THE
  18:../eurorack/plaits/dsp/physical_modelling/resonator.h **** // AUTHORS OR COPYRIGHT HOLDERS BE LIABLE FOR ANY CLAIM, DAMAGES OR OTHER
  19:../eurorack/plaits/dsp/physical_modelling/resonator.h **** // LIABILITY, WHETHER IN AN ACTION OF CONTRACT, TORT OR OTHERWISE, ARISING FROM,
  20:../eurorack/plaits/dsp/physical_modelling/resonator.h **** // OUT OF OR IN CONNECTION WITH THE SOFTWARE OR THE USE OR OTHER DEALINGS IN
  21:../eurorack/plaits/dsp/physical_modelling/resonator.h **** // THE SOFTWARE.
  22:../eurorack/plaits/dsp/physical_modelling/resonator.h **** // 
  23:../eurorack/plaits/dsp/physical_modelling/resonator.h **** // See http://creativecommons.org/licenses/MIT/ for more information.
  24:../eurorack/plaits/dsp/physical_modelling/resonator.h **** //
  25:../eurorack/plaits/dsp/physical_modelling/resonator.h **** // -----------------------------------------------------------------------------
  26:../eurorack/plaits/dsp/physical_modelling/resonator.h **** //
  27:../eurorack/plaits/dsp/physical_modelling/resonator.h **** // Resonator, taken from Rings' code but with fixed position.
  28:../eurorack/plaits/dsp/physical_modelling/resonator.h **** 
  29:../eurorack/plaits/dsp/physical_modelling/resonator.h **** #ifndef PLAITS_DSP_PHYSICAL_MODELLING_RESONATOR_H_
  30:../eurorack/plaits/dsp/physical_modelling/resonator.h **** #define PLAITS_DSP_PHYSICAL_MODELLING_RESONATOR_H_
  31:../eurorack/plaits/dsp/physical_modelling/resonator.h **** 
ARM GAS  /var/folders/y7/g6pkzsp12sx54x3s3mvyn15r0000gn/T//ccaxSVHj.s 			page 5


  32:../eurorack/plaits/dsp/physical_modelling/resonator.h **** #include "stmlib/dsp/filter.h"
  33:../eurorack/plaits/dsp/physical_modelling/resonator.h **** 
  34:../eurorack/plaits/dsp/physical_modelling/resonator.h **** namespace plaits {
  35:../eurorack/plaits/dsp/physical_modelling/resonator.h **** 
  36:../eurorack/plaits/dsp/physical_modelling/resonator.h **** const int kMaxNumModes = 24;
  37:../eurorack/plaits/dsp/physical_modelling/resonator.h **** const int kModeBatchSize = 4;
  38:../eurorack/plaits/dsp/physical_modelling/resonator.h **** 
  39:../eurorack/plaits/dsp/physical_modelling/resonator.h **** // We render 4 modes simultaneously since there are enough registers to hold
  40:../eurorack/plaits/dsp/physical_modelling/resonator.h **** // all state variables.
  41:../eurorack/plaits/dsp/physical_modelling/resonator.h **** template<int batch_size>
  42:../eurorack/plaits/dsp/physical_modelling/resonator.h **** class ResonatorSvf {
  43:../eurorack/plaits/dsp/physical_modelling/resonator.h ****  public:
  44:../eurorack/plaits/dsp/physical_modelling/resonator.h ****   ResonatorSvf() { }
  45:../eurorack/plaits/dsp/physical_modelling/resonator.h ****   ~ResonatorSvf() { }
  46:../eurorack/plaits/dsp/physical_modelling/resonator.h ****   
  47:../eurorack/plaits/dsp/physical_modelling/resonator.h ****   void Init() {
  99              		.loc 3 47 8 view .LVU18
 100              	.LBB23:
  48:../eurorack/plaits/dsp/physical_modelling/resonator.h ****     for (int i = 0; i < batch_size; ++i) {
 101              		.loc 3 48 23 discriminator 1 view .LVU19
  49:../eurorack/plaits/dsp/physical_modelling/resonator.h ****       state_1_[i] = state_2_[i] = 0.0f;
 102              		.loc 3 49 33 is_stmt 0 view .LVU20
 103 0000 0023     		movs	r3, #0
 104              	.LBE23:
 105              	.LBE22:
  49:../eurorack/plaits/dsp/physical_modelling/modal_voice.cc ****   resonator_.Init(0.015f, kMaxNumModes);
 106              		.loc 1 49 18 view .LVU21
 107 0002 1821     		movs	r1, #24
 108 0004 9FED030A 		vldr.32	s0, .L5
 109              	.LBB25:
 110              	.LBB24:
 111              		.loc 3 49 33 view .LVU22
 112 0008 4360     		str	r3, [r0, #4]	@ float
 113              		.loc 3 49 19 view .LVU23
 114 000a 40F8083B 		str	r3, [r0], #8	@ float
 115              	.LVL7:
  48:../eurorack/plaits/dsp/physical_modelling/resonator.h ****     for (int i = 0; i < batch_size; ++i) {
 116              		.loc 3 48 5 is_stmt 1 discriminator 3 view .LVU24
  48:../eurorack/plaits/dsp/physical_modelling/resonator.h ****     for (int i = 0; i < batch_size; ++i) {
 117              		.loc 3 48 23 discriminator 1 view .LVU25
  48:../eurorack/plaits/dsp/physical_modelling/resonator.h ****     for (int i = 0; i < batch_size; ++i) {
 118              		.loc 3 48 23 is_stmt 0 discriminator 1 view .LVU26
 119              	.LBE24:
 120              	.LBE25:
 121              		.loc 1 49 3 is_stmt 1 view .LVU27
 122              		.loc 1 49 18 is_stmt 0 view .LVU28
 123 000e FFF7FEBF 		b	_ZN6plaits9Resonator4InitEfi
 124              	.LVL8:
 125              	.L6:
 126              		.loc 1 49 18 view .LVU29
 127 0012 00BF     		.align	2
 128              	.L5:
 129 0014 8FC2753C 		.word	1014350479
 130              		.cfi_endproc
 131              	.LFE1320:
 133              		.section	.text._ZN6plaits10ModalVoice6RenderEbbfffffPfS1_S1_j,"ax",%progbits
 134              		.align	1
ARM GAS  /var/folders/y7/g6pkzsp12sx54x3s3mvyn15r0000gn/T//ccaxSVHj.s 			page 6


 135              		.global	_ZN6plaits10ModalVoice6RenderEbbfffffPfS1_S1_j
 136              		.syntax unified
 137              		.thumb
 138              		.thumb_func
 140              	_ZN6plaits10ModalVoice6RenderEbbfffffPfS1_S1_j:
 141              	.LVL9:
 142              	.LFB1321:
  50:../eurorack/plaits/dsp/physical_modelling/modal_voice.cc **** }
  51:../eurorack/plaits/dsp/physical_modelling/modal_voice.cc **** 
  52:../eurorack/plaits/dsp/physical_modelling/modal_voice.cc **** void ModalVoice::Render(
  53:../eurorack/plaits/dsp/physical_modelling/modal_voice.cc ****     bool sustain,
  54:../eurorack/plaits/dsp/physical_modelling/modal_voice.cc ****     bool trigger,
  55:../eurorack/plaits/dsp/physical_modelling/modal_voice.cc ****     float accent,
  56:../eurorack/plaits/dsp/physical_modelling/modal_voice.cc ****     float f0,
  57:../eurorack/plaits/dsp/physical_modelling/modal_voice.cc ****     float structure,
  58:../eurorack/plaits/dsp/physical_modelling/modal_voice.cc ****     float brightness,
  59:../eurorack/plaits/dsp/physical_modelling/modal_voice.cc ****     float damping,
  60:../eurorack/plaits/dsp/physical_modelling/modal_voice.cc ****     float* temp,
  61:../eurorack/plaits/dsp/physical_modelling/modal_voice.cc ****     float* out,
  62:../eurorack/plaits/dsp/physical_modelling/modal_voice.cc ****     float* aux,
  63:../eurorack/plaits/dsp/physical_modelling/modal_voice.cc ****     size_t size) {
 143              		.loc 1 63 18 is_stmt 1 view -0
 144              		.cfi_startproc
 145              		@ args = 12, pretend = 0, frame = 8
 146              		@ frame_needed = 0, uses_anonymous_args = 0
  64:../eurorack/plaits/dsp/physical_modelling/modal_voice.cc ****   const float density = brightness * brightness;
 147              		.loc 1 64 3 view .LVU31
  65:../eurorack/plaits/dsp/physical_modelling/modal_voice.cc ****   
  66:../eurorack/plaits/dsp/physical_modelling/modal_voice.cc ****   brightness += 0.25f * accent * (1.0f - brightness);
 148              		.loc 1 66 3 view .LVU32
  63:../eurorack/plaits/dsp/physical_modelling/modal_voice.cc ****   const float density = brightness * brightness;
 149              		.loc 1 63 18 is_stmt 0 view .LVU33
 150 0000 2DE9F04F 		push	{r4, r5, r6, r7, r8, r9, r10, fp, lr}
 151              		.cfi_def_cfa_offset 36
 152              		.cfi_offset 4, -36
 153              		.cfi_offset 5, -32
 154              		.cfi_offset 6, -28
 155              		.cfi_offset 7, -24
 156              		.cfi_offset 8, -20
 157              		.cfi_offset 9, -16
 158              		.cfi_offset 10, -12
 159              		.cfi_offset 11, -8
 160              		.cfi_offset 14, -4
 161              		.loc 1 66 23 view .LVU34
 162 0004 F5EE007A 		vmov.f32	s15, #2.5e-1
  63:../eurorack/plaits/dsp/physical_modelling/modal_voice.cc ****   const float density = brightness * brightness;
 163              		.loc 1 63 18 view .LVU35
 164 0008 1C46     		mov	r4, r3
 165 000a 0546     		mov	r5, r0
 166 000c 9346     		mov	fp, r2
  67:../eurorack/plaits/dsp/physical_modelling/modal_voice.cc ****   damping += 0.25f * accent * (1.0f - damping);
  68:../eurorack/plaits/dsp/physical_modelling/modal_voice.cc ****   
  69:../eurorack/plaits/dsp/physical_modelling/modal_voice.cc ****   const float range = sustain ? 36.0f : 60.0f;
 167              		.loc 1 69 31 view .LVU36
 168 000e 8A46     		mov	r10, r1
  66:../eurorack/plaits/dsp/physical_modelling/modal_voice.cc ****   damping += 0.25f * accent * (1.0f - damping);
 169              		.loc 1 66 23 view .LVU37
ARM GAS  /var/folders/y7/g6pkzsp12sx54x3s3mvyn15r0000gn/T//ccaxSVHj.s 			page 7


 170 0010 60EE277A 		vmul.f32	s15, s0, s15
  63:../eurorack/plaits/dsp/physical_modelling/modal_voice.cc ****   const float density = brightness * brightness;
 171              		.loc 1 63 18 view .LVU38
 172 0014 2DED088B 		vpush.64	{d8, d9, d10, d11}
 173              		.cfi_def_cfa_offset 68
 174              		.cfi_offset 80, -68
 175              		.cfi_offset 81, -64
 176              		.cfi_offset 82, -60
 177              		.cfi_offset 83, -56
 178              		.cfi_offset 84, -52
 179              		.cfi_offset 85, -48
 180              		.cfi_offset 86, -44
 181              		.cfi_offset 87, -40
  66:../eurorack/plaits/dsp/physical_modelling/modal_voice.cc ****   damping += 0.25f * accent * (1.0f - damping);
 182              		.loc 1 66 40 view .LVU39
 183 0018 B7EE009A 		vmov.f32	s18, #1.0e+0
  63:../eurorack/plaits/dsp/physical_modelling/modal_voice.cc ****   const float density = brightness * brightness;
 184              		.loc 1 63 18 view .LVU40
 185 001c 83B0     		sub	sp, sp, #12
 186              		.cfi_def_cfa_offset 80
  66:../eurorack/plaits/dsp/physical_modelling/modal_voice.cc ****   damping += 0.25f * accent * (1.0f - damping);
 187              		.loc 1 66 14 view .LVU41
 188 001e F0EE61AA 		vmov.f32	s21, s3
  63:../eurorack/plaits/dsp/physical_modelling/modal_voice.cc ****   const float density = brightness * brightness;
 189              		.loc 1 63 18 view .LVU42
 190 0022 F0EE40BA 		vmov.f32	s23, s0
 191 0026 169F     		ldr	r7, [sp, #88]
  66:../eurorack/plaits/dsp/physical_modelling/modal_voice.cc ****   damping += 0.25f * accent * (1.0f - damping);
 192              		.loc 1 66 40 view .LVU43
 193 0028 39EE617A 		vsub.f32	s14, s18, s3
  63:../eurorack/plaits/dsp/physical_modelling/modal_voice.cc ****   const float density = brightness * brightness;
 194              		.loc 1 63 18 view .LVU44
 195 002c B0EE60BA 		vmov.f32	s22, s1
 196 0030 F0EE419A 		vmov.f32	s19, s2
  66:../eurorack/plaits/dsp/physical_modelling/modal_voice.cc ****   damping += 0.25f * accent * (1.0f - damping);
 197              		.loc 1 66 14 view .LVU45
 198 0034 E7EE87AA 		vfma.f32	s21, s15, s14
 199              	.LVL10:
  67:../eurorack/plaits/dsp/physical_modelling/modal_voice.cc ****   damping += 0.25f * accent * (1.0f - damping);
 200              		.loc 1 67 3 is_stmt 1 view .LVU46
  67:../eurorack/plaits/dsp/physical_modelling/modal_voice.cc ****   damping += 0.25f * accent * (1.0f - damping);
 201              		.loc 1 67 37 is_stmt 0 view .LVU47
 202 0038 39EE427A 		vsub.f32	s14, s18, s4
  63:../eurorack/plaits/dsp/physical_modelling/modal_voice.cc ****   const float density = brightness * brightness;
 203              		.loc 1 63 18 view .LVU48
 204 003c F0EE618A 		vmov.f32	s17, s3
  67:../eurorack/plaits/dsp/physical_modelling/modal_voice.cc ****   damping += 0.25f * accent * (1.0f - damping);
 205              		.loc 1 67 11 view .LVU49
 206 0040 A7EE272A 		vfma.f32	s4, s14, s15
 207              	.LVL11:
  63:../eurorack/plaits/dsp/physical_modelling/modal_voice.cc ****   const float density = brightness * brightness;
 208              		.loc 1 63 18 view .LVU50
 209 0044 DDE91483 		ldrd	r8, r3, [sp, #80]
 210              	.LVL12:
  63:../eurorack/plaits/dsp/physical_modelling/modal_voice.cc ****   const float density = brightness * brightness;
 211              		.loc 1 63 18 view .LVU51
 212 0048 0193     		str	r3, [sp, #4]
ARM GAS  /var/folders/y7/g6pkzsp12sx54x3s3mvyn15r0000gn/T//ccaxSVHj.s 			page 8


  67:../eurorack/plaits/dsp/physical_modelling/modal_voice.cc ****   damping += 0.25f * accent * (1.0f - damping);
 213              		.loc 1 67 11 view .LVU52
 214 004a B0EE42AA 		vmov.f32	s20, s4
 215              	.LVL13:
 216              		.loc 1 69 3 is_stmt 1 view .LVU53
 217              		.loc 1 69 31 is_stmt 0 view .LVU54
 218 004e 91B3     		cbz	r1, .L8
 219              	.LVL14:
  70:../eurorack/plaits/dsp/physical_modelling/modal_voice.cc ****   const float f = sustain ? 4.0f * f0 : 2.0f * f0;
 220              		.loc 1 70 3 is_stmt 1 view .LVU55
 221              		.loc 1 70 27 is_stmt 0 discriminator 1 view .LVU56
 222 0050 B1EE008A 		vmov.f32	s16, #4.0e+0
  69:../eurorack/plaits/dsp/physical_modelling/modal_voice.cc ****   const float f = sustain ? 4.0f * f0 : 2.0f * f0;
 223              		.loc 1 69 31 discriminator 1 view .LVU57
 224 0054 9FED767A 		vldr.32	s14, .L27
 225              		.loc 1 70 27 discriminator 1 view .LVU58
 226 0058 20EE888A 		vmul.f32	s16, s1, s16
 227              	.LVL15:
 228              	.L9:
  71:../eurorack/plaits/dsp/physical_modelling/modal_voice.cc ****   const float cutoff = min(
 229              		.loc 1 71 3 is_stmt 1 view .LVU59
  72:../eurorack/plaits/dsp/physical_modelling/modal_voice.cc ****       f * SemitonesToRatio((brightness * (2.0f - brightness) - 0.5f) * range),
 230              		.loc 1 72 48 is_stmt 0 view .LVU60
 231 005c F0EE007A 		vmov.f32	s15, #2.0e+0
 232 0060 4FEA8709 		lsl	r9, r7, #2
 233              		.loc 1 72 62 view .LVU61
 234 0064 BEEE000A 		vmov.f32	s0, #-5.0e-1
 235              	.LVL16:
 236              		.loc 1 72 48 view .LVU62
 237 0068 77EEEA7A 		vsub.f32	s15, s15, s21
 238              		.loc 1 72 62 view .LVU63
 239 006c A7EEAA0A 		vfma.f32	s0, s15, s21
 240              		.loc 1 72 27 view .LVU64
 241 0070 20EE070A 		vmul.f32	s0, s0, s14
 242 0074 FFF7FEFF 		bl	_ZN6stmlib16SemitonesToRatioEf
 243              	.LVL17:
 244              		.loc 1 72 9 discriminator 1 view .LVU65
 245 0078 20EE080A 		vmul.f32	s0, s0, s16
 246 007c DFED6D7A 		vldr.32	s15, .L27+4
 247 0080 B4EEE70A 		vcmpe.f32	s0, s15
 248 0084 F1EE10FA 		vmrs	APSR_nzcv, FPSCR
 249 0088 37FE808A 		vselgt.f32	s16, s15, s0
 250              	.LVL18:
  73:../eurorack/plaits/dsp/physical_modelling/modal_voice.cc ****       0.499f);
  74:../eurorack/plaits/dsp/physical_modelling/modal_voice.cc ****   const float q = sustain ? 0.7f : 1.5f;
 251              		.loc 1 74 3 is_stmt 1 view .LVU66
 252              		.loc 1 74 27 is_stmt 0 view .LVU67
 253 008c BAF1000F 		cmp	r10, #0
 254 0090 16D0     		beq	.L10
  64:../eurorack/plaits/dsp/physical_modelling/modal_voice.cc ****   
 255              		.loc 1 64 15 view .LVU68
 256 0092 68EEA88A 		vmul.f32	s17, s17, s17
 257              	.LVL19:
  75:../eurorack/plaits/dsp/physical_modelling/modal_voice.cc ****   
  76:../eurorack/plaits/dsp/physical_modelling/modal_voice.cc ****   // Synthesize excitation signal.
  77:../eurorack/plaits/dsp/physical_modelling/modal_voice.cc ****   if (sustain) {
 258              		.loc 1 77 3 is_stmt 1 view .LVU69
ARM GAS  /var/folders/y7/g6pkzsp12sx54x3s3mvyn15r0000gn/T//ccaxSVHj.s 			page 9


 259              	.LBB53:
  78:../eurorack/plaits/dsp/physical_modelling/modal_voice.cc ****     const float dust_f = 0.00005f + 0.99995f * density * density;
 260              		.loc 1 78 5 view .LVU70
 261              		.loc 1 78 46 is_stmt 0 view .LVU71
 262 0096 DFED687A 		vldr.32	s15, .L27+8
 263              		.loc 1 78 17 view .LVU72
 264 009a 9FED687A 		vldr.32	s14, .L27+12
 265 009e 2046     		mov	r0, r4
 266 00a0 04EB090E 		add	lr, r4, r9
 267              		.loc 1 78 46 view .LVU73
 268 00a4 68EEA77A 		vmul.f32	s15, s17, s15
 269              		.loc 1 78 17 view .LVU74
 270 00a8 A7EEA87A 		vfma.f32	s14, s15, s17
 271              	.LVL20:
  79:../eurorack/plaits/dsp/physical_modelling/modal_voice.cc ****     for (size_t i = 0; i < size; ++i) {
 272              		.loc 1 79 5 is_stmt 1 view .LVU75
 273              	.L11:
 274              	.LBB54:
 275              		.loc 1 79 26 discriminator 1 view .LVU76
 276 00ac 7045     		cmp	r0, lr
 277 00ae 54D1     		bne	.L18
 278              	.LBE54:
 279              	.LBE53:
  74:../eurorack/plaits/dsp/physical_modelling/modal_voice.cc ****   
 280              		.loc 1 74 15 is_stmt 0 discriminator 4 view .LVU77
 281 00b0 DFED636A 		vldr.32	s13, .L27+16
 282 00b4 0EE0     		b	.L15
 283              	.LVL21:
 284              	.L8:
  70:../eurorack/plaits/dsp/physical_modelling/modal_voice.cc ****   const float cutoff = min(
 285              		.loc 1 70 3 is_stmt 1 view .LVU78
  70:../eurorack/plaits/dsp/physical_modelling/modal_voice.cc ****   const float cutoff = min(
 286              		.loc 1 70 27 is_stmt 0 discriminator 2 view .LVU79
 287 00b6 30EEA08A 		vadd.f32	s16, s1, s1
  69:../eurorack/plaits/dsp/physical_modelling/modal_voice.cc ****   const float f = sustain ? 4.0f * f0 : 2.0f * f0;
 288              		.loc 1 69 31 discriminator 2 view .LVU80
 289 00ba 9FED627A 		vldr.32	s14, .L27+20
 290 00be CDE7     		b	.L9
 291              	.LVL22:
 292              	.L10:
  77:../eurorack/plaits/dsp/physical_modelling/modal_voice.cc ****     const float dust_f = 0.00005f + 0.99995f * density * density;
 293              		.loc 1 77 3 is_stmt 1 view .LVU81
 294              	.LBB72:
  80:../eurorack/plaits/dsp/physical_modelling/modal_voice.cc ****       temp[i] = Dust(dust_f) * (4.0f - dust_f * 3.0f) * accent;
  81:../eurorack/plaits/dsp/physical_modelling/modal_voice.cc ****     }
  82:../eurorack/plaits/dsp/physical_modelling/modal_voice.cc ****   } else {
  83:../eurorack/plaits/dsp/physical_modelling/modal_voice.cc ****     fill(&temp[0], &temp[size], 0.0f);
 295              		.loc 1 83 5 view .LVU82
 296              		.loc 1 83 9 is_stmt 0 view .LVU83
 297 00c0 04EB0902 		add	r2, r4, r9
 298              	.LVL23:
 299              	.LBB73:
 300              	.LBI73:
 301              		.file 4 "/Applications/ArmGNUToolchain/14.2.rel1/arm-none-eabi/arm-none-eabi/include/c++/14.2.1/bi
   1:/Applications/ArmGNUToolchain/14.2.rel1/arm-none-eabi/arm-none-eabi/include/c++/14.2.1/bits/stl_algobase.h **** // Core algorithmic facilities -*- C++ -*-
   2:/Applications/ArmGNUToolchain/14.2.rel1/arm-none-eabi/arm-none-eabi/include/c++/14.2.1/bits/stl_algobase.h **** 
   3:/Applications/ArmGNUToolchain/14.2.rel1/arm-none-eabi/arm-none-eabi/include/c++/14.2.1/bits/stl_algobase.h **** // Copyright (C) 2001-2024 Free Software Foundation, Inc.
ARM GAS  /var/folders/y7/g6pkzsp12sx54x3s3mvyn15r0000gn/T//ccaxSVHj.s 			page 10


   4:/Applications/ArmGNUToolchain/14.2.rel1/arm-none-eabi/arm-none-eabi/include/c++/14.2.1/bits/stl_algobase.h **** //
   5:/Applications/ArmGNUToolchain/14.2.rel1/arm-none-eabi/arm-none-eabi/include/c++/14.2.1/bits/stl_algobase.h **** // This file is part of the GNU ISO C++ Library.  This library is free
   6:/Applications/ArmGNUToolchain/14.2.rel1/arm-none-eabi/arm-none-eabi/include/c++/14.2.1/bits/stl_algobase.h **** // software; you can redistribute it and/or modify it under the
   7:/Applications/ArmGNUToolchain/14.2.rel1/arm-none-eabi/arm-none-eabi/include/c++/14.2.1/bits/stl_algobase.h **** // terms of the GNU General Public License as published by the
   8:/Applications/ArmGNUToolchain/14.2.rel1/arm-none-eabi/arm-none-eabi/include/c++/14.2.1/bits/stl_algobase.h **** // Free Software Foundation; either version 3, or (at your option)
   9:/Applications/ArmGNUToolchain/14.2.rel1/arm-none-eabi/arm-none-eabi/include/c++/14.2.1/bits/stl_algobase.h **** // any later version.
  10:/Applications/ArmGNUToolchain/14.2.rel1/arm-none-eabi/arm-none-eabi/include/c++/14.2.1/bits/stl_algobase.h **** 
  11:/Applications/ArmGNUToolchain/14.2.rel1/arm-none-eabi/arm-none-eabi/include/c++/14.2.1/bits/stl_algobase.h **** // This library is distributed in the hope that it will be useful,
  12:/Applications/ArmGNUToolchain/14.2.rel1/arm-none-eabi/arm-none-eabi/include/c++/14.2.1/bits/stl_algobase.h **** // but WITHOUT ANY WARRANTY; without even the implied warranty of
  13:/Applications/ArmGNUToolchain/14.2.rel1/arm-none-eabi/arm-none-eabi/include/c++/14.2.1/bits/stl_algobase.h **** // MERCHANTABILITY or FITNESS FOR A PARTICULAR PURPOSE.  See the
  14:/Applications/ArmGNUToolchain/14.2.rel1/arm-none-eabi/arm-none-eabi/include/c++/14.2.1/bits/stl_algobase.h **** // GNU General Public License for more details.
  15:/Applications/ArmGNUToolchain/14.2.rel1/arm-none-eabi/arm-none-eabi/include/c++/14.2.1/bits/stl_algobase.h **** 
  16:/Applications/ArmGNUToolchain/14.2.rel1/arm-none-eabi/arm-none-eabi/include/c++/14.2.1/bits/stl_algobase.h **** // Under Section 7 of GPL version 3, you are granted additional
  17:/Applications/ArmGNUToolchain/14.2.rel1/arm-none-eabi/arm-none-eabi/include/c++/14.2.1/bits/stl_algobase.h **** // permissions described in the GCC Runtime Library Exception, version
  18:/Applications/ArmGNUToolchain/14.2.rel1/arm-none-eabi/arm-none-eabi/include/c++/14.2.1/bits/stl_algobase.h **** // 3.1, as published by the Free Software Foundation.
  19:/Applications/ArmGNUToolchain/14.2.rel1/arm-none-eabi/arm-none-eabi/include/c++/14.2.1/bits/stl_algobase.h **** 
  20:/Applications/ArmGNUToolchain/14.2.rel1/arm-none-eabi/arm-none-eabi/include/c++/14.2.1/bits/stl_algobase.h **** // You should have received a copy of the GNU General Public License and
  21:/Applications/ArmGNUToolchain/14.2.rel1/arm-none-eabi/arm-none-eabi/include/c++/14.2.1/bits/stl_algobase.h **** // a copy of the GCC Runtime Library Exception along with this program;
  22:/Applications/ArmGNUToolchain/14.2.rel1/arm-none-eabi/arm-none-eabi/include/c++/14.2.1/bits/stl_algobase.h **** // see the files COPYING3 and COPYING.RUNTIME respectively.  If not, see
  23:/Applications/ArmGNUToolchain/14.2.rel1/arm-none-eabi/arm-none-eabi/include/c++/14.2.1/bits/stl_algobase.h **** // <http://www.gnu.org/licenses/>.
  24:/Applications/ArmGNUToolchain/14.2.rel1/arm-none-eabi/arm-none-eabi/include/c++/14.2.1/bits/stl_algobase.h **** 
  25:/Applications/ArmGNUToolchain/14.2.rel1/arm-none-eabi/arm-none-eabi/include/c++/14.2.1/bits/stl_algobase.h **** /*
  26:/Applications/ArmGNUToolchain/14.2.rel1/arm-none-eabi/arm-none-eabi/include/c++/14.2.1/bits/stl_algobase.h ****  *
  27:/Applications/ArmGNUToolchain/14.2.rel1/arm-none-eabi/arm-none-eabi/include/c++/14.2.1/bits/stl_algobase.h ****  * Copyright (c) 1994
  28:/Applications/ArmGNUToolchain/14.2.rel1/arm-none-eabi/arm-none-eabi/include/c++/14.2.1/bits/stl_algobase.h ****  * Hewlett-Packard Company
  29:/Applications/ArmGNUToolchain/14.2.rel1/arm-none-eabi/arm-none-eabi/include/c++/14.2.1/bits/stl_algobase.h ****  *
  30:/Applications/ArmGNUToolchain/14.2.rel1/arm-none-eabi/arm-none-eabi/include/c++/14.2.1/bits/stl_algobase.h ****  * Permission to use, copy, modify, distribute and sell this software
  31:/Applications/ArmGNUToolchain/14.2.rel1/arm-none-eabi/arm-none-eabi/include/c++/14.2.1/bits/stl_algobase.h ****  * and its documentation for any purpose is hereby granted without fee,
  32:/Applications/ArmGNUToolchain/14.2.rel1/arm-none-eabi/arm-none-eabi/include/c++/14.2.1/bits/stl_algobase.h ****  * provided that the above copyright notice appear in all copies and
  33:/Applications/ArmGNUToolchain/14.2.rel1/arm-none-eabi/arm-none-eabi/include/c++/14.2.1/bits/stl_algobase.h ****  * that both that copyright notice and this permission notice appear
  34:/Applications/ArmGNUToolchain/14.2.rel1/arm-none-eabi/arm-none-eabi/include/c++/14.2.1/bits/stl_algobase.h ****  * in supporting documentation.  Hewlett-Packard Company makes no
  35:/Applications/ArmGNUToolchain/14.2.rel1/arm-none-eabi/arm-none-eabi/include/c++/14.2.1/bits/stl_algobase.h ****  * representations about the suitability of this software for any
  36:/Applications/ArmGNUToolchain/14.2.rel1/arm-none-eabi/arm-none-eabi/include/c++/14.2.1/bits/stl_algobase.h ****  * purpose.  It is provided "as is" without express or implied warranty.
  37:/Applications/ArmGNUToolchain/14.2.rel1/arm-none-eabi/arm-none-eabi/include/c++/14.2.1/bits/stl_algobase.h ****  *
  38:/Applications/ArmGNUToolchain/14.2.rel1/arm-none-eabi/arm-none-eabi/include/c++/14.2.1/bits/stl_algobase.h ****  *
  39:/Applications/ArmGNUToolchain/14.2.rel1/arm-none-eabi/arm-none-eabi/include/c++/14.2.1/bits/stl_algobase.h ****  * Copyright (c) 1996-1998
  40:/Applications/ArmGNUToolchain/14.2.rel1/arm-none-eabi/arm-none-eabi/include/c++/14.2.1/bits/stl_algobase.h ****  * Silicon Graphics Computer Systems, Inc.
  41:/Applications/ArmGNUToolchain/14.2.rel1/arm-none-eabi/arm-none-eabi/include/c++/14.2.1/bits/stl_algobase.h ****  *
  42:/Applications/ArmGNUToolchain/14.2.rel1/arm-none-eabi/arm-none-eabi/include/c++/14.2.1/bits/stl_algobase.h ****  * Permission to use, copy, modify, distribute and sell this software
  43:/Applications/ArmGNUToolchain/14.2.rel1/arm-none-eabi/arm-none-eabi/include/c++/14.2.1/bits/stl_algobase.h ****  * and its documentation for any purpose is hereby granted without fee,
  44:/Applications/ArmGNUToolchain/14.2.rel1/arm-none-eabi/arm-none-eabi/include/c++/14.2.1/bits/stl_algobase.h ****  * provided that the above copyright notice appear in all copies and
  45:/Applications/ArmGNUToolchain/14.2.rel1/arm-none-eabi/arm-none-eabi/include/c++/14.2.1/bits/stl_algobase.h ****  * that both that copyright notice and this permission notice appear
  46:/Applications/ArmGNUToolchain/14.2.rel1/arm-none-eabi/arm-none-eabi/include/c++/14.2.1/bits/stl_algobase.h ****  * in supporting documentation.  Silicon Graphics makes no
  47:/Applications/ArmGNUToolchain/14.2.rel1/arm-none-eabi/arm-none-eabi/include/c++/14.2.1/bits/stl_algobase.h ****  * representations about the suitability of this software for any
  48:/Applications/ArmGNUToolchain/14.2.rel1/arm-none-eabi/arm-none-eabi/include/c++/14.2.1/bits/stl_algobase.h ****  * purpose.  It is provided "as is" without express or implied warranty.
  49:/Applications/ArmGNUToolchain/14.2.rel1/arm-none-eabi/arm-none-eabi/include/c++/14.2.1/bits/stl_algobase.h ****  */
  50:/Applications/ArmGNUToolchain/14.2.rel1/arm-none-eabi/arm-none-eabi/include/c++/14.2.1/bits/stl_algobase.h **** 
  51:/Applications/ArmGNUToolchain/14.2.rel1/arm-none-eabi/arm-none-eabi/include/c++/14.2.1/bits/stl_algobase.h **** /** @file bits/stl_algobase.h
  52:/Applications/ArmGNUToolchain/14.2.rel1/arm-none-eabi/arm-none-eabi/include/c++/14.2.1/bits/stl_algobase.h ****  *  This is an internal header file, included by other library headers.
  53:/Applications/ArmGNUToolchain/14.2.rel1/arm-none-eabi/arm-none-eabi/include/c++/14.2.1/bits/stl_algobase.h ****  *  Do not attempt to use it directly. @headername{algorithm}
  54:/Applications/ArmGNUToolchain/14.2.rel1/arm-none-eabi/arm-none-eabi/include/c++/14.2.1/bits/stl_algobase.h ****  */
  55:/Applications/ArmGNUToolchain/14.2.rel1/arm-none-eabi/arm-none-eabi/include/c++/14.2.1/bits/stl_algobase.h **** 
  56:/Applications/ArmGNUToolchain/14.2.rel1/arm-none-eabi/arm-none-eabi/include/c++/14.2.1/bits/stl_algobase.h **** #ifndef _STL_ALGOBASE_H
  57:/Applications/ArmGNUToolchain/14.2.rel1/arm-none-eabi/arm-none-eabi/include/c++/14.2.1/bits/stl_algobase.h **** #define _STL_ALGOBASE_H 1
  58:/Applications/ArmGNUToolchain/14.2.rel1/arm-none-eabi/arm-none-eabi/include/c++/14.2.1/bits/stl_algobase.h **** 
  59:/Applications/ArmGNUToolchain/14.2.rel1/arm-none-eabi/arm-none-eabi/include/c++/14.2.1/bits/stl_algobase.h **** #include <bits/c++config.h>
  60:/Applications/ArmGNUToolchain/14.2.rel1/arm-none-eabi/arm-none-eabi/include/c++/14.2.1/bits/stl_algobase.h **** #include <bits/functexcept.h>
ARM GAS  /var/folders/y7/g6pkzsp12sx54x3s3mvyn15r0000gn/T//ccaxSVHj.s 			page 11


  61:/Applications/ArmGNUToolchain/14.2.rel1/arm-none-eabi/arm-none-eabi/include/c++/14.2.1/bits/stl_algobase.h **** #include <bits/cpp_type_traits.h>
  62:/Applications/ArmGNUToolchain/14.2.rel1/arm-none-eabi/arm-none-eabi/include/c++/14.2.1/bits/stl_algobase.h **** #include <ext/type_traits.h>
  63:/Applications/ArmGNUToolchain/14.2.rel1/arm-none-eabi/arm-none-eabi/include/c++/14.2.1/bits/stl_algobase.h **** #include <ext/numeric_traits.h>
  64:/Applications/ArmGNUToolchain/14.2.rel1/arm-none-eabi/arm-none-eabi/include/c++/14.2.1/bits/stl_algobase.h **** #include <bits/stl_pair.h>
  65:/Applications/ArmGNUToolchain/14.2.rel1/arm-none-eabi/arm-none-eabi/include/c++/14.2.1/bits/stl_algobase.h **** #include <bits/stl_iterator_base_types.h>
  66:/Applications/ArmGNUToolchain/14.2.rel1/arm-none-eabi/arm-none-eabi/include/c++/14.2.1/bits/stl_algobase.h **** #include <bits/stl_iterator_base_funcs.h>
  67:/Applications/ArmGNUToolchain/14.2.rel1/arm-none-eabi/arm-none-eabi/include/c++/14.2.1/bits/stl_algobase.h **** #include <bits/stl_iterator.h>
  68:/Applications/ArmGNUToolchain/14.2.rel1/arm-none-eabi/arm-none-eabi/include/c++/14.2.1/bits/stl_algobase.h **** #include <bits/concept_check.h>
  69:/Applications/ArmGNUToolchain/14.2.rel1/arm-none-eabi/arm-none-eabi/include/c++/14.2.1/bits/stl_algobase.h **** #include <debug/debug.h>
  70:/Applications/ArmGNUToolchain/14.2.rel1/arm-none-eabi/arm-none-eabi/include/c++/14.2.1/bits/stl_algobase.h **** #include <bits/move.h> // For std::swap
  71:/Applications/ArmGNUToolchain/14.2.rel1/arm-none-eabi/arm-none-eabi/include/c++/14.2.1/bits/stl_algobase.h **** #include <bits/predefined_ops.h>
  72:/Applications/ArmGNUToolchain/14.2.rel1/arm-none-eabi/arm-none-eabi/include/c++/14.2.1/bits/stl_algobase.h **** #if __cplusplus >= 201103L
  73:/Applications/ArmGNUToolchain/14.2.rel1/arm-none-eabi/arm-none-eabi/include/c++/14.2.1/bits/stl_algobase.h **** # include <type_traits>
  74:/Applications/ArmGNUToolchain/14.2.rel1/arm-none-eabi/arm-none-eabi/include/c++/14.2.1/bits/stl_algobase.h **** #endif
  75:/Applications/ArmGNUToolchain/14.2.rel1/arm-none-eabi/arm-none-eabi/include/c++/14.2.1/bits/stl_algobase.h **** #if __cplusplus >= 201402L
  76:/Applications/ArmGNUToolchain/14.2.rel1/arm-none-eabi/arm-none-eabi/include/c++/14.2.1/bits/stl_algobase.h **** # include <bit> // std::__bit_width
  77:/Applications/ArmGNUToolchain/14.2.rel1/arm-none-eabi/arm-none-eabi/include/c++/14.2.1/bits/stl_algobase.h **** #endif
  78:/Applications/ArmGNUToolchain/14.2.rel1/arm-none-eabi/arm-none-eabi/include/c++/14.2.1/bits/stl_algobase.h **** #if __cplusplus >= 202002L
  79:/Applications/ArmGNUToolchain/14.2.rel1/arm-none-eabi/arm-none-eabi/include/c++/14.2.1/bits/stl_algobase.h **** # include <compare>
  80:/Applications/ArmGNUToolchain/14.2.rel1/arm-none-eabi/arm-none-eabi/include/c++/14.2.1/bits/stl_algobase.h **** #endif
  81:/Applications/ArmGNUToolchain/14.2.rel1/arm-none-eabi/arm-none-eabi/include/c++/14.2.1/bits/stl_algobase.h **** 
  82:/Applications/ArmGNUToolchain/14.2.rel1/arm-none-eabi/arm-none-eabi/include/c++/14.2.1/bits/stl_algobase.h **** namespace std _GLIBCXX_VISIBILITY(default)
  83:/Applications/ArmGNUToolchain/14.2.rel1/arm-none-eabi/arm-none-eabi/include/c++/14.2.1/bits/stl_algobase.h **** {
  84:/Applications/ArmGNUToolchain/14.2.rel1/arm-none-eabi/arm-none-eabi/include/c++/14.2.1/bits/stl_algobase.h **** _GLIBCXX_BEGIN_NAMESPACE_VERSION
  85:/Applications/ArmGNUToolchain/14.2.rel1/arm-none-eabi/arm-none-eabi/include/c++/14.2.1/bits/stl_algobase.h **** 
  86:/Applications/ArmGNUToolchain/14.2.rel1/arm-none-eabi/arm-none-eabi/include/c++/14.2.1/bits/stl_algobase.h ****   /*
  87:/Applications/ArmGNUToolchain/14.2.rel1/arm-none-eabi/arm-none-eabi/include/c++/14.2.1/bits/stl_algobase.h ****    * A constexpr wrapper for __builtin_memcmp.
  88:/Applications/ArmGNUToolchain/14.2.rel1/arm-none-eabi/arm-none-eabi/include/c++/14.2.1/bits/stl_algobase.h ****    * @param __num The number of elements of type _Tp (not bytes).
  89:/Applications/ArmGNUToolchain/14.2.rel1/arm-none-eabi/arm-none-eabi/include/c++/14.2.1/bits/stl_algobase.h ****    */
  90:/Applications/ArmGNUToolchain/14.2.rel1/arm-none-eabi/arm-none-eabi/include/c++/14.2.1/bits/stl_algobase.h ****   template<typename _Tp, typename _Up>
  91:/Applications/ArmGNUToolchain/14.2.rel1/arm-none-eabi/arm-none-eabi/include/c++/14.2.1/bits/stl_algobase.h ****     _GLIBCXX14_CONSTEXPR
  92:/Applications/ArmGNUToolchain/14.2.rel1/arm-none-eabi/arm-none-eabi/include/c++/14.2.1/bits/stl_algobase.h ****     inline int
  93:/Applications/ArmGNUToolchain/14.2.rel1/arm-none-eabi/arm-none-eabi/include/c++/14.2.1/bits/stl_algobase.h ****     __memcmp(const _Tp* __first1, const _Up* __first2, size_t __num)
  94:/Applications/ArmGNUToolchain/14.2.rel1/arm-none-eabi/arm-none-eabi/include/c++/14.2.1/bits/stl_algobase.h ****     {
  95:/Applications/ArmGNUToolchain/14.2.rel1/arm-none-eabi/arm-none-eabi/include/c++/14.2.1/bits/stl_algobase.h **** #if __cplusplus >= 201103L
  96:/Applications/ArmGNUToolchain/14.2.rel1/arm-none-eabi/arm-none-eabi/include/c++/14.2.1/bits/stl_algobase.h ****       static_assert(sizeof(_Tp) == sizeof(_Up), "can be compared with memcmp");
  97:/Applications/ArmGNUToolchain/14.2.rel1/arm-none-eabi/arm-none-eabi/include/c++/14.2.1/bits/stl_algobase.h **** #endif
  98:/Applications/ArmGNUToolchain/14.2.rel1/arm-none-eabi/arm-none-eabi/include/c++/14.2.1/bits/stl_algobase.h **** #ifdef __cpp_lib_is_constant_evaluated
  99:/Applications/ArmGNUToolchain/14.2.rel1/arm-none-eabi/arm-none-eabi/include/c++/14.2.1/bits/stl_algobase.h ****       if (std::is_constant_evaluated())
 100:/Applications/ArmGNUToolchain/14.2.rel1/arm-none-eabi/arm-none-eabi/include/c++/14.2.1/bits/stl_algobase.h **** 	{
 101:/Applications/ArmGNUToolchain/14.2.rel1/arm-none-eabi/arm-none-eabi/include/c++/14.2.1/bits/stl_algobase.h **** 	  for(; __num > 0; ++__first1, ++__first2, --__num)
 102:/Applications/ArmGNUToolchain/14.2.rel1/arm-none-eabi/arm-none-eabi/include/c++/14.2.1/bits/stl_algobase.h **** 	    if (*__first1 != *__first2)
 103:/Applications/ArmGNUToolchain/14.2.rel1/arm-none-eabi/arm-none-eabi/include/c++/14.2.1/bits/stl_algobase.h **** 	      return *__first1 < *__first2 ? -1 : 1;
 104:/Applications/ArmGNUToolchain/14.2.rel1/arm-none-eabi/arm-none-eabi/include/c++/14.2.1/bits/stl_algobase.h **** 	  return 0;
 105:/Applications/ArmGNUToolchain/14.2.rel1/arm-none-eabi/arm-none-eabi/include/c++/14.2.1/bits/stl_algobase.h **** 	}
 106:/Applications/ArmGNUToolchain/14.2.rel1/arm-none-eabi/arm-none-eabi/include/c++/14.2.1/bits/stl_algobase.h ****       else
 107:/Applications/ArmGNUToolchain/14.2.rel1/arm-none-eabi/arm-none-eabi/include/c++/14.2.1/bits/stl_algobase.h **** #endif
 108:/Applications/ArmGNUToolchain/14.2.rel1/arm-none-eabi/arm-none-eabi/include/c++/14.2.1/bits/stl_algobase.h **** 	return __builtin_memcmp(__first1, __first2, sizeof(_Tp) * __num);
 109:/Applications/ArmGNUToolchain/14.2.rel1/arm-none-eabi/arm-none-eabi/include/c++/14.2.1/bits/stl_algobase.h ****     }
 110:/Applications/ArmGNUToolchain/14.2.rel1/arm-none-eabi/arm-none-eabi/include/c++/14.2.1/bits/stl_algobase.h **** 
 111:/Applications/ArmGNUToolchain/14.2.rel1/arm-none-eabi/arm-none-eabi/include/c++/14.2.1/bits/stl_algobase.h **** #if __cplusplus < 201103L
 112:/Applications/ArmGNUToolchain/14.2.rel1/arm-none-eabi/arm-none-eabi/include/c++/14.2.1/bits/stl_algobase.h ****   // See http://gcc.gnu.org/ml/libstdc++/2004-08/msg00167.html: in a
 113:/Applications/ArmGNUToolchain/14.2.rel1/arm-none-eabi/arm-none-eabi/include/c++/14.2.1/bits/stl_algobase.h ****   // nutshell, we are partially implementing the resolution of DR 187,
 114:/Applications/ArmGNUToolchain/14.2.rel1/arm-none-eabi/arm-none-eabi/include/c++/14.2.1/bits/stl_algobase.h ****   // when it's safe, i.e., the value_types are equal.
 115:/Applications/ArmGNUToolchain/14.2.rel1/arm-none-eabi/arm-none-eabi/include/c++/14.2.1/bits/stl_algobase.h ****   template<bool _BoolType>
 116:/Applications/ArmGNUToolchain/14.2.rel1/arm-none-eabi/arm-none-eabi/include/c++/14.2.1/bits/stl_algobase.h ****     struct __iter_swap
 117:/Applications/ArmGNUToolchain/14.2.rel1/arm-none-eabi/arm-none-eabi/include/c++/14.2.1/bits/stl_algobase.h ****     {
ARM GAS  /var/folders/y7/g6pkzsp12sx54x3s3mvyn15r0000gn/T//ccaxSVHj.s 			page 12


 118:/Applications/ArmGNUToolchain/14.2.rel1/arm-none-eabi/arm-none-eabi/include/c++/14.2.1/bits/stl_algobase.h ****       template<typename _ForwardIterator1, typename _ForwardIterator2>
 119:/Applications/ArmGNUToolchain/14.2.rel1/arm-none-eabi/arm-none-eabi/include/c++/14.2.1/bits/stl_algobase.h **** 	static void
 120:/Applications/ArmGNUToolchain/14.2.rel1/arm-none-eabi/arm-none-eabi/include/c++/14.2.1/bits/stl_algobase.h **** 	iter_swap(_ForwardIterator1 __a, _ForwardIterator2 __b)
 121:/Applications/ArmGNUToolchain/14.2.rel1/arm-none-eabi/arm-none-eabi/include/c++/14.2.1/bits/stl_algobase.h **** 	{
 122:/Applications/ArmGNUToolchain/14.2.rel1/arm-none-eabi/arm-none-eabi/include/c++/14.2.1/bits/stl_algobase.h **** 	  typedef typename iterator_traits<_ForwardIterator1>::value_type
 123:/Applications/ArmGNUToolchain/14.2.rel1/arm-none-eabi/arm-none-eabi/include/c++/14.2.1/bits/stl_algobase.h **** 	    _ValueType1;
 124:/Applications/ArmGNUToolchain/14.2.rel1/arm-none-eabi/arm-none-eabi/include/c++/14.2.1/bits/stl_algobase.h **** 	  _ValueType1 __tmp = *__a;
 125:/Applications/ArmGNUToolchain/14.2.rel1/arm-none-eabi/arm-none-eabi/include/c++/14.2.1/bits/stl_algobase.h **** 	  *__a = *__b;
 126:/Applications/ArmGNUToolchain/14.2.rel1/arm-none-eabi/arm-none-eabi/include/c++/14.2.1/bits/stl_algobase.h **** 	  *__b = __tmp;
 127:/Applications/ArmGNUToolchain/14.2.rel1/arm-none-eabi/arm-none-eabi/include/c++/14.2.1/bits/stl_algobase.h **** 	}
 128:/Applications/ArmGNUToolchain/14.2.rel1/arm-none-eabi/arm-none-eabi/include/c++/14.2.1/bits/stl_algobase.h ****     };
 129:/Applications/ArmGNUToolchain/14.2.rel1/arm-none-eabi/arm-none-eabi/include/c++/14.2.1/bits/stl_algobase.h **** 
 130:/Applications/ArmGNUToolchain/14.2.rel1/arm-none-eabi/arm-none-eabi/include/c++/14.2.1/bits/stl_algobase.h ****   template<>
 131:/Applications/ArmGNUToolchain/14.2.rel1/arm-none-eabi/arm-none-eabi/include/c++/14.2.1/bits/stl_algobase.h ****     struct __iter_swap<true>
 132:/Applications/ArmGNUToolchain/14.2.rel1/arm-none-eabi/arm-none-eabi/include/c++/14.2.1/bits/stl_algobase.h ****     {
 133:/Applications/ArmGNUToolchain/14.2.rel1/arm-none-eabi/arm-none-eabi/include/c++/14.2.1/bits/stl_algobase.h ****       template<typename _ForwardIterator1, typename _ForwardIterator2>
 134:/Applications/ArmGNUToolchain/14.2.rel1/arm-none-eabi/arm-none-eabi/include/c++/14.2.1/bits/stl_algobase.h **** 	static void
 135:/Applications/ArmGNUToolchain/14.2.rel1/arm-none-eabi/arm-none-eabi/include/c++/14.2.1/bits/stl_algobase.h **** 	iter_swap(_ForwardIterator1 __a, _ForwardIterator2 __b)
 136:/Applications/ArmGNUToolchain/14.2.rel1/arm-none-eabi/arm-none-eabi/include/c++/14.2.1/bits/stl_algobase.h **** 	{
 137:/Applications/ArmGNUToolchain/14.2.rel1/arm-none-eabi/arm-none-eabi/include/c++/14.2.1/bits/stl_algobase.h **** 	  swap(*__a, *__b);
 138:/Applications/ArmGNUToolchain/14.2.rel1/arm-none-eabi/arm-none-eabi/include/c++/14.2.1/bits/stl_algobase.h **** 	}
 139:/Applications/ArmGNUToolchain/14.2.rel1/arm-none-eabi/arm-none-eabi/include/c++/14.2.1/bits/stl_algobase.h ****     };
 140:/Applications/ArmGNUToolchain/14.2.rel1/arm-none-eabi/arm-none-eabi/include/c++/14.2.1/bits/stl_algobase.h **** #endif // C++03
 141:/Applications/ArmGNUToolchain/14.2.rel1/arm-none-eabi/arm-none-eabi/include/c++/14.2.1/bits/stl_algobase.h **** 
 142:/Applications/ArmGNUToolchain/14.2.rel1/arm-none-eabi/arm-none-eabi/include/c++/14.2.1/bits/stl_algobase.h ****   /**
 143:/Applications/ArmGNUToolchain/14.2.rel1/arm-none-eabi/arm-none-eabi/include/c++/14.2.1/bits/stl_algobase.h ****    *  @brief Swaps the contents of two iterators.
 144:/Applications/ArmGNUToolchain/14.2.rel1/arm-none-eabi/arm-none-eabi/include/c++/14.2.1/bits/stl_algobase.h ****    *  @ingroup mutating_algorithms
 145:/Applications/ArmGNUToolchain/14.2.rel1/arm-none-eabi/arm-none-eabi/include/c++/14.2.1/bits/stl_algobase.h ****    *  @param  __a  An iterator.
 146:/Applications/ArmGNUToolchain/14.2.rel1/arm-none-eabi/arm-none-eabi/include/c++/14.2.1/bits/stl_algobase.h ****    *  @param  __b  Another iterator.
 147:/Applications/ArmGNUToolchain/14.2.rel1/arm-none-eabi/arm-none-eabi/include/c++/14.2.1/bits/stl_algobase.h ****    *  @return   Nothing.
 148:/Applications/ArmGNUToolchain/14.2.rel1/arm-none-eabi/arm-none-eabi/include/c++/14.2.1/bits/stl_algobase.h ****    *
 149:/Applications/ArmGNUToolchain/14.2.rel1/arm-none-eabi/arm-none-eabi/include/c++/14.2.1/bits/stl_algobase.h ****    *  This function swaps the values pointed to by two iterators, not the
 150:/Applications/ArmGNUToolchain/14.2.rel1/arm-none-eabi/arm-none-eabi/include/c++/14.2.1/bits/stl_algobase.h ****    *  iterators themselves.
 151:/Applications/ArmGNUToolchain/14.2.rel1/arm-none-eabi/arm-none-eabi/include/c++/14.2.1/bits/stl_algobase.h ****   */
 152:/Applications/ArmGNUToolchain/14.2.rel1/arm-none-eabi/arm-none-eabi/include/c++/14.2.1/bits/stl_algobase.h ****   template<typename _ForwardIterator1, typename _ForwardIterator2>
 153:/Applications/ArmGNUToolchain/14.2.rel1/arm-none-eabi/arm-none-eabi/include/c++/14.2.1/bits/stl_algobase.h ****     _GLIBCXX20_CONSTEXPR
 154:/Applications/ArmGNUToolchain/14.2.rel1/arm-none-eabi/arm-none-eabi/include/c++/14.2.1/bits/stl_algobase.h ****     inline void
 155:/Applications/ArmGNUToolchain/14.2.rel1/arm-none-eabi/arm-none-eabi/include/c++/14.2.1/bits/stl_algobase.h ****     iter_swap(_ForwardIterator1 __a, _ForwardIterator2 __b)
 156:/Applications/ArmGNUToolchain/14.2.rel1/arm-none-eabi/arm-none-eabi/include/c++/14.2.1/bits/stl_algobase.h ****     {
 157:/Applications/ArmGNUToolchain/14.2.rel1/arm-none-eabi/arm-none-eabi/include/c++/14.2.1/bits/stl_algobase.h ****       // concept requirements
 158:/Applications/ArmGNUToolchain/14.2.rel1/arm-none-eabi/arm-none-eabi/include/c++/14.2.1/bits/stl_algobase.h ****       __glibcxx_function_requires(_Mutable_ForwardIteratorConcept<
 159:/Applications/ArmGNUToolchain/14.2.rel1/arm-none-eabi/arm-none-eabi/include/c++/14.2.1/bits/stl_algobase.h **** 				  _ForwardIterator1>)
 160:/Applications/ArmGNUToolchain/14.2.rel1/arm-none-eabi/arm-none-eabi/include/c++/14.2.1/bits/stl_algobase.h ****       __glibcxx_function_requires(_Mutable_ForwardIteratorConcept<
 161:/Applications/ArmGNUToolchain/14.2.rel1/arm-none-eabi/arm-none-eabi/include/c++/14.2.1/bits/stl_algobase.h **** 				  _ForwardIterator2>)
 162:/Applications/ArmGNUToolchain/14.2.rel1/arm-none-eabi/arm-none-eabi/include/c++/14.2.1/bits/stl_algobase.h **** 
 163:/Applications/ArmGNUToolchain/14.2.rel1/arm-none-eabi/arm-none-eabi/include/c++/14.2.1/bits/stl_algobase.h **** #if __cplusplus < 201103L
 164:/Applications/ArmGNUToolchain/14.2.rel1/arm-none-eabi/arm-none-eabi/include/c++/14.2.1/bits/stl_algobase.h ****       typedef typename iterator_traits<_ForwardIterator1>::value_type
 165:/Applications/ArmGNUToolchain/14.2.rel1/arm-none-eabi/arm-none-eabi/include/c++/14.2.1/bits/stl_algobase.h **** 	_ValueType1;
 166:/Applications/ArmGNUToolchain/14.2.rel1/arm-none-eabi/arm-none-eabi/include/c++/14.2.1/bits/stl_algobase.h ****       typedef typename iterator_traits<_ForwardIterator2>::value_type
 167:/Applications/ArmGNUToolchain/14.2.rel1/arm-none-eabi/arm-none-eabi/include/c++/14.2.1/bits/stl_algobase.h **** 	_ValueType2;
 168:/Applications/ArmGNUToolchain/14.2.rel1/arm-none-eabi/arm-none-eabi/include/c++/14.2.1/bits/stl_algobase.h **** 
 169:/Applications/ArmGNUToolchain/14.2.rel1/arm-none-eabi/arm-none-eabi/include/c++/14.2.1/bits/stl_algobase.h ****       __glibcxx_function_requires(_ConvertibleConcept<_ValueType1,
 170:/Applications/ArmGNUToolchain/14.2.rel1/arm-none-eabi/arm-none-eabi/include/c++/14.2.1/bits/stl_algobase.h **** 				  _ValueType2>)
 171:/Applications/ArmGNUToolchain/14.2.rel1/arm-none-eabi/arm-none-eabi/include/c++/14.2.1/bits/stl_algobase.h ****       __glibcxx_function_requires(_ConvertibleConcept<_ValueType2,
 172:/Applications/ArmGNUToolchain/14.2.rel1/arm-none-eabi/arm-none-eabi/include/c++/14.2.1/bits/stl_algobase.h **** 				  _ValueType1>)
 173:/Applications/ArmGNUToolchain/14.2.rel1/arm-none-eabi/arm-none-eabi/include/c++/14.2.1/bits/stl_algobase.h **** 
 174:/Applications/ArmGNUToolchain/14.2.rel1/arm-none-eabi/arm-none-eabi/include/c++/14.2.1/bits/stl_algobase.h ****       typedef typename iterator_traits<_ForwardIterator1>::reference
ARM GAS  /var/folders/y7/g6pkzsp12sx54x3s3mvyn15r0000gn/T//ccaxSVHj.s 			page 13


 175:/Applications/ArmGNUToolchain/14.2.rel1/arm-none-eabi/arm-none-eabi/include/c++/14.2.1/bits/stl_algobase.h **** 	_ReferenceType1;
 176:/Applications/ArmGNUToolchain/14.2.rel1/arm-none-eabi/arm-none-eabi/include/c++/14.2.1/bits/stl_algobase.h ****       typedef typename iterator_traits<_ForwardIterator2>::reference
 177:/Applications/ArmGNUToolchain/14.2.rel1/arm-none-eabi/arm-none-eabi/include/c++/14.2.1/bits/stl_algobase.h **** 	_ReferenceType2;
 178:/Applications/ArmGNUToolchain/14.2.rel1/arm-none-eabi/arm-none-eabi/include/c++/14.2.1/bits/stl_algobase.h ****       std::__iter_swap<__are_same<_ValueType1, _ValueType2>::__value
 179:/Applications/ArmGNUToolchain/14.2.rel1/arm-none-eabi/arm-none-eabi/include/c++/14.2.1/bits/stl_algobase.h **** 	&& __are_same<_ValueType1&, _ReferenceType1>::__value
 180:/Applications/ArmGNUToolchain/14.2.rel1/arm-none-eabi/arm-none-eabi/include/c++/14.2.1/bits/stl_algobase.h **** 	&& __are_same<_ValueType2&, _ReferenceType2>::__value>::
 181:/Applications/ArmGNUToolchain/14.2.rel1/arm-none-eabi/arm-none-eabi/include/c++/14.2.1/bits/stl_algobase.h **** 	iter_swap(__a, __b);
 182:/Applications/ArmGNUToolchain/14.2.rel1/arm-none-eabi/arm-none-eabi/include/c++/14.2.1/bits/stl_algobase.h **** #else
 183:/Applications/ArmGNUToolchain/14.2.rel1/arm-none-eabi/arm-none-eabi/include/c++/14.2.1/bits/stl_algobase.h ****       // _GLIBCXX_RESOLVE_LIB_DEFECTS
 184:/Applications/ArmGNUToolchain/14.2.rel1/arm-none-eabi/arm-none-eabi/include/c++/14.2.1/bits/stl_algobase.h ****       // 187. iter_swap underspecified
 185:/Applications/ArmGNUToolchain/14.2.rel1/arm-none-eabi/arm-none-eabi/include/c++/14.2.1/bits/stl_algobase.h ****       swap(*__a, *__b);
 186:/Applications/ArmGNUToolchain/14.2.rel1/arm-none-eabi/arm-none-eabi/include/c++/14.2.1/bits/stl_algobase.h **** #endif
 187:/Applications/ArmGNUToolchain/14.2.rel1/arm-none-eabi/arm-none-eabi/include/c++/14.2.1/bits/stl_algobase.h ****     }
 188:/Applications/ArmGNUToolchain/14.2.rel1/arm-none-eabi/arm-none-eabi/include/c++/14.2.1/bits/stl_algobase.h **** 
 189:/Applications/ArmGNUToolchain/14.2.rel1/arm-none-eabi/arm-none-eabi/include/c++/14.2.1/bits/stl_algobase.h ****   /**
 190:/Applications/ArmGNUToolchain/14.2.rel1/arm-none-eabi/arm-none-eabi/include/c++/14.2.1/bits/stl_algobase.h ****    *  @brief Swap the elements of two sequences.
 191:/Applications/ArmGNUToolchain/14.2.rel1/arm-none-eabi/arm-none-eabi/include/c++/14.2.1/bits/stl_algobase.h ****    *  @ingroup mutating_algorithms
 192:/Applications/ArmGNUToolchain/14.2.rel1/arm-none-eabi/arm-none-eabi/include/c++/14.2.1/bits/stl_algobase.h ****    *  @param  __first1  A forward iterator.
 193:/Applications/ArmGNUToolchain/14.2.rel1/arm-none-eabi/arm-none-eabi/include/c++/14.2.1/bits/stl_algobase.h ****    *  @param  __last1   A forward iterator.
 194:/Applications/ArmGNUToolchain/14.2.rel1/arm-none-eabi/arm-none-eabi/include/c++/14.2.1/bits/stl_algobase.h ****    *  @param  __first2  A forward iterator.
 195:/Applications/ArmGNUToolchain/14.2.rel1/arm-none-eabi/arm-none-eabi/include/c++/14.2.1/bits/stl_algobase.h ****    *  @return   An iterator equal to @p first2+(last1-first1).
 196:/Applications/ArmGNUToolchain/14.2.rel1/arm-none-eabi/arm-none-eabi/include/c++/14.2.1/bits/stl_algobase.h ****    *
 197:/Applications/ArmGNUToolchain/14.2.rel1/arm-none-eabi/arm-none-eabi/include/c++/14.2.1/bits/stl_algobase.h ****    *  Swaps each element in the range @p [first1,last1) with the
 198:/Applications/ArmGNUToolchain/14.2.rel1/arm-none-eabi/arm-none-eabi/include/c++/14.2.1/bits/stl_algobase.h ****    *  corresponding element in the range @p [first2,(last1-first1)).
 199:/Applications/ArmGNUToolchain/14.2.rel1/arm-none-eabi/arm-none-eabi/include/c++/14.2.1/bits/stl_algobase.h ****    *  The ranges must not overlap.
 200:/Applications/ArmGNUToolchain/14.2.rel1/arm-none-eabi/arm-none-eabi/include/c++/14.2.1/bits/stl_algobase.h ****   */
 201:/Applications/ArmGNUToolchain/14.2.rel1/arm-none-eabi/arm-none-eabi/include/c++/14.2.1/bits/stl_algobase.h ****   template<typename _ForwardIterator1, typename _ForwardIterator2>
 202:/Applications/ArmGNUToolchain/14.2.rel1/arm-none-eabi/arm-none-eabi/include/c++/14.2.1/bits/stl_algobase.h ****     _GLIBCXX20_CONSTEXPR
 203:/Applications/ArmGNUToolchain/14.2.rel1/arm-none-eabi/arm-none-eabi/include/c++/14.2.1/bits/stl_algobase.h ****     _ForwardIterator2
 204:/Applications/ArmGNUToolchain/14.2.rel1/arm-none-eabi/arm-none-eabi/include/c++/14.2.1/bits/stl_algobase.h ****     swap_ranges(_ForwardIterator1 __first1, _ForwardIterator1 __last1,
 205:/Applications/ArmGNUToolchain/14.2.rel1/arm-none-eabi/arm-none-eabi/include/c++/14.2.1/bits/stl_algobase.h **** 		_ForwardIterator2 __first2)
 206:/Applications/ArmGNUToolchain/14.2.rel1/arm-none-eabi/arm-none-eabi/include/c++/14.2.1/bits/stl_algobase.h ****     {
 207:/Applications/ArmGNUToolchain/14.2.rel1/arm-none-eabi/arm-none-eabi/include/c++/14.2.1/bits/stl_algobase.h ****       // concept requirements
 208:/Applications/ArmGNUToolchain/14.2.rel1/arm-none-eabi/arm-none-eabi/include/c++/14.2.1/bits/stl_algobase.h ****       __glibcxx_function_requires(_Mutable_ForwardIteratorConcept<
 209:/Applications/ArmGNUToolchain/14.2.rel1/arm-none-eabi/arm-none-eabi/include/c++/14.2.1/bits/stl_algobase.h **** 				  _ForwardIterator1>)
 210:/Applications/ArmGNUToolchain/14.2.rel1/arm-none-eabi/arm-none-eabi/include/c++/14.2.1/bits/stl_algobase.h ****       __glibcxx_function_requires(_Mutable_ForwardIteratorConcept<
 211:/Applications/ArmGNUToolchain/14.2.rel1/arm-none-eabi/arm-none-eabi/include/c++/14.2.1/bits/stl_algobase.h **** 				  _ForwardIterator2>)
 212:/Applications/ArmGNUToolchain/14.2.rel1/arm-none-eabi/arm-none-eabi/include/c++/14.2.1/bits/stl_algobase.h ****       __glibcxx_requires_valid_range(__first1, __last1);
 213:/Applications/ArmGNUToolchain/14.2.rel1/arm-none-eabi/arm-none-eabi/include/c++/14.2.1/bits/stl_algobase.h **** 
 214:/Applications/ArmGNUToolchain/14.2.rel1/arm-none-eabi/arm-none-eabi/include/c++/14.2.1/bits/stl_algobase.h ****       for (; __first1 != __last1; ++__first1, (void)++__first2)
 215:/Applications/ArmGNUToolchain/14.2.rel1/arm-none-eabi/arm-none-eabi/include/c++/14.2.1/bits/stl_algobase.h **** 	std::iter_swap(__first1, __first2);
 216:/Applications/ArmGNUToolchain/14.2.rel1/arm-none-eabi/arm-none-eabi/include/c++/14.2.1/bits/stl_algobase.h ****       return __first2;
 217:/Applications/ArmGNUToolchain/14.2.rel1/arm-none-eabi/arm-none-eabi/include/c++/14.2.1/bits/stl_algobase.h ****     }
 218:/Applications/ArmGNUToolchain/14.2.rel1/arm-none-eabi/arm-none-eabi/include/c++/14.2.1/bits/stl_algobase.h **** 
 219:/Applications/ArmGNUToolchain/14.2.rel1/arm-none-eabi/arm-none-eabi/include/c++/14.2.1/bits/stl_algobase.h ****   /**
 220:/Applications/ArmGNUToolchain/14.2.rel1/arm-none-eabi/arm-none-eabi/include/c++/14.2.1/bits/stl_algobase.h ****    *  @brief This does what you think it does.
 221:/Applications/ArmGNUToolchain/14.2.rel1/arm-none-eabi/arm-none-eabi/include/c++/14.2.1/bits/stl_algobase.h ****    *  @ingroup sorting_algorithms
 222:/Applications/ArmGNUToolchain/14.2.rel1/arm-none-eabi/arm-none-eabi/include/c++/14.2.1/bits/stl_algobase.h ****    *  @param  __a  A thing of arbitrary type.
 223:/Applications/ArmGNUToolchain/14.2.rel1/arm-none-eabi/arm-none-eabi/include/c++/14.2.1/bits/stl_algobase.h ****    *  @param  __b  Another thing of arbitrary type.
 224:/Applications/ArmGNUToolchain/14.2.rel1/arm-none-eabi/arm-none-eabi/include/c++/14.2.1/bits/stl_algobase.h ****    *  @return   The lesser of the parameters.
 225:/Applications/ArmGNUToolchain/14.2.rel1/arm-none-eabi/arm-none-eabi/include/c++/14.2.1/bits/stl_algobase.h ****    *
 226:/Applications/ArmGNUToolchain/14.2.rel1/arm-none-eabi/arm-none-eabi/include/c++/14.2.1/bits/stl_algobase.h ****    *  This is the simple classic generic implementation.  It will work on
 227:/Applications/ArmGNUToolchain/14.2.rel1/arm-none-eabi/arm-none-eabi/include/c++/14.2.1/bits/stl_algobase.h ****    *  temporary expressions, since they are only evaluated once, unlike a
 228:/Applications/ArmGNUToolchain/14.2.rel1/arm-none-eabi/arm-none-eabi/include/c++/14.2.1/bits/stl_algobase.h ****    *  preprocessor macro.
 229:/Applications/ArmGNUToolchain/14.2.rel1/arm-none-eabi/arm-none-eabi/include/c++/14.2.1/bits/stl_algobase.h ****   */
 230:/Applications/ArmGNUToolchain/14.2.rel1/arm-none-eabi/arm-none-eabi/include/c++/14.2.1/bits/stl_algobase.h ****   template<typename _Tp>
 231:/Applications/ArmGNUToolchain/14.2.rel1/arm-none-eabi/arm-none-eabi/include/c++/14.2.1/bits/stl_algobase.h ****     _GLIBCXX_NODISCARD _GLIBCXX14_CONSTEXPR
ARM GAS  /var/folders/y7/g6pkzsp12sx54x3s3mvyn15r0000gn/T//ccaxSVHj.s 			page 14


 232:/Applications/ArmGNUToolchain/14.2.rel1/arm-none-eabi/arm-none-eabi/include/c++/14.2.1/bits/stl_algobase.h ****     inline const _Tp&
 233:/Applications/ArmGNUToolchain/14.2.rel1/arm-none-eabi/arm-none-eabi/include/c++/14.2.1/bits/stl_algobase.h ****     min(const _Tp& __a, const _Tp& __b)
 234:/Applications/ArmGNUToolchain/14.2.rel1/arm-none-eabi/arm-none-eabi/include/c++/14.2.1/bits/stl_algobase.h ****     {
 235:/Applications/ArmGNUToolchain/14.2.rel1/arm-none-eabi/arm-none-eabi/include/c++/14.2.1/bits/stl_algobase.h ****       // concept requirements
 236:/Applications/ArmGNUToolchain/14.2.rel1/arm-none-eabi/arm-none-eabi/include/c++/14.2.1/bits/stl_algobase.h ****       __glibcxx_function_requires(_LessThanComparableConcept<_Tp>)
 237:/Applications/ArmGNUToolchain/14.2.rel1/arm-none-eabi/arm-none-eabi/include/c++/14.2.1/bits/stl_algobase.h ****       //return __b < __a ? __b : __a;
 238:/Applications/ArmGNUToolchain/14.2.rel1/arm-none-eabi/arm-none-eabi/include/c++/14.2.1/bits/stl_algobase.h ****       if (__b < __a)
 239:/Applications/ArmGNUToolchain/14.2.rel1/arm-none-eabi/arm-none-eabi/include/c++/14.2.1/bits/stl_algobase.h **** 	return __b;
 240:/Applications/ArmGNUToolchain/14.2.rel1/arm-none-eabi/arm-none-eabi/include/c++/14.2.1/bits/stl_algobase.h ****       return __a;
 241:/Applications/ArmGNUToolchain/14.2.rel1/arm-none-eabi/arm-none-eabi/include/c++/14.2.1/bits/stl_algobase.h ****     }
 242:/Applications/ArmGNUToolchain/14.2.rel1/arm-none-eabi/arm-none-eabi/include/c++/14.2.1/bits/stl_algobase.h **** 
 243:/Applications/ArmGNUToolchain/14.2.rel1/arm-none-eabi/arm-none-eabi/include/c++/14.2.1/bits/stl_algobase.h ****   /**
 244:/Applications/ArmGNUToolchain/14.2.rel1/arm-none-eabi/arm-none-eabi/include/c++/14.2.1/bits/stl_algobase.h ****    *  @brief This does what you think it does.
 245:/Applications/ArmGNUToolchain/14.2.rel1/arm-none-eabi/arm-none-eabi/include/c++/14.2.1/bits/stl_algobase.h ****    *  @ingroup sorting_algorithms
 246:/Applications/ArmGNUToolchain/14.2.rel1/arm-none-eabi/arm-none-eabi/include/c++/14.2.1/bits/stl_algobase.h ****    *  @param  __a  A thing of arbitrary type.
 247:/Applications/ArmGNUToolchain/14.2.rel1/arm-none-eabi/arm-none-eabi/include/c++/14.2.1/bits/stl_algobase.h ****    *  @param  __b  Another thing of arbitrary type.
 248:/Applications/ArmGNUToolchain/14.2.rel1/arm-none-eabi/arm-none-eabi/include/c++/14.2.1/bits/stl_algobase.h ****    *  @return   The greater of the parameters.
 249:/Applications/ArmGNUToolchain/14.2.rel1/arm-none-eabi/arm-none-eabi/include/c++/14.2.1/bits/stl_algobase.h ****    *
 250:/Applications/ArmGNUToolchain/14.2.rel1/arm-none-eabi/arm-none-eabi/include/c++/14.2.1/bits/stl_algobase.h ****    *  This is the simple classic generic implementation.  It will work on
 251:/Applications/ArmGNUToolchain/14.2.rel1/arm-none-eabi/arm-none-eabi/include/c++/14.2.1/bits/stl_algobase.h ****    *  temporary expressions, since they are only evaluated once, unlike a
 252:/Applications/ArmGNUToolchain/14.2.rel1/arm-none-eabi/arm-none-eabi/include/c++/14.2.1/bits/stl_algobase.h ****    *  preprocessor macro.
 253:/Applications/ArmGNUToolchain/14.2.rel1/arm-none-eabi/arm-none-eabi/include/c++/14.2.1/bits/stl_algobase.h ****   */
 254:/Applications/ArmGNUToolchain/14.2.rel1/arm-none-eabi/arm-none-eabi/include/c++/14.2.1/bits/stl_algobase.h ****   template<typename _Tp>
 255:/Applications/ArmGNUToolchain/14.2.rel1/arm-none-eabi/arm-none-eabi/include/c++/14.2.1/bits/stl_algobase.h ****     _GLIBCXX_NODISCARD _GLIBCXX14_CONSTEXPR
 256:/Applications/ArmGNUToolchain/14.2.rel1/arm-none-eabi/arm-none-eabi/include/c++/14.2.1/bits/stl_algobase.h ****     inline const _Tp&
 257:/Applications/ArmGNUToolchain/14.2.rel1/arm-none-eabi/arm-none-eabi/include/c++/14.2.1/bits/stl_algobase.h ****     max(const _Tp& __a, const _Tp& __b)
 258:/Applications/ArmGNUToolchain/14.2.rel1/arm-none-eabi/arm-none-eabi/include/c++/14.2.1/bits/stl_algobase.h ****     {
 259:/Applications/ArmGNUToolchain/14.2.rel1/arm-none-eabi/arm-none-eabi/include/c++/14.2.1/bits/stl_algobase.h ****       // concept requirements
 260:/Applications/ArmGNUToolchain/14.2.rel1/arm-none-eabi/arm-none-eabi/include/c++/14.2.1/bits/stl_algobase.h ****       __glibcxx_function_requires(_LessThanComparableConcept<_Tp>)
 261:/Applications/ArmGNUToolchain/14.2.rel1/arm-none-eabi/arm-none-eabi/include/c++/14.2.1/bits/stl_algobase.h ****       //return  __a < __b ? __b : __a;
 262:/Applications/ArmGNUToolchain/14.2.rel1/arm-none-eabi/arm-none-eabi/include/c++/14.2.1/bits/stl_algobase.h ****       if (__a < __b)
 263:/Applications/ArmGNUToolchain/14.2.rel1/arm-none-eabi/arm-none-eabi/include/c++/14.2.1/bits/stl_algobase.h **** 	return __b;
 264:/Applications/ArmGNUToolchain/14.2.rel1/arm-none-eabi/arm-none-eabi/include/c++/14.2.1/bits/stl_algobase.h ****       return __a;
 265:/Applications/ArmGNUToolchain/14.2.rel1/arm-none-eabi/arm-none-eabi/include/c++/14.2.1/bits/stl_algobase.h ****     }
 266:/Applications/ArmGNUToolchain/14.2.rel1/arm-none-eabi/arm-none-eabi/include/c++/14.2.1/bits/stl_algobase.h **** 
 267:/Applications/ArmGNUToolchain/14.2.rel1/arm-none-eabi/arm-none-eabi/include/c++/14.2.1/bits/stl_algobase.h ****   /**
 268:/Applications/ArmGNUToolchain/14.2.rel1/arm-none-eabi/arm-none-eabi/include/c++/14.2.1/bits/stl_algobase.h ****    *  @brief This does what you think it does.
 269:/Applications/ArmGNUToolchain/14.2.rel1/arm-none-eabi/arm-none-eabi/include/c++/14.2.1/bits/stl_algobase.h ****    *  @ingroup sorting_algorithms
 270:/Applications/ArmGNUToolchain/14.2.rel1/arm-none-eabi/arm-none-eabi/include/c++/14.2.1/bits/stl_algobase.h ****    *  @param  __a  A thing of arbitrary type.
 271:/Applications/ArmGNUToolchain/14.2.rel1/arm-none-eabi/arm-none-eabi/include/c++/14.2.1/bits/stl_algobase.h ****    *  @param  __b  Another thing of arbitrary type.
 272:/Applications/ArmGNUToolchain/14.2.rel1/arm-none-eabi/arm-none-eabi/include/c++/14.2.1/bits/stl_algobase.h ****    *  @param  __comp  A @link comparison_functors comparison functor@endlink.
 273:/Applications/ArmGNUToolchain/14.2.rel1/arm-none-eabi/arm-none-eabi/include/c++/14.2.1/bits/stl_algobase.h ****    *  @return   The lesser of the parameters.
 274:/Applications/ArmGNUToolchain/14.2.rel1/arm-none-eabi/arm-none-eabi/include/c++/14.2.1/bits/stl_algobase.h ****    *
 275:/Applications/ArmGNUToolchain/14.2.rel1/arm-none-eabi/arm-none-eabi/include/c++/14.2.1/bits/stl_algobase.h ****    *  This will work on temporary expressions, since they are only evaluated
 276:/Applications/ArmGNUToolchain/14.2.rel1/arm-none-eabi/arm-none-eabi/include/c++/14.2.1/bits/stl_algobase.h ****    *  once, unlike a preprocessor macro.
 277:/Applications/ArmGNUToolchain/14.2.rel1/arm-none-eabi/arm-none-eabi/include/c++/14.2.1/bits/stl_algobase.h ****   */
 278:/Applications/ArmGNUToolchain/14.2.rel1/arm-none-eabi/arm-none-eabi/include/c++/14.2.1/bits/stl_algobase.h ****   template<typename _Tp, typename _Compare>
 279:/Applications/ArmGNUToolchain/14.2.rel1/arm-none-eabi/arm-none-eabi/include/c++/14.2.1/bits/stl_algobase.h ****     _GLIBCXX_NODISCARD _GLIBCXX14_CONSTEXPR
 280:/Applications/ArmGNUToolchain/14.2.rel1/arm-none-eabi/arm-none-eabi/include/c++/14.2.1/bits/stl_algobase.h ****     inline const _Tp&
 281:/Applications/ArmGNUToolchain/14.2.rel1/arm-none-eabi/arm-none-eabi/include/c++/14.2.1/bits/stl_algobase.h ****     min(const _Tp& __a, const _Tp& __b, _Compare __comp)
 282:/Applications/ArmGNUToolchain/14.2.rel1/arm-none-eabi/arm-none-eabi/include/c++/14.2.1/bits/stl_algobase.h ****     {
 283:/Applications/ArmGNUToolchain/14.2.rel1/arm-none-eabi/arm-none-eabi/include/c++/14.2.1/bits/stl_algobase.h ****       //return __comp(__b, __a) ? __b : __a;
 284:/Applications/ArmGNUToolchain/14.2.rel1/arm-none-eabi/arm-none-eabi/include/c++/14.2.1/bits/stl_algobase.h ****       if (__comp(__b, __a))
 285:/Applications/ArmGNUToolchain/14.2.rel1/arm-none-eabi/arm-none-eabi/include/c++/14.2.1/bits/stl_algobase.h **** 	return __b;
 286:/Applications/ArmGNUToolchain/14.2.rel1/arm-none-eabi/arm-none-eabi/include/c++/14.2.1/bits/stl_algobase.h ****       return __a;
 287:/Applications/ArmGNUToolchain/14.2.rel1/arm-none-eabi/arm-none-eabi/include/c++/14.2.1/bits/stl_algobase.h ****     }
 288:/Applications/ArmGNUToolchain/14.2.rel1/arm-none-eabi/arm-none-eabi/include/c++/14.2.1/bits/stl_algobase.h **** 
ARM GAS  /var/folders/y7/g6pkzsp12sx54x3s3mvyn15r0000gn/T//ccaxSVHj.s 			page 15


 289:/Applications/ArmGNUToolchain/14.2.rel1/arm-none-eabi/arm-none-eabi/include/c++/14.2.1/bits/stl_algobase.h ****   /**
 290:/Applications/ArmGNUToolchain/14.2.rel1/arm-none-eabi/arm-none-eabi/include/c++/14.2.1/bits/stl_algobase.h ****    *  @brief This does what you think it does.
 291:/Applications/ArmGNUToolchain/14.2.rel1/arm-none-eabi/arm-none-eabi/include/c++/14.2.1/bits/stl_algobase.h ****    *  @ingroup sorting_algorithms
 292:/Applications/ArmGNUToolchain/14.2.rel1/arm-none-eabi/arm-none-eabi/include/c++/14.2.1/bits/stl_algobase.h ****    *  @param  __a  A thing of arbitrary type.
 293:/Applications/ArmGNUToolchain/14.2.rel1/arm-none-eabi/arm-none-eabi/include/c++/14.2.1/bits/stl_algobase.h ****    *  @param  __b  Another thing of arbitrary type.
 294:/Applications/ArmGNUToolchain/14.2.rel1/arm-none-eabi/arm-none-eabi/include/c++/14.2.1/bits/stl_algobase.h ****    *  @param  __comp  A @link comparison_functors comparison functor@endlink.
 295:/Applications/ArmGNUToolchain/14.2.rel1/arm-none-eabi/arm-none-eabi/include/c++/14.2.1/bits/stl_algobase.h ****    *  @return   The greater of the parameters.
 296:/Applications/ArmGNUToolchain/14.2.rel1/arm-none-eabi/arm-none-eabi/include/c++/14.2.1/bits/stl_algobase.h ****    *
 297:/Applications/ArmGNUToolchain/14.2.rel1/arm-none-eabi/arm-none-eabi/include/c++/14.2.1/bits/stl_algobase.h ****    *  This will work on temporary expressions, since they are only evaluated
 298:/Applications/ArmGNUToolchain/14.2.rel1/arm-none-eabi/arm-none-eabi/include/c++/14.2.1/bits/stl_algobase.h ****    *  once, unlike a preprocessor macro.
 299:/Applications/ArmGNUToolchain/14.2.rel1/arm-none-eabi/arm-none-eabi/include/c++/14.2.1/bits/stl_algobase.h ****   */
 300:/Applications/ArmGNUToolchain/14.2.rel1/arm-none-eabi/arm-none-eabi/include/c++/14.2.1/bits/stl_algobase.h ****   template<typename _Tp, typename _Compare>
 301:/Applications/ArmGNUToolchain/14.2.rel1/arm-none-eabi/arm-none-eabi/include/c++/14.2.1/bits/stl_algobase.h ****     _GLIBCXX_NODISCARD _GLIBCXX14_CONSTEXPR
 302:/Applications/ArmGNUToolchain/14.2.rel1/arm-none-eabi/arm-none-eabi/include/c++/14.2.1/bits/stl_algobase.h ****     inline const _Tp&
 303:/Applications/ArmGNUToolchain/14.2.rel1/arm-none-eabi/arm-none-eabi/include/c++/14.2.1/bits/stl_algobase.h ****     max(const _Tp& __a, const _Tp& __b, _Compare __comp)
 304:/Applications/ArmGNUToolchain/14.2.rel1/arm-none-eabi/arm-none-eabi/include/c++/14.2.1/bits/stl_algobase.h ****     {
 305:/Applications/ArmGNUToolchain/14.2.rel1/arm-none-eabi/arm-none-eabi/include/c++/14.2.1/bits/stl_algobase.h ****       //return __comp(__a, __b) ? __b : __a;
 306:/Applications/ArmGNUToolchain/14.2.rel1/arm-none-eabi/arm-none-eabi/include/c++/14.2.1/bits/stl_algobase.h ****       if (__comp(__a, __b))
 307:/Applications/ArmGNUToolchain/14.2.rel1/arm-none-eabi/arm-none-eabi/include/c++/14.2.1/bits/stl_algobase.h **** 	return __b;
 308:/Applications/ArmGNUToolchain/14.2.rel1/arm-none-eabi/arm-none-eabi/include/c++/14.2.1/bits/stl_algobase.h ****       return __a;
 309:/Applications/ArmGNUToolchain/14.2.rel1/arm-none-eabi/arm-none-eabi/include/c++/14.2.1/bits/stl_algobase.h ****     }
 310:/Applications/ArmGNUToolchain/14.2.rel1/arm-none-eabi/arm-none-eabi/include/c++/14.2.1/bits/stl_algobase.h **** 
 311:/Applications/ArmGNUToolchain/14.2.rel1/arm-none-eabi/arm-none-eabi/include/c++/14.2.1/bits/stl_algobase.h ****   // Fallback implementation of the function in bits/stl_iterator.h used to
 312:/Applications/ArmGNUToolchain/14.2.rel1/arm-none-eabi/arm-none-eabi/include/c++/14.2.1/bits/stl_algobase.h ****   // remove the __normal_iterator wrapper. See copy, fill, ...
 313:/Applications/ArmGNUToolchain/14.2.rel1/arm-none-eabi/arm-none-eabi/include/c++/14.2.1/bits/stl_algobase.h ****   template<typename _Iterator>
 314:/Applications/ArmGNUToolchain/14.2.rel1/arm-none-eabi/arm-none-eabi/include/c++/14.2.1/bits/stl_algobase.h ****     _GLIBCXX20_CONSTEXPR
 315:/Applications/ArmGNUToolchain/14.2.rel1/arm-none-eabi/arm-none-eabi/include/c++/14.2.1/bits/stl_algobase.h ****     inline _Iterator
 316:/Applications/ArmGNUToolchain/14.2.rel1/arm-none-eabi/arm-none-eabi/include/c++/14.2.1/bits/stl_algobase.h ****     __niter_base(_Iterator __it)
 317:/Applications/ArmGNUToolchain/14.2.rel1/arm-none-eabi/arm-none-eabi/include/c++/14.2.1/bits/stl_algobase.h ****     _GLIBCXX_NOEXCEPT_IF(std::is_nothrow_copy_constructible<_Iterator>::value)
 318:/Applications/ArmGNUToolchain/14.2.rel1/arm-none-eabi/arm-none-eabi/include/c++/14.2.1/bits/stl_algobase.h ****     { return __it; }
 319:/Applications/ArmGNUToolchain/14.2.rel1/arm-none-eabi/arm-none-eabi/include/c++/14.2.1/bits/stl_algobase.h **** 
 320:/Applications/ArmGNUToolchain/14.2.rel1/arm-none-eabi/arm-none-eabi/include/c++/14.2.1/bits/stl_algobase.h **** #if __cplusplus < 201103L
 321:/Applications/ArmGNUToolchain/14.2.rel1/arm-none-eabi/arm-none-eabi/include/c++/14.2.1/bits/stl_algobase.h ****   template<typename _Ite, typename _Seq>
 322:/Applications/ArmGNUToolchain/14.2.rel1/arm-none-eabi/arm-none-eabi/include/c++/14.2.1/bits/stl_algobase.h ****     _Ite
 323:/Applications/ArmGNUToolchain/14.2.rel1/arm-none-eabi/arm-none-eabi/include/c++/14.2.1/bits/stl_algobase.h ****     __niter_base(const ::__gnu_debug::_Safe_iterator<_Ite, _Seq,
 324:/Applications/ArmGNUToolchain/14.2.rel1/arm-none-eabi/arm-none-eabi/include/c++/14.2.1/bits/stl_algobase.h **** 		 std::random_access_iterator_tag>&);
 325:/Applications/ArmGNUToolchain/14.2.rel1/arm-none-eabi/arm-none-eabi/include/c++/14.2.1/bits/stl_algobase.h **** 
 326:/Applications/ArmGNUToolchain/14.2.rel1/arm-none-eabi/arm-none-eabi/include/c++/14.2.1/bits/stl_algobase.h ****  template<typename _Ite, typename _Cont, typename _Seq>
 327:/Applications/ArmGNUToolchain/14.2.rel1/arm-none-eabi/arm-none-eabi/include/c++/14.2.1/bits/stl_algobase.h ****     _Ite
 328:/Applications/ArmGNUToolchain/14.2.rel1/arm-none-eabi/arm-none-eabi/include/c++/14.2.1/bits/stl_algobase.h ****     __niter_base(const ::__gnu_debug::_Safe_iterator<
 329:/Applications/ArmGNUToolchain/14.2.rel1/arm-none-eabi/arm-none-eabi/include/c++/14.2.1/bits/stl_algobase.h **** 		 ::__gnu_cxx::__normal_iterator<_Ite, _Cont>, _Seq,
 330:/Applications/ArmGNUToolchain/14.2.rel1/arm-none-eabi/arm-none-eabi/include/c++/14.2.1/bits/stl_algobase.h **** 		 std::random_access_iterator_tag>&);
 331:/Applications/ArmGNUToolchain/14.2.rel1/arm-none-eabi/arm-none-eabi/include/c++/14.2.1/bits/stl_algobase.h **** #else
 332:/Applications/ArmGNUToolchain/14.2.rel1/arm-none-eabi/arm-none-eabi/include/c++/14.2.1/bits/stl_algobase.h ****   template<typename _Ite, typename _Seq>
 333:/Applications/ArmGNUToolchain/14.2.rel1/arm-none-eabi/arm-none-eabi/include/c++/14.2.1/bits/stl_algobase.h ****     _GLIBCXX20_CONSTEXPR
 334:/Applications/ArmGNUToolchain/14.2.rel1/arm-none-eabi/arm-none-eabi/include/c++/14.2.1/bits/stl_algobase.h ****     decltype(std::__niter_base(std::declval<_Ite>()))
 335:/Applications/ArmGNUToolchain/14.2.rel1/arm-none-eabi/arm-none-eabi/include/c++/14.2.1/bits/stl_algobase.h ****     __niter_base(const ::__gnu_debug::_Safe_iterator<_Ite, _Seq,
 336:/Applications/ArmGNUToolchain/14.2.rel1/arm-none-eabi/arm-none-eabi/include/c++/14.2.1/bits/stl_algobase.h **** 		 std::random_access_iterator_tag>&)
 337:/Applications/ArmGNUToolchain/14.2.rel1/arm-none-eabi/arm-none-eabi/include/c++/14.2.1/bits/stl_algobase.h ****     noexcept(std::is_nothrow_copy_constructible<_Ite>::value);
 338:/Applications/ArmGNUToolchain/14.2.rel1/arm-none-eabi/arm-none-eabi/include/c++/14.2.1/bits/stl_algobase.h **** #endif
 339:/Applications/ArmGNUToolchain/14.2.rel1/arm-none-eabi/arm-none-eabi/include/c++/14.2.1/bits/stl_algobase.h **** 
 340:/Applications/ArmGNUToolchain/14.2.rel1/arm-none-eabi/arm-none-eabi/include/c++/14.2.1/bits/stl_algobase.h ****   // Reverse the __niter_base transformation to get a
 341:/Applications/ArmGNUToolchain/14.2.rel1/arm-none-eabi/arm-none-eabi/include/c++/14.2.1/bits/stl_algobase.h ****   // __normal_iterator back again (this assumes that __normal_iterator
 342:/Applications/ArmGNUToolchain/14.2.rel1/arm-none-eabi/arm-none-eabi/include/c++/14.2.1/bits/stl_algobase.h ****   // is only used to wrap random access iterators, like pointers).
 343:/Applications/ArmGNUToolchain/14.2.rel1/arm-none-eabi/arm-none-eabi/include/c++/14.2.1/bits/stl_algobase.h ****   template<typename _From, typename _To>
 344:/Applications/ArmGNUToolchain/14.2.rel1/arm-none-eabi/arm-none-eabi/include/c++/14.2.1/bits/stl_algobase.h ****     _GLIBCXX20_CONSTEXPR
 345:/Applications/ArmGNUToolchain/14.2.rel1/arm-none-eabi/arm-none-eabi/include/c++/14.2.1/bits/stl_algobase.h ****     inline _From
ARM GAS  /var/folders/y7/g6pkzsp12sx54x3s3mvyn15r0000gn/T//ccaxSVHj.s 			page 16


 346:/Applications/ArmGNUToolchain/14.2.rel1/arm-none-eabi/arm-none-eabi/include/c++/14.2.1/bits/stl_algobase.h ****     __niter_wrap(_From __from, _To __res)
 347:/Applications/ArmGNUToolchain/14.2.rel1/arm-none-eabi/arm-none-eabi/include/c++/14.2.1/bits/stl_algobase.h ****     { return __from + (std::__niter_base(__res) - std::__niter_base(__from)); }
 348:/Applications/ArmGNUToolchain/14.2.rel1/arm-none-eabi/arm-none-eabi/include/c++/14.2.1/bits/stl_algobase.h **** 
 349:/Applications/ArmGNUToolchain/14.2.rel1/arm-none-eabi/arm-none-eabi/include/c++/14.2.1/bits/stl_algobase.h ****   // No need to wrap, iterator already has the right type.
 350:/Applications/ArmGNUToolchain/14.2.rel1/arm-none-eabi/arm-none-eabi/include/c++/14.2.1/bits/stl_algobase.h ****   template<typename _Iterator>
 351:/Applications/ArmGNUToolchain/14.2.rel1/arm-none-eabi/arm-none-eabi/include/c++/14.2.1/bits/stl_algobase.h ****     _GLIBCXX20_CONSTEXPR
 352:/Applications/ArmGNUToolchain/14.2.rel1/arm-none-eabi/arm-none-eabi/include/c++/14.2.1/bits/stl_algobase.h ****     inline _Iterator
 353:/Applications/ArmGNUToolchain/14.2.rel1/arm-none-eabi/arm-none-eabi/include/c++/14.2.1/bits/stl_algobase.h ****     __niter_wrap(const _Iterator&, _Iterator __res)
 354:/Applications/ArmGNUToolchain/14.2.rel1/arm-none-eabi/arm-none-eabi/include/c++/14.2.1/bits/stl_algobase.h ****     { return __res; }
 355:/Applications/ArmGNUToolchain/14.2.rel1/arm-none-eabi/arm-none-eabi/include/c++/14.2.1/bits/stl_algobase.h **** 
 356:/Applications/ArmGNUToolchain/14.2.rel1/arm-none-eabi/arm-none-eabi/include/c++/14.2.1/bits/stl_algobase.h ****   // All of these auxiliary structs serve two purposes.  (1) Replace
 357:/Applications/ArmGNUToolchain/14.2.rel1/arm-none-eabi/arm-none-eabi/include/c++/14.2.1/bits/stl_algobase.h ****   // calls to copy with memmove whenever possible.  (Memmove, not memcpy,
 358:/Applications/ArmGNUToolchain/14.2.rel1/arm-none-eabi/arm-none-eabi/include/c++/14.2.1/bits/stl_algobase.h ****   // because the input and output ranges are permitted to overlap.)
 359:/Applications/ArmGNUToolchain/14.2.rel1/arm-none-eabi/arm-none-eabi/include/c++/14.2.1/bits/stl_algobase.h ****   // (2) If we're using random access iterators, then write the loop as
 360:/Applications/ArmGNUToolchain/14.2.rel1/arm-none-eabi/arm-none-eabi/include/c++/14.2.1/bits/stl_algobase.h ****   // a for loop with an explicit count.
 361:/Applications/ArmGNUToolchain/14.2.rel1/arm-none-eabi/arm-none-eabi/include/c++/14.2.1/bits/stl_algobase.h **** 
 362:/Applications/ArmGNUToolchain/14.2.rel1/arm-none-eabi/arm-none-eabi/include/c++/14.2.1/bits/stl_algobase.h ****   template<bool _IsMove, bool _IsSimple, typename _Category>
 363:/Applications/ArmGNUToolchain/14.2.rel1/arm-none-eabi/arm-none-eabi/include/c++/14.2.1/bits/stl_algobase.h ****     struct __copy_move
 364:/Applications/ArmGNUToolchain/14.2.rel1/arm-none-eabi/arm-none-eabi/include/c++/14.2.1/bits/stl_algobase.h ****     {
 365:/Applications/ArmGNUToolchain/14.2.rel1/arm-none-eabi/arm-none-eabi/include/c++/14.2.1/bits/stl_algobase.h ****       template<typename _II, typename _OI>
 366:/Applications/ArmGNUToolchain/14.2.rel1/arm-none-eabi/arm-none-eabi/include/c++/14.2.1/bits/stl_algobase.h **** 	_GLIBCXX20_CONSTEXPR
 367:/Applications/ArmGNUToolchain/14.2.rel1/arm-none-eabi/arm-none-eabi/include/c++/14.2.1/bits/stl_algobase.h **** 	static _OI
 368:/Applications/ArmGNUToolchain/14.2.rel1/arm-none-eabi/arm-none-eabi/include/c++/14.2.1/bits/stl_algobase.h **** 	__copy_m(_II __first, _II __last, _OI __result)
 369:/Applications/ArmGNUToolchain/14.2.rel1/arm-none-eabi/arm-none-eabi/include/c++/14.2.1/bits/stl_algobase.h **** 	{
 370:/Applications/ArmGNUToolchain/14.2.rel1/arm-none-eabi/arm-none-eabi/include/c++/14.2.1/bits/stl_algobase.h **** 	  for (; __first != __last; ++__result, (void)++__first)
 371:/Applications/ArmGNUToolchain/14.2.rel1/arm-none-eabi/arm-none-eabi/include/c++/14.2.1/bits/stl_algobase.h **** 	    *__result = *__first;
 372:/Applications/ArmGNUToolchain/14.2.rel1/arm-none-eabi/arm-none-eabi/include/c++/14.2.1/bits/stl_algobase.h **** 	  return __result;
 373:/Applications/ArmGNUToolchain/14.2.rel1/arm-none-eabi/arm-none-eabi/include/c++/14.2.1/bits/stl_algobase.h **** 	}
 374:/Applications/ArmGNUToolchain/14.2.rel1/arm-none-eabi/arm-none-eabi/include/c++/14.2.1/bits/stl_algobase.h ****     };
 375:/Applications/ArmGNUToolchain/14.2.rel1/arm-none-eabi/arm-none-eabi/include/c++/14.2.1/bits/stl_algobase.h **** 
 376:/Applications/ArmGNUToolchain/14.2.rel1/arm-none-eabi/arm-none-eabi/include/c++/14.2.1/bits/stl_algobase.h **** #if __cplusplus >= 201103L
 377:/Applications/ArmGNUToolchain/14.2.rel1/arm-none-eabi/arm-none-eabi/include/c++/14.2.1/bits/stl_algobase.h ****   template<typename _Category>
 378:/Applications/ArmGNUToolchain/14.2.rel1/arm-none-eabi/arm-none-eabi/include/c++/14.2.1/bits/stl_algobase.h ****     struct __copy_move<true, false, _Category>
 379:/Applications/ArmGNUToolchain/14.2.rel1/arm-none-eabi/arm-none-eabi/include/c++/14.2.1/bits/stl_algobase.h ****     {
 380:/Applications/ArmGNUToolchain/14.2.rel1/arm-none-eabi/arm-none-eabi/include/c++/14.2.1/bits/stl_algobase.h ****       template<typename _II, typename _OI>
 381:/Applications/ArmGNUToolchain/14.2.rel1/arm-none-eabi/arm-none-eabi/include/c++/14.2.1/bits/stl_algobase.h **** 	_GLIBCXX20_CONSTEXPR
 382:/Applications/ArmGNUToolchain/14.2.rel1/arm-none-eabi/arm-none-eabi/include/c++/14.2.1/bits/stl_algobase.h **** 	static _OI
 383:/Applications/ArmGNUToolchain/14.2.rel1/arm-none-eabi/arm-none-eabi/include/c++/14.2.1/bits/stl_algobase.h **** 	__copy_m(_II __first, _II __last, _OI __result)
 384:/Applications/ArmGNUToolchain/14.2.rel1/arm-none-eabi/arm-none-eabi/include/c++/14.2.1/bits/stl_algobase.h **** 	{
 385:/Applications/ArmGNUToolchain/14.2.rel1/arm-none-eabi/arm-none-eabi/include/c++/14.2.1/bits/stl_algobase.h **** 	  for (; __first != __last; ++__result, (void)++__first)
 386:/Applications/ArmGNUToolchain/14.2.rel1/arm-none-eabi/arm-none-eabi/include/c++/14.2.1/bits/stl_algobase.h **** 	    *__result = std::move(*__first);
 387:/Applications/ArmGNUToolchain/14.2.rel1/arm-none-eabi/arm-none-eabi/include/c++/14.2.1/bits/stl_algobase.h **** 	  return __result;
 388:/Applications/ArmGNUToolchain/14.2.rel1/arm-none-eabi/arm-none-eabi/include/c++/14.2.1/bits/stl_algobase.h **** 	}
 389:/Applications/ArmGNUToolchain/14.2.rel1/arm-none-eabi/arm-none-eabi/include/c++/14.2.1/bits/stl_algobase.h ****     };
 390:/Applications/ArmGNUToolchain/14.2.rel1/arm-none-eabi/arm-none-eabi/include/c++/14.2.1/bits/stl_algobase.h **** #endif
 391:/Applications/ArmGNUToolchain/14.2.rel1/arm-none-eabi/arm-none-eabi/include/c++/14.2.1/bits/stl_algobase.h **** 
 392:/Applications/ArmGNUToolchain/14.2.rel1/arm-none-eabi/arm-none-eabi/include/c++/14.2.1/bits/stl_algobase.h ****   template<>
 393:/Applications/ArmGNUToolchain/14.2.rel1/arm-none-eabi/arm-none-eabi/include/c++/14.2.1/bits/stl_algobase.h ****     struct __copy_move<false, false, random_access_iterator_tag>
 394:/Applications/ArmGNUToolchain/14.2.rel1/arm-none-eabi/arm-none-eabi/include/c++/14.2.1/bits/stl_algobase.h ****     {
 395:/Applications/ArmGNUToolchain/14.2.rel1/arm-none-eabi/arm-none-eabi/include/c++/14.2.1/bits/stl_algobase.h ****       template<typename _II, typename _OI>
 396:/Applications/ArmGNUToolchain/14.2.rel1/arm-none-eabi/arm-none-eabi/include/c++/14.2.1/bits/stl_algobase.h **** 	_GLIBCXX20_CONSTEXPR
 397:/Applications/ArmGNUToolchain/14.2.rel1/arm-none-eabi/arm-none-eabi/include/c++/14.2.1/bits/stl_algobase.h **** 	static _OI
 398:/Applications/ArmGNUToolchain/14.2.rel1/arm-none-eabi/arm-none-eabi/include/c++/14.2.1/bits/stl_algobase.h **** 	__copy_m(_II __first, _II __last, _OI __result)
 399:/Applications/ArmGNUToolchain/14.2.rel1/arm-none-eabi/arm-none-eabi/include/c++/14.2.1/bits/stl_algobase.h **** 	{
 400:/Applications/ArmGNUToolchain/14.2.rel1/arm-none-eabi/arm-none-eabi/include/c++/14.2.1/bits/stl_algobase.h **** 	  typedef typename iterator_traits<_II>::difference_type _Distance;
 401:/Applications/ArmGNUToolchain/14.2.rel1/arm-none-eabi/arm-none-eabi/include/c++/14.2.1/bits/stl_algobase.h **** 	  for(_Distance __n = __last - __first; __n > 0; --__n)
 402:/Applications/ArmGNUToolchain/14.2.rel1/arm-none-eabi/arm-none-eabi/include/c++/14.2.1/bits/stl_algobase.h **** 	    {
ARM GAS  /var/folders/y7/g6pkzsp12sx54x3s3mvyn15r0000gn/T//ccaxSVHj.s 			page 17


 403:/Applications/ArmGNUToolchain/14.2.rel1/arm-none-eabi/arm-none-eabi/include/c++/14.2.1/bits/stl_algobase.h **** 	      *__result = *__first;
 404:/Applications/ArmGNUToolchain/14.2.rel1/arm-none-eabi/arm-none-eabi/include/c++/14.2.1/bits/stl_algobase.h **** 	      ++__first;
 405:/Applications/ArmGNUToolchain/14.2.rel1/arm-none-eabi/arm-none-eabi/include/c++/14.2.1/bits/stl_algobase.h **** 	      ++__result;
 406:/Applications/ArmGNUToolchain/14.2.rel1/arm-none-eabi/arm-none-eabi/include/c++/14.2.1/bits/stl_algobase.h **** 	    }
 407:/Applications/ArmGNUToolchain/14.2.rel1/arm-none-eabi/arm-none-eabi/include/c++/14.2.1/bits/stl_algobase.h **** 	  return __result;
 408:/Applications/ArmGNUToolchain/14.2.rel1/arm-none-eabi/arm-none-eabi/include/c++/14.2.1/bits/stl_algobase.h **** 	}
 409:/Applications/ArmGNUToolchain/14.2.rel1/arm-none-eabi/arm-none-eabi/include/c++/14.2.1/bits/stl_algobase.h **** 
 410:/Applications/ArmGNUToolchain/14.2.rel1/arm-none-eabi/arm-none-eabi/include/c++/14.2.1/bits/stl_algobase.h ****       template<typename _Tp, typename _Up>
 411:/Applications/ArmGNUToolchain/14.2.rel1/arm-none-eabi/arm-none-eabi/include/c++/14.2.1/bits/stl_algobase.h **** 	static void
 412:/Applications/ArmGNUToolchain/14.2.rel1/arm-none-eabi/arm-none-eabi/include/c++/14.2.1/bits/stl_algobase.h **** 	__assign_one(_Tp* __to, _Up* __from)
 413:/Applications/ArmGNUToolchain/14.2.rel1/arm-none-eabi/arm-none-eabi/include/c++/14.2.1/bits/stl_algobase.h **** 	{ *__to = *__from; }
 414:/Applications/ArmGNUToolchain/14.2.rel1/arm-none-eabi/arm-none-eabi/include/c++/14.2.1/bits/stl_algobase.h ****     };
 415:/Applications/ArmGNUToolchain/14.2.rel1/arm-none-eabi/arm-none-eabi/include/c++/14.2.1/bits/stl_algobase.h **** 
 416:/Applications/ArmGNUToolchain/14.2.rel1/arm-none-eabi/arm-none-eabi/include/c++/14.2.1/bits/stl_algobase.h **** #if __cplusplus >= 201103L
 417:/Applications/ArmGNUToolchain/14.2.rel1/arm-none-eabi/arm-none-eabi/include/c++/14.2.1/bits/stl_algobase.h ****   template<>
 418:/Applications/ArmGNUToolchain/14.2.rel1/arm-none-eabi/arm-none-eabi/include/c++/14.2.1/bits/stl_algobase.h ****     struct __copy_move<true, false, random_access_iterator_tag>
 419:/Applications/ArmGNUToolchain/14.2.rel1/arm-none-eabi/arm-none-eabi/include/c++/14.2.1/bits/stl_algobase.h ****     {
 420:/Applications/ArmGNUToolchain/14.2.rel1/arm-none-eabi/arm-none-eabi/include/c++/14.2.1/bits/stl_algobase.h ****       template<typename _II, typename _OI>
 421:/Applications/ArmGNUToolchain/14.2.rel1/arm-none-eabi/arm-none-eabi/include/c++/14.2.1/bits/stl_algobase.h **** 	_GLIBCXX20_CONSTEXPR
 422:/Applications/ArmGNUToolchain/14.2.rel1/arm-none-eabi/arm-none-eabi/include/c++/14.2.1/bits/stl_algobase.h **** 	static _OI
 423:/Applications/ArmGNUToolchain/14.2.rel1/arm-none-eabi/arm-none-eabi/include/c++/14.2.1/bits/stl_algobase.h **** 	__copy_m(_II __first, _II __last, _OI __result)
 424:/Applications/ArmGNUToolchain/14.2.rel1/arm-none-eabi/arm-none-eabi/include/c++/14.2.1/bits/stl_algobase.h **** 	{
 425:/Applications/ArmGNUToolchain/14.2.rel1/arm-none-eabi/arm-none-eabi/include/c++/14.2.1/bits/stl_algobase.h **** 	  typedef typename iterator_traits<_II>::difference_type _Distance;
 426:/Applications/ArmGNUToolchain/14.2.rel1/arm-none-eabi/arm-none-eabi/include/c++/14.2.1/bits/stl_algobase.h **** 	  for(_Distance __n = __last - __first; __n > 0; --__n)
 427:/Applications/ArmGNUToolchain/14.2.rel1/arm-none-eabi/arm-none-eabi/include/c++/14.2.1/bits/stl_algobase.h **** 	    {
 428:/Applications/ArmGNUToolchain/14.2.rel1/arm-none-eabi/arm-none-eabi/include/c++/14.2.1/bits/stl_algobase.h **** 	      *__result = std::move(*__first);
 429:/Applications/ArmGNUToolchain/14.2.rel1/arm-none-eabi/arm-none-eabi/include/c++/14.2.1/bits/stl_algobase.h **** 	      ++__first;
 430:/Applications/ArmGNUToolchain/14.2.rel1/arm-none-eabi/arm-none-eabi/include/c++/14.2.1/bits/stl_algobase.h **** 	      ++__result;
 431:/Applications/ArmGNUToolchain/14.2.rel1/arm-none-eabi/arm-none-eabi/include/c++/14.2.1/bits/stl_algobase.h **** 	    }
 432:/Applications/ArmGNUToolchain/14.2.rel1/arm-none-eabi/arm-none-eabi/include/c++/14.2.1/bits/stl_algobase.h **** 	  return __result;
 433:/Applications/ArmGNUToolchain/14.2.rel1/arm-none-eabi/arm-none-eabi/include/c++/14.2.1/bits/stl_algobase.h **** 	}
 434:/Applications/ArmGNUToolchain/14.2.rel1/arm-none-eabi/arm-none-eabi/include/c++/14.2.1/bits/stl_algobase.h **** 
 435:/Applications/ArmGNUToolchain/14.2.rel1/arm-none-eabi/arm-none-eabi/include/c++/14.2.1/bits/stl_algobase.h ****       template<typename _Tp, typename _Up>
 436:/Applications/ArmGNUToolchain/14.2.rel1/arm-none-eabi/arm-none-eabi/include/c++/14.2.1/bits/stl_algobase.h **** 	static void
 437:/Applications/ArmGNUToolchain/14.2.rel1/arm-none-eabi/arm-none-eabi/include/c++/14.2.1/bits/stl_algobase.h **** 	__assign_one(_Tp* __to, _Up* __from)
 438:/Applications/ArmGNUToolchain/14.2.rel1/arm-none-eabi/arm-none-eabi/include/c++/14.2.1/bits/stl_algobase.h **** 	{ *__to = std::move(*__from); }
 439:/Applications/ArmGNUToolchain/14.2.rel1/arm-none-eabi/arm-none-eabi/include/c++/14.2.1/bits/stl_algobase.h ****     };
 440:/Applications/ArmGNUToolchain/14.2.rel1/arm-none-eabi/arm-none-eabi/include/c++/14.2.1/bits/stl_algobase.h **** #endif
 441:/Applications/ArmGNUToolchain/14.2.rel1/arm-none-eabi/arm-none-eabi/include/c++/14.2.1/bits/stl_algobase.h **** 
 442:/Applications/ArmGNUToolchain/14.2.rel1/arm-none-eabi/arm-none-eabi/include/c++/14.2.1/bits/stl_algobase.h ****   template<bool _IsMove>
 443:/Applications/ArmGNUToolchain/14.2.rel1/arm-none-eabi/arm-none-eabi/include/c++/14.2.1/bits/stl_algobase.h ****     struct __copy_move<_IsMove, true, random_access_iterator_tag>
 444:/Applications/ArmGNUToolchain/14.2.rel1/arm-none-eabi/arm-none-eabi/include/c++/14.2.1/bits/stl_algobase.h ****     {
 445:/Applications/ArmGNUToolchain/14.2.rel1/arm-none-eabi/arm-none-eabi/include/c++/14.2.1/bits/stl_algobase.h ****       template<typename _Tp, typename _Up>
 446:/Applications/ArmGNUToolchain/14.2.rel1/arm-none-eabi/arm-none-eabi/include/c++/14.2.1/bits/stl_algobase.h **** 	_GLIBCXX20_CONSTEXPR
 447:/Applications/ArmGNUToolchain/14.2.rel1/arm-none-eabi/arm-none-eabi/include/c++/14.2.1/bits/stl_algobase.h **** 	static _Up*
 448:/Applications/ArmGNUToolchain/14.2.rel1/arm-none-eabi/arm-none-eabi/include/c++/14.2.1/bits/stl_algobase.h **** 	__copy_m(_Tp* __first, _Tp* __last, _Up* __result)
 449:/Applications/ArmGNUToolchain/14.2.rel1/arm-none-eabi/arm-none-eabi/include/c++/14.2.1/bits/stl_algobase.h **** 	{
 450:/Applications/ArmGNUToolchain/14.2.rel1/arm-none-eabi/arm-none-eabi/include/c++/14.2.1/bits/stl_algobase.h **** 	  const ptrdiff_t _Num = __last - __first;
 451:/Applications/ArmGNUToolchain/14.2.rel1/arm-none-eabi/arm-none-eabi/include/c++/14.2.1/bits/stl_algobase.h **** 	  if (__builtin_expect(_Num > 1, true))
 452:/Applications/ArmGNUToolchain/14.2.rel1/arm-none-eabi/arm-none-eabi/include/c++/14.2.1/bits/stl_algobase.h **** 	    __builtin_memmove(__result, __first, sizeof(_Tp) * _Num);
 453:/Applications/ArmGNUToolchain/14.2.rel1/arm-none-eabi/arm-none-eabi/include/c++/14.2.1/bits/stl_algobase.h **** 	  else if (_Num == 1)
 454:/Applications/ArmGNUToolchain/14.2.rel1/arm-none-eabi/arm-none-eabi/include/c++/14.2.1/bits/stl_algobase.h **** 	    std::__copy_move<_IsMove, false, random_access_iterator_tag>::
 455:/Applications/ArmGNUToolchain/14.2.rel1/arm-none-eabi/arm-none-eabi/include/c++/14.2.1/bits/stl_algobase.h **** 	      __assign_one(__result, __first);
 456:/Applications/ArmGNUToolchain/14.2.rel1/arm-none-eabi/arm-none-eabi/include/c++/14.2.1/bits/stl_algobase.h **** 	  return __result + _Num;
 457:/Applications/ArmGNUToolchain/14.2.rel1/arm-none-eabi/arm-none-eabi/include/c++/14.2.1/bits/stl_algobase.h **** 	}
 458:/Applications/ArmGNUToolchain/14.2.rel1/arm-none-eabi/arm-none-eabi/include/c++/14.2.1/bits/stl_algobase.h ****     };
 459:/Applications/ArmGNUToolchain/14.2.rel1/arm-none-eabi/arm-none-eabi/include/c++/14.2.1/bits/stl_algobase.h **** 
ARM GAS  /var/folders/y7/g6pkzsp12sx54x3s3mvyn15r0000gn/T//ccaxSVHj.s 			page 18


 460:/Applications/ArmGNUToolchain/14.2.rel1/arm-none-eabi/arm-none-eabi/include/c++/14.2.1/bits/stl_algobase.h **** _GLIBCXX_BEGIN_NAMESPACE_CONTAINER
 461:/Applications/ArmGNUToolchain/14.2.rel1/arm-none-eabi/arm-none-eabi/include/c++/14.2.1/bits/stl_algobase.h **** 
 462:/Applications/ArmGNUToolchain/14.2.rel1/arm-none-eabi/arm-none-eabi/include/c++/14.2.1/bits/stl_algobase.h ****   template<typename _Tp, typename _Ref, typename _Ptr>
 463:/Applications/ArmGNUToolchain/14.2.rel1/arm-none-eabi/arm-none-eabi/include/c++/14.2.1/bits/stl_algobase.h ****     struct _Deque_iterator;
 464:/Applications/ArmGNUToolchain/14.2.rel1/arm-none-eabi/arm-none-eabi/include/c++/14.2.1/bits/stl_algobase.h **** 
 465:/Applications/ArmGNUToolchain/14.2.rel1/arm-none-eabi/arm-none-eabi/include/c++/14.2.1/bits/stl_algobase.h ****   struct _Bit_iterator;
 466:/Applications/ArmGNUToolchain/14.2.rel1/arm-none-eabi/arm-none-eabi/include/c++/14.2.1/bits/stl_algobase.h **** 
 467:/Applications/ArmGNUToolchain/14.2.rel1/arm-none-eabi/arm-none-eabi/include/c++/14.2.1/bits/stl_algobase.h **** _GLIBCXX_END_NAMESPACE_CONTAINER
 468:/Applications/ArmGNUToolchain/14.2.rel1/arm-none-eabi/arm-none-eabi/include/c++/14.2.1/bits/stl_algobase.h **** 
 469:/Applications/ArmGNUToolchain/14.2.rel1/arm-none-eabi/arm-none-eabi/include/c++/14.2.1/bits/stl_algobase.h **** #if _GLIBCXX_HOSTED
 470:/Applications/ArmGNUToolchain/14.2.rel1/arm-none-eabi/arm-none-eabi/include/c++/14.2.1/bits/stl_algobase.h ****   // Helpers for streambuf iterators (either istream or ostream).
 471:/Applications/ArmGNUToolchain/14.2.rel1/arm-none-eabi/arm-none-eabi/include/c++/14.2.1/bits/stl_algobase.h ****   // NB: avoid including <iosfwd>, relatively large.
 472:/Applications/ArmGNUToolchain/14.2.rel1/arm-none-eabi/arm-none-eabi/include/c++/14.2.1/bits/stl_algobase.h ****   template<typename _CharT>
 473:/Applications/ArmGNUToolchain/14.2.rel1/arm-none-eabi/arm-none-eabi/include/c++/14.2.1/bits/stl_algobase.h ****     struct char_traits;
 474:/Applications/ArmGNUToolchain/14.2.rel1/arm-none-eabi/arm-none-eabi/include/c++/14.2.1/bits/stl_algobase.h **** 
 475:/Applications/ArmGNUToolchain/14.2.rel1/arm-none-eabi/arm-none-eabi/include/c++/14.2.1/bits/stl_algobase.h ****   template<typename _CharT, typename _Traits>
 476:/Applications/ArmGNUToolchain/14.2.rel1/arm-none-eabi/arm-none-eabi/include/c++/14.2.1/bits/stl_algobase.h ****     class istreambuf_iterator;
 477:/Applications/ArmGNUToolchain/14.2.rel1/arm-none-eabi/arm-none-eabi/include/c++/14.2.1/bits/stl_algobase.h **** 
 478:/Applications/ArmGNUToolchain/14.2.rel1/arm-none-eabi/arm-none-eabi/include/c++/14.2.1/bits/stl_algobase.h ****   template<typename _CharT, typename _Traits>
 479:/Applications/ArmGNUToolchain/14.2.rel1/arm-none-eabi/arm-none-eabi/include/c++/14.2.1/bits/stl_algobase.h ****     class ostreambuf_iterator;
 480:/Applications/ArmGNUToolchain/14.2.rel1/arm-none-eabi/arm-none-eabi/include/c++/14.2.1/bits/stl_algobase.h **** 
 481:/Applications/ArmGNUToolchain/14.2.rel1/arm-none-eabi/arm-none-eabi/include/c++/14.2.1/bits/stl_algobase.h ****   template<bool _IsMove, typename _CharT>
 482:/Applications/ArmGNUToolchain/14.2.rel1/arm-none-eabi/arm-none-eabi/include/c++/14.2.1/bits/stl_algobase.h ****     typename __gnu_cxx::__enable_if<__is_char<_CharT>::__value,
 483:/Applications/ArmGNUToolchain/14.2.rel1/arm-none-eabi/arm-none-eabi/include/c++/14.2.1/bits/stl_algobase.h **** 	     ostreambuf_iterator<_CharT, char_traits<_CharT> > >::__type
 484:/Applications/ArmGNUToolchain/14.2.rel1/arm-none-eabi/arm-none-eabi/include/c++/14.2.1/bits/stl_algobase.h ****     __copy_move_a2(_CharT*, _CharT*,
 485:/Applications/ArmGNUToolchain/14.2.rel1/arm-none-eabi/arm-none-eabi/include/c++/14.2.1/bits/stl_algobase.h **** 		   ostreambuf_iterator<_CharT, char_traits<_CharT> >);
 486:/Applications/ArmGNUToolchain/14.2.rel1/arm-none-eabi/arm-none-eabi/include/c++/14.2.1/bits/stl_algobase.h **** 
 487:/Applications/ArmGNUToolchain/14.2.rel1/arm-none-eabi/arm-none-eabi/include/c++/14.2.1/bits/stl_algobase.h ****   template<bool _IsMove, typename _CharT>
 488:/Applications/ArmGNUToolchain/14.2.rel1/arm-none-eabi/arm-none-eabi/include/c++/14.2.1/bits/stl_algobase.h ****     typename __gnu_cxx::__enable_if<__is_char<_CharT>::__value,
 489:/Applications/ArmGNUToolchain/14.2.rel1/arm-none-eabi/arm-none-eabi/include/c++/14.2.1/bits/stl_algobase.h **** 	     ostreambuf_iterator<_CharT, char_traits<_CharT> > >::__type
 490:/Applications/ArmGNUToolchain/14.2.rel1/arm-none-eabi/arm-none-eabi/include/c++/14.2.1/bits/stl_algobase.h ****     __copy_move_a2(const _CharT*, const _CharT*,
 491:/Applications/ArmGNUToolchain/14.2.rel1/arm-none-eabi/arm-none-eabi/include/c++/14.2.1/bits/stl_algobase.h **** 		   ostreambuf_iterator<_CharT, char_traits<_CharT> >);
 492:/Applications/ArmGNUToolchain/14.2.rel1/arm-none-eabi/arm-none-eabi/include/c++/14.2.1/bits/stl_algobase.h **** 
 493:/Applications/ArmGNUToolchain/14.2.rel1/arm-none-eabi/arm-none-eabi/include/c++/14.2.1/bits/stl_algobase.h ****   template<bool _IsMove, typename _CharT>
 494:/Applications/ArmGNUToolchain/14.2.rel1/arm-none-eabi/arm-none-eabi/include/c++/14.2.1/bits/stl_algobase.h ****     typename __gnu_cxx::__enable_if<__is_char<_CharT>::__value,
 495:/Applications/ArmGNUToolchain/14.2.rel1/arm-none-eabi/arm-none-eabi/include/c++/14.2.1/bits/stl_algobase.h **** 				    _CharT*>::__type
 496:/Applications/ArmGNUToolchain/14.2.rel1/arm-none-eabi/arm-none-eabi/include/c++/14.2.1/bits/stl_algobase.h ****     __copy_move_a2(istreambuf_iterator<_CharT, char_traits<_CharT> >,
 497:/Applications/ArmGNUToolchain/14.2.rel1/arm-none-eabi/arm-none-eabi/include/c++/14.2.1/bits/stl_algobase.h **** 		   istreambuf_iterator<_CharT, char_traits<_CharT> >, _CharT*);
 498:/Applications/ArmGNUToolchain/14.2.rel1/arm-none-eabi/arm-none-eabi/include/c++/14.2.1/bits/stl_algobase.h **** 
 499:/Applications/ArmGNUToolchain/14.2.rel1/arm-none-eabi/arm-none-eabi/include/c++/14.2.1/bits/stl_algobase.h ****   template<bool _IsMove, typename _CharT>
 500:/Applications/ArmGNUToolchain/14.2.rel1/arm-none-eabi/arm-none-eabi/include/c++/14.2.1/bits/stl_algobase.h ****     typename __gnu_cxx::__enable_if<
 501:/Applications/ArmGNUToolchain/14.2.rel1/arm-none-eabi/arm-none-eabi/include/c++/14.2.1/bits/stl_algobase.h ****       __is_char<_CharT>::__value,
 502:/Applications/ArmGNUToolchain/14.2.rel1/arm-none-eabi/arm-none-eabi/include/c++/14.2.1/bits/stl_algobase.h ****       _GLIBCXX_STD_C::_Deque_iterator<_CharT, _CharT&, _CharT*> >::__type
 503:/Applications/ArmGNUToolchain/14.2.rel1/arm-none-eabi/arm-none-eabi/include/c++/14.2.1/bits/stl_algobase.h ****     __copy_move_a2(
 504:/Applications/ArmGNUToolchain/14.2.rel1/arm-none-eabi/arm-none-eabi/include/c++/14.2.1/bits/stl_algobase.h **** 	istreambuf_iterator<_CharT, char_traits<_CharT> >,
 505:/Applications/ArmGNUToolchain/14.2.rel1/arm-none-eabi/arm-none-eabi/include/c++/14.2.1/bits/stl_algobase.h **** 	istreambuf_iterator<_CharT, char_traits<_CharT> >,
 506:/Applications/ArmGNUToolchain/14.2.rel1/arm-none-eabi/arm-none-eabi/include/c++/14.2.1/bits/stl_algobase.h **** 	_GLIBCXX_STD_C::_Deque_iterator<_CharT, _CharT&, _CharT*>);
 507:/Applications/ArmGNUToolchain/14.2.rel1/arm-none-eabi/arm-none-eabi/include/c++/14.2.1/bits/stl_algobase.h **** #endif // HOSTED
 508:/Applications/ArmGNUToolchain/14.2.rel1/arm-none-eabi/arm-none-eabi/include/c++/14.2.1/bits/stl_algobase.h **** 
 509:/Applications/ArmGNUToolchain/14.2.rel1/arm-none-eabi/arm-none-eabi/include/c++/14.2.1/bits/stl_algobase.h ****   template<bool _IsMove, typename _II, typename _OI>
 510:/Applications/ArmGNUToolchain/14.2.rel1/arm-none-eabi/arm-none-eabi/include/c++/14.2.1/bits/stl_algobase.h ****     _GLIBCXX20_CONSTEXPR
 511:/Applications/ArmGNUToolchain/14.2.rel1/arm-none-eabi/arm-none-eabi/include/c++/14.2.1/bits/stl_algobase.h ****     inline _OI
 512:/Applications/ArmGNUToolchain/14.2.rel1/arm-none-eabi/arm-none-eabi/include/c++/14.2.1/bits/stl_algobase.h ****     __copy_move_a2(_II __first, _II __last, _OI __result)
 513:/Applications/ArmGNUToolchain/14.2.rel1/arm-none-eabi/arm-none-eabi/include/c++/14.2.1/bits/stl_algobase.h ****     {
 514:/Applications/ArmGNUToolchain/14.2.rel1/arm-none-eabi/arm-none-eabi/include/c++/14.2.1/bits/stl_algobase.h ****       typedef typename iterator_traits<_II>::iterator_category _Category;
 515:/Applications/ArmGNUToolchain/14.2.rel1/arm-none-eabi/arm-none-eabi/include/c++/14.2.1/bits/stl_algobase.h **** #ifdef __cpp_lib_is_constant_evaluated
 516:/Applications/ArmGNUToolchain/14.2.rel1/arm-none-eabi/arm-none-eabi/include/c++/14.2.1/bits/stl_algobase.h ****       if (std::is_constant_evaluated())
ARM GAS  /var/folders/y7/g6pkzsp12sx54x3s3mvyn15r0000gn/T//ccaxSVHj.s 			page 19


 517:/Applications/ArmGNUToolchain/14.2.rel1/arm-none-eabi/arm-none-eabi/include/c++/14.2.1/bits/stl_algobase.h **** 	return std::__copy_move<_IsMove, false, _Category>::
 518:/Applications/ArmGNUToolchain/14.2.rel1/arm-none-eabi/arm-none-eabi/include/c++/14.2.1/bits/stl_algobase.h **** 	  __copy_m(__first, __last, __result);
 519:/Applications/ArmGNUToolchain/14.2.rel1/arm-none-eabi/arm-none-eabi/include/c++/14.2.1/bits/stl_algobase.h **** #endif
 520:/Applications/ArmGNUToolchain/14.2.rel1/arm-none-eabi/arm-none-eabi/include/c++/14.2.1/bits/stl_algobase.h ****       return std::__copy_move<_IsMove, __memcpyable<_OI, _II>::__value,
 521:/Applications/ArmGNUToolchain/14.2.rel1/arm-none-eabi/arm-none-eabi/include/c++/14.2.1/bits/stl_algobase.h **** 			      _Category>::__copy_m(__first, __last, __result);
 522:/Applications/ArmGNUToolchain/14.2.rel1/arm-none-eabi/arm-none-eabi/include/c++/14.2.1/bits/stl_algobase.h ****     }
 523:/Applications/ArmGNUToolchain/14.2.rel1/arm-none-eabi/arm-none-eabi/include/c++/14.2.1/bits/stl_algobase.h **** 
 524:/Applications/ArmGNUToolchain/14.2.rel1/arm-none-eabi/arm-none-eabi/include/c++/14.2.1/bits/stl_algobase.h ****   template<bool _IsMove,
 525:/Applications/ArmGNUToolchain/14.2.rel1/arm-none-eabi/arm-none-eabi/include/c++/14.2.1/bits/stl_algobase.h **** 	   typename _Tp, typename _Ref, typename _Ptr, typename _OI>
 526:/Applications/ArmGNUToolchain/14.2.rel1/arm-none-eabi/arm-none-eabi/include/c++/14.2.1/bits/stl_algobase.h ****     _OI
 527:/Applications/ArmGNUToolchain/14.2.rel1/arm-none-eabi/arm-none-eabi/include/c++/14.2.1/bits/stl_algobase.h ****     __copy_move_a1(_GLIBCXX_STD_C::_Deque_iterator<_Tp, _Ref, _Ptr>,
 528:/Applications/ArmGNUToolchain/14.2.rel1/arm-none-eabi/arm-none-eabi/include/c++/14.2.1/bits/stl_algobase.h **** 		   _GLIBCXX_STD_C::_Deque_iterator<_Tp, _Ref, _Ptr>,
 529:/Applications/ArmGNUToolchain/14.2.rel1/arm-none-eabi/arm-none-eabi/include/c++/14.2.1/bits/stl_algobase.h **** 		   _OI);
 530:/Applications/ArmGNUToolchain/14.2.rel1/arm-none-eabi/arm-none-eabi/include/c++/14.2.1/bits/stl_algobase.h **** 
 531:/Applications/ArmGNUToolchain/14.2.rel1/arm-none-eabi/arm-none-eabi/include/c++/14.2.1/bits/stl_algobase.h ****   template<bool _IsMove,
 532:/Applications/ArmGNUToolchain/14.2.rel1/arm-none-eabi/arm-none-eabi/include/c++/14.2.1/bits/stl_algobase.h **** 	   typename _ITp, typename _IRef, typename _IPtr, typename _OTp>
 533:/Applications/ArmGNUToolchain/14.2.rel1/arm-none-eabi/arm-none-eabi/include/c++/14.2.1/bits/stl_algobase.h ****     _GLIBCXX_STD_C::_Deque_iterator<_OTp, _OTp&, _OTp*>
 534:/Applications/ArmGNUToolchain/14.2.rel1/arm-none-eabi/arm-none-eabi/include/c++/14.2.1/bits/stl_algobase.h ****     __copy_move_a1(_GLIBCXX_STD_C::_Deque_iterator<_ITp, _IRef, _IPtr>,
 535:/Applications/ArmGNUToolchain/14.2.rel1/arm-none-eabi/arm-none-eabi/include/c++/14.2.1/bits/stl_algobase.h **** 		   _GLIBCXX_STD_C::_Deque_iterator<_ITp, _IRef, _IPtr>,
 536:/Applications/ArmGNUToolchain/14.2.rel1/arm-none-eabi/arm-none-eabi/include/c++/14.2.1/bits/stl_algobase.h **** 		   _GLIBCXX_STD_C::_Deque_iterator<_OTp, _OTp&, _OTp*>);
 537:/Applications/ArmGNUToolchain/14.2.rel1/arm-none-eabi/arm-none-eabi/include/c++/14.2.1/bits/stl_algobase.h **** 
 538:/Applications/ArmGNUToolchain/14.2.rel1/arm-none-eabi/arm-none-eabi/include/c++/14.2.1/bits/stl_algobase.h ****   template<bool _IsMove, typename _II, typename _Tp>
 539:/Applications/ArmGNUToolchain/14.2.rel1/arm-none-eabi/arm-none-eabi/include/c++/14.2.1/bits/stl_algobase.h ****     typename __gnu_cxx::__enable_if<
 540:/Applications/ArmGNUToolchain/14.2.rel1/arm-none-eabi/arm-none-eabi/include/c++/14.2.1/bits/stl_algobase.h ****       __is_random_access_iter<_II>::__value,
 541:/Applications/ArmGNUToolchain/14.2.rel1/arm-none-eabi/arm-none-eabi/include/c++/14.2.1/bits/stl_algobase.h ****       _GLIBCXX_STD_C::_Deque_iterator<_Tp, _Tp&, _Tp*> >::__type
 542:/Applications/ArmGNUToolchain/14.2.rel1/arm-none-eabi/arm-none-eabi/include/c++/14.2.1/bits/stl_algobase.h ****     __copy_move_a1(_II, _II, _GLIBCXX_STD_C::_Deque_iterator<_Tp, _Tp&, _Tp*>);
 543:/Applications/ArmGNUToolchain/14.2.rel1/arm-none-eabi/arm-none-eabi/include/c++/14.2.1/bits/stl_algobase.h **** 
 544:/Applications/ArmGNUToolchain/14.2.rel1/arm-none-eabi/arm-none-eabi/include/c++/14.2.1/bits/stl_algobase.h ****   template<bool _IsMove, typename _II, typename _OI>
 545:/Applications/ArmGNUToolchain/14.2.rel1/arm-none-eabi/arm-none-eabi/include/c++/14.2.1/bits/stl_algobase.h ****     _GLIBCXX20_CONSTEXPR
 546:/Applications/ArmGNUToolchain/14.2.rel1/arm-none-eabi/arm-none-eabi/include/c++/14.2.1/bits/stl_algobase.h ****     inline _OI
 547:/Applications/ArmGNUToolchain/14.2.rel1/arm-none-eabi/arm-none-eabi/include/c++/14.2.1/bits/stl_algobase.h ****     __copy_move_a1(_II __first, _II __last, _OI __result)
 548:/Applications/ArmGNUToolchain/14.2.rel1/arm-none-eabi/arm-none-eabi/include/c++/14.2.1/bits/stl_algobase.h ****     { return std::__copy_move_a2<_IsMove>(__first, __last, __result); }
 549:/Applications/ArmGNUToolchain/14.2.rel1/arm-none-eabi/arm-none-eabi/include/c++/14.2.1/bits/stl_algobase.h **** 
 550:/Applications/ArmGNUToolchain/14.2.rel1/arm-none-eabi/arm-none-eabi/include/c++/14.2.1/bits/stl_algobase.h ****   template<bool _IsMove, typename _II, typename _OI>
 551:/Applications/ArmGNUToolchain/14.2.rel1/arm-none-eabi/arm-none-eabi/include/c++/14.2.1/bits/stl_algobase.h ****     _GLIBCXX20_CONSTEXPR
 552:/Applications/ArmGNUToolchain/14.2.rel1/arm-none-eabi/arm-none-eabi/include/c++/14.2.1/bits/stl_algobase.h ****     inline _OI
 553:/Applications/ArmGNUToolchain/14.2.rel1/arm-none-eabi/arm-none-eabi/include/c++/14.2.1/bits/stl_algobase.h ****     __copy_move_a(_II __first, _II __last, _OI __result)
 554:/Applications/ArmGNUToolchain/14.2.rel1/arm-none-eabi/arm-none-eabi/include/c++/14.2.1/bits/stl_algobase.h ****     {
 555:/Applications/ArmGNUToolchain/14.2.rel1/arm-none-eabi/arm-none-eabi/include/c++/14.2.1/bits/stl_algobase.h ****       return std::__niter_wrap(__result,
 556:/Applications/ArmGNUToolchain/14.2.rel1/arm-none-eabi/arm-none-eabi/include/c++/14.2.1/bits/stl_algobase.h **** 		std::__copy_move_a1<_IsMove>(std::__niter_base(__first),
 557:/Applications/ArmGNUToolchain/14.2.rel1/arm-none-eabi/arm-none-eabi/include/c++/14.2.1/bits/stl_algobase.h **** 					     std::__niter_base(__last),
 558:/Applications/ArmGNUToolchain/14.2.rel1/arm-none-eabi/arm-none-eabi/include/c++/14.2.1/bits/stl_algobase.h **** 					     std::__niter_base(__result)));
 559:/Applications/ArmGNUToolchain/14.2.rel1/arm-none-eabi/arm-none-eabi/include/c++/14.2.1/bits/stl_algobase.h ****     }
 560:/Applications/ArmGNUToolchain/14.2.rel1/arm-none-eabi/arm-none-eabi/include/c++/14.2.1/bits/stl_algobase.h **** 
 561:/Applications/ArmGNUToolchain/14.2.rel1/arm-none-eabi/arm-none-eabi/include/c++/14.2.1/bits/stl_algobase.h ****   template<bool _IsMove,
 562:/Applications/ArmGNUToolchain/14.2.rel1/arm-none-eabi/arm-none-eabi/include/c++/14.2.1/bits/stl_algobase.h **** 	   typename _Ite, typename _Seq, typename _Cat, typename _OI>
 563:/Applications/ArmGNUToolchain/14.2.rel1/arm-none-eabi/arm-none-eabi/include/c++/14.2.1/bits/stl_algobase.h ****     _GLIBCXX20_CONSTEXPR
 564:/Applications/ArmGNUToolchain/14.2.rel1/arm-none-eabi/arm-none-eabi/include/c++/14.2.1/bits/stl_algobase.h ****     _OI
 565:/Applications/ArmGNUToolchain/14.2.rel1/arm-none-eabi/arm-none-eabi/include/c++/14.2.1/bits/stl_algobase.h ****     __copy_move_a(const ::__gnu_debug::_Safe_iterator<_Ite, _Seq, _Cat>&,
 566:/Applications/ArmGNUToolchain/14.2.rel1/arm-none-eabi/arm-none-eabi/include/c++/14.2.1/bits/stl_algobase.h **** 		  const ::__gnu_debug::_Safe_iterator<_Ite, _Seq, _Cat>&,
 567:/Applications/ArmGNUToolchain/14.2.rel1/arm-none-eabi/arm-none-eabi/include/c++/14.2.1/bits/stl_algobase.h **** 		  _OI);
 568:/Applications/ArmGNUToolchain/14.2.rel1/arm-none-eabi/arm-none-eabi/include/c++/14.2.1/bits/stl_algobase.h **** 
 569:/Applications/ArmGNUToolchain/14.2.rel1/arm-none-eabi/arm-none-eabi/include/c++/14.2.1/bits/stl_algobase.h ****   template<bool _IsMove,
 570:/Applications/ArmGNUToolchain/14.2.rel1/arm-none-eabi/arm-none-eabi/include/c++/14.2.1/bits/stl_algobase.h **** 	   typename _II, typename _Ite, typename _Seq, typename _Cat>
 571:/Applications/ArmGNUToolchain/14.2.rel1/arm-none-eabi/arm-none-eabi/include/c++/14.2.1/bits/stl_algobase.h ****     _GLIBCXX20_CONSTEXPR
 572:/Applications/ArmGNUToolchain/14.2.rel1/arm-none-eabi/arm-none-eabi/include/c++/14.2.1/bits/stl_algobase.h ****     __gnu_debug::_Safe_iterator<_Ite, _Seq, _Cat>
 573:/Applications/ArmGNUToolchain/14.2.rel1/arm-none-eabi/arm-none-eabi/include/c++/14.2.1/bits/stl_algobase.h ****     __copy_move_a(_II, _II,
ARM GAS  /var/folders/y7/g6pkzsp12sx54x3s3mvyn15r0000gn/T//ccaxSVHj.s 			page 20


 574:/Applications/ArmGNUToolchain/14.2.rel1/arm-none-eabi/arm-none-eabi/include/c++/14.2.1/bits/stl_algobase.h **** 		  const ::__gnu_debug::_Safe_iterator<_Ite, _Seq, _Cat>&);
 575:/Applications/ArmGNUToolchain/14.2.rel1/arm-none-eabi/arm-none-eabi/include/c++/14.2.1/bits/stl_algobase.h **** 
 576:/Applications/ArmGNUToolchain/14.2.rel1/arm-none-eabi/arm-none-eabi/include/c++/14.2.1/bits/stl_algobase.h ****   template<bool _IsMove,
 577:/Applications/ArmGNUToolchain/14.2.rel1/arm-none-eabi/arm-none-eabi/include/c++/14.2.1/bits/stl_algobase.h **** 	   typename _IIte, typename _ISeq, typename _ICat,
 578:/Applications/ArmGNUToolchain/14.2.rel1/arm-none-eabi/arm-none-eabi/include/c++/14.2.1/bits/stl_algobase.h **** 	   typename _OIte, typename _OSeq, typename _OCat>
 579:/Applications/ArmGNUToolchain/14.2.rel1/arm-none-eabi/arm-none-eabi/include/c++/14.2.1/bits/stl_algobase.h ****     _GLIBCXX20_CONSTEXPR
 580:/Applications/ArmGNUToolchain/14.2.rel1/arm-none-eabi/arm-none-eabi/include/c++/14.2.1/bits/stl_algobase.h ****     ::__gnu_debug::_Safe_iterator<_OIte, _OSeq, _OCat>
 581:/Applications/ArmGNUToolchain/14.2.rel1/arm-none-eabi/arm-none-eabi/include/c++/14.2.1/bits/stl_algobase.h ****     __copy_move_a(const ::__gnu_debug::_Safe_iterator<_IIte, _ISeq, _ICat>&,
 582:/Applications/ArmGNUToolchain/14.2.rel1/arm-none-eabi/arm-none-eabi/include/c++/14.2.1/bits/stl_algobase.h **** 		  const ::__gnu_debug::_Safe_iterator<_IIte, _ISeq, _ICat>&,
 583:/Applications/ArmGNUToolchain/14.2.rel1/arm-none-eabi/arm-none-eabi/include/c++/14.2.1/bits/stl_algobase.h **** 		  const ::__gnu_debug::_Safe_iterator<_OIte, _OSeq, _OCat>&);
 584:/Applications/ArmGNUToolchain/14.2.rel1/arm-none-eabi/arm-none-eabi/include/c++/14.2.1/bits/stl_algobase.h **** 
 585:/Applications/ArmGNUToolchain/14.2.rel1/arm-none-eabi/arm-none-eabi/include/c++/14.2.1/bits/stl_algobase.h ****   template<typename _InputIterator, typename _Size, typename _OutputIterator>
 586:/Applications/ArmGNUToolchain/14.2.rel1/arm-none-eabi/arm-none-eabi/include/c++/14.2.1/bits/stl_algobase.h ****     _GLIBCXX20_CONSTEXPR
 587:/Applications/ArmGNUToolchain/14.2.rel1/arm-none-eabi/arm-none-eabi/include/c++/14.2.1/bits/stl_algobase.h ****     _OutputIterator
 588:/Applications/ArmGNUToolchain/14.2.rel1/arm-none-eabi/arm-none-eabi/include/c++/14.2.1/bits/stl_algobase.h ****     __copy_n_a(_InputIterator __first, _Size __n, _OutputIterator __result,
 589:/Applications/ArmGNUToolchain/14.2.rel1/arm-none-eabi/arm-none-eabi/include/c++/14.2.1/bits/stl_algobase.h **** 	       bool)
 590:/Applications/ArmGNUToolchain/14.2.rel1/arm-none-eabi/arm-none-eabi/include/c++/14.2.1/bits/stl_algobase.h ****     {
 591:/Applications/ArmGNUToolchain/14.2.rel1/arm-none-eabi/arm-none-eabi/include/c++/14.2.1/bits/stl_algobase.h ****       if (__n > 0)
 592:/Applications/ArmGNUToolchain/14.2.rel1/arm-none-eabi/arm-none-eabi/include/c++/14.2.1/bits/stl_algobase.h **** 	{
 593:/Applications/ArmGNUToolchain/14.2.rel1/arm-none-eabi/arm-none-eabi/include/c++/14.2.1/bits/stl_algobase.h **** 	  while (true)
 594:/Applications/ArmGNUToolchain/14.2.rel1/arm-none-eabi/arm-none-eabi/include/c++/14.2.1/bits/stl_algobase.h **** 	    {
 595:/Applications/ArmGNUToolchain/14.2.rel1/arm-none-eabi/arm-none-eabi/include/c++/14.2.1/bits/stl_algobase.h **** 	      *__result = *__first;
 596:/Applications/ArmGNUToolchain/14.2.rel1/arm-none-eabi/arm-none-eabi/include/c++/14.2.1/bits/stl_algobase.h **** 	      ++__result;
 597:/Applications/ArmGNUToolchain/14.2.rel1/arm-none-eabi/arm-none-eabi/include/c++/14.2.1/bits/stl_algobase.h **** 	      if (--__n > 0)
 598:/Applications/ArmGNUToolchain/14.2.rel1/arm-none-eabi/arm-none-eabi/include/c++/14.2.1/bits/stl_algobase.h **** 		++__first;
 599:/Applications/ArmGNUToolchain/14.2.rel1/arm-none-eabi/arm-none-eabi/include/c++/14.2.1/bits/stl_algobase.h **** 	      else
 600:/Applications/ArmGNUToolchain/14.2.rel1/arm-none-eabi/arm-none-eabi/include/c++/14.2.1/bits/stl_algobase.h **** 		break;
 601:/Applications/ArmGNUToolchain/14.2.rel1/arm-none-eabi/arm-none-eabi/include/c++/14.2.1/bits/stl_algobase.h **** 	    }
 602:/Applications/ArmGNUToolchain/14.2.rel1/arm-none-eabi/arm-none-eabi/include/c++/14.2.1/bits/stl_algobase.h **** 	}
 603:/Applications/ArmGNUToolchain/14.2.rel1/arm-none-eabi/arm-none-eabi/include/c++/14.2.1/bits/stl_algobase.h ****       return __result;
 604:/Applications/ArmGNUToolchain/14.2.rel1/arm-none-eabi/arm-none-eabi/include/c++/14.2.1/bits/stl_algobase.h ****     }
 605:/Applications/ArmGNUToolchain/14.2.rel1/arm-none-eabi/arm-none-eabi/include/c++/14.2.1/bits/stl_algobase.h **** 
 606:/Applications/ArmGNUToolchain/14.2.rel1/arm-none-eabi/arm-none-eabi/include/c++/14.2.1/bits/stl_algobase.h **** #if _GLIBCXX_HOSTED
 607:/Applications/ArmGNUToolchain/14.2.rel1/arm-none-eabi/arm-none-eabi/include/c++/14.2.1/bits/stl_algobase.h ****   template<typename _CharT, typename _Size>
 608:/Applications/ArmGNUToolchain/14.2.rel1/arm-none-eabi/arm-none-eabi/include/c++/14.2.1/bits/stl_algobase.h ****     typename __gnu_cxx::__enable_if<
 609:/Applications/ArmGNUToolchain/14.2.rel1/arm-none-eabi/arm-none-eabi/include/c++/14.2.1/bits/stl_algobase.h ****       __is_char<_CharT>::__value, _CharT*>::__type
 610:/Applications/ArmGNUToolchain/14.2.rel1/arm-none-eabi/arm-none-eabi/include/c++/14.2.1/bits/stl_algobase.h ****     __copy_n_a(istreambuf_iterator<_CharT, char_traits<_CharT> >,
 611:/Applications/ArmGNUToolchain/14.2.rel1/arm-none-eabi/arm-none-eabi/include/c++/14.2.1/bits/stl_algobase.h **** 	       _Size, _CharT*, bool);
 612:/Applications/ArmGNUToolchain/14.2.rel1/arm-none-eabi/arm-none-eabi/include/c++/14.2.1/bits/stl_algobase.h **** 
 613:/Applications/ArmGNUToolchain/14.2.rel1/arm-none-eabi/arm-none-eabi/include/c++/14.2.1/bits/stl_algobase.h ****   template<typename _CharT, typename _Size>
 614:/Applications/ArmGNUToolchain/14.2.rel1/arm-none-eabi/arm-none-eabi/include/c++/14.2.1/bits/stl_algobase.h ****     typename __gnu_cxx::__enable_if<
 615:/Applications/ArmGNUToolchain/14.2.rel1/arm-none-eabi/arm-none-eabi/include/c++/14.2.1/bits/stl_algobase.h ****       __is_char<_CharT>::__value,
 616:/Applications/ArmGNUToolchain/14.2.rel1/arm-none-eabi/arm-none-eabi/include/c++/14.2.1/bits/stl_algobase.h ****       _GLIBCXX_STD_C::_Deque_iterator<_CharT, _CharT&, _CharT*> >::__type
 617:/Applications/ArmGNUToolchain/14.2.rel1/arm-none-eabi/arm-none-eabi/include/c++/14.2.1/bits/stl_algobase.h ****     __copy_n_a(istreambuf_iterator<_CharT, char_traits<_CharT> >, _Size,
 618:/Applications/ArmGNUToolchain/14.2.rel1/arm-none-eabi/arm-none-eabi/include/c++/14.2.1/bits/stl_algobase.h **** 	       _GLIBCXX_STD_C::_Deque_iterator<_CharT, _CharT&, _CharT*>,
 619:/Applications/ArmGNUToolchain/14.2.rel1/arm-none-eabi/arm-none-eabi/include/c++/14.2.1/bits/stl_algobase.h **** 	       bool);
 620:/Applications/ArmGNUToolchain/14.2.rel1/arm-none-eabi/arm-none-eabi/include/c++/14.2.1/bits/stl_algobase.h **** #endif
 621:/Applications/ArmGNUToolchain/14.2.rel1/arm-none-eabi/arm-none-eabi/include/c++/14.2.1/bits/stl_algobase.h **** 
 622:/Applications/ArmGNUToolchain/14.2.rel1/arm-none-eabi/arm-none-eabi/include/c++/14.2.1/bits/stl_algobase.h ****   /**
 623:/Applications/ArmGNUToolchain/14.2.rel1/arm-none-eabi/arm-none-eabi/include/c++/14.2.1/bits/stl_algobase.h ****    *  @brief Copies the range [first,last) into result.
 624:/Applications/ArmGNUToolchain/14.2.rel1/arm-none-eabi/arm-none-eabi/include/c++/14.2.1/bits/stl_algobase.h ****    *  @ingroup mutating_algorithms
 625:/Applications/ArmGNUToolchain/14.2.rel1/arm-none-eabi/arm-none-eabi/include/c++/14.2.1/bits/stl_algobase.h ****    *  @param  __first  An input iterator.
 626:/Applications/ArmGNUToolchain/14.2.rel1/arm-none-eabi/arm-none-eabi/include/c++/14.2.1/bits/stl_algobase.h ****    *  @param  __last   An input iterator.
 627:/Applications/ArmGNUToolchain/14.2.rel1/arm-none-eabi/arm-none-eabi/include/c++/14.2.1/bits/stl_algobase.h ****    *  @param  __result An output iterator.
 628:/Applications/ArmGNUToolchain/14.2.rel1/arm-none-eabi/arm-none-eabi/include/c++/14.2.1/bits/stl_algobase.h ****    *  @return   result + (last - first)
 629:/Applications/ArmGNUToolchain/14.2.rel1/arm-none-eabi/arm-none-eabi/include/c++/14.2.1/bits/stl_algobase.h ****    *
 630:/Applications/ArmGNUToolchain/14.2.rel1/arm-none-eabi/arm-none-eabi/include/c++/14.2.1/bits/stl_algobase.h ****    *  This inline function will boil down to a call to @c memmove whenever
ARM GAS  /var/folders/y7/g6pkzsp12sx54x3s3mvyn15r0000gn/T//ccaxSVHj.s 			page 21


 631:/Applications/ArmGNUToolchain/14.2.rel1/arm-none-eabi/arm-none-eabi/include/c++/14.2.1/bits/stl_algobase.h ****    *  possible.  Failing that, if random access iterators are passed, then the
 632:/Applications/ArmGNUToolchain/14.2.rel1/arm-none-eabi/arm-none-eabi/include/c++/14.2.1/bits/stl_algobase.h ****    *  loop count will be known (and therefore a candidate for compiler
 633:/Applications/ArmGNUToolchain/14.2.rel1/arm-none-eabi/arm-none-eabi/include/c++/14.2.1/bits/stl_algobase.h ****    *  optimizations such as unrolling).  Result may not be contained within
 634:/Applications/ArmGNUToolchain/14.2.rel1/arm-none-eabi/arm-none-eabi/include/c++/14.2.1/bits/stl_algobase.h ****    *  [first,last); the copy_backward function should be used instead.
 635:/Applications/ArmGNUToolchain/14.2.rel1/arm-none-eabi/arm-none-eabi/include/c++/14.2.1/bits/stl_algobase.h ****    *
 636:/Applications/ArmGNUToolchain/14.2.rel1/arm-none-eabi/arm-none-eabi/include/c++/14.2.1/bits/stl_algobase.h ****    *  Note that the end of the output range is permitted to be contained
 637:/Applications/ArmGNUToolchain/14.2.rel1/arm-none-eabi/arm-none-eabi/include/c++/14.2.1/bits/stl_algobase.h ****    *  within [first,last).
 638:/Applications/ArmGNUToolchain/14.2.rel1/arm-none-eabi/arm-none-eabi/include/c++/14.2.1/bits/stl_algobase.h ****   */
 639:/Applications/ArmGNUToolchain/14.2.rel1/arm-none-eabi/arm-none-eabi/include/c++/14.2.1/bits/stl_algobase.h ****   template<typename _II, typename _OI>
 640:/Applications/ArmGNUToolchain/14.2.rel1/arm-none-eabi/arm-none-eabi/include/c++/14.2.1/bits/stl_algobase.h ****     _GLIBCXX20_CONSTEXPR
 641:/Applications/ArmGNUToolchain/14.2.rel1/arm-none-eabi/arm-none-eabi/include/c++/14.2.1/bits/stl_algobase.h ****     inline _OI
 642:/Applications/ArmGNUToolchain/14.2.rel1/arm-none-eabi/arm-none-eabi/include/c++/14.2.1/bits/stl_algobase.h ****     copy(_II __first, _II __last, _OI __result)
 643:/Applications/ArmGNUToolchain/14.2.rel1/arm-none-eabi/arm-none-eabi/include/c++/14.2.1/bits/stl_algobase.h ****     {
 644:/Applications/ArmGNUToolchain/14.2.rel1/arm-none-eabi/arm-none-eabi/include/c++/14.2.1/bits/stl_algobase.h ****       // concept requirements
 645:/Applications/ArmGNUToolchain/14.2.rel1/arm-none-eabi/arm-none-eabi/include/c++/14.2.1/bits/stl_algobase.h ****       __glibcxx_function_requires(_InputIteratorConcept<_II>)
 646:/Applications/ArmGNUToolchain/14.2.rel1/arm-none-eabi/arm-none-eabi/include/c++/14.2.1/bits/stl_algobase.h ****       __glibcxx_function_requires(_OutputIteratorConcept<_OI,
 647:/Applications/ArmGNUToolchain/14.2.rel1/arm-none-eabi/arm-none-eabi/include/c++/14.2.1/bits/stl_algobase.h **** 	    typename iterator_traits<_II>::reference>)
 648:/Applications/ArmGNUToolchain/14.2.rel1/arm-none-eabi/arm-none-eabi/include/c++/14.2.1/bits/stl_algobase.h ****       __glibcxx_requires_can_increment_range(__first, __last, __result);
 649:/Applications/ArmGNUToolchain/14.2.rel1/arm-none-eabi/arm-none-eabi/include/c++/14.2.1/bits/stl_algobase.h **** 
 650:/Applications/ArmGNUToolchain/14.2.rel1/arm-none-eabi/arm-none-eabi/include/c++/14.2.1/bits/stl_algobase.h ****       return std::__copy_move_a<__is_move_iterator<_II>::__value>
 651:/Applications/ArmGNUToolchain/14.2.rel1/arm-none-eabi/arm-none-eabi/include/c++/14.2.1/bits/stl_algobase.h **** 	     (std::__miter_base(__first), std::__miter_base(__last), __result);
 652:/Applications/ArmGNUToolchain/14.2.rel1/arm-none-eabi/arm-none-eabi/include/c++/14.2.1/bits/stl_algobase.h ****     }
 653:/Applications/ArmGNUToolchain/14.2.rel1/arm-none-eabi/arm-none-eabi/include/c++/14.2.1/bits/stl_algobase.h **** 
 654:/Applications/ArmGNUToolchain/14.2.rel1/arm-none-eabi/arm-none-eabi/include/c++/14.2.1/bits/stl_algobase.h **** #if __cplusplus >= 201103L
 655:/Applications/ArmGNUToolchain/14.2.rel1/arm-none-eabi/arm-none-eabi/include/c++/14.2.1/bits/stl_algobase.h ****   /**
 656:/Applications/ArmGNUToolchain/14.2.rel1/arm-none-eabi/arm-none-eabi/include/c++/14.2.1/bits/stl_algobase.h ****    *  @brief Moves the range [first,last) into result.
 657:/Applications/ArmGNUToolchain/14.2.rel1/arm-none-eabi/arm-none-eabi/include/c++/14.2.1/bits/stl_algobase.h ****    *  @ingroup mutating_algorithms
 658:/Applications/ArmGNUToolchain/14.2.rel1/arm-none-eabi/arm-none-eabi/include/c++/14.2.1/bits/stl_algobase.h ****    *  @param  __first  An input iterator.
 659:/Applications/ArmGNUToolchain/14.2.rel1/arm-none-eabi/arm-none-eabi/include/c++/14.2.1/bits/stl_algobase.h ****    *  @param  __last   An input iterator.
 660:/Applications/ArmGNUToolchain/14.2.rel1/arm-none-eabi/arm-none-eabi/include/c++/14.2.1/bits/stl_algobase.h ****    *  @param  __result An output iterator.
 661:/Applications/ArmGNUToolchain/14.2.rel1/arm-none-eabi/arm-none-eabi/include/c++/14.2.1/bits/stl_algobase.h ****    *  @return   result + (last - first)
 662:/Applications/ArmGNUToolchain/14.2.rel1/arm-none-eabi/arm-none-eabi/include/c++/14.2.1/bits/stl_algobase.h ****    *
 663:/Applications/ArmGNUToolchain/14.2.rel1/arm-none-eabi/arm-none-eabi/include/c++/14.2.1/bits/stl_algobase.h ****    *  This inline function will boil down to a call to @c memmove whenever
 664:/Applications/ArmGNUToolchain/14.2.rel1/arm-none-eabi/arm-none-eabi/include/c++/14.2.1/bits/stl_algobase.h ****    *  possible.  Failing that, if random access iterators are passed, then the
 665:/Applications/ArmGNUToolchain/14.2.rel1/arm-none-eabi/arm-none-eabi/include/c++/14.2.1/bits/stl_algobase.h ****    *  loop count will be known (and therefore a candidate for compiler
 666:/Applications/ArmGNUToolchain/14.2.rel1/arm-none-eabi/arm-none-eabi/include/c++/14.2.1/bits/stl_algobase.h ****    *  optimizations such as unrolling).  Result may not be contained within
 667:/Applications/ArmGNUToolchain/14.2.rel1/arm-none-eabi/arm-none-eabi/include/c++/14.2.1/bits/stl_algobase.h ****    *  [first,last); the move_backward function should be used instead.
 668:/Applications/ArmGNUToolchain/14.2.rel1/arm-none-eabi/arm-none-eabi/include/c++/14.2.1/bits/stl_algobase.h ****    *
 669:/Applications/ArmGNUToolchain/14.2.rel1/arm-none-eabi/arm-none-eabi/include/c++/14.2.1/bits/stl_algobase.h ****    *  Note that the end of the output range is permitted to be contained
 670:/Applications/ArmGNUToolchain/14.2.rel1/arm-none-eabi/arm-none-eabi/include/c++/14.2.1/bits/stl_algobase.h ****    *  within [first,last).
 671:/Applications/ArmGNUToolchain/14.2.rel1/arm-none-eabi/arm-none-eabi/include/c++/14.2.1/bits/stl_algobase.h ****   */
 672:/Applications/ArmGNUToolchain/14.2.rel1/arm-none-eabi/arm-none-eabi/include/c++/14.2.1/bits/stl_algobase.h ****   template<typename _II, typename _OI>
 673:/Applications/ArmGNUToolchain/14.2.rel1/arm-none-eabi/arm-none-eabi/include/c++/14.2.1/bits/stl_algobase.h ****     _GLIBCXX20_CONSTEXPR
 674:/Applications/ArmGNUToolchain/14.2.rel1/arm-none-eabi/arm-none-eabi/include/c++/14.2.1/bits/stl_algobase.h ****     inline _OI
 675:/Applications/ArmGNUToolchain/14.2.rel1/arm-none-eabi/arm-none-eabi/include/c++/14.2.1/bits/stl_algobase.h ****     move(_II __first, _II __last, _OI __result)
 676:/Applications/ArmGNUToolchain/14.2.rel1/arm-none-eabi/arm-none-eabi/include/c++/14.2.1/bits/stl_algobase.h ****     {
 677:/Applications/ArmGNUToolchain/14.2.rel1/arm-none-eabi/arm-none-eabi/include/c++/14.2.1/bits/stl_algobase.h ****       // concept requirements
 678:/Applications/ArmGNUToolchain/14.2.rel1/arm-none-eabi/arm-none-eabi/include/c++/14.2.1/bits/stl_algobase.h ****       __glibcxx_function_requires(_InputIteratorConcept<_II>)
 679:/Applications/ArmGNUToolchain/14.2.rel1/arm-none-eabi/arm-none-eabi/include/c++/14.2.1/bits/stl_algobase.h ****       __glibcxx_function_requires(_OutputIteratorConcept<_OI,
 680:/Applications/ArmGNUToolchain/14.2.rel1/arm-none-eabi/arm-none-eabi/include/c++/14.2.1/bits/stl_algobase.h **** 	    typename iterator_traits<_II>::value_type&&>)
 681:/Applications/ArmGNUToolchain/14.2.rel1/arm-none-eabi/arm-none-eabi/include/c++/14.2.1/bits/stl_algobase.h ****       __glibcxx_requires_can_increment_range(__first, __last, __result);
 682:/Applications/ArmGNUToolchain/14.2.rel1/arm-none-eabi/arm-none-eabi/include/c++/14.2.1/bits/stl_algobase.h **** 
 683:/Applications/ArmGNUToolchain/14.2.rel1/arm-none-eabi/arm-none-eabi/include/c++/14.2.1/bits/stl_algobase.h ****       return std::__copy_move_a<true>(std::__miter_base(__first),
 684:/Applications/ArmGNUToolchain/14.2.rel1/arm-none-eabi/arm-none-eabi/include/c++/14.2.1/bits/stl_algobase.h **** 				      std::__miter_base(__last), __result);
 685:/Applications/ArmGNUToolchain/14.2.rel1/arm-none-eabi/arm-none-eabi/include/c++/14.2.1/bits/stl_algobase.h ****     }
 686:/Applications/ArmGNUToolchain/14.2.rel1/arm-none-eabi/arm-none-eabi/include/c++/14.2.1/bits/stl_algobase.h **** 
 687:/Applications/ArmGNUToolchain/14.2.rel1/arm-none-eabi/arm-none-eabi/include/c++/14.2.1/bits/stl_algobase.h **** #define _GLIBCXX_MOVE3(_Tp, _Up, _Vp) std::move(_Tp, _Up, _Vp)
ARM GAS  /var/folders/y7/g6pkzsp12sx54x3s3mvyn15r0000gn/T//ccaxSVHj.s 			page 22


 688:/Applications/ArmGNUToolchain/14.2.rel1/arm-none-eabi/arm-none-eabi/include/c++/14.2.1/bits/stl_algobase.h **** #else
 689:/Applications/ArmGNUToolchain/14.2.rel1/arm-none-eabi/arm-none-eabi/include/c++/14.2.1/bits/stl_algobase.h **** #define _GLIBCXX_MOVE3(_Tp, _Up, _Vp) std::copy(_Tp, _Up, _Vp)
 690:/Applications/ArmGNUToolchain/14.2.rel1/arm-none-eabi/arm-none-eabi/include/c++/14.2.1/bits/stl_algobase.h **** #endif
 691:/Applications/ArmGNUToolchain/14.2.rel1/arm-none-eabi/arm-none-eabi/include/c++/14.2.1/bits/stl_algobase.h **** 
 692:/Applications/ArmGNUToolchain/14.2.rel1/arm-none-eabi/arm-none-eabi/include/c++/14.2.1/bits/stl_algobase.h ****   template<bool _IsMove, bool _IsSimple, typename _Category>
 693:/Applications/ArmGNUToolchain/14.2.rel1/arm-none-eabi/arm-none-eabi/include/c++/14.2.1/bits/stl_algobase.h ****     struct __copy_move_backward
 694:/Applications/ArmGNUToolchain/14.2.rel1/arm-none-eabi/arm-none-eabi/include/c++/14.2.1/bits/stl_algobase.h ****     {
 695:/Applications/ArmGNUToolchain/14.2.rel1/arm-none-eabi/arm-none-eabi/include/c++/14.2.1/bits/stl_algobase.h ****       template<typename _BI1, typename _BI2>
 696:/Applications/ArmGNUToolchain/14.2.rel1/arm-none-eabi/arm-none-eabi/include/c++/14.2.1/bits/stl_algobase.h **** 	_GLIBCXX20_CONSTEXPR
 697:/Applications/ArmGNUToolchain/14.2.rel1/arm-none-eabi/arm-none-eabi/include/c++/14.2.1/bits/stl_algobase.h **** 	static _BI2
 698:/Applications/ArmGNUToolchain/14.2.rel1/arm-none-eabi/arm-none-eabi/include/c++/14.2.1/bits/stl_algobase.h **** 	__copy_move_b(_BI1 __first, _BI1 __last, _BI2 __result)
 699:/Applications/ArmGNUToolchain/14.2.rel1/arm-none-eabi/arm-none-eabi/include/c++/14.2.1/bits/stl_algobase.h **** 	{
 700:/Applications/ArmGNUToolchain/14.2.rel1/arm-none-eabi/arm-none-eabi/include/c++/14.2.1/bits/stl_algobase.h **** 	  while (__first != __last)
 701:/Applications/ArmGNUToolchain/14.2.rel1/arm-none-eabi/arm-none-eabi/include/c++/14.2.1/bits/stl_algobase.h **** 	    *--__result = *--__last;
 702:/Applications/ArmGNUToolchain/14.2.rel1/arm-none-eabi/arm-none-eabi/include/c++/14.2.1/bits/stl_algobase.h **** 	  return __result;
 703:/Applications/ArmGNUToolchain/14.2.rel1/arm-none-eabi/arm-none-eabi/include/c++/14.2.1/bits/stl_algobase.h **** 	}
 704:/Applications/ArmGNUToolchain/14.2.rel1/arm-none-eabi/arm-none-eabi/include/c++/14.2.1/bits/stl_algobase.h ****     };
 705:/Applications/ArmGNUToolchain/14.2.rel1/arm-none-eabi/arm-none-eabi/include/c++/14.2.1/bits/stl_algobase.h **** 
 706:/Applications/ArmGNUToolchain/14.2.rel1/arm-none-eabi/arm-none-eabi/include/c++/14.2.1/bits/stl_algobase.h **** #if __cplusplus >= 201103L
 707:/Applications/ArmGNUToolchain/14.2.rel1/arm-none-eabi/arm-none-eabi/include/c++/14.2.1/bits/stl_algobase.h ****   template<typename _Category>
 708:/Applications/ArmGNUToolchain/14.2.rel1/arm-none-eabi/arm-none-eabi/include/c++/14.2.1/bits/stl_algobase.h ****     struct __copy_move_backward<true, false, _Category>
 709:/Applications/ArmGNUToolchain/14.2.rel1/arm-none-eabi/arm-none-eabi/include/c++/14.2.1/bits/stl_algobase.h ****     {
 710:/Applications/ArmGNUToolchain/14.2.rel1/arm-none-eabi/arm-none-eabi/include/c++/14.2.1/bits/stl_algobase.h ****       template<typename _BI1, typename _BI2>
 711:/Applications/ArmGNUToolchain/14.2.rel1/arm-none-eabi/arm-none-eabi/include/c++/14.2.1/bits/stl_algobase.h **** 	_GLIBCXX20_CONSTEXPR
 712:/Applications/ArmGNUToolchain/14.2.rel1/arm-none-eabi/arm-none-eabi/include/c++/14.2.1/bits/stl_algobase.h **** 	static _BI2
 713:/Applications/ArmGNUToolchain/14.2.rel1/arm-none-eabi/arm-none-eabi/include/c++/14.2.1/bits/stl_algobase.h **** 	__copy_move_b(_BI1 __first, _BI1 __last, _BI2 __result)
 714:/Applications/ArmGNUToolchain/14.2.rel1/arm-none-eabi/arm-none-eabi/include/c++/14.2.1/bits/stl_algobase.h **** 	{
 715:/Applications/ArmGNUToolchain/14.2.rel1/arm-none-eabi/arm-none-eabi/include/c++/14.2.1/bits/stl_algobase.h **** 	  while (__first != __last)
 716:/Applications/ArmGNUToolchain/14.2.rel1/arm-none-eabi/arm-none-eabi/include/c++/14.2.1/bits/stl_algobase.h **** 	    *--__result = std::move(*--__last);
 717:/Applications/ArmGNUToolchain/14.2.rel1/arm-none-eabi/arm-none-eabi/include/c++/14.2.1/bits/stl_algobase.h **** 	  return __result;
 718:/Applications/ArmGNUToolchain/14.2.rel1/arm-none-eabi/arm-none-eabi/include/c++/14.2.1/bits/stl_algobase.h **** 	}
 719:/Applications/ArmGNUToolchain/14.2.rel1/arm-none-eabi/arm-none-eabi/include/c++/14.2.1/bits/stl_algobase.h ****     };
 720:/Applications/ArmGNUToolchain/14.2.rel1/arm-none-eabi/arm-none-eabi/include/c++/14.2.1/bits/stl_algobase.h **** #endif
 721:/Applications/ArmGNUToolchain/14.2.rel1/arm-none-eabi/arm-none-eabi/include/c++/14.2.1/bits/stl_algobase.h **** 
 722:/Applications/ArmGNUToolchain/14.2.rel1/arm-none-eabi/arm-none-eabi/include/c++/14.2.1/bits/stl_algobase.h ****   template<>
 723:/Applications/ArmGNUToolchain/14.2.rel1/arm-none-eabi/arm-none-eabi/include/c++/14.2.1/bits/stl_algobase.h ****     struct __copy_move_backward<false, false, random_access_iterator_tag>
 724:/Applications/ArmGNUToolchain/14.2.rel1/arm-none-eabi/arm-none-eabi/include/c++/14.2.1/bits/stl_algobase.h ****     {
 725:/Applications/ArmGNUToolchain/14.2.rel1/arm-none-eabi/arm-none-eabi/include/c++/14.2.1/bits/stl_algobase.h ****       template<typename _BI1, typename _BI2>
 726:/Applications/ArmGNUToolchain/14.2.rel1/arm-none-eabi/arm-none-eabi/include/c++/14.2.1/bits/stl_algobase.h **** 	_GLIBCXX20_CONSTEXPR
 727:/Applications/ArmGNUToolchain/14.2.rel1/arm-none-eabi/arm-none-eabi/include/c++/14.2.1/bits/stl_algobase.h **** 	static _BI2
 728:/Applications/ArmGNUToolchain/14.2.rel1/arm-none-eabi/arm-none-eabi/include/c++/14.2.1/bits/stl_algobase.h **** 	__copy_move_b(_BI1 __first, _BI1 __last, _BI2 __result)
 729:/Applications/ArmGNUToolchain/14.2.rel1/arm-none-eabi/arm-none-eabi/include/c++/14.2.1/bits/stl_algobase.h **** 	{
 730:/Applications/ArmGNUToolchain/14.2.rel1/arm-none-eabi/arm-none-eabi/include/c++/14.2.1/bits/stl_algobase.h **** 	  typename iterator_traits<_BI1>::difference_type
 731:/Applications/ArmGNUToolchain/14.2.rel1/arm-none-eabi/arm-none-eabi/include/c++/14.2.1/bits/stl_algobase.h **** 	    __n = __last - __first;
 732:/Applications/ArmGNUToolchain/14.2.rel1/arm-none-eabi/arm-none-eabi/include/c++/14.2.1/bits/stl_algobase.h **** 	  for (; __n > 0; --__n)
 733:/Applications/ArmGNUToolchain/14.2.rel1/arm-none-eabi/arm-none-eabi/include/c++/14.2.1/bits/stl_algobase.h **** 	    *--__result = *--__last;
 734:/Applications/ArmGNUToolchain/14.2.rel1/arm-none-eabi/arm-none-eabi/include/c++/14.2.1/bits/stl_algobase.h **** 	  return __result;
 735:/Applications/ArmGNUToolchain/14.2.rel1/arm-none-eabi/arm-none-eabi/include/c++/14.2.1/bits/stl_algobase.h **** 	}
 736:/Applications/ArmGNUToolchain/14.2.rel1/arm-none-eabi/arm-none-eabi/include/c++/14.2.1/bits/stl_algobase.h ****     };
 737:/Applications/ArmGNUToolchain/14.2.rel1/arm-none-eabi/arm-none-eabi/include/c++/14.2.1/bits/stl_algobase.h **** 
 738:/Applications/ArmGNUToolchain/14.2.rel1/arm-none-eabi/arm-none-eabi/include/c++/14.2.1/bits/stl_algobase.h **** #if __cplusplus >= 201103L
 739:/Applications/ArmGNUToolchain/14.2.rel1/arm-none-eabi/arm-none-eabi/include/c++/14.2.1/bits/stl_algobase.h ****   template<>
 740:/Applications/ArmGNUToolchain/14.2.rel1/arm-none-eabi/arm-none-eabi/include/c++/14.2.1/bits/stl_algobase.h ****     struct __copy_move_backward<true, false, random_access_iterator_tag>
 741:/Applications/ArmGNUToolchain/14.2.rel1/arm-none-eabi/arm-none-eabi/include/c++/14.2.1/bits/stl_algobase.h ****     {
 742:/Applications/ArmGNUToolchain/14.2.rel1/arm-none-eabi/arm-none-eabi/include/c++/14.2.1/bits/stl_algobase.h ****       template<typename _BI1, typename _BI2>
 743:/Applications/ArmGNUToolchain/14.2.rel1/arm-none-eabi/arm-none-eabi/include/c++/14.2.1/bits/stl_algobase.h **** 	_GLIBCXX20_CONSTEXPR
 744:/Applications/ArmGNUToolchain/14.2.rel1/arm-none-eabi/arm-none-eabi/include/c++/14.2.1/bits/stl_algobase.h **** 	static _BI2
ARM GAS  /var/folders/y7/g6pkzsp12sx54x3s3mvyn15r0000gn/T//ccaxSVHj.s 			page 23


 745:/Applications/ArmGNUToolchain/14.2.rel1/arm-none-eabi/arm-none-eabi/include/c++/14.2.1/bits/stl_algobase.h **** 	__copy_move_b(_BI1 __first, _BI1 __last, _BI2 __result)
 746:/Applications/ArmGNUToolchain/14.2.rel1/arm-none-eabi/arm-none-eabi/include/c++/14.2.1/bits/stl_algobase.h **** 	{
 747:/Applications/ArmGNUToolchain/14.2.rel1/arm-none-eabi/arm-none-eabi/include/c++/14.2.1/bits/stl_algobase.h **** 	  typename iterator_traits<_BI1>::difference_type
 748:/Applications/ArmGNUToolchain/14.2.rel1/arm-none-eabi/arm-none-eabi/include/c++/14.2.1/bits/stl_algobase.h **** 	    __n = __last - __first;
 749:/Applications/ArmGNUToolchain/14.2.rel1/arm-none-eabi/arm-none-eabi/include/c++/14.2.1/bits/stl_algobase.h **** 	  for (; __n > 0; --__n)
 750:/Applications/ArmGNUToolchain/14.2.rel1/arm-none-eabi/arm-none-eabi/include/c++/14.2.1/bits/stl_algobase.h **** 	    *--__result = std::move(*--__last);
 751:/Applications/ArmGNUToolchain/14.2.rel1/arm-none-eabi/arm-none-eabi/include/c++/14.2.1/bits/stl_algobase.h **** 	  return __result;
 752:/Applications/ArmGNUToolchain/14.2.rel1/arm-none-eabi/arm-none-eabi/include/c++/14.2.1/bits/stl_algobase.h **** 	}
 753:/Applications/ArmGNUToolchain/14.2.rel1/arm-none-eabi/arm-none-eabi/include/c++/14.2.1/bits/stl_algobase.h ****     };
 754:/Applications/ArmGNUToolchain/14.2.rel1/arm-none-eabi/arm-none-eabi/include/c++/14.2.1/bits/stl_algobase.h **** #endif
 755:/Applications/ArmGNUToolchain/14.2.rel1/arm-none-eabi/arm-none-eabi/include/c++/14.2.1/bits/stl_algobase.h **** 
 756:/Applications/ArmGNUToolchain/14.2.rel1/arm-none-eabi/arm-none-eabi/include/c++/14.2.1/bits/stl_algobase.h ****   template<bool _IsMove>
 757:/Applications/ArmGNUToolchain/14.2.rel1/arm-none-eabi/arm-none-eabi/include/c++/14.2.1/bits/stl_algobase.h ****     struct __copy_move_backward<_IsMove, true, random_access_iterator_tag>
 758:/Applications/ArmGNUToolchain/14.2.rel1/arm-none-eabi/arm-none-eabi/include/c++/14.2.1/bits/stl_algobase.h ****     {
 759:/Applications/ArmGNUToolchain/14.2.rel1/arm-none-eabi/arm-none-eabi/include/c++/14.2.1/bits/stl_algobase.h ****       template<typename _Tp, typename _Up>
 760:/Applications/ArmGNUToolchain/14.2.rel1/arm-none-eabi/arm-none-eabi/include/c++/14.2.1/bits/stl_algobase.h **** 	_GLIBCXX20_CONSTEXPR
 761:/Applications/ArmGNUToolchain/14.2.rel1/arm-none-eabi/arm-none-eabi/include/c++/14.2.1/bits/stl_algobase.h **** 	static _Up*
 762:/Applications/ArmGNUToolchain/14.2.rel1/arm-none-eabi/arm-none-eabi/include/c++/14.2.1/bits/stl_algobase.h **** 	__copy_move_b(_Tp* __first, _Tp* __last, _Up* __result)
 763:/Applications/ArmGNUToolchain/14.2.rel1/arm-none-eabi/arm-none-eabi/include/c++/14.2.1/bits/stl_algobase.h **** 	{
 764:/Applications/ArmGNUToolchain/14.2.rel1/arm-none-eabi/arm-none-eabi/include/c++/14.2.1/bits/stl_algobase.h **** 	  const ptrdiff_t _Num = __last - __first;
 765:/Applications/ArmGNUToolchain/14.2.rel1/arm-none-eabi/arm-none-eabi/include/c++/14.2.1/bits/stl_algobase.h **** 	  if (__builtin_expect(_Num > 1, true))
 766:/Applications/ArmGNUToolchain/14.2.rel1/arm-none-eabi/arm-none-eabi/include/c++/14.2.1/bits/stl_algobase.h **** 	    __builtin_memmove(__result - _Num, __first, sizeof(_Tp) * _Num);
 767:/Applications/ArmGNUToolchain/14.2.rel1/arm-none-eabi/arm-none-eabi/include/c++/14.2.1/bits/stl_algobase.h **** 	  else if (_Num == 1)
 768:/Applications/ArmGNUToolchain/14.2.rel1/arm-none-eabi/arm-none-eabi/include/c++/14.2.1/bits/stl_algobase.h **** 	    std::__copy_move<_IsMove, false, random_access_iterator_tag>::
 769:/Applications/ArmGNUToolchain/14.2.rel1/arm-none-eabi/arm-none-eabi/include/c++/14.2.1/bits/stl_algobase.h **** 	      __assign_one(__result - 1, __first);
 770:/Applications/ArmGNUToolchain/14.2.rel1/arm-none-eabi/arm-none-eabi/include/c++/14.2.1/bits/stl_algobase.h **** 	  return __result - _Num;
 771:/Applications/ArmGNUToolchain/14.2.rel1/arm-none-eabi/arm-none-eabi/include/c++/14.2.1/bits/stl_algobase.h **** 	}
 772:/Applications/ArmGNUToolchain/14.2.rel1/arm-none-eabi/arm-none-eabi/include/c++/14.2.1/bits/stl_algobase.h ****     };
 773:/Applications/ArmGNUToolchain/14.2.rel1/arm-none-eabi/arm-none-eabi/include/c++/14.2.1/bits/stl_algobase.h **** 
 774:/Applications/ArmGNUToolchain/14.2.rel1/arm-none-eabi/arm-none-eabi/include/c++/14.2.1/bits/stl_algobase.h ****   template<bool _IsMove, typename _BI1, typename _BI2>
 775:/Applications/ArmGNUToolchain/14.2.rel1/arm-none-eabi/arm-none-eabi/include/c++/14.2.1/bits/stl_algobase.h ****     _GLIBCXX20_CONSTEXPR
 776:/Applications/ArmGNUToolchain/14.2.rel1/arm-none-eabi/arm-none-eabi/include/c++/14.2.1/bits/stl_algobase.h ****     inline _BI2
 777:/Applications/ArmGNUToolchain/14.2.rel1/arm-none-eabi/arm-none-eabi/include/c++/14.2.1/bits/stl_algobase.h ****     __copy_move_backward_a2(_BI1 __first, _BI1 __last, _BI2 __result)
 778:/Applications/ArmGNUToolchain/14.2.rel1/arm-none-eabi/arm-none-eabi/include/c++/14.2.1/bits/stl_algobase.h ****     {
 779:/Applications/ArmGNUToolchain/14.2.rel1/arm-none-eabi/arm-none-eabi/include/c++/14.2.1/bits/stl_algobase.h ****       typedef typename iterator_traits<_BI1>::iterator_category _Category;
 780:/Applications/ArmGNUToolchain/14.2.rel1/arm-none-eabi/arm-none-eabi/include/c++/14.2.1/bits/stl_algobase.h **** #ifdef __cpp_lib_is_constant_evaluated
 781:/Applications/ArmGNUToolchain/14.2.rel1/arm-none-eabi/arm-none-eabi/include/c++/14.2.1/bits/stl_algobase.h ****       if (std::is_constant_evaluated())
 782:/Applications/ArmGNUToolchain/14.2.rel1/arm-none-eabi/arm-none-eabi/include/c++/14.2.1/bits/stl_algobase.h **** 	return std::__copy_move_backward<_IsMove, false, _Category>::
 783:/Applications/ArmGNUToolchain/14.2.rel1/arm-none-eabi/arm-none-eabi/include/c++/14.2.1/bits/stl_algobase.h **** 	  __copy_move_b(__first, __last, __result);
 784:/Applications/ArmGNUToolchain/14.2.rel1/arm-none-eabi/arm-none-eabi/include/c++/14.2.1/bits/stl_algobase.h **** #endif
 785:/Applications/ArmGNUToolchain/14.2.rel1/arm-none-eabi/arm-none-eabi/include/c++/14.2.1/bits/stl_algobase.h ****       return std::__copy_move_backward<_IsMove,
 786:/Applications/ArmGNUToolchain/14.2.rel1/arm-none-eabi/arm-none-eabi/include/c++/14.2.1/bits/stl_algobase.h **** 				       __memcpyable<_BI2, _BI1>::__value,
 787:/Applications/ArmGNUToolchain/14.2.rel1/arm-none-eabi/arm-none-eabi/include/c++/14.2.1/bits/stl_algobase.h **** 				       _Category>::__copy_move_b(__first,
 788:/Applications/ArmGNUToolchain/14.2.rel1/arm-none-eabi/arm-none-eabi/include/c++/14.2.1/bits/stl_algobase.h **** 								 __last,
 789:/Applications/ArmGNUToolchain/14.2.rel1/arm-none-eabi/arm-none-eabi/include/c++/14.2.1/bits/stl_algobase.h **** 								 __result);
 790:/Applications/ArmGNUToolchain/14.2.rel1/arm-none-eabi/arm-none-eabi/include/c++/14.2.1/bits/stl_algobase.h ****     }
 791:/Applications/ArmGNUToolchain/14.2.rel1/arm-none-eabi/arm-none-eabi/include/c++/14.2.1/bits/stl_algobase.h **** 
 792:/Applications/ArmGNUToolchain/14.2.rel1/arm-none-eabi/arm-none-eabi/include/c++/14.2.1/bits/stl_algobase.h ****   template<bool _IsMove, typename _BI1, typename _BI2>
 793:/Applications/ArmGNUToolchain/14.2.rel1/arm-none-eabi/arm-none-eabi/include/c++/14.2.1/bits/stl_algobase.h ****     _GLIBCXX20_CONSTEXPR
 794:/Applications/ArmGNUToolchain/14.2.rel1/arm-none-eabi/arm-none-eabi/include/c++/14.2.1/bits/stl_algobase.h ****     inline _BI2
 795:/Applications/ArmGNUToolchain/14.2.rel1/arm-none-eabi/arm-none-eabi/include/c++/14.2.1/bits/stl_algobase.h ****     __copy_move_backward_a1(_BI1 __first, _BI1 __last, _BI2 __result)
 796:/Applications/ArmGNUToolchain/14.2.rel1/arm-none-eabi/arm-none-eabi/include/c++/14.2.1/bits/stl_algobase.h ****     { return std::__copy_move_backward_a2<_IsMove>(__first, __last, __result); }
 797:/Applications/ArmGNUToolchain/14.2.rel1/arm-none-eabi/arm-none-eabi/include/c++/14.2.1/bits/stl_algobase.h **** 
 798:/Applications/ArmGNUToolchain/14.2.rel1/arm-none-eabi/arm-none-eabi/include/c++/14.2.1/bits/stl_algobase.h ****   template<bool _IsMove,
 799:/Applications/ArmGNUToolchain/14.2.rel1/arm-none-eabi/arm-none-eabi/include/c++/14.2.1/bits/stl_algobase.h **** 	   typename _Tp, typename _Ref, typename _Ptr, typename _OI>
 800:/Applications/ArmGNUToolchain/14.2.rel1/arm-none-eabi/arm-none-eabi/include/c++/14.2.1/bits/stl_algobase.h ****     _OI
 801:/Applications/ArmGNUToolchain/14.2.rel1/arm-none-eabi/arm-none-eabi/include/c++/14.2.1/bits/stl_algobase.h ****     __copy_move_backward_a1(_GLIBCXX_STD_C::_Deque_iterator<_Tp, _Ref, _Ptr>,
ARM GAS  /var/folders/y7/g6pkzsp12sx54x3s3mvyn15r0000gn/T//ccaxSVHj.s 			page 24


 802:/Applications/ArmGNUToolchain/14.2.rel1/arm-none-eabi/arm-none-eabi/include/c++/14.2.1/bits/stl_algobase.h **** 			    _GLIBCXX_STD_C::_Deque_iterator<_Tp, _Ref, _Ptr>,
 803:/Applications/ArmGNUToolchain/14.2.rel1/arm-none-eabi/arm-none-eabi/include/c++/14.2.1/bits/stl_algobase.h **** 			    _OI);
 804:/Applications/ArmGNUToolchain/14.2.rel1/arm-none-eabi/arm-none-eabi/include/c++/14.2.1/bits/stl_algobase.h **** 
 805:/Applications/ArmGNUToolchain/14.2.rel1/arm-none-eabi/arm-none-eabi/include/c++/14.2.1/bits/stl_algobase.h ****   template<bool _IsMove,
 806:/Applications/ArmGNUToolchain/14.2.rel1/arm-none-eabi/arm-none-eabi/include/c++/14.2.1/bits/stl_algobase.h **** 	   typename _ITp, typename _IRef, typename _IPtr, typename _OTp>
 807:/Applications/ArmGNUToolchain/14.2.rel1/arm-none-eabi/arm-none-eabi/include/c++/14.2.1/bits/stl_algobase.h ****     _GLIBCXX_STD_C::_Deque_iterator<_OTp, _OTp&, _OTp*>
 808:/Applications/ArmGNUToolchain/14.2.rel1/arm-none-eabi/arm-none-eabi/include/c++/14.2.1/bits/stl_algobase.h ****     __copy_move_backward_a1(
 809:/Applications/ArmGNUToolchain/14.2.rel1/arm-none-eabi/arm-none-eabi/include/c++/14.2.1/bits/stl_algobase.h **** 			_GLIBCXX_STD_C::_Deque_iterator<_ITp, _IRef, _IPtr>,
 810:/Applications/ArmGNUToolchain/14.2.rel1/arm-none-eabi/arm-none-eabi/include/c++/14.2.1/bits/stl_algobase.h **** 			_GLIBCXX_STD_C::_Deque_iterator<_ITp, _IRef, _IPtr>,
 811:/Applications/ArmGNUToolchain/14.2.rel1/arm-none-eabi/arm-none-eabi/include/c++/14.2.1/bits/stl_algobase.h **** 			_GLIBCXX_STD_C::_Deque_iterator<_OTp, _OTp&, _OTp*>);
 812:/Applications/ArmGNUToolchain/14.2.rel1/arm-none-eabi/arm-none-eabi/include/c++/14.2.1/bits/stl_algobase.h **** 
 813:/Applications/ArmGNUToolchain/14.2.rel1/arm-none-eabi/arm-none-eabi/include/c++/14.2.1/bits/stl_algobase.h ****   template<bool _IsMove, typename _II, typename _Tp>
 814:/Applications/ArmGNUToolchain/14.2.rel1/arm-none-eabi/arm-none-eabi/include/c++/14.2.1/bits/stl_algobase.h ****     typename __gnu_cxx::__enable_if<
 815:/Applications/ArmGNUToolchain/14.2.rel1/arm-none-eabi/arm-none-eabi/include/c++/14.2.1/bits/stl_algobase.h ****       __is_random_access_iter<_II>::__value,
 816:/Applications/ArmGNUToolchain/14.2.rel1/arm-none-eabi/arm-none-eabi/include/c++/14.2.1/bits/stl_algobase.h ****       _GLIBCXX_STD_C::_Deque_iterator<_Tp, _Tp&, _Tp*> >::__type
 817:/Applications/ArmGNUToolchain/14.2.rel1/arm-none-eabi/arm-none-eabi/include/c++/14.2.1/bits/stl_algobase.h ****     __copy_move_backward_a1(_II, _II,
 818:/Applications/ArmGNUToolchain/14.2.rel1/arm-none-eabi/arm-none-eabi/include/c++/14.2.1/bits/stl_algobase.h **** 			    _GLIBCXX_STD_C::_Deque_iterator<_Tp, _Tp&, _Tp*>);
 819:/Applications/ArmGNUToolchain/14.2.rel1/arm-none-eabi/arm-none-eabi/include/c++/14.2.1/bits/stl_algobase.h **** 
 820:/Applications/ArmGNUToolchain/14.2.rel1/arm-none-eabi/arm-none-eabi/include/c++/14.2.1/bits/stl_algobase.h ****   template<bool _IsMove, typename _II, typename _OI>
 821:/Applications/ArmGNUToolchain/14.2.rel1/arm-none-eabi/arm-none-eabi/include/c++/14.2.1/bits/stl_algobase.h ****     _GLIBCXX20_CONSTEXPR
 822:/Applications/ArmGNUToolchain/14.2.rel1/arm-none-eabi/arm-none-eabi/include/c++/14.2.1/bits/stl_algobase.h ****     inline _OI
 823:/Applications/ArmGNUToolchain/14.2.rel1/arm-none-eabi/arm-none-eabi/include/c++/14.2.1/bits/stl_algobase.h ****     __copy_move_backward_a(_II __first, _II __last, _OI __result)
 824:/Applications/ArmGNUToolchain/14.2.rel1/arm-none-eabi/arm-none-eabi/include/c++/14.2.1/bits/stl_algobase.h ****     {
 825:/Applications/ArmGNUToolchain/14.2.rel1/arm-none-eabi/arm-none-eabi/include/c++/14.2.1/bits/stl_algobase.h ****       return std::__niter_wrap(__result,
 826:/Applications/ArmGNUToolchain/14.2.rel1/arm-none-eabi/arm-none-eabi/include/c++/14.2.1/bits/stl_algobase.h **** 		std::__copy_move_backward_a1<_IsMove>
 827:/Applications/ArmGNUToolchain/14.2.rel1/arm-none-eabi/arm-none-eabi/include/c++/14.2.1/bits/stl_algobase.h **** 		  (std::__niter_base(__first), std::__niter_base(__last),
 828:/Applications/ArmGNUToolchain/14.2.rel1/arm-none-eabi/arm-none-eabi/include/c++/14.2.1/bits/stl_algobase.h **** 		   std::__niter_base(__result)));
 829:/Applications/ArmGNUToolchain/14.2.rel1/arm-none-eabi/arm-none-eabi/include/c++/14.2.1/bits/stl_algobase.h ****     }
 830:/Applications/ArmGNUToolchain/14.2.rel1/arm-none-eabi/arm-none-eabi/include/c++/14.2.1/bits/stl_algobase.h **** 
 831:/Applications/ArmGNUToolchain/14.2.rel1/arm-none-eabi/arm-none-eabi/include/c++/14.2.1/bits/stl_algobase.h ****   template<bool _IsMove,
 832:/Applications/ArmGNUToolchain/14.2.rel1/arm-none-eabi/arm-none-eabi/include/c++/14.2.1/bits/stl_algobase.h **** 	   typename _Ite, typename _Seq, typename _Cat, typename _OI>
 833:/Applications/ArmGNUToolchain/14.2.rel1/arm-none-eabi/arm-none-eabi/include/c++/14.2.1/bits/stl_algobase.h ****     _GLIBCXX20_CONSTEXPR
 834:/Applications/ArmGNUToolchain/14.2.rel1/arm-none-eabi/arm-none-eabi/include/c++/14.2.1/bits/stl_algobase.h ****     _OI
 835:/Applications/ArmGNUToolchain/14.2.rel1/arm-none-eabi/arm-none-eabi/include/c++/14.2.1/bits/stl_algobase.h ****     __copy_move_backward_a(
 836:/Applications/ArmGNUToolchain/14.2.rel1/arm-none-eabi/arm-none-eabi/include/c++/14.2.1/bits/stl_algobase.h **** 		const ::__gnu_debug::_Safe_iterator<_Ite, _Seq, _Cat>&,
 837:/Applications/ArmGNUToolchain/14.2.rel1/arm-none-eabi/arm-none-eabi/include/c++/14.2.1/bits/stl_algobase.h **** 		const ::__gnu_debug::_Safe_iterator<_Ite, _Seq, _Cat>&,
 838:/Applications/ArmGNUToolchain/14.2.rel1/arm-none-eabi/arm-none-eabi/include/c++/14.2.1/bits/stl_algobase.h **** 		_OI);
 839:/Applications/ArmGNUToolchain/14.2.rel1/arm-none-eabi/arm-none-eabi/include/c++/14.2.1/bits/stl_algobase.h **** 
 840:/Applications/ArmGNUToolchain/14.2.rel1/arm-none-eabi/arm-none-eabi/include/c++/14.2.1/bits/stl_algobase.h ****   template<bool _IsMove,
 841:/Applications/ArmGNUToolchain/14.2.rel1/arm-none-eabi/arm-none-eabi/include/c++/14.2.1/bits/stl_algobase.h **** 	   typename _II, typename _Ite, typename _Seq, typename _Cat>
 842:/Applications/ArmGNUToolchain/14.2.rel1/arm-none-eabi/arm-none-eabi/include/c++/14.2.1/bits/stl_algobase.h ****     _GLIBCXX20_CONSTEXPR
 843:/Applications/ArmGNUToolchain/14.2.rel1/arm-none-eabi/arm-none-eabi/include/c++/14.2.1/bits/stl_algobase.h ****     __gnu_debug::_Safe_iterator<_Ite, _Seq, _Cat>
 844:/Applications/ArmGNUToolchain/14.2.rel1/arm-none-eabi/arm-none-eabi/include/c++/14.2.1/bits/stl_algobase.h ****     __copy_move_backward_a(_II, _II,
 845:/Applications/ArmGNUToolchain/14.2.rel1/arm-none-eabi/arm-none-eabi/include/c++/14.2.1/bits/stl_algobase.h **** 		const ::__gnu_debug::_Safe_iterator<_Ite, _Seq, _Cat>&);
 846:/Applications/ArmGNUToolchain/14.2.rel1/arm-none-eabi/arm-none-eabi/include/c++/14.2.1/bits/stl_algobase.h **** 
 847:/Applications/ArmGNUToolchain/14.2.rel1/arm-none-eabi/arm-none-eabi/include/c++/14.2.1/bits/stl_algobase.h ****   template<bool _IsMove,
 848:/Applications/ArmGNUToolchain/14.2.rel1/arm-none-eabi/arm-none-eabi/include/c++/14.2.1/bits/stl_algobase.h **** 	   typename _IIte, typename _ISeq, typename _ICat,
 849:/Applications/ArmGNUToolchain/14.2.rel1/arm-none-eabi/arm-none-eabi/include/c++/14.2.1/bits/stl_algobase.h **** 	   typename _OIte, typename _OSeq, typename _OCat>
 850:/Applications/ArmGNUToolchain/14.2.rel1/arm-none-eabi/arm-none-eabi/include/c++/14.2.1/bits/stl_algobase.h ****     _GLIBCXX20_CONSTEXPR
 851:/Applications/ArmGNUToolchain/14.2.rel1/arm-none-eabi/arm-none-eabi/include/c++/14.2.1/bits/stl_algobase.h ****     ::__gnu_debug::_Safe_iterator<_OIte, _OSeq, _OCat>
 852:/Applications/ArmGNUToolchain/14.2.rel1/arm-none-eabi/arm-none-eabi/include/c++/14.2.1/bits/stl_algobase.h ****     __copy_move_backward_a(
 853:/Applications/ArmGNUToolchain/14.2.rel1/arm-none-eabi/arm-none-eabi/include/c++/14.2.1/bits/stl_algobase.h **** 		const ::__gnu_debug::_Safe_iterator<_IIte, _ISeq, _ICat>&,
 854:/Applications/ArmGNUToolchain/14.2.rel1/arm-none-eabi/arm-none-eabi/include/c++/14.2.1/bits/stl_algobase.h **** 		const ::__gnu_debug::_Safe_iterator<_IIte, _ISeq, _ICat>&,
 855:/Applications/ArmGNUToolchain/14.2.rel1/arm-none-eabi/arm-none-eabi/include/c++/14.2.1/bits/stl_algobase.h **** 		const ::__gnu_debug::_Safe_iterator<_OIte, _OSeq, _OCat>&);
 856:/Applications/ArmGNUToolchain/14.2.rel1/arm-none-eabi/arm-none-eabi/include/c++/14.2.1/bits/stl_algobase.h **** 
 857:/Applications/ArmGNUToolchain/14.2.rel1/arm-none-eabi/arm-none-eabi/include/c++/14.2.1/bits/stl_algobase.h ****   /**
 858:/Applications/ArmGNUToolchain/14.2.rel1/arm-none-eabi/arm-none-eabi/include/c++/14.2.1/bits/stl_algobase.h ****    *  @brief Copies the range [first,last) into result.
ARM GAS  /var/folders/y7/g6pkzsp12sx54x3s3mvyn15r0000gn/T//ccaxSVHj.s 			page 25


 859:/Applications/ArmGNUToolchain/14.2.rel1/arm-none-eabi/arm-none-eabi/include/c++/14.2.1/bits/stl_algobase.h ****    *  @ingroup mutating_algorithms
 860:/Applications/ArmGNUToolchain/14.2.rel1/arm-none-eabi/arm-none-eabi/include/c++/14.2.1/bits/stl_algobase.h ****    *  @param  __first  A bidirectional iterator.
 861:/Applications/ArmGNUToolchain/14.2.rel1/arm-none-eabi/arm-none-eabi/include/c++/14.2.1/bits/stl_algobase.h ****    *  @param  __last   A bidirectional iterator.
 862:/Applications/ArmGNUToolchain/14.2.rel1/arm-none-eabi/arm-none-eabi/include/c++/14.2.1/bits/stl_algobase.h ****    *  @param  __result A bidirectional iterator.
 863:/Applications/ArmGNUToolchain/14.2.rel1/arm-none-eabi/arm-none-eabi/include/c++/14.2.1/bits/stl_algobase.h ****    *  @return   result - (last - first)
 864:/Applications/ArmGNUToolchain/14.2.rel1/arm-none-eabi/arm-none-eabi/include/c++/14.2.1/bits/stl_algobase.h ****    *
 865:/Applications/ArmGNUToolchain/14.2.rel1/arm-none-eabi/arm-none-eabi/include/c++/14.2.1/bits/stl_algobase.h ****    *  The function has the same effect as copy, but starts at the end of the
 866:/Applications/ArmGNUToolchain/14.2.rel1/arm-none-eabi/arm-none-eabi/include/c++/14.2.1/bits/stl_algobase.h ****    *  range and works its way to the start, returning the start of the result.
 867:/Applications/ArmGNUToolchain/14.2.rel1/arm-none-eabi/arm-none-eabi/include/c++/14.2.1/bits/stl_algobase.h ****    *  This inline function will boil down to a call to @c memmove whenever
 868:/Applications/ArmGNUToolchain/14.2.rel1/arm-none-eabi/arm-none-eabi/include/c++/14.2.1/bits/stl_algobase.h ****    *  possible.  Failing that, if random access iterators are passed, then the
 869:/Applications/ArmGNUToolchain/14.2.rel1/arm-none-eabi/arm-none-eabi/include/c++/14.2.1/bits/stl_algobase.h ****    *  loop count will be known (and therefore a candidate for compiler
 870:/Applications/ArmGNUToolchain/14.2.rel1/arm-none-eabi/arm-none-eabi/include/c++/14.2.1/bits/stl_algobase.h ****    *  optimizations such as unrolling).
 871:/Applications/ArmGNUToolchain/14.2.rel1/arm-none-eabi/arm-none-eabi/include/c++/14.2.1/bits/stl_algobase.h ****    *
 872:/Applications/ArmGNUToolchain/14.2.rel1/arm-none-eabi/arm-none-eabi/include/c++/14.2.1/bits/stl_algobase.h ****    *  Result may not be in the range (first,last].  Use copy instead.  Note
 873:/Applications/ArmGNUToolchain/14.2.rel1/arm-none-eabi/arm-none-eabi/include/c++/14.2.1/bits/stl_algobase.h ****    *  that the start of the output range may overlap [first,last).
 874:/Applications/ArmGNUToolchain/14.2.rel1/arm-none-eabi/arm-none-eabi/include/c++/14.2.1/bits/stl_algobase.h ****   */
 875:/Applications/ArmGNUToolchain/14.2.rel1/arm-none-eabi/arm-none-eabi/include/c++/14.2.1/bits/stl_algobase.h ****   template<typename _BI1, typename _BI2>
 876:/Applications/ArmGNUToolchain/14.2.rel1/arm-none-eabi/arm-none-eabi/include/c++/14.2.1/bits/stl_algobase.h ****     _GLIBCXX20_CONSTEXPR
 877:/Applications/ArmGNUToolchain/14.2.rel1/arm-none-eabi/arm-none-eabi/include/c++/14.2.1/bits/stl_algobase.h ****     inline _BI2
 878:/Applications/ArmGNUToolchain/14.2.rel1/arm-none-eabi/arm-none-eabi/include/c++/14.2.1/bits/stl_algobase.h ****     copy_backward(_BI1 __first, _BI1 __last, _BI2 __result)
 879:/Applications/ArmGNUToolchain/14.2.rel1/arm-none-eabi/arm-none-eabi/include/c++/14.2.1/bits/stl_algobase.h ****     {
 880:/Applications/ArmGNUToolchain/14.2.rel1/arm-none-eabi/arm-none-eabi/include/c++/14.2.1/bits/stl_algobase.h ****       // concept requirements
 881:/Applications/ArmGNUToolchain/14.2.rel1/arm-none-eabi/arm-none-eabi/include/c++/14.2.1/bits/stl_algobase.h ****       __glibcxx_function_requires(_BidirectionalIteratorConcept<_BI1>)
 882:/Applications/ArmGNUToolchain/14.2.rel1/arm-none-eabi/arm-none-eabi/include/c++/14.2.1/bits/stl_algobase.h ****       __glibcxx_function_requires(_Mutable_BidirectionalIteratorConcept<_BI2>)
 883:/Applications/ArmGNUToolchain/14.2.rel1/arm-none-eabi/arm-none-eabi/include/c++/14.2.1/bits/stl_algobase.h ****       __glibcxx_function_requires(_OutputIteratorConcept<_BI2,
 884:/Applications/ArmGNUToolchain/14.2.rel1/arm-none-eabi/arm-none-eabi/include/c++/14.2.1/bits/stl_algobase.h **** 	    typename iterator_traits<_BI1>::reference>)
 885:/Applications/ArmGNUToolchain/14.2.rel1/arm-none-eabi/arm-none-eabi/include/c++/14.2.1/bits/stl_algobase.h ****       __glibcxx_requires_can_decrement_range(__first, __last, __result);
 886:/Applications/ArmGNUToolchain/14.2.rel1/arm-none-eabi/arm-none-eabi/include/c++/14.2.1/bits/stl_algobase.h **** 
 887:/Applications/ArmGNUToolchain/14.2.rel1/arm-none-eabi/arm-none-eabi/include/c++/14.2.1/bits/stl_algobase.h ****       return std::__copy_move_backward_a<__is_move_iterator<_BI1>::__value>
 888:/Applications/ArmGNUToolchain/14.2.rel1/arm-none-eabi/arm-none-eabi/include/c++/14.2.1/bits/stl_algobase.h **** 	     (std::__miter_base(__first), std::__miter_base(__last), __result);
 889:/Applications/ArmGNUToolchain/14.2.rel1/arm-none-eabi/arm-none-eabi/include/c++/14.2.1/bits/stl_algobase.h ****     }
 890:/Applications/ArmGNUToolchain/14.2.rel1/arm-none-eabi/arm-none-eabi/include/c++/14.2.1/bits/stl_algobase.h **** 
 891:/Applications/ArmGNUToolchain/14.2.rel1/arm-none-eabi/arm-none-eabi/include/c++/14.2.1/bits/stl_algobase.h **** #if __cplusplus >= 201103L
 892:/Applications/ArmGNUToolchain/14.2.rel1/arm-none-eabi/arm-none-eabi/include/c++/14.2.1/bits/stl_algobase.h ****   /**
 893:/Applications/ArmGNUToolchain/14.2.rel1/arm-none-eabi/arm-none-eabi/include/c++/14.2.1/bits/stl_algobase.h ****    *  @brief Moves the range [first,last) into result.
 894:/Applications/ArmGNUToolchain/14.2.rel1/arm-none-eabi/arm-none-eabi/include/c++/14.2.1/bits/stl_algobase.h ****    *  @ingroup mutating_algorithms
 895:/Applications/ArmGNUToolchain/14.2.rel1/arm-none-eabi/arm-none-eabi/include/c++/14.2.1/bits/stl_algobase.h ****    *  @param  __first  A bidirectional iterator.
 896:/Applications/ArmGNUToolchain/14.2.rel1/arm-none-eabi/arm-none-eabi/include/c++/14.2.1/bits/stl_algobase.h ****    *  @param  __last   A bidirectional iterator.
 897:/Applications/ArmGNUToolchain/14.2.rel1/arm-none-eabi/arm-none-eabi/include/c++/14.2.1/bits/stl_algobase.h ****    *  @param  __result A bidirectional iterator.
 898:/Applications/ArmGNUToolchain/14.2.rel1/arm-none-eabi/arm-none-eabi/include/c++/14.2.1/bits/stl_algobase.h ****    *  @return   result - (last - first)
 899:/Applications/ArmGNUToolchain/14.2.rel1/arm-none-eabi/arm-none-eabi/include/c++/14.2.1/bits/stl_algobase.h ****    *
 900:/Applications/ArmGNUToolchain/14.2.rel1/arm-none-eabi/arm-none-eabi/include/c++/14.2.1/bits/stl_algobase.h ****    *  The function has the same effect as move, but starts at the end of the
 901:/Applications/ArmGNUToolchain/14.2.rel1/arm-none-eabi/arm-none-eabi/include/c++/14.2.1/bits/stl_algobase.h ****    *  range and works its way to the start, returning the start of the result.
 902:/Applications/ArmGNUToolchain/14.2.rel1/arm-none-eabi/arm-none-eabi/include/c++/14.2.1/bits/stl_algobase.h ****    *  This inline function will boil down to a call to @c memmove whenever
 903:/Applications/ArmGNUToolchain/14.2.rel1/arm-none-eabi/arm-none-eabi/include/c++/14.2.1/bits/stl_algobase.h ****    *  possible.  Failing that, if random access iterators are passed, then the
 904:/Applications/ArmGNUToolchain/14.2.rel1/arm-none-eabi/arm-none-eabi/include/c++/14.2.1/bits/stl_algobase.h ****    *  loop count will be known (and therefore a candidate for compiler
 905:/Applications/ArmGNUToolchain/14.2.rel1/arm-none-eabi/arm-none-eabi/include/c++/14.2.1/bits/stl_algobase.h ****    *  optimizations such as unrolling).
 906:/Applications/ArmGNUToolchain/14.2.rel1/arm-none-eabi/arm-none-eabi/include/c++/14.2.1/bits/stl_algobase.h ****    *
 907:/Applications/ArmGNUToolchain/14.2.rel1/arm-none-eabi/arm-none-eabi/include/c++/14.2.1/bits/stl_algobase.h ****    *  Result may not be in the range (first,last].  Use move instead.  Note
 908:/Applications/ArmGNUToolchain/14.2.rel1/arm-none-eabi/arm-none-eabi/include/c++/14.2.1/bits/stl_algobase.h ****    *  that the start of the output range may overlap [first,last).
 909:/Applications/ArmGNUToolchain/14.2.rel1/arm-none-eabi/arm-none-eabi/include/c++/14.2.1/bits/stl_algobase.h ****   */
 910:/Applications/ArmGNUToolchain/14.2.rel1/arm-none-eabi/arm-none-eabi/include/c++/14.2.1/bits/stl_algobase.h ****   template<typename _BI1, typename _BI2>
 911:/Applications/ArmGNUToolchain/14.2.rel1/arm-none-eabi/arm-none-eabi/include/c++/14.2.1/bits/stl_algobase.h ****     _GLIBCXX20_CONSTEXPR
 912:/Applications/ArmGNUToolchain/14.2.rel1/arm-none-eabi/arm-none-eabi/include/c++/14.2.1/bits/stl_algobase.h ****     inline _BI2
 913:/Applications/ArmGNUToolchain/14.2.rel1/arm-none-eabi/arm-none-eabi/include/c++/14.2.1/bits/stl_algobase.h ****     move_backward(_BI1 __first, _BI1 __last, _BI2 __result)
 914:/Applications/ArmGNUToolchain/14.2.rel1/arm-none-eabi/arm-none-eabi/include/c++/14.2.1/bits/stl_algobase.h ****     {
 915:/Applications/ArmGNUToolchain/14.2.rel1/arm-none-eabi/arm-none-eabi/include/c++/14.2.1/bits/stl_algobase.h ****       // concept requirements
ARM GAS  /var/folders/y7/g6pkzsp12sx54x3s3mvyn15r0000gn/T//ccaxSVHj.s 			page 26


 916:/Applications/ArmGNUToolchain/14.2.rel1/arm-none-eabi/arm-none-eabi/include/c++/14.2.1/bits/stl_algobase.h ****       __glibcxx_function_requires(_BidirectionalIteratorConcept<_BI1>)
 917:/Applications/ArmGNUToolchain/14.2.rel1/arm-none-eabi/arm-none-eabi/include/c++/14.2.1/bits/stl_algobase.h ****       __glibcxx_function_requires(_Mutable_BidirectionalIteratorConcept<_BI2>)
 918:/Applications/ArmGNUToolchain/14.2.rel1/arm-none-eabi/arm-none-eabi/include/c++/14.2.1/bits/stl_algobase.h ****       __glibcxx_function_requires(_OutputIteratorConcept<_BI2,
 919:/Applications/ArmGNUToolchain/14.2.rel1/arm-none-eabi/arm-none-eabi/include/c++/14.2.1/bits/stl_algobase.h **** 	    typename iterator_traits<_BI1>::value_type&&>)
 920:/Applications/ArmGNUToolchain/14.2.rel1/arm-none-eabi/arm-none-eabi/include/c++/14.2.1/bits/stl_algobase.h ****       __glibcxx_requires_can_decrement_range(__first, __last, __result);
 921:/Applications/ArmGNUToolchain/14.2.rel1/arm-none-eabi/arm-none-eabi/include/c++/14.2.1/bits/stl_algobase.h **** 
 922:/Applications/ArmGNUToolchain/14.2.rel1/arm-none-eabi/arm-none-eabi/include/c++/14.2.1/bits/stl_algobase.h ****       return std::__copy_move_backward_a<true>(std::__miter_base(__first),
 923:/Applications/ArmGNUToolchain/14.2.rel1/arm-none-eabi/arm-none-eabi/include/c++/14.2.1/bits/stl_algobase.h **** 					       std::__miter_base(__last),
 924:/Applications/ArmGNUToolchain/14.2.rel1/arm-none-eabi/arm-none-eabi/include/c++/14.2.1/bits/stl_algobase.h **** 					       __result);
 925:/Applications/ArmGNUToolchain/14.2.rel1/arm-none-eabi/arm-none-eabi/include/c++/14.2.1/bits/stl_algobase.h ****     }
 926:/Applications/ArmGNUToolchain/14.2.rel1/arm-none-eabi/arm-none-eabi/include/c++/14.2.1/bits/stl_algobase.h **** 
 927:/Applications/ArmGNUToolchain/14.2.rel1/arm-none-eabi/arm-none-eabi/include/c++/14.2.1/bits/stl_algobase.h **** #define _GLIBCXX_MOVE_BACKWARD3(_Tp, _Up, _Vp) std::move_backward(_Tp, _Up, _Vp)
 928:/Applications/ArmGNUToolchain/14.2.rel1/arm-none-eabi/arm-none-eabi/include/c++/14.2.1/bits/stl_algobase.h **** #else
 929:/Applications/ArmGNUToolchain/14.2.rel1/arm-none-eabi/arm-none-eabi/include/c++/14.2.1/bits/stl_algobase.h **** #define _GLIBCXX_MOVE_BACKWARD3(_Tp, _Up, _Vp) std::copy_backward(_Tp, _Up, _Vp)
 930:/Applications/ArmGNUToolchain/14.2.rel1/arm-none-eabi/arm-none-eabi/include/c++/14.2.1/bits/stl_algobase.h **** #endif
 931:/Applications/ArmGNUToolchain/14.2.rel1/arm-none-eabi/arm-none-eabi/include/c++/14.2.1/bits/stl_algobase.h **** 
 932:/Applications/ArmGNUToolchain/14.2.rel1/arm-none-eabi/arm-none-eabi/include/c++/14.2.1/bits/stl_algobase.h ****   template<typename _ForwardIterator, typename _Tp>
 933:/Applications/ArmGNUToolchain/14.2.rel1/arm-none-eabi/arm-none-eabi/include/c++/14.2.1/bits/stl_algobase.h ****     _GLIBCXX20_CONSTEXPR
 934:/Applications/ArmGNUToolchain/14.2.rel1/arm-none-eabi/arm-none-eabi/include/c++/14.2.1/bits/stl_algobase.h ****     inline typename
 935:/Applications/ArmGNUToolchain/14.2.rel1/arm-none-eabi/arm-none-eabi/include/c++/14.2.1/bits/stl_algobase.h ****     __gnu_cxx::__enable_if<!__is_scalar<_Tp>::__value, void>::__type
 936:/Applications/ArmGNUToolchain/14.2.rel1/arm-none-eabi/arm-none-eabi/include/c++/14.2.1/bits/stl_algobase.h ****     __fill_a1(_ForwardIterator __first, _ForwardIterator __last,
 937:/Applications/ArmGNUToolchain/14.2.rel1/arm-none-eabi/arm-none-eabi/include/c++/14.2.1/bits/stl_algobase.h **** 	      const _Tp& __value)
 938:/Applications/ArmGNUToolchain/14.2.rel1/arm-none-eabi/arm-none-eabi/include/c++/14.2.1/bits/stl_algobase.h ****     {
 939:/Applications/ArmGNUToolchain/14.2.rel1/arm-none-eabi/arm-none-eabi/include/c++/14.2.1/bits/stl_algobase.h ****       for (; __first != __last; ++__first)
 940:/Applications/ArmGNUToolchain/14.2.rel1/arm-none-eabi/arm-none-eabi/include/c++/14.2.1/bits/stl_algobase.h **** 	*__first = __value;
 941:/Applications/ArmGNUToolchain/14.2.rel1/arm-none-eabi/arm-none-eabi/include/c++/14.2.1/bits/stl_algobase.h ****     }
 942:/Applications/ArmGNUToolchain/14.2.rel1/arm-none-eabi/arm-none-eabi/include/c++/14.2.1/bits/stl_algobase.h **** 
 943:/Applications/ArmGNUToolchain/14.2.rel1/arm-none-eabi/arm-none-eabi/include/c++/14.2.1/bits/stl_algobase.h ****   template<typename _ForwardIterator, typename _Tp>
 944:/Applications/ArmGNUToolchain/14.2.rel1/arm-none-eabi/arm-none-eabi/include/c++/14.2.1/bits/stl_algobase.h ****     _GLIBCXX20_CONSTEXPR
 945:/Applications/ArmGNUToolchain/14.2.rel1/arm-none-eabi/arm-none-eabi/include/c++/14.2.1/bits/stl_algobase.h ****     inline typename
 946:/Applications/ArmGNUToolchain/14.2.rel1/arm-none-eabi/arm-none-eabi/include/c++/14.2.1/bits/stl_algobase.h ****     __gnu_cxx::__enable_if<__is_scalar<_Tp>::__value, void>::__type
 947:/Applications/ArmGNUToolchain/14.2.rel1/arm-none-eabi/arm-none-eabi/include/c++/14.2.1/bits/stl_algobase.h ****     __fill_a1(_ForwardIterator __first, _ForwardIterator __last,
 948:/Applications/ArmGNUToolchain/14.2.rel1/arm-none-eabi/arm-none-eabi/include/c++/14.2.1/bits/stl_algobase.h **** 	      const _Tp& __value)
 949:/Applications/ArmGNUToolchain/14.2.rel1/arm-none-eabi/arm-none-eabi/include/c++/14.2.1/bits/stl_algobase.h ****     {
 950:/Applications/ArmGNUToolchain/14.2.rel1/arm-none-eabi/arm-none-eabi/include/c++/14.2.1/bits/stl_algobase.h ****       const _Tp __tmp = __value;
 951:/Applications/ArmGNUToolchain/14.2.rel1/arm-none-eabi/arm-none-eabi/include/c++/14.2.1/bits/stl_algobase.h ****       for (; __first != __last; ++__first)
 952:/Applications/ArmGNUToolchain/14.2.rel1/arm-none-eabi/arm-none-eabi/include/c++/14.2.1/bits/stl_algobase.h **** 	*__first = __tmp;
 953:/Applications/ArmGNUToolchain/14.2.rel1/arm-none-eabi/arm-none-eabi/include/c++/14.2.1/bits/stl_algobase.h ****     }
 954:/Applications/ArmGNUToolchain/14.2.rel1/arm-none-eabi/arm-none-eabi/include/c++/14.2.1/bits/stl_algobase.h **** 
 955:/Applications/ArmGNUToolchain/14.2.rel1/arm-none-eabi/arm-none-eabi/include/c++/14.2.1/bits/stl_algobase.h ****   // Specialization: for char types we can use memset.
 956:/Applications/ArmGNUToolchain/14.2.rel1/arm-none-eabi/arm-none-eabi/include/c++/14.2.1/bits/stl_algobase.h ****   template<typename _Tp>
 957:/Applications/ArmGNUToolchain/14.2.rel1/arm-none-eabi/arm-none-eabi/include/c++/14.2.1/bits/stl_algobase.h ****     _GLIBCXX20_CONSTEXPR
 958:/Applications/ArmGNUToolchain/14.2.rel1/arm-none-eabi/arm-none-eabi/include/c++/14.2.1/bits/stl_algobase.h ****     inline typename
 959:/Applications/ArmGNUToolchain/14.2.rel1/arm-none-eabi/arm-none-eabi/include/c++/14.2.1/bits/stl_algobase.h ****     __gnu_cxx::__enable_if<__is_byte<_Tp>::__value, void>::__type
 960:/Applications/ArmGNUToolchain/14.2.rel1/arm-none-eabi/arm-none-eabi/include/c++/14.2.1/bits/stl_algobase.h ****     __fill_a1(_Tp* __first, _Tp* __last, const _Tp& __c)
 961:/Applications/ArmGNUToolchain/14.2.rel1/arm-none-eabi/arm-none-eabi/include/c++/14.2.1/bits/stl_algobase.h ****     {
 962:/Applications/ArmGNUToolchain/14.2.rel1/arm-none-eabi/arm-none-eabi/include/c++/14.2.1/bits/stl_algobase.h ****       const _Tp __tmp = __c;
 963:/Applications/ArmGNUToolchain/14.2.rel1/arm-none-eabi/arm-none-eabi/include/c++/14.2.1/bits/stl_algobase.h **** #if __cpp_lib_is_constant_evaluated
 964:/Applications/ArmGNUToolchain/14.2.rel1/arm-none-eabi/arm-none-eabi/include/c++/14.2.1/bits/stl_algobase.h ****       if (std::is_constant_evaluated())
 965:/Applications/ArmGNUToolchain/14.2.rel1/arm-none-eabi/arm-none-eabi/include/c++/14.2.1/bits/stl_algobase.h **** 	{
 966:/Applications/ArmGNUToolchain/14.2.rel1/arm-none-eabi/arm-none-eabi/include/c++/14.2.1/bits/stl_algobase.h **** 	  for (; __first != __last; ++__first)
 967:/Applications/ArmGNUToolchain/14.2.rel1/arm-none-eabi/arm-none-eabi/include/c++/14.2.1/bits/stl_algobase.h **** 	    *__first = __tmp;
 968:/Applications/ArmGNUToolchain/14.2.rel1/arm-none-eabi/arm-none-eabi/include/c++/14.2.1/bits/stl_algobase.h **** 	  return;
 969:/Applications/ArmGNUToolchain/14.2.rel1/arm-none-eabi/arm-none-eabi/include/c++/14.2.1/bits/stl_algobase.h **** 	}
 970:/Applications/ArmGNUToolchain/14.2.rel1/arm-none-eabi/arm-none-eabi/include/c++/14.2.1/bits/stl_algobase.h **** #endif
 971:/Applications/ArmGNUToolchain/14.2.rel1/arm-none-eabi/arm-none-eabi/include/c++/14.2.1/bits/stl_algobase.h ****       if (const size_t __len = __last - __first)
 972:/Applications/ArmGNUToolchain/14.2.rel1/arm-none-eabi/arm-none-eabi/include/c++/14.2.1/bits/stl_algobase.h **** 	__builtin_memset(__first, static_cast<unsigned char>(__tmp), __len);
ARM GAS  /var/folders/y7/g6pkzsp12sx54x3s3mvyn15r0000gn/T//ccaxSVHj.s 			page 27


 973:/Applications/ArmGNUToolchain/14.2.rel1/arm-none-eabi/arm-none-eabi/include/c++/14.2.1/bits/stl_algobase.h ****     }
 974:/Applications/ArmGNUToolchain/14.2.rel1/arm-none-eabi/arm-none-eabi/include/c++/14.2.1/bits/stl_algobase.h **** 
 975:/Applications/ArmGNUToolchain/14.2.rel1/arm-none-eabi/arm-none-eabi/include/c++/14.2.1/bits/stl_algobase.h ****   template<typename _Ite, typename _Cont, typename _Tp>
 976:/Applications/ArmGNUToolchain/14.2.rel1/arm-none-eabi/arm-none-eabi/include/c++/14.2.1/bits/stl_algobase.h ****     _GLIBCXX20_CONSTEXPR
 977:/Applications/ArmGNUToolchain/14.2.rel1/arm-none-eabi/arm-none-eabi/include/c++/14.2.1/bits/stl_algobase.h ****     inline void
 978:/Applications/ArmGNUToolchain/14.2.rel1/arm-none-eabi/arm-none-eabi/include/c++/14.2.1/bits/stl_algobase.h ****     __fill_a1(::__gnu_cxx::__normal_iterator<_Ite, _Cont> __first,
 979:/Applications/ArmGNUToolchain/14.2.rel1/arm-none-eabi/arm-none-eabi/include/c++/14.2.1/bits/stl_algobase.h **** 	      ::__gnu_cxx::__normal_iterator<_Ite, _Cont> __last,
 980:/Applications/ArmGNUToolchain/14.2.rel1/arm-none-eabi/arm-none-eabi/include/c++/14.2.1/bits/stl_algobase.h **** 	      const _Tp& __value)
 981:/Applications/ArmGNUToolchain/14.2.rel1/arm-none-eabi/arm-none-eabi/include/c++/14.2.1/bits/stl_algobase.h ****     { std::__fill_a1(__first.base(), __last.base(), __value); }
 982:/Applications/ArmGNUToolchain/14.2.rel1/arm-none-eabi/arm-none-eabi/include/c++/14.2.1/bits/stl_algobase.h **** 
 983:/Applications/ArmGNUToolchain/14.2.rel1/arm-none-eabi/arm-none-eabi/include/c++/14.2.1/bits/stl_algobase.h ****   template<typename _Tp, typename _VTp>
 984:/Applications/ArmGNUToolchain/14.2.rel1/arm-none-eabi/arm-none-eabi/include/c++/14.2.1/bits/stl_algobase.h ****     void
 985:/Applications/ArmGNUToolchain/14.2.rel1/arm-none-eabi/arm-none-eabi/include/c++/14.2.1/bits/stl_algobase.h ****     __fill_a1(const _GLIBCXX_STD_C::_Deque_iterator<_Tp, _Tp&, _Tp*>&,
 986:/Applications/ArmGNUToolchain/14.2.rel1/arm-none-eabi/arm-none-eabi/include/c++/14.2.1/bits/stl_algobase.h **** 	      const _GLIBCXX_STD_C::_Deque_iterator<_Tp, _Tp&, _Tp*>&,
 987:/Applications/ArmGNUToolchain/14.2.rel1/arm-none-eabi/arm-none-eabi/include/c++/14.2.1/bits/stl_algobase.h **** 	      const _VTp&);
 988:/Applications/ArmGNUToolchain/14.2.rel1/arm-none-eabi/arm-none-eabi/include/c++/14.2.1/bits/stl_algobase.h **** 
 989:/Applications/ArmGNUToolchain/14.2.rel1/arm-none-eabi/arm-none-eabi/include/c++/14.2.1/bits/stl_algobase.h ****   _GLIBCXX20_CONSTEXPR
 990:/Applications/ArmGNUToolchain/14.2.rel1/arm-none-eabi/arm-none-eabi/include/c++/14.2.1/bits/stl_algobase.h ****   void
 991:/Applications/ArmGNUToolchain/14.2.rel1/arm-none-eabi/arm-none-eabi/include/c++/14.2.1/bits/stl_algobase.h ****   __fill_a1(_GLIBCXX_STD_C::_Bit_iterator, _GLIBCXX_STD_C::_Bit_iterator,
 992:/Applications/ArmGNUToolchain/14.2.rel1/arm-none-eabi/arm-none-eabi/include/c++/14.2.1/bits/stl_algobase.h **** 	    const bool&);
 993:/Applications/ArmGNUToolchain/14.2.rel1/arm-none-eabi/arm-none-eabi/include/c++/14.2.1/bits/stl_algobase.h **** 
 994:/Applications/ArmGNUToolchain/14.2.rel1/arm-none-eabi/arm-none-eabi/include/c++/14.2.1/bits/stl_algobase.h ****   template<typename _FIte, typename _Tp>
 995:/Applications/ArmGNUToolchain/14.2.rel1/arm-none-eabi/arm-none-eabi/include/c++/14.2.1/bits/stl_algobase.h ****     _GLIBCXX20_CONSTEXPR
 996:/Applications/ArmGNUToolchain/14.2.rel1/arm-none-eabi/arm-none-eabi/include/c++/14.2.1/bits/stl_algobase.h ****     inline void
 997:/Applications/ArmGNUToolchain/14.2.rel1/arm-none-eabi/arm-none-eabi/include/c++/14.2.1/bits/stl_algobase.h ****     __fill_a(_FIte __first, _FIte __last, const _Tp& __value)
 998:/Applications/ArmGNUToolchain/14.2.rel1/arm-none-eabi/arm-none-eabi/include/c++/14.2.1/bits/stl_algobase.h ****     { std::__fill_a1(__first, __last, __value); }
 999:/Applications/ArmGNUToolchain/14.2.rel1/arm-none-eabi/arm-none-eabi/include/c++/14.2.1/bits/stl_algobase.h **** 
1000:/Applications/ArmGNUToolchain/14.2.rel1/arm-none-eabi/arm-none-eabi/include/c++/14.2.1/bits/stl_algobase.h ****   template<typename _Ite, typename _Seq, typename _Cat, typename _Tp>
1001:/Applications/ArmGNUToolchain/14.2.rel1/arm-none-eabi/arm-none-eabi/include/c++/14.2.1/bits/stl_algobase.h ****     _GLIBCXX20_CONSTEXPR
1002:/Applications/ArmGNUToolchain/14.2.rel1/arm-none-eabi/arm-none-eabi/include/c++/14.2.1/bits/stl_algobase.h ****     void
1003:/Applications/ArmGNUToolchain/14.2.rel1/arm-none-eabi/arm-none-eabi/include/c++/14.2.1/bits/stl_algobase.h ****     __fill_a(const ::__gnu_debug::_Safe_iterator<_Ite, _Seq, _Cat>&,
1004:/Applications/ArmGNUToolchain/14.2.rel1/arm-none-eabi/arm-none-eabi/include/c++/14.2.1/bits/stl_algobase.h **** 	     const ::__gnu_debug::_Safe_iterator<_Ite, _Seq, _Cat>&,
1005:/Applications/ArmGNUToolchain/14.2.rel1/arm-none-eabi/arm-none-eabi/include/c++/14.2.1/bits/stl_algobase.h **** 	     const _Tp&);
1006:/Applications/ArmGNUToolchain/14.2.rel1/arm-none-eabi/arm-none-eabi/include/c++/14.2.1/bits/stl_algobase.h **** 
1007:/Applications/ArmGNUToolchain/14.2.rel1/arm-none-eabi/arm-none-eabi/include/c++/14.2.1/bits/stl_algobase.h ****   /**
1008:/Applications/ArmGNUToolchain/14.2.rel1/arm-none-eabi/arm-none-eabi/include/c++/14.2.1/bits/stl_algobase.h ****    *  @brief Fills the range [first,last) with copies of value.
1009:/Applications/ArmGNUToolchain/14.2.rel1/arm-none-eabi/arm-none-eabi/include/c++/14.2.1/bits/stl_algobase.h ****    *  @ingroup mutating_algorithms
1010:/Applications/ArmGNUToolchain/14.2.rel1/arm-none-eabi/arm-none-eabi/include/c++/14.2.1/bits/stl_algobase.h ****    *  @param  __first  A forward iterator.
1011:/Applications/ArmGNUToolchain/14.2.rel1/arm-none-eabi/arm-none-eabi/include/c++/14.2.1/bits/stl_algobase.h ****    *  @param  __last   A forward iterator.
1012:/Applications/ArmGNUToolchain/14.2.rel1/arm-none-eabi/arm-none-eabi/include/c++/14.2.1/bits/stl_algobase.h ****    *  @param  __value  A reference-to-const of arbitrary type.
1013:/Applications/ArmGNUToolchain/14.2.rel1/arm-none-eabi/arm-none-eabi/include/c++/14.2.1/bits/stl_algobase.h ****    *  @return   Nothing.
1014:/Applications/ArmGNUToolchain/14.2.rel1/arm-none-eabi/arm-none-eabi/include/c++/14.2.1/bits/stl_algobase.h ****    *
1015:/Applications/ArmGNUToolchain/14.2.rel1/arm-none-eabi/arm-none-eabi/include/c++/14.2.1/bits/stl_algobase.h ****    *  This function fills a range with copies of the same value.  For char
1016:/Applications/ArmGNUToolchain/14.2.rel1/arm-none-eabi/arm-none-eabi/include/c++/14.2.1/bits/stl_algobase.h ****    *  types filling contiguous areas of memory, this becomes an inline call
1017:/Applications/ArmGNUToolchain/14.2.rel1/arm-none-eabi/arm-none-eabi/include/c++/14.2.1/bits/stl_algobase.h ****    *  to @c memset or @c wmemset.
1018:/Applications/ArmGNUToolchain/14.2.rel1/arm-none-eabi/arm-none-eabi/include/c++/14.2.1/bits/stl_algobase.h ****   */
1019:/Applications/ArmGNUToolchain/14.2.rel1/arm-none-eabi/arm-none-eabi/include/c++/14.2.1/bits/stl_algobase.h ****   template<typename _ForwardIterator, typename _Tp>
1020:/Applications/ArmGNUToolchain/14.2.rel1/arm-none-eabi/arm-none-eabi/include/c++/14.2.1/bits/stl_algobase.h ****     _GLIBCXX20_CONSTEXPR
1021:/Applications/ArmGNUToolchain/14.2.rel1/arm-none-eabi/arm-none-eabi/include/c++/14.2.1/bits/stl_algobase.h ****     inline void
1022:/Applications/ArmGNUToolchain/14.2.rel1/arm-none-eabi/arm-none-eabi/include/c++/14.2.1/bits/stl_algobase.h ****     fill(_ForwardIterator __first, _ForwardIterator __last, const _Tp& __value)
 302              		.loc 4 1022 5 is_stmt 1 view .LVU84
 303              	.LBB74:
 304              	.LBI74:
 997:/Applications/ArmGNUToolchain/14.2.rel1/arm-none-eabi/arm-none-eabi/include/c++/14.2.1/bits/stl_algobase.h ****     { std::__fill_a1(__first, __last, __value); }
 305              		.loc 4 997 5 view .LVU85
 306              	.LBB75:
 307              	.LBI75:
ARM GAS  /var/folders/y7/g6pkzsp12sx54x3s3mvyn15r0000gn/T//ccaxSVHj.s 			page 28


 947:/Applications/ArmGNUToolchain/14.2.rel1/arm-none-eabi/arm-none-eabi/include/c++/14.2.1/bits/stl_algobase.h **** 	      const _Tp& __value)
 308              		.loc 4 947 5 view .LVU86
 309              	.LBB76:
 951:/Applications/ArmGNUToolchain/14.2.rel1/arm-none-eabi/arm-none-eabi/include/c++/14.2.1/bits/stl_algobase.h **** 	*__first = __tmp;
 310              		.loc 4 951 7 is_stmt 0 view .LVU87
 311 00c4 2346     		mov	r3, r4
 312              	.LVL24:
 313              	.L12:
 951:/Applications/ArmGNUToolchain/14.2.rel1/arm-none-eabi/arm-none-eabi/include/c++/14.2.1/bits/stl_algobase.h **** 	*__first = __tmp;
 314              		.loc 4 951 22 is_stmt 1 discriminator 1 view .LVU88
 315 00c6 9A42     		cmp	r2, r3
 316 00c8 43D1     		bne	.L13
 317              	.LVL25:
 951:/Applications/ArmGNUToolchain/14.2.rel1/arm-none-eabi/arm-none-eabi/include/c++/14.2.1/bits/stl_algobase.h **** 	*__first = __tmp;
 318              		.loc 4 951 22 is_stmt 0 discriminator 1 view .LVU89
 319              	.LBE76:
 320              	.LBE75:
 321              	.LBE74:
 322              	.LBE73:
  84:../eurorack/plaits/dsp/physical_modelling/modal_voice.cc ****     if (trigger) {
 323              		.loc 1 84 5 is_stmt 1 view .LVU90
 324              	.LBB80:
 325 00ca BBF1000F 		cmp	fp, #0
 326 00ce 6BD1     		bne	.L14
 327              	.LVL26:
 328              	.L19:
 329              		.loc 1 84 5 is_stmt 0 view .LVU91
 330              	.LBE80:
 331              	.LBE72:
  74:../eurorack/plaits/dsp/physical_modelling/modal_voice.cc ****   
 332              		.loc 1 74 15 discriminator 4 view .LVU92
 333 00d0 F7EE086A 		vmov.f32	s13, #1.5e+0
 334              	.LVL27:
 335              	.L15:
  85:../eurorack/plaits/dsp/physical_modelling/modal_voice.cc ****       const float attenuation = 1.0f - damping * 0.5f;
  86:../eurorack/plaits/dsp/physical_modelling/modal_voice.cc ****       const float amplitude = (0.12f + 0.08f * accent) * attenuation;
  87:../eurorack/plaits/dsp/physical_modelling/modal_voice.cc ****       temp[0] = amplitude * SemitonesToRatio(cutoff * cutoff * 24.0f) / cutoff;
  88:../eurorack/plaits/dsp/physical_modelling/modal_voice.cc ****     }
  89:../eurorack/plaits/dsp/physical_modelling/modal_voice.cc ****   }
  90:../eurorack/plaits/dsp/physical_modelling/modal_voice.cc ****   const float one = 1.0f;
 336              		.loc 1 90 3 is_stmt 1 view .LVU93
  91:../eurorack/plaits/dsp/physical_modelling/modal_voice.cc ****   excitation_filter_.Process<FILTER_MODE_LOW_PASS, false>(
 337              		.loc 1 91 3 view .LVU94
 338              	.LBB84:
 339              	.LBI84:
  50:../eurorack/plaits/dsp/physical_modelling/resonator.h ****     }
  51:../eurorack/plaits/dsp/physical_modelling/resonator.h ****   }
  52:../eurorack/plaits/dsp/physical_modelling/resonator.h ****   
  53:../eurorack/plaits/dsp/physical_modelling/resonator.h ****   template<stmlib::FilterMode mode, bool add>
  54:../eurorack/plaits/dsp/physical_modelling/resonator.h ****   void Process(
 340              		.loc 3 54 8 view .LVU95
 341              	.LBB85:
 342              	.LBB86:
  55:../eurorack/plaits/dsp/physical_modelling/resonator.h ****       const float* f,
  56:../eurorack/plaits/dsp/physical_modelling/resonator.h ****       const float* q,
  57:../eurorack/plaits/dsp/physical_modelling/resonator.h ****       const float* gain,
  58:../eurorack/plaits/dsp/physical_modelling/resonator.h ****       const float* in,
ARM GAS  /var/folders/y7/g6pkzsp12sx54x3s3mvyn15r0000gn/T//ccaxSVHj.s 			page 29


  59:../eurorack/plaits/dsp/physical_modelling/resonator.h ****       float* out,
  60:../eurorack/plaits/dsp/physical_modelling/resonator.h ****       size_t size) {
  61:../eurorack/plaits/dsp/physical_modelling/resonator.h ****     float g[batch_size];
  62:../eurorack/plaits/dsp/physical_modelling/resonator.h ****     float r[batch_size];
  63:../eurorack/plaits/dsp/physical_modelling/resonator.h ****     float r_plus_g[batch_size];
  64:../eurorack/plaits/dsp/physical_modelling/resonator.h ****     float h[batch_size];
  65:../eurorack/plaits/dsp/physical_modelling/resonator.h ****     float state_1[batch_size];
  66:../eurorack/plaits/dsp/physical_modelling/resonator.h ****     float state_2[batch_size];
  67:../eurorack/plaits/dsp/physical_modelling/resonator.h ****     float gains[batch_size];
  68:../eurorack/plaits/dsp/physical_modelling/resonator.h ****     for (int i = 0; i < batch_size; ++i) {
 343              		.loc 3 68 23 discriminator 1 view .LVU96
 344              	.LBB87:
 345              	.LBI87:
 346              		.file 5 "../eurorack/stmlib/dsp/filter.h"
   1:../eurorack/stmlib/dsp/filter.h **** // Copyright 2014 Emilie Gillet.
   2:../eurorack/stmlib/dsp/filter.h **** //
   3:../eurorack/stmlib/dsp/filter.h **** // Author: Emilie Gillet (emilie.o.gillet@gmail.com)
   4:../eurorack/stmlib/dsp/filter.h **** //
   5:../eurorack/stmlib/dsp/filter.h **** // Permission is hereby granted, free of charge, to any person obtaining a copy
   6:../eurorack/stmlib/dsp/filter.h **** // of this software and associated documentation files (the "Software"), to deal
   7:../eurorack/stmlib/dsp/filter.h **** // in the Software without restriction, including without limitation the rights
   8:../eurorack/stmlib/dsp/filter.h **** // to use, copy, modify, merge, publish, distribute, sublicense, and/or sell
   9:../eurorack/stmlib/dsp/filter.h **** // copies of the Software, and to permit persons to whom the Software is
  10:../eurorack/stmlib/dsp/filter.h **** // furnished to do so, subject to the following conditions:
  11:../eurorack/stmlib/dsp/filter.h **** // 
  12:../eurorack/stmlib/dsp/filter.h **** // The above copyright notice and this permission notice shall be included in
  13:../eurorack/stmlib/dsp/filter.h **** // all copies or substantial portions of the Software.
  14:../eurorack/stmlib/dsp/filter.h **** // 
  15:../eurorack/stmlib/dsp/filter.h **** // THE SOFTWARE IS PROVIDED "AS IS", WITHOUT WARRANTY OF ANY KIND, EXPRESS OR
  16:../eurorack/stmlib/dsp/filter.h **** // IMPLIED, INCLUDING BUT NOT LIMITED TO THE WARRANTIES OF MERCHANTABILITY,
  17:../eurorack/stmlib/dsp/filter.h **** // FITNESS FOR A PARTICULAR PURPOSE AND NONINFRINGEMENT. IN NO EVENT SHALL THE
  18:../eurorack/stmlib/dsp/filter.h **** // AUTHORS OR COPYRIGHT HOLDERS BE LIABLE FOR ANY CLAIM, DAMAGES OR OTHER
  19:../eurorack/stmlib/dsp/filter.h **** // LIABILITY, WHETHER IN AN ACTION OF CONTRACT, TORT OR OTHERWISE, ARISING FROM,
  20:../eurorack/stmlib/dsp/filter.h **** // OUT OF OR IN CONNECTION WITH THE SOFTWARE OR THE USE OR OTHER DEALINGS IN
  21:../eurorack/stmlib/dsp/filter.h **** // THE SOFTWARE.
  22:../eurorack/stmlib/dsp/filter.h **** // 
  23:../eurorack/stmlib/dsp/filter.h **** // See http://creativecommons.org/licenses/MIT/ for more information.
  24:../eurorack/stmlib/dsp/filter.h **** //
  25:../eurorack/stmlib/dsp/filter.h **** // -----------------------------------------------------------------------------
  26:../eurorack/stmlib/dsp/filter.h **** //
  27:../eurorack/stmlib/dsp/filter.h **** // Zero-delay-feedback filters (one pole and SVF).
  28:../eurorack/stmlib/dsp/filter.h **** // Naive SVF.
  29:../eurorack/stmlib/dsp/filter.h **** 
  30:../eurorack/stmlib/dsp/filter.h **** #ifndef STMLIB_DSP_FILTER_H_
  31:../eurorack/stmlib/dsp/filter.h **** #define STMLIB_DSP_FILTER_H_
  32:../eurorack/stmlib/dsp/filter.h **** 
  33:../eurorack/stmlib/dsp/filter.h **** #include "stmlib/stmlib.h"
  34:../eurorack/stmlib/dsp/filter.h **** 
  35:../eurorack/stmlib/dsp/filter.h **** #include <cmath>
  36:../eurorack/stmlib/dsp/filter.h **** #include <algorithm>
  37:../eurorack/stmlib/dsp/filter.h **** 
  38:../eurorack/stmlib/dsp/filter.h **** namespace stmlib {
  39:../eurorack/stmlib/dsp/filter.h **** 
  40:../eurorack/stmlib/dsp/filter.h **** enum FilterMode {
  41:../eurorack/stmlib/dsp/filter.h ****   FILTER_MODE_LOW_PASS,
  42:../eurorack/stmlib/dsp/filter.h ****   FILTER_MODE_BAND_PASS,
  43:../eurorack/stmlib/dsp/filter.h ****   FILTER_MODE_BAND_PASS_NORMALIZED,
ARM GAS  /var/folders/y7/g6pkzsp12sx54x3s3mvyn15r0000gn/T//ccaxSVHj.s 			page 30


  44:../eurorack/stmlib/dsp/filter.h ****   FILTER_MODE_HIGH_PASS
  45:../eurorack/stmlib/dsp/filter.h **** };
  46:../eurorack/stmlib/dsp/filter.h **** 
  47:../eurorack/stmlib/dsp/filter.h **** enum FrequencyApproximation {
  48:../eurorack/stmlib/dsp/filter.h ****   FREQUENCY_EXACT,
  49:../eurorack/stmlib/dsp/filter.h ****   FREQUENCY_ACCURATE,
  50:../eurorack/stmlib/dsp/filter.h ****   FREQUENCY_FAST,
  51:../eurorack/stmlib/dsp/filter.h ****   FREQUENCY_DIRTY
  52:../eurorack/stmlib/dsp/filter.h **** };
  53:../eurorack/stmlib/dsp/filter.h **** 
  54:../eurorack/stmlib/dsp/filter.h **** #define M_PI_F float(M_PI)
  55:../eurorack/stmlib/dsp/filter.h **** #define M_PI_POW_2 M_PI * M_PI
  56:../eurorack/stmlib/dsp/filter.h **** #define M_PI_POW_3 M_PI_POW_2 * M_PI
  57:../eurorack/stmlib/dsp/filter.h **** #define M_PI_POW_5 M_PI_POW_3 * M_PI_POW_2
  58:../eurorack/stmlib/dsp/filter.h **** #define M_PI_POW_7 M_PI_POW_5 * M_PI_POW_2
  59:../eurorack/stmlib/dsp/filter.h **** #define M_PI_POW_9 M_PI_POW_7 * M_PI_POW_2
  60:../eurorack/stmlib/dsp/filter.h **** #define M_PI_POW_11 M_PI_POW_9 * M_PI_POW_2
  61:../eurorack/stmlib/dsp/filter.h **** 
  62:../eurorack/stmlib/dsp/filter.h **** class DCBlocker {
  63:../eurorack/stmlib/dsp/filter.h ****  public:
  64:../eurorack/stmlib/dsp/filter.h ****   DCBlocker() { }
  65:../eurorack/stmlib/dsp/filter.h ****   ~DCBlocker() { }
  66:../eurorack/stmlib/dsp/filter.h ****   
  67:../eurorack/stmlib/dsp/filter.h ****   void Init(float pole) {
  68:../eurorack/stmlib/dsp/filter.h ****     x_ = 0.0f;
  69:../eurorack/stmlib/dsp/filter.h ****     y_ = 0.0f;
  70:../eurorack/stmlib/dsp/filter.h ****     pole_ = pole;
  71:../eurorack/stmlib/dsp/filter.h ****   }
  72:../eurorack/stmlib/dsp/filter.h ****   
  73:../eurorack/stmlib/dsp/filter.h ****   inline void Process(float* in_out, size_t size) {
  74:../eurorack/stmlib/dsp/filter.h ****     float x = x_;
  75:../eurorack/stmlib/dsp/filter.h ****     float y = y_;
  76:../eurorack/stmlib/dsp/filter.h ****     const float pole = pole_;
  77:../eurorack/stmlib/dsp/filter.h ****     while (size--) {
  78:../eurorack/stmlib/dsp/filter.h ****       float old_x = x;
  79:../eurorack/stmlib/dsp/filter.h ****       x = *in_out;
  80:../eurorack/stmlib/dsp/filter.h ****       *in_out++ = y = y * pole + x - old_x;
  81:../eurorack/stmlib/dsp/filter.h ****     }
  82:../eurorack/stmlib/dsp/filter.h ****     x_ = x;
  83:../eurorack/stmlib/dsp/filter.h ****     y_ = y;
  84:../eurorack/stmlib/dsp/filter.h ****   }
  85:../eurorack/stmlib/dsp/filter.h ****   
  86:../eurorack/stmlib/dsp/filter.h ****  private:
  87:../eurorack/stmlib/dsp/filter.h ****   float pole_;
  88:../eurorack/stmlib/dsp/filter.h ****   float x_;
  89:../eurorack/stmlib/dsp/filter.h ****   float y_;
  90:../eurorack/stmlib/dsp/filter.h **** };
  91:../eurorack/stmlib/dsp/filter.h **** 
  92:../eurorack/stmlib/dsp/filter.h **** class OnePole {
  93:../eurorack/stmlib/dsp/filter.h ****  public:
  94:../eurorack/stmlib/dsp/filter.h ****   OnePole() { }
  95:../eurorack/stmlib/dsp/filter.h ****   ~OnePole() { }
  96:../eurorack/stmlib/dsp/filter.h ****   
  97:../eurorack/stmlib/dsp/filter.h ****   void Init() {
  98:../eurorack/stmlib/dsp/filter.h ****     set_f<FREQUENCY_DIRTY>(0.01f);
  99:../eurorack/stmlib/dsp/filter.h ****     Reset();
 100:../eurorack/stmlib/dsp/filter.h ****   }
ARM GAS  /var/folders/y7/g6pkzsp12sx54x3s3mvyn15r0000gn/T//ccaxSVHj.s 			page 31


 101:../eurorack/stmlib/dsp/filter.h ****   
 102:../eurorack/stmlib/dsp/filter.h ****   void Reset() {
 103:../eurorack/stmlib/dsp/filter.h ****     state_ = 0.0f;
 104:../eurorack/stmlib/dsp/filter.h ****   }
 105:../eurorack/stmlib/dsp/filter.h ****   
 106:../eurorack/stmlib/dsp/filter.h ****   template<FrequencyApproximation approximation>
 107:../eurorack/stmlib/dsp/filter.h ****   static inline float tan(float f) {
 347              		.loc 5 107 23 view .LVU97
 348              	.LBB88:
 108:../eurorack/stmlib/dsp/filter.h ****     if (approximation == FREQUENCY_EXACT) {
 109:../eurorack/stmlib/dsp/filter.h ****       // Clip coefficient to about 100.
 110:../eurorack/stmlib/dsp/filter.h ****       f = f < 0.497f ? f : 0.497f;
 111:../eurorack/stmlib/dsp/filter.h ****       return tanf(M_PI_F * f);
 112:../eurorack/stmlib/dsp/filter.h ****     } else if (approximation == FREQUENCY_DIRTY) {
 113:../eurorack/stmlib/dsp/filter.h ****       // Optimized for frequencies below 8kHz.
 114:../eurorack/stmlib/dsp/filter.h ****       const float a = 3.736e-01f * M_PI_POW_3;
 115:../eurorack/stmlib/dsp/filter.h ****       return f * (M_PI_F + a * f * f);
 116:../eurorack/stmlib/dsp/filter.h ****     } else if (approximation == FREQUENCY_FAST) {
 117:../eurorack/stmlib/dsp/filter.h ****       // The usual tangent approximation uses 3.1755e-01 and 2.033e-01, but
 118:../eurorack/stmlib/dsp/filter.h ****       // the coefficients used here are optimized to minimize error for the
 119:../eurorack/stmlib/dsp/filter.h ****       // 16Hz to 16kHz range, with a sample rate of 48kHz.
 120:../eurorack/stmlib/dsp/filter.h ****       const float a = 3.260e-01f * M_PI_POW_3;
 121:../eurorack/stmlib/dsp/filter.h ****       const float b = 1.823e-01f * M_PI_POW_5;
 122:../eurorack/stmlib/dsp/filter.h ****       float f2 = f * f;
 349              		.loc 5 122 13 is_stmt 0 view .LVU98
 350 00d4 28EE086A 		vmul.f32	s12, s16, s16
 351              	.LVL28:
 123:../eurorack/stmlib/dsp/filter.h ****       return f * (M_PI_F + f2 * (a + b * f2));
 352              		.loc 5 123 36 view .LVU99
 353 00d8 DFED5B7A 		vldr.32	s15, .L27+24
 354 00dc 9FED5B7A 		vldr.32	s14, .L27+28
 355              	.LBE88:
 356              	.LBE87:
  69:../eurorack/plaits/dsp/physical_modelling/resonator.h ****       g[i] = stmlib::OnePole::tan<stmlib::FREQUENCY_FAST>(f[i]);
  70:../eurorack/plaits/dsp/physical_modelling/resonator.h ****       r[i] = 1.0f / q[i];
  71:../eurorack/plaits/dsp/physical_modelling/resonator.h ****       h[i] = 1.0f / (1.0f + r[i] * g[i] + g[i] * g[i]);
  72:../eurorack/plaits/dsp/physical_modelling/resonator.h ****       r_plus_g[i] = r[i] + g[i];
  73:../eurorack/plaits/dsp/physical_modelling/resonator.h ****       state_1[i] = state_1_[i];
  74:../eurorack/plaits/dsp/physical_modelling/resonator.h ****       state_2[i] = state_2_[i];
 357              		.loc 3 74 28 view .LVU100
 358 00e0 3B46     		mov	r3, r7
 359 00e2 2246     		mov	r2, r4
 360              	.LBB91:
 361              	.LBB89:
 362              		.loc 5 123 36 view .LVU101
 363 00e4 A6EE277A 		vfma.f32	s14, s12, s15
 364              		.loc 5 123 26 view .LVU102
 365 00e8 DFED597A 		vldr.32	s15, .L27+32
 366 00ec E6EE077A 		vfma.f32	s15, s12, s14
 367              	.LBE89:
 368              	.LBE91:
  73:../eurorack/plaits/dsp/physical_modelling/resonator.h ****       state_2[i] = state_2_[i];
 369              		.loc 3 73 28 view .LVU103
 370 00f0 95ED006A 		vldr.32	s12, [r5]
 371              	.LVL29:
  70:../eurorack/plaits/dsp/physical_modelling/resonator.h ****       h[i] = 1.0f / (1.0f + r[i] * g[i] + g[i] * g[i]);
 372              		.loc 3 70 19 view .LVU104
ARM GAS  /var/folders/y7/g6pkzsp12sx54x3s3mvyn15r0000gn/T//ccaxSVHj.s 			page 32


 373 00f4 89EE267A 		vdiv.f32	s14, s18, s13
 374              	.LBB92:
 375              	.LBB90:
 376              		.loc 5 123 45 view .LVU105
 377 00f8 68EE277A 		vmul.f32	s15, s16, s15
 378              	.LVL30:
 379              		.loc 5 123 45 view .LVU106
 380              	.LBE90:
 381              	.LBE92:
  71:../eurorack/plaits/dsp/physical_modelling/resonator.h ****       r_plus_g[i] = r[i] + g[i];
 382              		.loc 3 71 27 view .LVU107
 383 00fc F0EE496A 		vmov.f32	s13, s18
 384              	.LVL31:
  71:../eurorack/plaits/dsp/physical_modelling/resonator.h ****       r_plus_g[i] = r[i] + g[i];
 385              		.loc 3 71 27 view .LVU108
 386 0100 E7EE876A 		vfma.f32	s13, s15, s14
  72:../eurorack/plaits/dsp/physical_modelling/resonator.h ****       state_1[i] = state_1_[i];
 387              		.loc 3 72 26 view .LVU109
 388 0104 77EE875A 		vadd.f32	s11, s15, s14
  71:../eurorack/plaits/dsp/physical_modelling/resonator.h ****       r_plus_g[i] = r[i] + g[i];
 389              		.loc 3 71 41 view .LVU110
 390 0108 E7EEA76A 		vfma.f32	s13, s15, s15
  71:../eurorack/plaits/dsp/physical_modelling/resonator.h ****       r_plus_g[i] = r[i] + g[i];
 391              		.loc 3 71 19 view .LVU111
 392 010c C9EE264A 		vdiv.f32	s9, s18, s13
 393              	.LVL32:
 394              		.loc 3 74 28 view .LVU112
 395 0110 D5ED016A 		vldr.32	s13, [r5, #4]
 396              	.LVL33:
  68:../eurorack/plaits/dsp/physical_modelling/resonator.h ****       g[i] = stmlib::OnePole::tan<stmlib::FREQUENCY_FAST>(f[i]);
 397              		.loc 3 68 5 is_stmt 1 discriminator 3 view .LVU113
  68:../eurorack/plaits/dsp/physical_modelling/resonator.h ****       g[i] = stmlib::OnePole::tan<stmlib::FREQUENCY_FAST>(f[i]);
 398              		.loc 3 68 23 discriminator 1 view .LVU114
 399              	.L20:
  68:../eurorack/plaits/dsp/physical_modelling/resonator.h ****       g[i] = stmlib::OnePole::tan<stmlib::FREQUENCY_FAST>(f[i]);
 400              		.loc 3 68 23 is_stmt 0 discriminator 1 view .LVU115
 401              	.LBE86:
  75:../eurorack/plaits/dsp/physical_modelling/resonator.h ****       gains[i] = gain[i];
  76:../eurorack/plaits/dsp/physical_modelling/resonator.h ****     }
  77:../eurorack/plaits/dsp/physical_modelling/resonator.h ****     
  78:../eurorack/plaits/dsp/physical_modelling/resonator.h ****     while (size--) {
 402              		.loc 3 78 5 is_stmt 1 view .LVU116
 403 0114 013B     		subs	r3, r3, #1
 404              	.LVL34:
 405              		.loc 3 78 5 is_stmt 0 view .LVU117
 406 0116 64D2     		bcs	.L21
 407              	.LVL35:
 408              	.LBB93:
  79:../eurorack/plaits/dsp/physical_modelling/resonator.h ****       float s_in = *in++;
  80:../eurorack/plaits/dsp/physical_modelling/resonator.h ****       float s_out = 0.0f;
  81:../eurorack/plaits/dsp/physical_modelling/resonator.h ****       for (int i = 0; i < batch_size; ++i) {
  82:../eurorack/plaits/dsp/physical_modelling/resonator.h ****         const float hp = (s_in - r_plus_g[i] * state_1[i] - state_2[i]) * h[i];
  83:../eurorack/plaits/dsp/physical_modelling/resonator.h ****         const float bp = g[i] * hp + state_1[i];
  84:../eurorack/plaits/dsp/physical_modelling/resonator.h ****         state_1[i] = g[i] * hp + bp;
  85:../eurorack/plaits/dsp/physical_modelling/resonator.h ****         const float lp = g[i] * bp + state_2[i];
  86:../eurorack/plaits/dsp/physical_modelling/resonator.h ****         state_2[i] = g[i] * bp + lp;
  87:../eurorack/plaits/dsp/physical_modelling/resonator.h ****         s_out += gains[i] * ((mode == stmlib::FILTER_MODE_LOW_PASS) ? lp : bp);
ARM GAS  /var/folders/y7/g6pkzsp12sx54x3s3mvyn15r0000gn/T//ccaxSVHj.s 			page 33


  88:../eurorack/plaits/dsp/physical_modelling/resonator.h ****       }
  89:../eurorack/plaits/dsp/physical_modelling/resonator.h ****       if (add) {
  90:../eurorack/plaits/dsp/physical_modelling/resonator.h ****         *out++ += s_out;
  91:../eurorack/plaits/dsp/physical_modelling/resonator.h ****       } else {
  92:../eurorack/plaits/dsp/physical_modelling/resonator.h ****         *out++ = s_out;
  93:../eurorack/plaits/dsp/physical_modelling/resonator.h ****       }
  94:../eurorack/plaits/dsp/physical_modelling/resonator.h ****     }
  95:../eurorack/plaits/dsp/physical_modelling/resonator.h ****     for (int i = 0; i < batch_size; ++i) {
 409              		.loc 3 95 23 is_stmt 1 discriminator 1 view .LVU118
 410 0118 019A     		ldr	r2, [sp, #4]
 411              	.LVL36:
 412              		.loc 3 95 23 is_stmt 0 discriminator 1 view .LVU119
 413 011a 2346     		mov	r3, r4
 414              	.LVL37:
  96:../eurorack/plaits/dsp/physical_modelling/resonator.h ****       state_1_[i] = state_1[i];
 415              		.loc 3 96 19 view .LVU120
 416 011c 85ED006A 		vstr.32	s12, [r5]
 417 0120 9144     		add	r9, r9, r2
  97:../eurorack/plaits/dsp/physical_modelling/resonator.h ****       state_2_[i] = state_2[i];
 418              		.loc 3 97 19 view .LVU121
 419 0122 C5ED016A 		vstr.32	s13, [r5, #4]
  95:../eurorack/plaits/dsp/physical_modelling/resonator.h ****       state_1_[i] = state_1[i];
 420              		.loc 3 95 5 is_stmt 1 discriminator 3 view .LVU122
 421              	.LVL38:
  95:../eurorack/plaits/dsp/physical_modelling/resonator.h ****       state_1_[i] = state_1[i];
 422              		.loc 3 95 23 discriminator 1 view .LVU123
 423              	.L22:
  95:../eurorack/plaits/dsp/physical_modelling/resonator.h ****       state_1_[i] = state_1[i];
 424              		.loc 3 95 23 is_stmt 0 discriminator 1 view .LVU124
 425              	.LBE93:
 426              	.LBE85:
 427              	.LBE84:
 428              	.LBB99:
  92:../eurorack/plaits/dsp/physical_modelling/modal_voice.cc ****       &cutoff, &q, &one, temp, temp, size);
  93:../eurorack/plaits/dsp/physical_modelling/modal_voice.cc ****   for (size_t i = 0; i < size; ++i) {
 429              		.loc 1 93 24 is_stmt 1 discriminator 1 view .LVU125
 430 0126 9145     		cmp	r9, r2
 431 0128 78D1     		bne	.L23
 432              	.LBE99:
  94:../eurorack/plaits/dsp/physical_modelling/modal_voice.cc ****     aux[i] += temp[i];
  95:../eurorack/plaits/dsp/physical_modelling/modal_voice.cc ****   }
  96:../eurorack/plaits/dsp/physical_modelling/modal_voice.cc ****   
  97:../eurorack/plaits/dsp/physical_modelling/modal_voice.cc ****   resonator_.Process(f0, structure, brightness, damping, temp, out, size);
 433              		.loc 1 97 3 view .LVU126
 434              		.loc 1 97 21 is_stmt 0 view .LVU127
 435 012a F0EE4A1A 		vmov.f32	s3, s20
 436 012e 3B46     		mov	r3, r7
 437 0130 B0EE6A1A 		vmov.f32	s2, s21
 438 0134 4246     		mov	r2, r8
 439 0136 F0EE690A 		vmov.f32	s1, s19
 440 013a 2146     		mov	r1, r4
 441 013c B0EE4B0A 		vmov.f32	s0, s22
 442 0140 05F10800 		add	r0, r5, #8
  98:../eurorack/plaits/dsp/physical_modelling/modal_voice.cc **** }
 443              		.loc 1 98 1 view .LVU128
 444 0144 03B0     		add	sp, sp, #12
 445              		.cfi_remember_state
ARM GAS  /var/folders/y7/g6pkzsp12sx54x3s3mvyn15r0000gn/T//ccaxSVHj.s 			page 34


 446              		.cfi_def_cfa_offset 68
 447              		@ sp needed
 448 0146 BDEC088B 		vldm	sp!, {d8-d11}
 449              		.cfi_restore 86
 450              		.cfi_restore 87
 451              		.cfi_restore 84
 452              		.cfi_restore 85
 453              		.cfi_restore 82
 454              		.cfi_restore 83
 455              		.cfi_restore 80
 456              		.cfi_restore 81
 457              		.cfi_def_cfa_offset 36
 458              	.LVL39:
 459              		.loc 1 98 1 view .LVU129
 460 014a BDE8F04F 		pop	{r4, r5, r6, r7, r8, r9, r10, fp, lr}
 461              		.cfi_restore 14
 462              		.cfi_restore 11
 463              		.cfi_restore 10
 464              		.cfi_restore 9
 465              		.cfi_restore 8
 466              		.cfi_restore 7
 467              		.cfi_restore 6
 468              		.cfi_restore 5
 469              		.cfi_restore 4
 470              		.cfi_def_cfa_offset 0
 471              	.LVL40:
  97:../eurorack/plaits/dsp/physical_modelling/modal_voice.cc **** }
 472              		.loc 1 97 21 view .LVU130
 473 014e FFF7FEBF 		b	_ZN6plaits9Resonator7ProcessEffffPKfPfj
 474              	.LVL41:
 475              	.L13:
 476              		.cfi_restore_state
 477              	.LBB100:
 478              	.LBB82:
 479              	.LBB79:
 480              	.LBB78:
 481              	.LBB77:
 952:/Applications/ArmGNUToolchain/14.2.rel1/arm-none-eabi/arm-none-eabi/include/c++/14.2.1/bits/stl_algobase.h ****     }
 482              		.loc 4 952 11 view .LVU131
 483 0152 0021     		movs	r1, #0
 484 0154 43F8041B 		str	r1, [r3], #4	@ float
 485              	.LVL42:
 951:/Applications/ArmGNUToolchain/14.2.rel1/arm-none-eabi/arm-none-eabi/include/c++/14.2.1/bits/stl_algobase.h **** 	*__first = __tmp;
 486              		.loc 4 951 7 is_stmt 1 discriminator 2 view .LVU132
 487 0158 B5E7     		b	.L12
 488              	.LVL43:
 489              	.L18:
 951:/Applications/ArmGNUToolchain/14.2.rel1/arm-none-eabi/arm-none-eabi/include/c++/14.2.1/bits/stl_algobase.h **** 	*__first = __tmp;
 490              		.loc 4 951 7 is_stmt 0 discriminator 2 view .LVU133
 491              	.LBE77:
 492              	.LBE78:
 493              	.LBE79:
 494              	.LBE82:
 495              	.LBE100:
 496              	.LBB101:
 497              	.LBB71:
  80:../eurorack/plaits/dsp/physical_modelling/modal_voice.cc ****     }
ARM GAS  /var/folders/y7/g6pkzsp12sx54x3s3mvyn15r0000gn/T//ccaxSVHj.s 			page 35


 498              		.loc 1 80 7 is_stmt 1 view .LVU134
 499              	.LBB55:
 500              	.LBI55:
 501              		.file 6 "../eurorack/plaits/dsp/noise/dust.h"
   1:../eurorack/plaits/dsp/noise/dust.h **** // Copyright 2016 Emilie Gillet.
   2:../eurorack/plaits/dsp/noise/dust.h **** //
   3:../eurorack/plaits/dsp/noise/dust.h **** // Author: Emilie Gillet (emilie.o.gillet@gmail.com)
   4:../eurorack/plaits/dsp/noise/dust.h **** //
   5:../eurorack/plaits/dsp/noise/dust.h **** // Permission is hereby granted, free of charge, to any person obtaining a copy
   6:../eurorack/plaits/dsp/noise/dust.h **** // of this software and associated documentation files (the "Software"), to deal
   7:../eurorack/plaits/dsp/noise/dust.h **** // in the Software without restriction, including without limitation the rights
   8:../eurorack/plaits/dsp/noise/dust.h **** // to use, copy, modify, merge, publish, distribute, sublicense, and/or sell
   9:../eurorack/plaits/dsp/noise/dust.h **** // copies of the Software, and to permit persons to whom the Software is
  10:../eurorack/plaits/dsp/noise/dust.h **** // furnished to do so, subject to the following conditions:
  11:../eurorack/plaits/dsp/noise/dust.h **** // 
  12:../eurorack/plaits/dsp/noise/dust.h **** // The above copyright notice and this permission notice shall be included in
  13:../eurorack/plaits/dsp/noise/dust.h **** // all copies or substantial portions of the Software.
  14:../eurorack/plaits/dsp/noise/dust.h **** // 
  15:../eurorack/plaits/dsp/noise/dust.h **** // THE SOFTWARE IS PROVIDED "AS IS", WITHOUT WARRANTY OF ANY KIND, EXPRESS OR
  16:../eurorack/plaits/dsp/noise/dust.h **** // IMPLIED, INCLUDING BUT NOT LIMITED TO THE WARRANTIES OF MERCHANTABILITY,
  17:../eurorack/plaits/dsp/noise/dust.h **** // FITNESS FOR A PARTICULAR PURPOSE AND NONINFRINGEMENT. IN NO EVENT SHALL THE
  18:../eurorack/plaits/dsp/noise/dust.h **** // AUTHORS OR COPYRIGHT HOLDERS BE LIABLE FOR ANY CLAIM, DAMAGES OR OTHER
  19:../eurorack/plaits/dsp/noise/dust.h **** // LIABILITY, WHETHER IN AN ACTION OF CONTRACT, TORT OR OTHERWISE, ARISING FROM,
  20:../eurorack/plaits/dsp/noise/dust.h **** // OUT OF OR IN CONNECTION WITH THE SOFTWARE OR THE USE OR OTHER DEALINGS IN
  21:../eurorack/plaits/dsp/noise/dust.h **** // THE SOFTWARE.
  22:../eurorack/plaits/dsp/noise/dust.h **** // 
  23:../eurorack/plaits/dsp/noise/dust.h **** // See http://creativecommons.org/licenses/MIT/ for more information.
  24:../eurorack/plaits/dsp/noise/dust.h **** //
  25:../eurorack/plaits/dsp/noise/dust.h **** // -----------------------------------------------------------------------------
  26:../eurorack/plaits/dsp/noise/dust.h **** //
  27:../eurorack/plaits/dsp/noise/dust.h **** // Randomly clocked samples.
  28:../eurorack/plaits/dsp/noise/dust.h **** 
  29:../eurorack/plaits/dsp/noise/dust.h **** #ifndef PLAITS_DSP_NOISE_DUST_H_
  30:../eurorack/plaits/dsp/noise/dust.h **** #define PLAITS_DSP_NOISE_DUST_H_
  31:../eurorack/plaits/dsp/noise/dust.h **** 
  32:../eurorack/plaits/dsp/noise/dust.h **** #include "stmlib/utils/random.h"
  33:../eurorack/plaits/dsp/noise/dust.h **** 
  34:../eurorack/plaits/dsp/noise/dust.h **** namespace plaits {
  35:../eurorack/plaits/dsp/noise/dust.h **** 
  36:../eurorack/plaits/dsp/noise/dust.h **** inline float Dust(float frequency) {
 502              		.loc 6 36 14 view .LVU135
 503              	.LBB56:
  37:../eurorack/plaits/dsp/noise/dust.h ****   float inv_frequency = 1.0f / frequency;
 504              		.loc 6 37 3 view .LVU136
  38:../eurorack/plaits/dsp/noise/dust.h ****   float u = stmlib::Random::GetFloat();
 505              		.loc 6 38 3 view .LVU137
 506              	.LBB57:
 507              	.LBI57:
 508              		.file 7 "../eurorack/stmlib/utils/random.h"
   1:../eurorack/stmlib/utils/random.h **** // Copyright 2012 Emilie Gillet.
   2:../eurorack/stmlib/utils/random.h **** //
   3:../eurorack/stmlib/utils/random.h **** // Author: Emilie Gillet (emilie.o.gillet@gmail.com)
   4:../eurorack/stmlib/utils/random.h **** //
   5:../eurorack/stmlib/utils/random.h **** // Permission is hereby granted, free of charge, to any person obtaining a copy
   6:../eurorack/stmlib/utils/random.h **** // of this software and associated documentation files (the "Software"), to deal
   7:../eurorack/stmlib/utils/random.h **** // in the Software without restriction, including without limitation the rights
   8:../eurorack/stmlib/utils/random.h **** // to use, copy, modify, merge, publish, distribute, sublicense, and/or sell
ARM GAS  /var/folders/y7/g6pkzsp12sx54x3s3mvyn15r0000gn/T//ccaxSVHj.s 			page 36


   9:../eurorack/stmlib/utils/random.h **** // copies of the Software, and to permit persons to whom the Software is
  10:../eurorack/stmlib/utils/random.h **** // furnished to do so, subject to the following conditions:
  11:../eurorack/stmlib/utils/random.h **** // 
  12:../eurorack/stmlib/utils/random.h **** // The above copyright notice and this permission notice shall be included in
  13:../eurorack/stmlib/utils/random.h **** // all copies or substantial portions of the Software.
  14:../eurorack/stmlib/utils/random.h **** // 
  15:../eurorack/stmlib/utils/random.h **** // THE SOFTWARE IS PROVIDED "AS IS", WITHOUT WARRANTY OF ANY KIND, EXPRESS OR
  16:../eurorack/stmlib/utils/random.h **** // IMPLIED, INCLUDING BUT NOT LIMITED TO THE WARRANTIES OF MERCHANTABILITY,
  17:../eurorack/stmlib/utils/random.h **** // FITNESS FOR A PARTICULAR PURPOSE AND NONINFRINGEMENT. IN NO EVENT SHALL THE
  18:../eurorack/stmlib/utils/random.h **** // AUTHORS OR COPYRIGHT HOLDERS BE LIABLE FOR ANY CLAIM, DAMAGES OR OTHER
  19:../eurorack/stmlib/utils/random.h **** // LIABILITY, WHETHER IN AN ACTION OF CONTRACT, TORT OR OTHERWISE, ARISING FROM,
  20:../eurorack/stmlib/utils/random.h **** // OUT OF OR IN CONNECTION WITH THE SOFTWARE OR THE USE OR OTHER DEALINGS IN
  21:../eurorack/stmlib/utils/random.h **** // THE SOFTWARE.
  22:../eurorack/stmlib/utils/random.h **** // 
  23:../eurorack/stmlib/utils/random.h **** // See http://creativecommons.org/licenses/MIT/ for more information.
  24:../eurorack/stmlib/utils/random.h **** //
  25:../eurorack/stmlib/utils/random.h **** // -----------------------------------------------------------------------------
  26:../eurorack/stmlib/utils/random.h **** //
  27:../eurorack/stmlib/utils/random.h **** // Fast 16-bit pseudo random number generator.
  28:../eurorack/stmlib/utils/random.h **** 
  29:../eurorack/stmlib/utils/random.h **** #ifndef STMLIB_UTILS_RANDOM_H_
  30:../eurorack/stmlib/utils/random.h **** #define STMLIB_UTILS_RANDOM_H_
  31:../eurorack/stmlib/utils/random.h **** 
  32:../eurorack/stmlib/utils/random.h **** #include "stmlib/stmlib.h"
  33:../eurorack/stmlib/utils/random.h **** 
  34:../eurorack/stmlib/utils/random.h **** namespace stmlib {
  35:../eurorack/stmlib/utils/random.h **** 
  36:../eurorack/stmlib/utils/random.h **** class Random {
  37:../eurorack/stmlib/utils/random.h ****  public:
  38:../eurorack/stmlib/utils/random.h ****   static inline uint32_t state() { return rng_state_; }
  39:../eurorack/stmlib/utils/random.h **** 
  40:../eurorack/stmlib/utils/random.h ****   static inline void Seed(uint32_t seed) {
  41:../eurorack/stmlib/utils/random.h ****     rng_state_ = seed;
  42:../eurorack/stmlib/utils/random.h ****   }
  43:../eurorack/stmlib/utils/random.h **** 
  44:../eurorack/stmlib/utils/random.h ****   static inline uint32_t GetWord() {
  45:../eurorack/stmlib/utils/random.h ****     rng_state_ = rng_state_ * 1664525L + 1013904223L;
  46:../eurorack/stmlib/utils/random.h ****     return state();
  47:../eurorack/stmlib/utils/random.h ****   }
  48:../eurorack/stmlib/utils/random.h ****   
  49:../eurorack/stmlib/utils/random.h ****   static inline int16_t GetSample() {
  50:../eurorack/stmlib/utils/random.h ****     return static_cast<int16_t>(GetWord() >> 16);
  51:../eurorack/stmlib/utils/random.h ****   }
  52:../eurorack/stmlib/utils/random.h **** 
  53:../eurorack/stmlib/utils/random.h ****   static inline float GetFloat() {
 509              		.loc 7 53 23 view .LVU138
 510              	.LBB58:
  54:../eurorack/stmlib/utils/random.h ****     return static_cast<float>(GetWord()) / 4294967296.0f;
 511              		.loc 7 54 5 view .LVU139
 512              	.LBB59:
 513              	.LBI59:
  44:../eurorack/stmlib/utils/random.h ****     rng_state_ = rng_state_ * 1664525L + 1013904223L;
 514              		.loc 7 44 26 view .LVU140
 515              	.LBB60:
  45:../eurorack/stmlib/utils/random.h ****     return state();
 516              		.loc 7 45 5 view .LVU141
  45:../eurorack/stmlib/utils/random.h ****     return state();
ARM GAS  /var/folders/y7/g6pkzsp12sx54x3s3mvyn15r0000gn/T//ccaxSVHj.s 			page 37


 517              		.loc 7 45 29 is_stmt 0 view .LVU142
 518 015a 3E4B     		ldr	r3, .L27+36
 519              	.LBE60:
 520              	.LBE59:
 521              	.LBE58:
 522              	.LBE57:
 523              	.LBE56:
 524              	.LBE55:
  80:../eurorack/plaits/dsp/physical_modelling/modal_voice.cc ****     }
 525              		.loc 1 80 38 discriminator 1 view .LVU143
 526 015c B0EE086A 		vmov.f32	s12, #3.0e+0
 527              	.LBB70:
 528              	.LBB69:
 529              	.LBB68:
 530              	.LBB67:
 531              	.LBB64:
 532              	.LBB61:
  45:../eurorack/stmlib/utils/random.h ****     return state();
 533              		.loc 7 45 40 view .LVU144
 534 0160 3D49     		ldr	r1, .L27+40
 535 0162 1E68     		ldr	r6, [r3]
 536 0164 3D4A     		ldr	r2, .L27+44
 537              	.LBE61:
 538              	.LBE64:
 539              		.loc 7 54 44 discriminator 1 view .LVU145
 540 0166 DFED3E6A 		vldr.32	s13, .L27+48
 541              	.LBB65:
 542              	.LBB62:
  45:../eurorack/stmlib/utils/random.h ****     return state();
 543              		.loc 7 45 40 view .LVU146
 544 016a 01FB0622 		mla	r2, r1, r6, r2
 545              	.LBE62:
 546              	.LBE65:
 547              		.loc 7 54 12 discriminator 1 view .LVU147
 548 016e 07EE902A 		vmov	s15, r2	@ int
 549              	.LBB66:
 550              	.LBB63:
  45:../eurorack/stmlib/utils/random.h ****     return state();
 551              		.loc 7 45 16 view .LVU148
 552 0172 1A60     		str	r2, [r3]
  46:../eurorack/stmlib/utils/random.h ****   }
 553              		.loc 7 46 5 is_stmt 1 view .LVU149
 554              	.LBE63:
 555              	.LBE66:
 556              		.loc 7 54 12 is_stmt 0 discriminator 1 view .LVU150
 557 0174 F8EE677A 		vcvt.f32.u32	s15, s15
 558              		.loc 7 54 44 discriminator 1 view .LVU151
 559 0178 67EEA67A 		vmul.f32	s15, s15, s13
 560              	.LVL44:
 561              		.loc 7 54 44 discriminator 1 view .LVU152
 562              	.LBE67:
 563              	.LBE68:
  39:../eurorack/plaits/dsp/noise/dust.h ****   if (u < frequency) {
 564              		.loc 6 39 3 is_stmt 1 view .LVU153
 565 017c B4EEE77A 		vcmpe.f32	s14, s15
 566 0180 F1EE10FA 		vmrs	APSR_nzcv, FPSCR
  40:../eurorack/plaits/dsp/noise/dust.h ****     return u * inv_frequency;
ARM GAS  /var/folders/y7/g6pkzsp12sx54x3s3mvyn15r0000gn/T//ccaxSVHj.s 			page 38


 567              		.loc 6 40 5 view .LVU154
  37:../eurorack/plaits/dsp/noise/dust.h ****   float u = stmlib::Random::GetFloat();
 568              		.loc 6 37 9 is_stmt 0 view .LVU155
 569 0184 CABF     		itet	gt
 570 0186 C9EE076A 		vdivgt.f32	s13, s18, s14
  41:../eurorack/plaits/dsp/noise/dust.h ****   } else {
  42:../eurorack/plaits/dsp/noise/dust.h ****     return 0.0f;
 571              		.loc 6 42 12 view .LVU156
 572 018a DFED366A 		vldrle.32	s13, .L27+52
 573              	.LVL45:
  40:../eurorack/plaits/dsp/noise/dust.h ****   } else {
 574              		.loc 6 40 16 view .LVU157
 575 018e 66EEA76A 		vmulgt.f32	s13, s13, s15
 576              	.LBE69:
 577              	.LBE70:
  80:../eurorack/plaits/dsp/physical_modelling/modal_voice.cc ****     }
 578              		.loc 1 80 38 discriminator 1 view .LVU158
 579 0192 F1EE007A 		vmov.f32	s15, #4.0e+0
 580 0196 E7EE467A 		vfms.f32	s15, s14, s12
  80:../eurorack/plaits/dsp/physical_modelling/modal_voice.cc ****     }
 581              		.loc 1 80 30 discriminator 1 view .LVU159
 582 019a 67EEA67A 		vmul.f32	s15, s15, s13
  80:../eurorack/plaits/dsp/physical_modelling/modal_voice.cc ****     }
 583              		.loc 1 80 55 discriminator 1 view .LVU160
 584 019e 67EEAB7A 		vmul.f32	s15, s15, s23
  80:../eurorack/plaits/dsp/physical_modelling/modal_voice.cc ****     }
 585              		.loc 1 80 15 discriminator 1 view .LVU161
 586 01a2 E0EC017A 		vstmia.32	r0!, {s15}
  79:../eurorack/plaits/dsp/physical_modelling/modal_voice.cc ****       temp[i] = Dust(dust_f) * (4.0f - dust_f * 3.0f) * accent;
 587              		.loc 1 79 5 is_stmt 1 discriminator 3 view .LVU162
 588 01a6 81E7     		b	.L11
 589              	.LVL46:
 590              	.L14:
  79:../eurorack/plaits/dsp/physical_modelling/modal_voice.cc ****       temp[i] = Dust(dust_f) * (4.0f - dust_f * 3.0f) * accent;
 591              		.loc 1 79 5 is_stmt 0 discriminator 3 view .LVU163
 592              	.LBE71:
 593              	.LBE101:
 594              	.LBB102:
 595              	.LBB83:
 596              	.LBB81:
  85:../eurorack/plaits/dsp/physical_modelling/modal_voice.cc ****       const float amplitude = (0.12f + 0.08f * accent) * attenuation;
 597              		.loc 1 85 7 is_stmt 1 view .LVU164
  85:../eurorack/plaits/dsp/physical_modelling/modal_voice.cc ****       const float amplitude = (0.12f + 0.08f * accent) * attenuation;
 598              		.loc 1 85 19 is_stmt 0 view .LVU165
 599 01a8 B6EE007A 		vmov.f32	s14, #5.0e-1
  86:../eurorack/plaits/dsp/physical_modelling/modal_voice.cc ****       temp[0] = amplitude * SemitonesToRatio(cutoff * cutoff * 24.0f) / cutoff;
 600              		.loc 1 86 38 view .LVU166
 601 01ac DFED2E8A 		vldr.32	s17, .L27+56
 602              	.LVL47:
  85:../eurorack/plaits/dsp/physical_modelling/modal_voice.cc ****       const float amplitude = (0.12f + 0.08f * accent) * attenuation;
 603              		.loc 1 85 19 view .LVU167
 604 01b0 F0EE497A 		vmov.f32	s15, s18
  87:../eurorack/plaits/dsp/physical_modelling/modal_voice.cc ****     }
 605              		.loc 1 87 53 view .LVU168
 606 01b4 28EE080A 		vmul.f32	s0, s16, s16
  85:../eurorack/plaits/dsp/physical_modelling/modal_voice.cc ****       const float amplitude = (0.12f + 0.08f * accent) * attenuation;
 607              		.loc 1 85 19 view .LVU169
ARM GAS  /var/folders/y7/g6pkzsp12sx54x3s3mvyn15r0000gn/T//ccaxSVHj.s 			page 39


 608 01b8 EAEE477A 		vfms.f32	s15, s20, s14
 609              	.LVL48:
  86:../eurorack/plaits/dsp/physical_modelling/modal_voice.cc ****       temp[0] = amplitude * SemitonesToRatio(cutoff * cutoff * 24.0f) / cutoff;
 610              		.loc 1 86 7 is_stmt 1 view .LVU170
  86:../eurorack/plaits/dsp/physical_modelling/modal_voice.cc ****       temp[0] = amplitude * SemitonesToRatio(cutoff * cutoff * 24.0f) / cutoff;
 611              		.loc 1 86 38 is_stmt 0 view .LVU171
 612 01bc 9FED2B7A 		vldr.32	s14, .L27+60
 613 01c0 EBEE878A 		vfma.f32	s17, s23, s14
  86:../eurorack/plaits/dsp/physical_modelling/modal_voice.cc ****       temp[0] = amplitude * SemitonesToRatio(cutoff * cutoff * 24.0f) / cutoff;
 614              		.loc 1 86 19 view .LVU172
 615 01c4 68EEA78A 		vmul.f32	s17, s17, s15
 616              	.LVL49:
  87:../eurorack/plaits/dsp/physical_modelling/modal_voice.cc ****     }
 617              		.loc 1 87 7 is_stmt 1 view .LVU173
  87:../eurorack/plaits/dsp/physical_modelling/modal_voice.cc ****     }
 618              		.loc 1 87 45 is_stmt 0 view .LVU174
 619 01c8 F3EE087A 		vmov.f32	s15, #2.4e+1
 620              	.LVL50:
  87:../eurorack/plaits/dsp/physical_modelling/modal_voice.cc ****     }
 621              		.loc 1 87 45 view .LVU175
 622 01cc 20EE270A 		vmul.f32	s0, s0, s15
 623 01d0 FFF7FEFF 		bl	_ZN6stmlib16SemitonesToRatioEf
 624              	.LVL51:
  87:../eurorack/plaits/dsp/physical_modelling/modal_voice.cc ****     }
 625              		.loc 1 87 27 discriminator 1 view .LVU176
 626 01d4 20EE280A 		vmul.f32	s0, s0, s17
  87:../eurorack/plaits/dsp/physical_modelling/modal_voice.cc ****     }
 627              		.loc 1 87 71 discriminator 1 view .LVU177
 628 01d8 C0EE087A 		vdiv.f32	s15, s0, s16
  87:../eurorack/plaits/dsp/physical_modelling/modal_voice.cc ****     }
 629              		.loc 1 87 15 discriminator 1 view .LVU178
 630 01dc C4ED007A 		vstr.32	s15, [r4]
 631              	.LBE81:
 632 01e0 76E7     		b	.L19
 633              	.LVL52:
 634              	.L21:
  87:../eurorack/plaits/dsp/physical_modelling/modal_voice.cc ****     }
 635              		.loc 1 87 15 discriminator 1 view .LVU179
 636              	.LBE83:
 637              	.LBE102:
 638              	.LBB103:
 639              	.LBB98:
 640              	.LBB94:
 641              	.LBB95:
  81:../eurorack/plaits/dsp/physical_modelling/resonator.h ****         const float hp = (s_in - r_plus_g[i] * state_1[i] - state_2[i]) * h[i];
 642              		.loc 3 81 25 is_stmt 1 discriminator 1 view .LVU180
 643              	.LBB96:
  82:../eurorack/plaits/dsp/physical_modelling/resonator.h ****         const float bp = g[i] * hp + state_1[i];
 644              		.loc 3 82 32 is_stmt 0 view .LVU181
 645 01e2 B2EC017A 		vldmia.32	r2!, {s14}
 646              	.LVL53:
  82:../eurorack/plaits/dsp/physical_modelling/resonator.h ****         const float bp = g[i] * hp + state_1[i];
 647              		.loc 3 82 32 view .LVU182
 648 01e6 A6EE657A 		vfms.f32	s14, s12, s11
  82:../eurorack/plaits/dsp/physical_modelling/resonator.h ****         const float bp = g[i] * hp + state_1[i];
 649              		.loc 3 82 59 view .LVU183
 650 01ea 37EE667A 		vsub.f32	s14, s14, s13
ARM GAS  /var/folders/y7/g6pkzsp12sx54x3s3mvyn15r0000gn/T//ccaxSVHj.s 			page 40


  82:../eurorack/plaits/dsp/physical_modelling/resonator.h ****         const float bp = g[i] * hp + state_1[i];
 651              		.loc 3 82 21 view .LVU184
 652 01ee 27EE247A 		vmul.f32	s14, s14, s9
 653              	.LVL54:
  83:../eurorack/plaits/dsp/physical_modelling/resonator.h ****         state_1[i] = g[i] * hp + bp;
 654              		.loc 3 83 21 view .LVU185
 655 01f2 A7EE276A 		vfma.f32	s12, s14, s15
 656              	.LVL55:
  83:../eurorack/plaits/dsp/physical_modelling/resonator.h ****         state_1[i] = g[i] * hp + bp;
 657              		.loc 3 83 21 view .LVU186
 658 01f6 B0EE465A 		vmov.f32	s10, s12
 659              	.LVL56:
  84:../eurorack/plaits/dsp/physical_modelling/resonator.h ****         const float lp = g[i] * bp + state_2[i];
 660              		.loc 3 84 32 view .LVU187
 661 01fa A7EE276A 		vfma.f32	s12, s14, s15
 662              	.LVL57:
  85:../eurorack/plaits/dsp/physical_modelling/resonator.h ****         state_2[i] = g[i] * bp + lp;
 663              		.loc 3 85 21 view .LVU188
 664 01fe B0EE667A 		vmov.f32	s14, s13
 665              	.LVL58:
  85:../eurorack/plaits/dsp/physical_modelling/resonator.h ****         state_2[i] = g[i] * bp + lp;
 666              		.loc 3 85 21 view .LVU189
 667 0202 A5EE277A 		vfma.f32	s14, s10, s15
 668              	.LVL59:
  86:../eurorack/plaits/dsp/physical_modelling/resonator.h ****         s_out += gains[i] * ((mode == stmlib::FILTER_MODE_LOW_PASS) ? lp : bp);
 669              		.loc 3 86 32 view .LVU190
 670 0206 F0EE476A 		vmov.f32	s13, s14
 671              	.LVL60:
  86:../eurorack/plaits/dsp/physical_modelling/resonator.h ****         s_out += gains[i] * ((mode == stmlib::FILTER_MODE_LOW_PASS) ? lp : bp);
 672              		.loc 3 86 32 view .LVU191
 673 020a E5EE276A 		vfma.f32	s13, s10, s15
 674              	.LVL61:
  86:../eurorack/plaits/dsp/physical_modelling/resonator.h ****         s_out += gains[i] * ((mode == stmlib::FILTER_MODE_LOW_PASS) ? lp : bp);
 675              		.loc 3 86 32 view .LVU192
 676              	.LBE96:
  81:../eurorack/plaits/dsp/physical_modelling/resonator.h ****         const float hp = (s_in - r_plus_g[i] * state_1[i] - state_2[i]) * h[i];
 677              		.loc 3 81 7 is_stmt 1 discriminator 3 view .LVU193
  81:../eurorack/plaits/dsp/physical_modelling/resonator.h ****         const float hp = (s_in - r_plus_g[i] * state_1[i] - state_2[i]) * h[i];
 678              		.loc 3 81 25 discriminator 1 view .LVU194
 679              	.LBB97:
  87:../eurorack/plaits/dsp/physical_modelling/resonator.h ****       }
 680              		.loc 3 87 15 is_stmt 0 view .LVU195
 681 020e 9FED155A 		vldr.32	s10, .L27+52
 682              	.LVL62:
  87:../eurorack/plaits/dsp/physical_modelling/resonator.h ****       }
 683              		.loc 3 87 15 view .LVU196
 684 0212 37EE057A 		vadd.f32	s14, s14, s10
 685              	.LVL63:
  87:../eurorack/plaits/dsp/physical_modelling/resonator.h ****       }
 686              		.loc 3 87 15 view .LVU197
 687              	.LBE97:
 688              	.LBE95:
  92:../eurorack/plaits/dsp/physical_modelling/resonator.h ****       }
 689              		.loc 3 92 16 view .LVU198
 690 0216 02ED017A 		vstr.32	s14, [r2, #-4]
 691              	.LVL64:
  92:../eurorack/plaits/dsp/physical_modelling/resonator.h ****       }
ARM GAS  /var/folders/y7/g6pkzsp12sx54x3s3mvyn15r0000gn/T//ccaxSVHj.s 			page 41


 692              		.loc 3 92 16 view .LVU199
 693 021a 7BE7     		b	.L20
 694              	.LVL65:
 695              	.L23:
  92:../eurorack/plaits/dsp/physical_modelling/resonator.h ****       }
 696              		.loc 3 92 16 view .LVU200
 697              	.LBE94:
 698              	.LBE98:
 699              	.LBE103:
 700              	.LBB104:
  94:../eurorack/plaits/dsp/physical_modelling/modal_voice.cc ****   }
 701              		.loc 1 94 5 is_stmt 1 view .LVU201
  94:../eurorack/plaits/dsp/physical_modelling/modal_voice.cc ****   }
 702              		.loc 1 94 10 is_stmt 0 view .LVU202
 703 021c D2ED007A 		vldr.32	s15, [r2]
  94:../eurorack/plaits/dsp/physical_modelling/modal_voice.cc ****   }
 704              		.loc 1 94 21 view .LVU203
 705 0220 B3EC017A 		vldmia.32	r3!, {s14}
  94:../eurorack/plaits/dsp/physical_modelling/modal_voice.cc ****   }
 706              		.loc 1 94 12 view .LVU204
 707 0224 77EE877A 		vadd.f32	s15, s15, s14
 708 0228 E2EC017A 		vstmia.32	r2!, {s15}
  93:../eurorack/plaits/dsp/physical_modelling/modal_voice.cc ****     aux[i] += temp[i];
 709              		.loc 1 93 3 is_stmt 1 discriminator 3 view .LVU205
 710 022c 7BE7     		b	.L22
 711              	.L28:
 712 022e 00BF     		.align	2
 713              	.L27:
 714 0230 00001042 		.word	1108344832
 715 0234 EE7CFF3E 		.word	1056931054
 716 0238 B9FC7F3F 		.word	1065352377
 717 023c 17B75138 		.word	944879383
 718 0240 3333333F 		.word	1060320051
 719 0244 00007042 		.word	1114636288
 720 0248 49265F42 		.word	1113531977
 721 024c 8FBA2141 		.word	1092729487
 722 0250 DB0F4940 		.word	1078530011
 723 0254 00000000 		.word	_ZN6stmlib6Random10rng_state_E
 724 0258 0D661900 		.word	1664525
 725 025c 5FF36E3C 		.word	1013904223
 726 0260 0000802F 		.word	796917760
 727 0264 00000000 		.word	0
 728 0268 8FC2F53D 		.word	1039516303
 729 026c 0AD7A33D 		.word	1034147594
 730              	.LBE104:
 731              		.cfi_endproc
 732              	.LFE1321:
 734              		.text
 735              	.Letext0:
 736              		.file 8 "/Applications/ArmGNUToolchain/14.2.rel1/arm-none-eabi/arm-none-eabi/include/machine/_defa
 737              		.file 9 "/Applications/ArmGNUToolchain/14.2.rel1/arm-none-eabi/arm-none-eabi/include/sys/_stdint.h
 738              		.file 10 "/Applications/ArmGNUToolchain/14.2.rel1/arm-none-eabi/lib/gcc/arm-none-eabi/14.2.1/inclu
 739              		.file 11 "/Applications/ArmGNUToolchain/14.2.rel1/arm-none-eabi/arm-none-eabi/include/c++/14.2.1/c
 740              		.file 12 "/Applications/ArmGNUToolchain/14.2.rel1/arm-none-eabi/arm-none-eabi/include/c++/14.2.1/b
 741              		.file 13 "/Applications/ArmGNUToolchain/14.2.rel1/arm-none-eabi/arm-none-eabi/include/c++/14.2.1/t
 742              		.file 14 "/Applications/ArmGNUToolchain/14.2.rel1/arm-none-eabi/arm-none-eabi/include/c++/14.2.1/d
 743              		.file 15 "/Applications/ArmGNUToolchain/14.2.rel1/arm-none-eabi/arm-none-eabi/include/c++/14.2.1/c
ARM GAS  /var/folders/y7/g6pkzsp12sx54x3s3mvyn15r0000gn/T//ccaxSVHj.s 			page 42


 744              		.file 16 "/Applications/ArmGNUToolchain/14.2.rel1/arm-none-eabi/arm-none-eabi/include/c++/14.2.1/b
 745              		.file 17 "/Applications/ArmGNUToolchain/14.2.rel1/arm-none-eabi/arm-none-eabi/include/math.h"
 746              		.file 18 "/Applications/ArmGNUToolchain/14.2.rel1/arm-none-eabi/arm-none-eabi/include/stdlib.h"
 747              		.file 19 "/Applications/ArmGNUToolchain/14.2.rel1/arm-none-eabi/arm-none-eabi/include/c++/14.2.1/m
 748              		.file 20 "../eurorack/stmlib/stmlib.h"
 749              		.file 21 "/Applications/ArmGNUToolchain/14.2.rel1/arm-none-eabi/arm-none-eabi/include/c++/14.2.1/a
 750              		.file 22 "/Applications/ArmGNUToolchain/14.2.rel1/arm-none-eabi/arm-none-eabi/include/c++/14.2.1/b
 751              		.file 23 "../eurorack/plaits/dsp/physical_modelling/modal_voice.h"
ARM GAS  /var/folders/y7/g6pkzsp12sx54x3s3mvyn15r0000gn/T//ccaxSVHj.s 			page 43

