ARM GAS  /var/folders/y7/g6pkzsp12sx54x3s3mvyn15r0000gn/T//cc9jJkGr.s 			page 1


   1              		.cpu cortex-m7
   2              		.arch armv7e-m
   3              		.fpu fpv5-d16
   4              		.eabi_attribute 28, 1
   5              		.eabi_attribute 20, 1
   6              		.eabi_attribute 21, 1
   7              		.eabi_attribute 23, 3
   8              		.eabi_attribute 24, 1
   9              		.eabi_attribute 25, 1
  10              		.eabi_attribute 26, 1
  11              		.eabi_attribute 30, 4
  12              		.eabi_attribute 34, 1
  13              		.eabi_attribute 18, 4
  14              		.file	"naive_speech_synth.cc"
  15              		.text
  16              	.Ltext0:
  17              		.cfi_sections	.debug_frame
  18              		.file 1 "../eurorack/plaits/dsp/speech/naive_speech_synth.cc"
  19              		.section	.text._ZN6stmlib3Svf4InitEv,"axG",%progbits,_ZN6stmlib3Svf4InitEv,comdat
  20              		.align	1
  21              		.weak	_ZN6stmlib3Svf4InitEv
  22              		.syntax unified
  23              		.thumb
  24              		.thumb_func
  26              	_ZN6stmlib3Svf4InitEv:
  27              	.LVL0:
  28              	.LFB1231:
  29              		.file 2 "../eurorack/stmlib/dsp/filter.h"
   1:../eurorack/stmlib/dsp/filter.h **** // Copyright 2014 Emilie Gillet.
   2:../eurorack/stmlib/dsp/filter.h **** //
   3:../eurorack/stmlib/dsp/filter.h **** // Author: Emilie Gillet (emilie.o.gillet@gmail.com)
   4:../eurorack/stmlib/dsp/filter.h **** //
   5:../eurorack/stmlib/dsp/filter.h **** // Permission is hereby granted, free of charge, to any person obtaining a copy
   6:../eurorack/stmlib/dsp/filter.h **** // of this software and associated documentation files (the "Software"), to deal
   7:../eurorack/stmlib/dsp/filter.h **** // in the Software without restriction, including without limitation the rights
   8:../eurorack/stmlib/dsp/filter.h **** // to use, copy, modify, merge, publish, distribute, sublicense, and/or sell
   9:../eurorack/stmlib/dsp/filter.h **** // copies of the Software, and to permit persons to whom the Software is
  10:../eurorack/stmlib/dsp/filter.h **** // furnished to do so, subject to the following conditions:
  11:../eurorack/stmlib/dsp/filter.h **** // 
  12:../eurorack/stmlib/dsp/filter.h **** // The above copyright notice and this permission notice shall be included in
  13:../eurorack/stmlib/dsp/filter.h **** // all copies or substantial portions of the Software.
  14:../eurorack/stmlib/dsp/filter.h **** // 
  15:../eurorack/stmlib/dsp/filter.h **** // THE SOFTWARE IS PROVIDED "AS IS", WITHOUT WARRANTY OF ANY KIND, EXPRESS OR
  16:../eurorack/stmlib/dsp/filter.h **** // IMPLIED, INCLUDING BUT NOT LIMITED TO THE WARRANTIES OF MERCHANTABILITY,
  17:../eurorack/stmlib/dsp/filter.h **** // FITNESS FOR A PARTICULAR PURPOSE AND NONINFRINGEMENT. IN NO EVENT SHALL THE
  18:../eurorack/stmlib/dsp/filter.h **** // AUTHORS OR COPYRIGHT HOLDERS BE LIABLE FOR ANY CLAIM, DAMAGES OR OTHER
  19:../eurorack/stmlib/dsp/filter.h **** // LIABILITY, WHETHER IN AN ACTION OF CONTRACT, TORT OR OTHERWISE, ARISING FROM,
  20:../eurorack/stmlib/dsp/filter.h **** // OUT OF OR IN CONNECTION WITH THE SOFTWARE OR THE USE OR OTHER DEALINGS IN
  21:../eurorack/stmlib/dsp/filter.h **** // THE SOFTWARE.
  22:../eurorack/stmlib/dsp/filter.h **** // 
  23:../eurorack/stmlib/dsp/filter.h **** // See http://creativecommons.org/licenses/MIT/ for more information.
  24:../eurorack/stmlib/dsp/filter.h **** //
  25:../eurorack/stmlib/dsp/filter.h **** // -----------------------------------------------------------------------------
  26:../eurorack/stmlib/dsp/filter.h **** //
  27:../eurorack/stmlib/dsp/filter.h **** // Zero-delay-feedback filters (one pole and SVF).
  28:../eurorack/stmlib/dsp/filter.h **** // Naive SVF.
  29:../eurorack/stmlib/dsp/filter.h **** 
ARM GAS  /var/folders/y7/g6pkzsp12sx54x3s3mvyn15r0000gn/T//cc9jJkGr.s 			page 2


  30:../eurorack/stmlib/dsp/filter.h **** #ifndef STMLIB_DSP_FILTER_H_
  31:../eurorack/stmlib/dsp/filter.h **** #define STMLIB_DSP_FILTER_H_
  32:../eurorack/stmlib/dsp/filter.h **** 
  33:../eurorack/stmlib/dsp/filter.h **** #include "stmlib/stmlib.h"
  34:../eurorack/stmlib/dsp/filter.h **** 
  35:../eurorack/stmlib/dsp/filter.h **** #include <cmath>
  36:../eurorack/stmlib/dsp/filter.h **** #include <algorithm>
  37:../eurorack/stmlib/dsp/filter.h **** 
  38:../eurorack/stmlib/dsp/filter.h **** namespace stmlib {
  39:../eurorack/stmlib/dsp/filter.h **** 
  40:../eurorack/stmlib/dsp/filter.h **** enum FilterMode {
  41:../eurorack/stmlib/dsp/filter.h ****   FILTER_MODE_LOW_PASS,
  42:../eurorack/stmlib/dsp/filter.h ****   FILTER_MODE_BAND_PASS,
  43:../eurorack/stmlib/dsp/filter.h ****   FILTER_MODE_BAND_PASS_NORMALIZED,
  44:../eurorack/stmlib/dsp/filter.h ****   FILTER_MODE_HIGH_PASS
  45:../eurorack/stmlib/dsp/filter.h **** };
  46:../eurorack/stmlib/dsp/filter.h **** 
  47:../eurorack/stmlib/dsp/filter.h **** enum FrequencyApproximation {
  48:../eurorack/stmlib/dsp/filter.h ****   FREQUENCY_EXACT,
  49:../eurorack/stmlib/dsp/filter.h ****   FREQUENCY_ACCURATE,
  50:../eurorack/stmlib/dsp/filter.h ****   FREQUENCY_FAST,
  51:../eurorack/stmlib/dsp/filter.h ****   FREQUENCY_DIRTY
  52:../eurorack/stmlib/dsp/filter.h **** };
  53:../eurorack/stmlib/dsp/filter.h **** 
  54:../eurorack/stmlib/dsp/filter.h **** #define M_PI_F float(M_PI)
  55:../eurorack/stmlib/dsp/filter.h **** #define M_PI_POW_2 M_PI * M_PI
  56:../eurorack/stmlib/dsp/filter.h **** #define M_PI_POW_3 M_PI_POW_2 * M_PI
  57:../eurorack/stmlib/dsp/filter.h **** #define M_PI_POW_5 M_PI_POW_3 * M_PI_POW_2
  58:../eurorack/stmlib/dsp/filter.h **** #define M_PI_POW_7 M_PI_POW_5 * M_PI_POW_2
  59:../eurorack/stmlib/dsp/filter.h **** #define M_PI_POW_9 M_PI_POW_7 * M_PI_POW_2
  60:../eurorack/stmlib/dsp/filter.h **** #define M_PI_POW_11 M_PI_POW_9 * M_PI_POW_2
  61:../eurorack/stmlib/dsp/filter.h **** 
  62:../eurorack/stmlib/dsp/filter.h **** class DCBlocker {
  63:../eurorack/stmlib/dsp/filter.h ****  public:
  64:../eurorack/stmlib/dsp/filter.h ****   DCBlocker() { }
  65:../eurorack/stmlib/dsp/filter.h ****   ~DCBlocker() { }
  66:../eurorack/stmlib/dsp/filter.h ****   
  67:../eurorack/stmlib/dsp/filter.h ****   void Init(float pole) {
  68:../eurorack/stmlib/dsp/filter.h ****     x_ = 0.0f;
  69:../eurorack/stmlib/dsp/filter.h ****     y_ = 0.0f;
  70:../eurorack/stmlib/dsp/filter.h ****     pole_ = pole;
  71:../eurorack/stmlib/dsp/filter.h ****   }
  72:../eurorack/stmlib/dsp/filter.h ****   
  73:../eurorack/stmlib/dsp/filter.h ****   inline void Process(float* in_out, size_t size) {
  74:../eurorack/stmlib/dsp/filter.h ****     float x = x_;
  75:../eurorack/stmlib/dsp/filter.h ****     float y = y_;
  76:../eurorack/stmlib/dsp/filter.h ****     const float pole = pole_;
  77:../eurorack/stmlib/dsp/filter.h ****     while (size--) {
  78:../eurorack/stmlib/dsp/filter.h ****       float old_x = x;
  79:../eurorack/stmlib/dsp/filter.h ****       x = *in_out;
  80:../eurorack/stmlib/dsp/filter.h ****       *in_out++ = y = y * pole + x - old_x;
  81:../eurorack/stmlib/dsp/filter.h ****     }
  82:../eurorack/stmlib/dsp/filter.h ****     x_ = x;
  83:../eurorack/stmlib/dsp/filter.h ****     y_ = y;
  84:../eurorack/stmlib/dsp/filter.h ****   }
  85:../eurorack/stmlib/dsp/filter.h ****   
  86:../eurorack/stmlib/dsp/filter.h ****  private:
ARM GAS  /var/folders/y7/g6pkzsp12sx54x3s3mvyn15r0000gn/T//cc9jJkGr.s 			page 3


  87:../eurorack/stmlib/dsp/filter.h ****   float pole_;
  88:../eurorack/stmlib/dsp/filter.h ****   float x_;
  89:../eurorack/stmlib/dsp/filter.h ****   float y_;
  90:../eurorack/stmlib/dsp/filter.h **** };
  91:../eurorack/stmlib/dsp/filter.h **** 
  92:../eurorack/stmlib/dsp/filter.h **** class OnePole {
  93:../eurorack/stmlib/dsp/filter.h ****  public:
  94:../eurorack/stmlib/dsp/filter.h ****   OnePole() { }
  95:../eurorack/stmlib/dsp/filter.h ****   ~OnePole() { }
  96:../eurorack/stmlib/dsp/filter.h ****   
  97:../eurorack/stmlib/dsp/filter.h ****   void Init() {
  98:../eurorack/stmlib/dsp/filter.h ****     set_f<FREQUENCY_DIRTY>(0.01f);
  99:../eurorack/stmlib/dsp/filter.h ****     Reset();
 100:../eurorack/stmlib/dsp/filter.h ****   }
 101:../eurorack/stmlib/dsp/filter.h ****   
 102:../eurorack/stmlib/dsp/filter.h ****   void Reset() {
 103:../eurorack/stmlib/dsp/filter.h ****     state_ = 0.0f;
 104:../eurorack/stmlib/dsp/filter.h ****   }
 105:../eurorack/stmlib/dsp/filter.h ****   
 106:../eurorack/stmlib/dsp/filter.h ****   template<FrequencyApproximation approximation>
 107:../eurorack/stmlib/dsp/filter.h ****   static inline float tan(float f) {
 108:../eurorack/stmlib/dsp/filter.h ****     if (approximation == FREQUENCY_EXACT) {
 109:../eurorack/stmlib/dsp/filter.h ****       // Clip coefficient to about 100.
 110:../eurorack/stmlib/dsp/filter.h ****       f = f < 0.497f ? f : 0.497f;
 111:../eurorack/stmlib/dsp/filter.h ****       return tanf(M_PI_F * f);
 112:../eurorack/stmlib/dsp/filter.h ****     } else if (approximation == FREQUENCY_DIRTY) {
 113:../eurorack/stmlib/dsp/filter.h ****       // Optimized for frequencies below 8kHz.
 114:../eurorack/stmlib/dsp/filter.h ****       const float a = 3.736e-01f * M_PI_POW_3;
 115:../eurorack/stmlib/dsp/filter.h ****       return f * (M_PI_F + a * f * f);
 116:../eurorack/stmlib/dsp/filter.h ****     } else if (approximation == FREQUENCY_FAST) {
 117:../eurorack/stmlib/dsp/filter.h ****       // The usual tangent approximation uses 3.1755e-01 and 2.033e-01, but
 118:../eurorack/stmlib/dsp/filter.h ****       // the coefficients used here are optimized to minimize error for the
 119:../eurorack/stmlib/dsp/filter.h ****       // 16Hz to 16kHz range, with a sample rate of 48kHz.
 120:../eurorack/stmlib/dsp/filter.h ****       const float a = 3.260e-01f * M_PI_POW_3;
 121:../eurorack/stmlib/dsp/filter.h ****       const float b = 1.823e-01f * M_PI_POW_5;
 122:../eurorack/stmlib/dsp/filter.h ****       float f2 = f * f;
 123:../eurorack/stmlib/dsp/filter.h ****       return f * (M_PI_F + f2 * (a + b * f2));
 124:../eurorack/stmlib/dsp/filter.h ****     } else if (approximation == FREQUENCY_ACCURATE) {
 125:../eurorack/stmlib/dsp/filter.h ****       // These coefficients don't need to be tweaked for the audio range.
 126:../eurorack/stmlib/dsp/filter.h ****       const float a = 3.333314036e-01f * M_PI_POW_3;
 127:../eurorack/stmlib/dsp/filter.h ****       const float b = 1.333923995e-01f * M_PI_POW_5;
 128:../eurorack/stmlib/dsp/filter.h ****       const float c = 5.33740603e-02f * M_PI_POW_7;
 129:../eurorack/stmlib/dsp/filter.h ****       const float d = 2.900525e-03f * M_PI_POW_9;
 130:../eurorack/stmlib/dsp/filter.h ****       const float e = 9.5168091e-03f * M_PI_POW_11;
 131:../eurorack/stmlib/dsp/filter.h ****       float f2 = f * f;
 132:../eurorack/stmlib/dsp/filter.h ****       return f * (M_PI_F + f2 * (a + f2 * (b + f2 * (c + f2 * (d + f2 * e)))));
 133:../eurorack/stmlib/dsp/filter.h ****     }
 134:../eurorack/stmlib/dsp/filter.h ****   }
 135:../eurorack/stmlib/dsp/filter.h ****   
 136:../eurorack/stmlib/dsp/filter.h ****   // Set frequency and resonance from true units. Various approximations
 137:../eurorack/stmlib/dsp/filter.h ****   // are available to avoid the cost of tanf.
 138:../eurorack/stmlib/dsp/filter.h ****   template<FrequencyApproximation approximation>
 139:../eurorack/stmlib/dsp/filter.h ****   inline void set_f(float f) {
 140:../eurorack/stmlib/dsp/filter.h ****     g_ = tan<approximation>(f);
 141:../eurorack/stmlib/dsp/filter.h ****     gi_ = 1.0f / (1.0f + g_);
 142:../eurorack/stmlib/dsp/filter.h ****   }
 143:../eurorack/stmlib/dsp/filter.h ****   
ARM GAS  /var/folders/y7/g6pkzsp12sx54x3s3mvyn15r0000gn/T//cc9jJkGr.s 			page 4


 144:../eurorack/stmlib/dsp/filter.h ****   template<FilterMode mode>
 145:../eurorack/stmlib/dsp/filter.h ****   inline float Process(float in) {
 146:../eurorack/stmlib/dsp/filter.h ****     float lp;
 147:../eurorack/stmlib/dsp/filter.h ****     lp = (g_ * in + state_) * gi_;
 148:../eurorack/stmlib/dsp/filter.h ****     state_ = g_ * (in - lp) + lp;
 149:../eurorack/stmlib/dsp/filter.h **** 
 150:../eurorack/stmlib/dsp/filter.h ****     if (mode == FILTER_MODE_LOW_PASS) {
 151:../eurorack/stmlib/dsp/filter.h ****       return lp;
 152:../eurorack/stmlib/dsp/filter.h ****     } else if (mode == FILTER_MODE_HIGH_PASS) {
 153:../eurorack/stmlib/dsp/filter.h ****       return in - lp;
 154:../eurorack/stmlib/dsp/filter.h ****     } else {
 155:../eurorack/stmlib/dsp/filter.h ****       return 0.0f;
 156:../eurorack/stmlib/dsp/filter.h ****     }
 157:../eurorack/stmlib/dsp/filter.h ****   }
 158:../eurorack/stmlib/dsp/filter.h ****   
 159:../eurorack/stmlib/dsp/filter.h ****   template<FilterMode mode>
 160:../eurorack/stmlib/dsp/filter.h ****   inline void Process(float* in_out, size_t size) {
 161:../eurorack/stmlib/dsp/filter.h ****     while (size--) {
 162:../eurorack/stmlib/dsp/filter.h ****       *in_out = Process<mode>(*in_out);
 163:../eurorack/stmlib/dsp/filter.h ****       ++in_out;
 164:../eurorack/stmlib/dsp/filter.h ****     }
 165:../eurorack/stmlib/dsp/filter.h ****   }
 166:../eurorack/stmlib/dsp/filter.h ****   
 167:../eurorack/stmlib/dsp/filter.h ****  private:
 168:../eurorack/stmlib/dsp/filter.h ****   float g_;
 169:../eurorack/stmlib/dsp/filter.h ****   float gi_;
 170:../eurorack/stmlib/dsp/filter.h ****   float state_;
 171:../eurorack/stmlib/dsp/filter.h ****   
 172:../eurorack/stmlib/dsp/filter.h ****   DISALLOW_COPY_AND_ASSIGN(OnePole);
 173:../eurorack/stmlib/dsp/filter.h **** };
 174:../eurorack/stmlib/dsp/filter.h **** 
 175:../eurorack/stmlib/dsp/filter.h **** 
 176:../eurorack/stmlib/dsp/filter.h **** 
 177:../eurorack/stmlib/dsp/filter.h **** class Svf {
 178:../eurorack/stmlib/dsp/filter.h ****  public:
 179:../eurorack/stmlib/dsp/filter.h ****   Svf() { }
 180:../eurorack/stmlib/dsp/filter.h ****   ~Svf() { }
 181:../eurorack/stmlib/dsp/filter.h ****   
 182:../eurorack/stmlib/dsp/filter.h ****   void Init() {
  30              		.loc 2 182 8 view -0
  31              		.cfi_startproc
  32              		@ args = 0, pretend = 0, frame = 0
  33              		@ frame_needed = 0, uses_anonymous_args = 0
  34              		@ link register save eliminated.
 183:../eurorack/stmlib/dsp/filter.h ****     set_f_q<FREQUENCY_DIRTY>(0.01f, 100.0f);
  35              		.loc 2 183 5 view .LVU1
  36              	.LBB51:
  37              	.LBI51:
 184:../eurorack/stmlib/dsp/filter.h ****     Reset();
 185:../eurorack/stmlib/dsp/filter.h ****   }
 186:../eurorack/stmlib/dsp/filter.h ****   
 187:../eurorack/stmlib/dsp/filter.h ****   void Reset() {
 188:../eurorack/stmlib/dsp/filter.h ****     state_1_ = state_2_ = 0.0f;
 189:../eurorack/stmlib/dsp/filter.h ****   }
 190:../eurorack/stmlib/dsp/filter.h ****   
 191:../eurorack/stmlib/dsp/filter.h ****   // Copy settings from another filter.
 192:../eurorack/stmlib/dsp/filter.h ****   inline void set(const Svf& f) {
ARM GAS  /var/folders/y7/g6pkzsp12sx54x3s3mvyn15r0000gn/T//cc9jJkGr.s 			page 5


 193:../eurorack/stmlib/dsp/filter.h ****     g_ = f.g();
 194:../eurorack/stmlib/dsp/filter.h ****     r_ = f.r();
 195:../eurorack/stmlib/dsp/filter.h ****     h_ = f.h();
 196:../eurorack/stmlib/dsp/filter.h ****   }
 197:../eurorack/stmlib/dsp/filter.h **** 
 198:../eurorack/stmlib/dsp/filter.h ****   // Set all parameters from LUT.
 199:../eurorack/stmlib/dsp/filter.h ****   inline void set_g_r_h(float g, float r, float h) {
 200:../eurorack/stmlib/dsp/filter.h ****     g_ = g;
 201:../eurorack/stmlib/dsp/filter.h ****     r_ = r;
 202:../eurorack/stmlib/dsp/filter.h ****     h_ = h;
 203:../eurorack/stmlib/dsp/filter.h ****   }
 204:../eurorack/stmlib/dsp/filter.h ****   
 205:../eurorack/stmlib/dsp/filter.h ****   // Set frequency and resonance coefficients from LUT, adjust remaining
 206:../eurorack/stmlib/dsp/filter.h ****   // parameter.
 207:../eurorack/stmlib/dsp/filter.h ****   inline void set_g_r(float g, float r) {
 208:../eurorack/stmlib/dsp/filter.h ****     g_ = g;
 209:../eurorack/stmlib/dsp/filter.h ****     r_ = r;
 210:../eurorack/stmlib/dsp/filter.h ****     h_ = 1.0f / (1.0f + r_ * g_ + g_ * g_);
 211:../eurorack/stmlib/dsp/filter.h ****   }
 212:../eurorack/stmlib/dsp/filter.h **** 
 213:../eurorack/stmlib/dsp/filter.h ****   // Set frequency from LUT, resonance in true units, adjust the rest.
 214:../eurorack/stmlib/dsp/filter.h ****   inline void set_g_q(float g, float resonance) {
 215:../eurorack/stmlib/dsp/filter.h ****     g_ = g;
 216:../eurorack/stmlib/dsp/filter.h ****     r_ = 1.0f / resonance;
 217:../eurorack/stmlib/dsp/filter.h ****     h_ = 1.0f / (1.0f + r_ * g_ + g_ * g_);
 218:../eurorack/stmlib/dsp/filter.h ****   }
 219:../eurorack/stmlib/dsp/filter.h **** 
 220:../eurorack/stmlib/dsp/filter.h ****   // Set frequency and resonance from true units. Various approximations
 221:../eurorack/stmlib/dsp/filter.h ****   // are available to avoid the cost of tanf.
 222:../eurorack/stmlib/dsp/filter.h ****   template<FrequencyApproximation approximation>
 223:../eurorack/stmlib/dsp/filter.h ****   inline void set_f_q(float f, float resonance) {
  38              		.loc 2 223 15 view .LVU2
  39              	.LBB52:
 224:../eurorack/stmlib/dsp/filter.h ****     g_ = OnePole::tan<approximation>(f);
  40              		.loc 2 224 8 is_stmt 0 discriminator 1 view .LVU3
  41 0000 044B     		ldr	r3, .L2
  42 0002 0360     		str	r3, [r0]	@ float
 225:../eurorack/stmlib/dsp/filter.h ****     r_ = 1.0f / resonance;
  43              		.loc 2 225 8 view .LVU4
  44 0004 044B     		ldr	r3, .L2+4
  45 0006 4360     		str	r3, [r0, #4]	@ float
 226:../eurorack/stmlib/dsp/filter.h ****     h_ = 1.0f / (1.0f + r_ * g_ + g_ * g_);
  46              		.loc 2 226 8 view .LVU5
  47 0008 044B     		ldr	r3, .L2+8
  48 000a 8360     		str	r3, [r0, #8]	@ float
  49              	.LVL1:
  50              		.loc 2 226 8 view .LVU6
  51              	.LBE52:
  52              	.LBE51:
 184:../eurorack/stmlib/dsp/filter.h ****   }
  53              		.loc 2 184 5 is_stmt 1 view .LVU7
  54              	.LBB53:
  55              	.LBI53:
 187:../eurorack/stmlib/dsp/filter.h ****     state_1_ = state_2_ = 0.0f;
  56              		.loc 2 187 8 view .LVU8
  57              	.LBB54:
 188:../eurorack/stmlib/dsp/filter.h ****   }
ARM GAS  /var/folders/y7/g6pkzsp12sx54x3s3mvyn15r0000gn/T//cc9jJkGr.s 			page 6


  58              		.loc 2 188 5 view .LVU9
 188:../eurorack/stmlib/dsp/filter.h ****   }
  59              		.loc 2 188 25 is_stmt 0 view .LVU10
  60 000c 0023     		movs	r3, #0
  61 000e 0361     		str	r3, [r0, #16]	@ float
 188:../eurorack/stmlib/dsp/filter.h ****   }
  62              		.loc 2 188 14 view .LVU11
  63 0010 C360     		str	r3, [r0, #12]	@ float
  64              	.LVL2:
 188:../eurorack/stmlib/dsp/filter.h ****   }
  65              		.loc 2 188 14 view .LVU12
  66              	.LBE54:
  67              	.LBE53:
 185:../eurorack/stmlib/dsp/filter.h ****   
  68              		.loc 2 185 3 view .LVU13
  69 0012 7047     		bx	lr
  70              	.L3:
  71              		.align	2
  72              	.L2:
  73 0014 22BA003D 		.word	1023457826
  74 0018 0AD7233C 		.word	1008981770
  75 001c CAAA7F3F 		.word	1065331402
  76              		.cfi_endproc
  77              	.LFE1231:
  79              		.section	.text._ZN6plaits16NaiveSpeechSynth4InitEv,"ax",%progbits
  80              		.align	1
  81              		.global	_ZN6plaits16NaiveSpeechSynth4InitEv
  82              		.syntax unified
  83              		.thumb
  84              		.thumb_func
  86              	_ZN6plaits16NaiveSpeechSynth4InitEv:
  87              	.LVL3:
  88              	.LFB1338:
   1:../eurorack/plaits/dsp/speech/naive_speech_synth.cc **** // Copyright 2016 Emilie Gillet.
   2:../eurorack/plaits/dsp/speech/naive_speech_synth.cc **** //
   3:../eurorack/plaits/dsp/speech/naive_speech_synth.cc **** // Author: Emilie Gillet (emilie.o.gillet@gmail.com)
   4:../eurorack/plaits/dsp/speech/naive_speech_synth.cc **** //
   5:../eurorack/plaits/dsp/speech/naive_speech_synth.cc **** // Permission is hereby granted, free of charge, to any person obtaining a copy
   6:../eurorack/plaits/dsp/speech/naive_speech_synth.cc **** // of this software and associated documentation files (the "Software"), to deal
   7:../eurorack/plaits/dsp/speech/naive_speech_synth.cc **** // in the Software without restriction, including without limitation the rights
   8:../eurorack/plaits/dsp/speech/naive_speech_synth.cc **** // to use, copy, modify, merge, publish, distribute, sublicense, and/or sell
   9:../eurorack/plaits/dsp/speech/naive_speech_synth.cc **** // copies of the Software, and to permit persons to whom the Software is
  10:../eurorack/plaits/dsp/speech/naive_speech_synth.cc **** // furnished to do so, subject to the following conditions:
  11:../eurorack/plaits/dsp/speech/naive_speech_synth.cc **** // 
  12:../eurorack/plaits/dsp/speech/naive_speech_synth.cc **** // The above copyright notice and this permission notice shall be included in
  13:../eurorack/plaits/dsp/speech/naive_speech_synth.cc **** // all copies or substantial portions of the Software.
  14:../eurorack/plaits/dsp/speech/naive_speech_synth.cc **** // 
  15:../eurorack/plaits/dsp/speech/naive_speech_synth.cc **** // THE SOFTWARE IS PROVIDED "AS IS", WITHOUT WARRANTY OF ANY KIND, EXPRESS OR
  16:../eurorack/plaits/dsp/speech/naive_speech_synth.cc **** // IMPLIED, INCLUDING BUT NOT LIMITED TO THE WARRANTIES OF MERCHANTABILITY,
  17:../eurorack/plaits/dsp/speech/naive_speech_synth.cc **** // FITNESS FOR A PARTICULAR PURPOSE AND NONINFRINGEMENT. IN NO EVENT SHALL THE
  18:../eurorack/plaits/dsp/speech/naive_speech_synth.cc **** // AUTHORS OR COPYRIGHT HOLDERS BE LIABLE FOR ANY CLAIM, DAMAGES OR OTHER
  19:../eurorack/plaits/dsp/speech/naive_speech_synth.cc **** // LIABILITY, WHETHER IN AN ACTION OF CONTRACT, TORT OR OTHERWISE, ARISING FROM,
  20:../eurorack/plaits/dsp/speech/naive_speech_synth.cc **** // OUT OF OR IN CONNECTION WITH THE SOFTWARE OR THE USE OR OTHER DEALINGS IN
  21:../eurorack/plaits/dsp/speech/naive_speech_synth.cc **** // THE SOFTWARE.
  22:../eurorack/plaits/dsp/speech/naive_speech_synth.cc **** // 
  23:../eurorack/plaits/dsp/speech/naive_speech_synth.cc **** // See http://creativecommons.org/licenses/MIT/ for more information.
  24:../eurorack/plaits/dsp/speech/naive_speech_synth.cc **** //
ARM GAS  /var/folders/y7/g6pkzsp12sx54x3s3mvyn15r0000gn/T//cc9jJkGr.s 			page 7


  25:../eurorack/plaits/dsp/speech/naive_speech_synth.cc **** // -----------------------------------------------------------------------------
  26:../eurorack/plaits/dsp/speech/naive_speech_synth.cc **** //
  27:../eurorack/plaits/dsp/speech/naive_speech_synth.cc **** // Naive speech synth - made from "synthesizer" building blocks (pulse
  28:../eurorack/plaits/dsp/speech/naive_speech_synth.cc **** // oscillator and zero-delay SVF).
  29:../eurorack/plaits/dsp/speech/naive_speech_synth.cc **** 
  30:../eurorack/plaits/dsp/speech/naive_speech_synth.cc **** #include "plaits/dsp/speech/naive_speech_synth.h"
  31:../eurorack/plaits/dsp/speech/naive_speech_synth.cc **** 
  32:../eurorack/plaits/dsp/speech/naive_speech_synth.cc **** #include <algorithm>
  33:../eurorack/plaits/dsp/speech/naive_speech_synth.cc **** 
  34:../eurorack/plaits/dsp/speech/naive_speech_synth.cc **** #include "stmlib/dsp/dsp.h"
  35:../eurorack/plaits/dsp/speech/naive_speech_synth.cc **** #include "stmlib/dsp/units.h"
  36:../eurorack/plaits/dsp/speech/naive_speech_synth.cc **** #include "stmlib/utils/random.h"
  37:../eurorack/plaits/dsp/speech/naive_speech_synth.cc **** 
  38:../eurorack/plaits/dsp/speech/naive_speech_synth.cc **** #include "plaits/resources.h"
  39:../eurorack/plaits/dsp/speech/naive_speech_synth.cc **** 
  40:../eurorack/plaits/dsp/speech/naive_speech_synth.cc **** namespace plaits {
  41:../eurorack/plaits/dsp/speech/naive_speech_synth.cc **** 
  42:../eurorack/plaits/dsp/speech/naive_speech_synth.cc **** using namespace std;
  43:../eurorack/plaits/dsp/speech/naive_speech_synth.cc **** using namespace stmlib;
  44:../eurorack/plaits/dsp/speech/naive_speech_synth.cc **** 
  45:../eurorack/plaits/dsp/speech/naive_speech_synth.cc **** /* static */
  46:../eurorack/plaits/dsp/speech/naive_speech_synth.cc **** const NaiveSpeechSynth::Phoneme NaiveSpeechSynth::phonemes_[][kNaiveSpeechNumRegisters] = {
  47:../eurorack/plaits/dsp/speech/naive_speech_synth.cc ****   {
  48:../eurorack/plaits/dsp/speech/naive_speech_synth.cc ****     { { { 74, 255 }, { 83, 114 }, { 97, 90 }, { 98, 90 }, { 100, 25 } } },
  49:../eurorack/plaits/dsp/speech/naive_speech_synth.cc ****     { { { 75, 255 }, { 84, 128 }, { 100, 114 }, { 101, 101 }, { 103, 20 } } },
  50:../eurorack/plaits/dsp/speech/naive_speech_synth.cc ****     { { { 76, 255 }, { 85, 128 }, { 100, 18 }, { 102, 16 }, { 104, 3 } } },
  51:../eurorack/plaits/dsp/speech/naive_speech_synth.cc ****     { { { 79, 255 }, { 85, 161 }, { 101, 25 }, { 104, 4 }, { 110, 0 } } },
  52:../eurorack/plaits/dsp/speech/naive_speech_synth.cc ****     { { { 79, 255 }, { 85, 128 }, { 101, 6 }, { 106, 25 }, { 110, 0 } } }
  53:../eurorack/plaits/dsp/speech/naive_speech_synth.cc ****   },
  54:../eurorack/plaits/dsp/speech/naive_speech_synth.cc ****   {
  55:../eurorack/plaits/dsp/speech/naive_speech_synth.cc ****     { { { 67, 255 }, { 91, 64 }, { 98, 90 }, { 101, 64 }, { 102, 32 } } },
  56:../eurorack/plaits/dsp/speech/naive_speech_synth.cc ****     { { { 67, 255 }, { 92, 51 }, { 99, 64 }, { 103, 51 }, { 105, 25 } } },
  57:../eurorack/plaits/dsp/speech/naive_speech_synth.cc ****     { { { 69, 255 }, { 93, 51 }, { 100, 32 }, { 102, 25 }, { 103, 25 } } },
  58:../eurorack/plaits/dsp/speech/naive_speech_synth.cc ****     { { { 67, 255 }, { 91, 16 }, { 100, 8 }, { 103, 4 }, { 110, 0 } } },
  59:../eurorack/plaits/dsp/speech/naive_speech_synth.cc ****     { { { 65, 255 }, { 95, 25 }, { 101, 45 }, { 105, 2 }, { 110, 0 } } }
  60:../eurorack/plaits/dsp/speech/naive_speech_synth.cc ****   },
  61:../eurorack/plaits/dsp/speech/naive_speech_synth.cc ****   {
  62:../eurorack/plaits/dsp/speech/naive_speech_synth.cc ****     { { { 59, 255 }, { 92, 8 }, { 99, 40 }, { 102, 20 }, { 104, 10 } } },
  63:../eurorack/plaits/dsp/speech/naive_speech_synth.cc ****     { { { 61, 255 }, { 94, 45 }, { 101, 32 }, { 103, 25 }, { 105, 8 } } },
  64:../eurorack/plaits/dsp/speech/naive_speech_synth.cc ****     { { { 60, 255 }, { 93, 16 }, { 101, 16 }, { 104, 4 }, { 105, 4 } } },
  65:../eurorack/plaits/dsp/speech/naive_speech_synth.cc ****     { { { 65, 255 }, { 92, 25 }, { 100, 8 }, { 105, 4 }, { 110, 0 } } },
  66:../eurorack/plaits/dsp/speech/naive_speech_synth.cc ****     { { { 60, 255 }, { 96, 64 }, { 101, 12 }, { 106, 12 }, { 110, 1 } } }
  67:../eurorack/plaits/dsp/speech/naive_speech_synth.cc ****   },
  68:../eurorack/plaits/dsp/speech/naive_speech_synth.cc ****   {
  69:../eurorack/plaits/dsp/speech/naive_speech_synth.cc ****     { { { 67, 255 }, { 78, 72 }, { 98, 22 }, { 99, 25 }, { 101, 2 } } },
  70:../eurorack/plaits/dsp/speech/naive_speech_synth.cc ****     { { { 67, 255 }, { 79, 80 }, { 99, 64 }, { 101, 64 }, { 102, 12 } } },
  71:../eurorack/plaits/dsp/speech/naive_speech_synth.cc ****     { { { 68, 255 }, { 79, 80 }, { 100, 12 }, { 102, 20 }, { 103, 5 } } },
  72:../eurorack/plaits/dsp/speech/naive_speech_synth.cc ****     { { { 69, 255 }, { 79, 90 }, { 101, 40 }, { 104, 10 }, { 110, 0 } } },
  73:../eurorack/plaits/dsp/speech/naive_speech_synth.cc ****     { { { 69, 255 }, { 79, 72 }, { 101, 20 }, { 106, 20 }, { 110, 0 } } }
  74:../eurorack/plaits/dsp/speech/naive_speech_synth.cc ****   },
  75:../eurorack/plaits/dsp/speech/naive_speech_synth.cc ****   {
  76:../eurorack/plaits/dsp/speech/naive_speech_synth.cc ****     { { { 65, 255 }, { 74, 25 }, { 98, 6 }, { 100, 10 }, { 101, 4 } } },
  77:../eurorack/plaits/dsp/speech/naive_speech_synth.cc ****     { { { 65, 255 }, { 74, 25 }, { 100, 36 }, { 101, 51 }, { 103, 12 } } },
  78:../eurorack/plaits/dsp/speech/naive_speech_synth.cc ****     { { { 66, 255 }, { 75, 25 }, { 100, 18 }, { 102, 8 }, { 104, 5 } } },
  79:../eurorack/plaits/dsp/speech/naive_speech_synth.cc ****     { { { 63, 255 }, { 77, 64 }, { 99, 8 }, { 104, 2 }, { 110, 0 } } },
  80:../eurorack/plaits/dsp/speech/naive_speech_synth.cc ****     { { { 63, 255 }, { 77, 40 }, { 100, 4 }, { 106, 2 }, { 110, 0 } } }
  81:../eurorack/plaits/dsp/speech/naive_speech_synth.cc ****   },
ARM GAS  /var/folders/y7/g6pkzsp12sx54x3s3mvyn15r0000gn/T//cc9jJkGr.s 			page 8


  82:../eurorack/plaits/dsp/speech/naive_speech_synth.cc **** };
  83:../eurorack/plaits/dsp/speech/naive_speech_synth.cc **** 
  84:../eurorack/plaits/dsp/speech/naive_speech_synth.cc **** void NaiveSpeechSynth::Init() {
  89              		.loc 1 84 31 is_stmt 1 view -0
  90              		.cfi_startproc
  91              		@ args = 0, pretend = 0, frame = 0
  92              		@ frame_needed = 0, uses_anonymous_args = 0
  85:../eurorack/plaits/dsp/speech/naive_speech_synth.cc ****   pulse_.Init();
  93              		.loc 1 85 3 view .LVU15
  94              	.LBB63:
  95              	.LBI63:
  96              		.file 3 "../eurorack/plaits/dsp/oscillator/oscillator.h"
   1:../eurorack/plaits/dsp/oscillator/oscillator.h **** // Copyright 2016 Emilie Gillet.
   2:../eurorack/plaits/dsp/oscillator/oscillator.h **** //
   3:../eurorack/plaits/dsp/oscillator/oscillator.h **** // Author: Emilie Gillet (emilie.o.gillet@gmail.com)
   4:../eurorack/plaits/dsp/oscillator/oscillator.h **** //
   5:../eurorack/plaits/dsp/oscillator/oscillator.h **** // Permission is hereby granted, free of charge, to any person obtaining a copy
   6:../eurorack/plaits/dsp/oscillator/oscillator.h **** // of this software and associated documentation files (the "Software"), to deal
   7:../eurorack/plaits/dsp/oscillator/oscillator.h **** // in the Software without restriction, including without limitation the rights
   8:../eurorack/plaits/dsp/oscillator/oscillator.h **** // to use, copy, modify, merge, publish, distribute, sublicense, and/or sell
   9:../eurorack/plaits/dsp/oscillator/oscillator.h **** // copies of the Software, and to permit persons to whom the Software is
  10:../eurorack/plaits/dsp/oscillator/oscillator.h **** // furnished to do so, subject to the following conditions:
  11:../eurorack/plaits/dsp/oscillator/oscillator.h **** // 
  12:../eurorack/plaits/dsp/oscillator/oscillator.h **** // The above copyright notice and this permission notice shall be included in
  13:../eurorack/plaits/dsp/oscillator/oscillator.h **** // all copies or substantial portions of the Software.
  14:../eurorack/plaits/dsp/oscillator/oscillator.h **** // 
  15:../eurorack/plaits/dsp/oscillator/oscillator.h **** // THE SOFTWARE IS PROVIDED "AS IS", WITHOUT WARRANTY OF ANY KIND, EXPRESS OR
  16:../eurorack/plaits/dsp/oscillator/oscillator.h **** // IMPLIED, INCLUDING BUT NOT LIMITED TO THE WARRANTIES OF MERCHANTABILITY,
  17:../eurorack/plaits/dsp/oscillator/oscillator.h **** // FITNESS FOR A PARTICULAR PURPOSE AND NONINFRINGEMENT. IN NO EVENT SHALL THE
  18:../eurorack/plaits/dsp/oscillator/oscillator.h **** // AUTHORS OR COPYRIGHT HOLDERS BE LIABLE FOR ANY CLAIM, DAMAGES OR OTHER
  19:../eurorack/plaits/dsp/oscillator/oscillator.h **** // LIABILITY, WHETHER IN AN ACTION OF CONTRACT, TORT OR OTHERWISE, ARISING FROM,
  20:../eurorack/plaits/dsp/oscillator/oscillator.h **** // OUT OF OR IN CONNECTION WITH THE SOFTWARE OR THE USE OR OTHER DEALINGS IN
  21:../eurorack/plaits/dsp/oscillator/oscillator.h **** // THE SOFTWARE.
  22:../eurorack/plaits/dsp/oscillator/oscillator.h **** // 
  23:../eurorack/plaits/dsp/oscillator/oscillator.h **** // See http://creativecommons.org/licenses/MIT/ for more information.
  24:../eurorack/plaits/dsp/oscillator/oscillator.h **** //
  25:../eurorack/plaits/dsp/oscillator/oscillator.h **** // -----------------------------------------------------------------------------
  26:../eurorack/plaits/dsp/oscillator/oscillator.h **** //
  27:../eurorack/plaits/dsp/oscillator/oscillator.h **** // Single waveform oscillator. Can optionally do audio-rate linear FM, with
  28:../eurorack/plaits/dsp/oscillator/oscillator.h **** // through-zero capabilities (negative frequencies).
  29:../eurorack/plaits/dsp/oscillator/oscillator.h **** 
  30:../eurorack/plaits/dsp/oscillator/oscillator.h **** #ifndef PLAITS_DSP_OSCILLATOR_OSCILLATOR_H_
  31:../eurorack/plaits/dsp/oscillator/oscillator.h **** #define PLAITS_DSP_OSCILLATOR_OSCILLATOR_H_
  32:../eurorack/plaits/dsp/oscillator/oscillator.h **** 
  33:../eurorack/plaits/dsp/oscillator/oscillator.h **** #include "stmlib/dsp/dsp.h"
  34:../eurorack/plaits/dsp/oscillator/oscillator.h **** #include "stmlib/dsp/parameter_interpolator.h"
  35:../eurorack/plaits/dsp/oscillator/oscillator.h **** #include "stmlib/dsp/polyblep.h"
  36:../eurorack/plaits/dsp/oscillator/oscillator.h **** 
  37:../eurorack/plaits/dsp/oscillator/oscillator.h **** namespace plaits {
  38:../eurorack/plaits/dsp/oscillator/oscillator.h **** 
  39:../eurorack/plaits/dsp/oscillator/oscillator.h **** enum OscillatorShape {
  40:../eurorack/plaits/dsp/oscillator/oscillator.h ****   OSCILLATOR_SHAPE_IMPULSE_TRAIN,
  41:../eurorack/plaits/dsp/oscillator/oscillator.h ****   OSCILLATOR_SHAPE_SAW,
  42:../eurorack/plaits/dsp/oscillator/oscillator.h ****   OSCILLATOR_SHAPE_TRIANGLE,
  43:../eurorack/plaits/dsp/oscillator/oscillator.h ****   OSCILLATOR_SHAPE_SLOPE,
  44:../eurorack/plaits/dsp/oscillator/oscillator.h ****   OSCILLATOR_SHAPE_SQUARE,
  45:../eurorack/plaits/dsp/oscillator/oscillator.h ****   OSCILLATOR_SHAPE_SQUARE_BRIGHT,
ARM GAS  /var/folders/y7/g6pkzsp12sx54x3s3mvyn15r0000gn/T//cc9jJkGr.s 			page 9


  46:../eurorack/plaits/dsp/oscillator/oscillator.h ****   OSCILLATOR_SHAPE_SQUARE_DARK,
  47:../eurorack/plaits/dsp/oscillator/oscillator.h ****   OSCILLATOR_SHAPE_SQUARE_TRIANGLE
  48:../eurorack/plaits/dsp/oscillator/oscillator.h **** };
  49:../eurorack/plaits/dsp/oscillator/oscillator.h **** 
  50:../eurorack/plaits/dsp/oscillator/oscillator.h **** const float kMaxFrequency = 0.25f;
  51:../eurorack/plaits/dsp/oscillator/oscillator.h **** const float kMinFrequency = 0.000001f;
  52:../eurorack/plaits/dsp/oscillator/oscillator.h **** 
  53:../eurorack/plaits/dsp/oscillator/oscillator.h **** class Oscillator {
  54:../eurorack/plaits/dsp/oscillator/oscillator.h ****  public:
  55:../eurorack/plaits/dsp/oscillator/oscillator.h ****   Oscillator() { }
  56:../eurorack/plaits/dsp/oscillator/oscillator.h ****   ~Oscillator() { }
  57:../eurorack/plaits/dsp/oscillator/oscillator.h ****   
  58:../eurorack/plaits/dsp/oscillator/oscillator.h ****   void Init() {
  97              		.loc 3 58 8 view .LVU16
  98              	.LBB64:
  59:../eurorack/plaits/dsp/oscillator/oscillator.h ****     phase_ = 0.5f;
  99              		.loc 3 59 5 view .LVU17
  60:../eurorack/plaits/dsp/oscillator/oscillator.h ****     next_sample_ = 0.0f;
  61:../eurorack/plaits/dsp/oscillator/oscillator.h ****     lp_state_ = 1.0f;
 100              		.loc 3 61 15 is_stmt 0 view .LVU18
 101 0000 4FF07E51 		mov	r1, #1065353216
  60:../eurorack/plaits/dsp/oscillator/oscillator.h ****     next_sample_ = 0.0f;
 102              		.loc 3 60 18 view .LVU19
 103 0004 0023     		movs	r3, #0
  59:../eurorack/plaits/dsp/oscillator/oscillator.h ****     phase_ = 0.5f;
 104              		.loc 3 59 12 view .LVU20
 105 0006 4FF07C52 		mov	r2, #1056964608
 106              	.LBE64:
 107              	.LBE63:
  84:../eurorack/plaits/dsp/speech/naive_speech_synth.cc ****   pulse_.Init();
 108              		.loc 1 84 31 view .LVU21
 109 000a 70B5     		push	{r4, r5, r6, lr}
 110              		.cfi_def_cfa_offset 16
 111              		.cfi_offset 4, -16
 112              		.cfi_offset 5, -12
 113              		.cfi_offset 6, -8
 114              		.cfi_offset 14, -4
 115              	.LBB68:
 116              	.LBB65:
 117              		.loc 3 61 15 view .LVU22
 118 000c 8160     		str	r1, [r0, #8]	@ float
  62:../eurorack/plaits/dsp/oscillator/oscillator.h ****     hp_state_ = 0.0f;
  63:../eurorack/plaits/dsp/oscillator/oscillator.h ****     high_ = true;
 119              		.loc 3 63 11 view .LVU23
 120 000e 0121     		movs	r1, #1
  60:../eurorack/plaits/dsp/oscillator/oscillator.h ****     lp_state_ = 1.0f;
 121              		.loc 3 60 18 view .LVU24
 122 0010 4360     		str	r3, [r0, #4]	@ float
 123              	.LBE65:
 124              	.LBE68:
  84:../eurorack/plaits/dsp/speech/naive_speech_synth.cc ****   pulse_.Init();
 125              		.loc 1 84 31 view .LVU25
 126 0012 0446     		mov	r4, r0
 127              	.LBB69:
 128              	.LBB66:
  62:../eurorack/plaits/dsp/oscillator/oscillator.h ****     hp_state_ = 0.0f;
 129              		.loc 3 62 15 view .LVU26
ARM GAS  /var/folders/y7/g6pkzsp12sx54x3s3mvyn15r0000gn/T//cc9jJkGr.s 			page 10


 130 0014 C360     		str	r3, [r0, #12]	@ float
 131 0016 00F12405 		add	r5, r0, #36
 132              		.loc 3 63 11 view .LVU27
 133 001a 0174     		strb	r1, [r0, #16]
 134 001c 00F18806 		add	r6, r0, #136
  64:../eurorack/plaits/dsp/oscillator/oscillator.h **** 
  65:../eurorack/plaits/dsp/oscillator/oscillator.h ****     frequency_ = 0.001f;
 135              		.loc 3 65 16 view .LVU28
 136 0020 0D49     		ldr	r1, .L7
 137              	.LBE66:
 138              	.LBE69:
  86:../eurorack/plaits/dsp/speech/naive_speech_synth.cc ****   frequency_ = 0.0f;
 139              		.loc 1 86 14 view .LVU29
 140 0022 C361     		str	r3, [r0, #28]	@ float
  87:../eurorack/plaits/dsp/speech/naive_speech_synth.cc ****   click_duration_ = 0;
 141              		.loc 1 87 19 view .LVU30
 142 0024 0023     		movs	r3, #0
 143              	.LBB70:
 144              	.LBB67:
  59:../eurorack/plaits/dsp/oscillator/oscillator.h ****     next_sample_ = 0.0f;
 145              		.loc 3 59 12 view .LVU31
 146 0026 0260     		str	r2, [r0]	@ float
  60:../eurorack/plaits/dsp/oscillator/oscillator.h ****     lp_state_ = 1.0f;
 147              		.loc 3 60 5 is_stmt 1 view .LVU32
  61:../eurorack/plaits/dsp/oscillator/oscillator.h ****     hp_state_ = 0.0f;
 148              		.loc 3 61 5 view .LVU33
  62:../eurorack/plaits/dsp/oscillator/oscillator.h ****     high_ = true;
 149              		.loc 3 62 5 view .LVU34
  63:../eurorack/plaits/dsp/oscillator/oscillator.h **** 
 150              		.loc 3 63 5 view .LVU35
 151              		.loc 3 65 5 view .LVU36
 152              		.loc 3 65 16 is_stmt 0 view .LVU37
 153 0028 4161     		str	r1, [r0, #20]	@ float
  66:../eurorack/plaits/dsp/oscillator/oscillator.h ****     pw_ = 0.5f;
 154              		.loc 3 66 5 is_stmt 1 view .LVU38
 155              		.loc 3 66 9 is_stmt 0 view .LVU39
 156 002a 8261     		str	r2, [r0, #24]	@ float
 157              	.LVL4:
 158              		.loc 3 66 9 view .LVU40
 159              	.LBE67:
 160              	.LBE70:
  86:../eurorack/plaits/dsp/speech/naive_speech_synth.cc ****   click_duration_ = 0;
 161              		.loc 1 86 3 is_stmt 1 view .LVU41
 162              		.loc 1 87 3 view .LVU42
 163              		.loc 1 87 19 is_stmt 0 view .LVU43
 164 002c 0362     		str	r3, [r0, #32]
  88:../eurorack/plaits/dsp/speech/naive_speech_synth.cc ****   
  89:../eurorack/plaits/dsp/speech/naive_speech_synth.cc ****   for (int i = 0; i < kNaiveSpeechNumFormants; ++i) {
 165              		.loc 1 89 3 is_stmt 1 view .LVU44
 166              	.LVL5:
 167              	.LBB71:
 168              		.loc 1 89 21 discriminator 1 view .LVU45
 169              	.L5:
  90:../eurorack/plaits/dsp/speech/naive_speech_synth.cc ****     filter_[i].Init();
 170              		.loc 1 90 5 view .LVU46
 171              		.loc 1 90 20 is_stmt 0 view .LVU47
 172 002e 2846     		mov	r0, r5
ARM GAS  /var/folders/y7/g6pkzsp12sx54x3s3mvyn15r0000gn/T//cc9jJkGr.s 			page 11


  89:../eurorack/plaits/dsp/speech/naive_speech_synth.cc ****     filter_[i].Init();
 173              		.loc 1 89 21 discriminator 1 view .LVU48
 174 0030 1435     		adds	r5, r5, #20
 175              		.loc 1 90 20 view .LVU49
 176 0032 FFF7FEFF 		bl	_ZN6stmlib3Svf4InitEv
 177              	.LVL6:
  89:../eurorack/plaits/dsp/speech/naive_speech_synth.cc ****     filter_[i].Init();
 178              		.loc 1 89 3 is_stmt 1 discriminator 3 view .LVU50
  89:../eurorack/plaits/dsp/speech/naive_speech_synth.cc ****     filter_[i].Init();
 179              		.loc 1 89 21 discriminator 1 view .LVU51
 180 0036 B542     		cmp	r5, r6
 181 0038 F9D1     		bne	.L5
 182              	.LBE71:
  91:../eurorack/plaits/dsp/speech/naive_speech_synth.cc ****   }
  92:../eurorack/plaits/dsp/speech/naive_speech_synth.cc ****   pulse_coloration_.Init();
 183              		.loc 1 92 3 view .LVU52
 184              		.loc 1 92 25 is_stmt 0 view .LVU53
 185 003a 2846     		mov	r0, r5
 186 003c FFF7FEFF 		bl	_ZN6stmlib3Svf4InitEv
 187              	.LVL7:
  93:../eurorack/plaits/dsp/speech/naive_speech_synth.cc ****   pulse_coloration_.set_f_q<FREQUENCY_DIRTY>(800.0f / kSampleRate, 0.5f);
 188              		.loc 1 93 3 is_stmt 1 view .LVU54
 189              	.LBB72:
 190              	.LBI72:
 223:../eurorack/stmlib/dsp/filter.h ****     g_ = OnePole::tan<approximation>(f);
 191              		.loc 2 223 15 view .LVU55
 192              	.LBB73:
 224:../eurorack/stmlib/dsp/filter.h ****     r_ = 1.0f / resonance;
 193              		.loc 2 224 8 is_stmt 0 discriminator 1 view .LVU56
 194 0040 064B     		ldr	r3, .L7+4
 195 0042 C4F88830 		str	r3, [r4, #136]	@ float
 225:../eurorack/stmlib/dsp/filter.h ****     h_ = 1.0f / (1.0f + r_ * g_ + g_ * g_);
 196              		.loc 2 225 8 view .LVU57
 197 0046 4FF08043 		mov	r3, #1073741824
 198 004a C4F88C30 		str	r3, [r4, #140]	@ float
 199              		.loc 2 226 8 view .LVU58
 200 004e 044B     		ldr	r3, .L7+8
 201 0050 C4F89030 		str	r3, [r4, #144]	@ float
 202              	.LVL8:
 203              		.loc 2 226 8 view .LVU59
 204              	.LBE73:
 205              	.LBE72:
  94:../eurorack/plaits/dsp/speech/naive_speech_synth.cc **** }
 206              		.loc 1 94 1 view .LVU60
 207 0054 70BD     		pop	{r4, r5, r6, pc}
 208              	.LVL9:
 209              	.L8:
 210              		.loc 1 94 1 view .LVU61
 211 0056 00BF     		.align	2
 212              	.L7:
 213 0058 6F12833A 		.word	981668463
 214 005c 8CAF563D 		.word	1029091212
 215 0060 C122673F 		.word	1063723713
 216              		.cfi_endproc
 217              	.LFE1338:
 219              		.section	.text._ZN6plaits16NaiveSpeechSynth6RenderEbfffPfS1_S1_j,"ax",%progbits
 220              		.align	1
ARM GAS  /var/folders/y7/g6pkzsp12sx54x3s3mvyn15r0000gn/T//cc9jJkGr.s 			page 12


 221              		.global	_ZN6plaits16NaiveSpeechSynth6RenderEbfffPfS1_S1_j
 222              		.syntax unified
 223              		.thumb
 224              		.thumb_func
 226              	_ZN6plaits16NaiveSpeechSynth6RenderEbfffPfS1_S1_j:
 227              	.LVL10:
 228              	.LFB1339:
  95:../eurorack/plaits/dsp/speech/naive_speech_synth.cc **** 
  96:../eurorack/plaits/dsp/speech/naive_speech_synth.cc **** void NaiveSpeechSynth::Render(
  97:../eurorack/plaits/dsp/speech/naive_speech_synth.cc ****     bool click,
  98:../eurorack/plaits/dsp/speech/naive_speech_synth.cc ****     float frequency,
  99:../eurorack/plaits/dsp/speech/naive_speech_synth.cc ****     float phoneme,
 100:../eurorack/plaits/dsp/speech/naive_speech_synth.cc ****     float vocal_register,
 101:../eurorack/plaits/dsp/speech/naive_speech_synth.cc ****     float* temp,
 102:../eurorack/plaits/dsp/speech/naive_speech_synth.cc ****     float* excitation,
 103:../eurorack/plaits/dsp/speech/naive_speech_synth.cc ****     float* output,
 104:../eurorack/plaits/dsp/speech/naive_speech_synth.cc ****     size_t size) {
 229              		.loc 1 104 18 is_stmt 1 view -0
 230              		.cfi_startproc
 231              		@ args = 8, pretend = 0, frame = 0
 232              		@ frame_needed = 0, uses_anonymous_args = 0
 233              		.loc 1 104 18 is_stmt 0 view .LVU63
 234 0000 F0B5     		push	{r4, r5, r6, r7, lr}
 235              		.cfi_def_cfa_offset 20
 236              		.cfi_offset 4, -20
 237              		.cfi_offset 5, -16
 238              		.cfi_offset 6, -12
 239              		.cfi_offset 7, -8
 240              		.cfi_offset 14, -4
 241              		.loc 1 104 18 view .LVU64
 242 0002 B0EE407A 		vmov.f32	s14, s0
 105:../eurorack/plaits/dsp/speech/naive_speech_synth.cc ****   if (click) {
 243              		.loc 1 105 3 is_stmt 1 view .LVU65
 104:../eurorack/plaits/dsp/speech/naive_speech_synth.cc ****   if (click) {
 244              		.loc 1 104 18 is_stmt 0 view .LVU66
 245 0006 DDE90552 		ldrd	r5, r2, [sp, #20]
 246              	.LVL11:
 247              		.loc 1 105 3 view .LVU67
 248 000a 11B1     		cbz	r1, .L10
 106:../eurorack/plaits/dsp/speech/naive_speech_synth.cc ****     click_duration_ = kSampleRate * 0.05f;
 249              		.loc 1 106 5 is_stmt 1 view .LVU68
 250              		.loc 1 106 21 is_stmt 0 view .LVU69
 251 000c 4FF41661 		mov	r1, #2400
 252              	.LVL12:
 253              		.loc 1 106 21 view .LVU70
 254 0010 0162     		str	r1, [r0, #32]
 255              	.L10:
 107:../eurorack/plaits/dsp/speech/naive_speech_synth.cc ****   }
 108:../eurorack/plaits/dsp/speech/naive_speech_synth.cc ****   click_duration_ -= min(click_duration_, size);
 256              		.loc 1 108 3 is_stmt 1 view .LVU71
 257              	.LVL13:
 258              	.LBB145:
 259              	.LBI145:
 260              		.file 4 "/Applications/ArmGNUToolchain/14.2.rel1/arm-none-eabi/arm-none-eabi/include/c++/14.2.1/bi
   1:/Applications/ArmGNUToolchain/14.2.rel1/arm-none-eabi/arm-none-eabi/include/c++/14.2.1/bits/stl_algobase.h **** // Core algorithmic facilities -*- C++ -*-
   2:/Applications/ArmGNUToolchain/14.2.rel1/arm-none-eabi/arm-none-eabi/include/c++/14.2.1/bits/stl_algobase.h **** 
   3:/Applications/ArmGNUToolchain/14.2.rel1/arm-none-eabi/arm-none-eabi/include/c++/14.2.1/bits/stl_algobase.h **** // Copyright (C) 2001-2024 Free Software Foundation, Inc.
ARM GAS  /var/folders/y7/g6pkzsp12sx54x3s3mvyn15r0000gn/T//cc9jJkGr.s 			page 13


   4:/Applications/ArmGNUToolchain/14.2.rel1/arm-none-eabi/arm-none-eabi/include/c++/14.2.1/bits/stl_algobase.h **** //
   5:/Applications/ArmGNUToolchain/14.2.rel1/arm-none-eabi/arm-none-eabi/include/c++/14.2.1/bits/stl_algobase.h **** // This file is part of the GNU ISO C++ Library.  This library is free
   6:/Applications/ArmGNUToolchain/14.2.rel1/arm-none-eabi/arm-none-eabi/include/c++/14.2.1/bits/stl_algobase.h **** // software; you can redistribute it and/or modify it under the
   7:/Applications/ArmGNUToolchain/14.2.rel1/arm-none-eabi/arm-none-eabi/include/c++/14.2.1/bits/stl_algobase.h **** // terms of the GNU General Public License as published by the
   8:/Applications/ArmGNUToolchain/14.2.rel1/arm-none-eabi/arm-none-eabi/include/c++/14.2.1/bits/stl_algobase.h **** // Free Software Foundation; either version 3, or (at your option)
   9:/Applications/ArmGNUToolchain/14.2.rel1/arm-none-eabi/arm-none-eabi/include/c++/14.2.1/bits/stl_algobase.h **** // any later version.
  10:/Applications/ArmGNUToolchain/14.2.rel1/arm-none-eabi/arm-none-eabi/include/c++/14.2.1/bits/stl_algobase.h **** 
  11:/Applications/ArmGNUToolchain/14.2.rel1/arm-none-eabi/arm-none-eabi/include/c++/14.2.1/bits/stl_algobase.h **** // This library is distributed in the hope that it will be useful,
  12:/Applications/ArmGNUToolchain/14.2.rel1/arm-none-eabi/arm-none-eabi/include/c++/14.2.1/bits/stl_algobase.h **** // but WITHOUT ANY WARRANTY; without even the implied warranty of
  13:/Applications/ArmGNUToolchain/14.2.rel1/arm-none-eabi/arm-none-eabi/include/c++/14.2.1/bits/stl_algobase.h **** // MERCHANTABILITY or FITNESS FOR A PARTICULAR PURPOSE.  See the
  14:/Applications/ArmGNUToolchain/14.2.rel1/arm-none-eabi/arm-none-eabi/include/c++/14.2.1/bits/stl_algobase.h **** // GNU General Public License for more details.
  15:/Applications/ArmGNUToolchain/14.2.rel1/arm-none-eabi/arm-none-eabi/include/c++/14.2.1/bits/stl_algobase.h **** 
  16:/Applications/ArmGNUToolchain/14.2.rel1/arm-none-eabi/arm-none-eabi/include/c++/14.2.1/bits/stl_algobase.h **** // Under Section 7 of GPL version 3, you are granted additional
  17:/Applications/ArmGNUToolchain/14.2.rel1/arm-none-eabi/arm-none-eabi/include/c++/14.2.1/bits/stl_algobase.h **** // permissions described in the GCC Runtime Library Exception, version
  18:/Applications/ArmGNUToolchain/14.2.rel1/arm-none-eabi/arm-none-eabi/include/c++/14.2.1/bits/stl_algobase.h **** // 3.1, as published by the Free Software Foundation.
  19:/Applications/ArmGNUToolchain/14.2.rel1/arm-none-eabi/arm-none-eabi/include/c++/14.2.1/bits/stl_algobase.h **** 
  20:/Applications/ArmGNUToolchain/14.2.rel1/arm-none-eabi/arm-none-eabi/include/c++/14.2.1/bits/stl_algobase.h **** // You should have received a copy of the GNU General Public License and
  21:/Applications/ArmGNUToolchain/14.2.rel1/arm-none-eabi/arm-none-eabi/include/c++/14.2.1/bits/stl_algobase.h **** // a copy of the GCC Runtime Library Exception along with this program;
  22:/Applications/ArmGNUToolchain/14.2.rel1/arm-none-eabi/arm-none-eabi/include/c++/14.2.1/bits/stl_algobase.h **** // see the files COPYING3 and COPYING.RUNTIME respectively.  If not, see
  23:/Applications/ArmGNUToolchain/14.2.rel1/arm-none-eabi/arm-none-eabi/include/c++/14.2.1/bits/stl_algobase.h **** // <http://www.gnu.org/licenses/>.
  24:/Applications/ArmGNUToolchain/14.2.rel1/arm-none-eabi/arm-none-eabi/include/c++/14.2.1/bits/stl_algobase.h **** 
  25:/Applications/ArmGNUToolchain/14.2.rel1/arm-none-eabi/arm-none-eabi/include/c++/14.2.1/bits/stl_algobase.h **** /*
  26:/Applications/ArmGNUToolchain/14.2.rel1/arm-none-eabi/arm-none-eabi/include/c++/14.2.1/bits/stl_algobase.h ****  *
  27:/Applications/ArmGNUToolchain/14.2.rel1/arm-none-eabi/arm-none-eabi/include/c++/14.2.1/bits/stl_algobase.h ****  * Copyright (c) 1994
  28:/Applications/ArmGNUToolchain/14.2.rel1/arm-none-eabi/arm-none-eabi/include/c++/14.2.1/bits/stl_algobase.h ****  * Hewlett-Packard Company
  29:/Applications/ArmGNUToolchain/14.2.rel1/arm-none-eabi/arm-none-eabi/include/c++/14.2.1/bits/stl_algobase.h ****  *
  30:/Applications/ArmGNUToolchain/14.2.rel1/arm-none-eabi/arm-none-eabi/include/c++/14.2.1/bits/stl_algobase.h ****  * Permission to use, copy, modify, distribute and sell this software
  31:/Applications/ArmGNUToolchain/14.2.rel1/arm-none-eabi/arm-none-eabi/include/c++/14.2.1/bits/stl_algobase.h ****  * and its documentation for any purpose is hereby granted without fee,
  32:/Applications/ArmGNUToolchain/14.2.rel1/arm-none-eabi/arm-none-eabi/include/c++/14.2.1/bits/stl_algobase.h ****  * provided that the above copyright notice appear in all copies and
  33:/Applications/ArmGNUToolchain/14.2.rel1/arm-none-eabi/arm-none-eabi/include/c++/14.2.1/bits/stl_algobase.h ****  * that both that copyright notice and this permission notice appear
  34:/Applications/ArmGNUToolchain/14.2.rel1/arm-none-eabi/arm-none-eabi/include/c++/14.2.1/bits/stl_algobase.h ****  * in supporting documentation.  Hewlett-Packard Company makes no
  35:/Applications/ArmGNUToolchain/14.2.rel1/arm-none-eabi/arm-none-eabi/include/c++/14.2.1/bits/stl_algobase.h ****  * representations about the suitability of this software for any
  36:/Applications/ArmGNUToolchain/14.2.rel1/arm-none-eabi/arm-none-eabi/include/c++/14.2.1/bits/stl_algobase.h ****  * purpose.  It is provided "as is" without express or implied warranty.
  37:/Applications/ArmGNUToolchain/14.2.rel1/arm-none-eabi/arm-none-eabi/include/c++/14.2.1/bits/stl_algobase.h ****  *
  38:/Applications/ArmGNUToolchain/14.2.rel1/arm-none-eabi/arm-none-eabi/include/c++/14.2.1/bits/stl_algobase.h ****  *
  39:/Applications/ArmGNUToolchain/14.2.rel1/arm-none-eabi/arm-none-eabi/include/c++/14.2.1/bits/stl_algobase.h ****  * Copyright (c) 1996-1998
  40:/Applications/ArmGNUToolchain/14.2.rel1/arm-none-eabi/arm-none-eabi/include/c++/14.2.1/bits/stl_algobase.h ****  * Silicon Graphics Computer Systems, Inc.
  41:/Applications/ArmGNUToolchain/14.2.rel1/arm-none-eabi/arm-none-eabi/include/c++/14.2.1/bits/stl_algobase.h ****  *
  42:/Applications/ArmGNUToolchain/14.2.rel1/arm-none-eabi/arm-none-eabi/include/c++/14.2.1/bits/stl_algobase.h ****  * Permission to use, copy, modify, distribute and sell this software
  43:/Applications/ArmGNUToolchain/14.2.rel1/arm-none-eabi/arm-none-eabi/include/c++/14.2.1/bits/stl_algobase.h ****  * and its documentation for any purpose is hereby granted without fee,
  44:/Applications/ArmGNUToolchain/14.2.rel1/arm-none-eabi/arm-none-eabi/include/c++/14.2.1/bits/stl_algobase.h ****  * provided that the above copyright notice appear in all copies and
  45:/Applications/ArmGNUToolchain/14.2.rel1/arm-none-eabi/arm-none-eabi/include/c++/14.2.1/bits/stl_algobase.h ****  * that both that copyright notice and this permission notice appear
  46:/Applications/ArmGNUToolchain/14.2.rel1/arm-none-eabi/arm-none-eabi/include/c++/14.2.1/bits/stl_algobase.h ****  * in supporting documentation.  Silicon Graphics makes no
  47:/Applications/ArmGNUToolchain/14.2.rel1/arm-none-eabi/arm-none-eabi/include/c++/14.2.1/bits/stl_algobase.h ****  * representations about the suitability of this software for any
  48:/Applications/ArmGNUToolchain/14.2.rel1/arm-none-eabi/arm-none-eabi/include/c++/14.2.1/bits/stl_algobase.h ****  * purpose.  It is provided "as is" without express or implied warranty.
  49:/Applications/ArmGNUToolchain/14.2.rel1/arm-none-eabi/arm-none-eabi/include/c++/14.2.1/bits/stl_algobase.h ****  */
  50:/Applications/ArmGNUToolchain/14.2.rel1/arm-none-eabi/arm-none-eabi/include/c++/14.2.1/bits/stl_algobase.h **** 
  51:/Applications/ArmGNUToolchain/14.2.rel1/arm-none-eabi/arm-none-eabi/include/c++/14.2.1/bits/stl_algobase.h **** /** @file bits/stl_algobase.h
  52:/Applications/ArmGNUToolchain/14.2.rel1/arm-none-eabi/arm-none-eabi/include/c++/14.2.1/bits/stl_algobase.h ****  *  This is an internal header file, included by other library headers.
  53:/Applications/ArmGNUToolchain/14.2.rel1/arm-none-eabi/arm-none-eabi/include/c++/14.2.1/bits/stl_algobase.h ****  *  Do not attempt to use it directly. @headername{algorithm}
  54:/Applications/ArmGNUToolchain/14.2.rel1/arm-none-eabi/arm-none-eabi/include/c++/14.2.1/bits/stl_algobase.h ****  */
  55:/Applications/ArmGNUToolchain/14.2.rel1/arm-none-eabi/arm-none-eabi/include/c++/14.2.1/bits/stl_algobase.h **** 
  56:/Applications/ArmGNUToolchain/14.2.rel1/arm-none-eabi/arm-none-eabi/include/c++/14.2.1/bits/stl_algobase.h **** #ifndef _STL_ALGOBASE_H
  57:/Applications/ArmGNUToolchain/14.2.rel1/arm-none-eabi/arm-none-eabi/include/c++/14.2.1/bits/stl_algobase.h **** #define _STL_ALGOBASE_H 1
  58:/Applications/ArmGNUToolchain/14.2.rel1/arm-none-eabi/arm-none-eabi/include/c++/14.2.1/bits/stl_algobase.h **** 
  59:/Applications/ArmGNUToolchain/14.2.rel1/arm-none-eabi/arm-none-eabi/include/c++/14.2.1/bits/stl_algobase.h **** #include <bits/c++config.h>
  60:/Applications/ArmGNUToolchain/14.2.rel1/arm-none-eabi/arm-none-eabi/include/c++/14.2.1/bits/stl_algobase.h **** #include <bits/functexcept.h>
ARM GAS  /var/folders/y7/g6pkzsp12sx54x3s3mvyn15r0000gn/T//cc9jJkGr.s 			page 14


  61:/Applications/ArmGNUToolchain/14.2.rel1/arm-none-eabi/arm-none-eabi/include/c++/14.2.1/bits/stl_algobase.h **** #include <bits/cpp_type_traits.h>
  62:/Applications/ArmGNUToolchain/14.2.rel1/arm-none-eabi/arm-none-eabi/include/c++/14.2.1/bits/stl_algobase.h **** #include <ext/type_traits.h>
  63:/Applications/ArmGNUToolchain/14.2.rel1/arm-none-eabi/arm-none-eabi/include/c++/14.2.1/bits/stl_algobase.h **** #include <ext/numeric_traits.h>
  64:/Applications/ArmGNUToolchain/14.2.rel1/arm-none-eabi/arm-none-eabi/include/c++/14.2.1/bits/stl_algobase.h **** #include <bits/stl_pair.h>
  65:/Applications/ArmGNUToolchain/14.2.rel1/arm-none-eabi/arm-none-eabi/include/c++/14.2.1/bits/stl_algobase.h **** #include <bits/stl_iterator_base_types.h>
  66:/Applications/ArmGNUToolchain/14.2.rel1/arm-none-eabi/arm-none-eabi/include/c++/14.2.1/bits/stl_algobase.h **** #include <bits/stl_iterator_base_funcs.h>
  67:/Applications/ArmGNUToolchain/14.2.rel1/arm-none-eabi/arm-none-eabi/include/c++/14.2.1/bits/stl_algobase.h **** #include <bits/stl_iterator.h>
  68:/Applications/ArmGNUToolchain/14.2.rel1/arm-none-eabi/arm-none-eabi/include/c++/14.2.1/bits/stl_algobase.h **** #include <bits/concept_check.h>
  69:/Applications/ArmGNUToolchain/14.2.rel1/arm-none-eabi/arm-none-eabi/include/c++/14.2.1/bits/stl_algobase.h **** #include <debug/debug.h>
  70:/Applications/ArmGNUToolchain/14.2.rel1/arm-none-eabi/arm-none-eabi/include/c++/14.2.1/bits/stl_algobase.h **** #include <bits/move.h> // For std::swap
  71:/Applications/ArmGNUToolchain/14.2.rel1/arm-none-eabi/arm-none-eabi/include/c++/14.2.1/bits/stl_algobase.h **** #include <bits/predefined_ops.h>
  72:/Applications/ArmGNUToolchain/14.2.rel1/arm-none-eabi/arm-none-eabi/include/c++/14.2.1/bits/stl_algobase.h **** #if __cplusplus >= 201103L
  73:/Applications/ArmGNUToolchain/14.2.rel1/arm-none-eabi/arm-none-eabi/include/c++/14.2.1/bits/stl_algobase.h **** # include <type_traits>
  74:/Applications/ArmGNUToolchain/14.2.rel1/arm-none-eabi/arm-none-eabi/include/c++/14.2.1/bits/stl_algobase.h **** #endif
  75:/Applications/ArmGNUToolchain/14.2.rel1/arm-none-eabi/arm-none-eabi/include/c++/14.2.1/bits/stl_algobase.h **** #if __cplusplus >= 201402L
  76:/Applications/ArmGNUToolchain/14.2.rel1/arm-none-eabi/arm-none-eabi/include/c++/14.2.1/bits/stl_algobase.h **** # include <bit> // std::__bit_width
  77:/Applications/ArmGNUToolchain/14.2.rel1/arm-none-eabi/arm-none-eabi/include/c++/14.2.1/bits/stl_algobase.h **** #endif
  78:/Applications/ArmGNUToolchain/14.2.rel1/arm-none-eabi/arm-none-eabi/include/c++/14.2.1/bits/stl_algobase.h **** #if __cplusplus >= 202002L
  79:/Applications/ArmGNUToolchain/14.2.rel1/arm-none-eabi/arm-none-eabi/include/c++/14.2.1/bits/stl_algobase.h **** # include <compare>
  80:/Applications/ArmGNUToolchain/14.2.rel1/arm-none-eabi/arm-none-eabi/include/c++/14.2.1/bits/stl_algobase.h **** #endif
  81:/Applications/ArmGNUToolchain/14.2.rel1/arm-none-eabi/arm-none-eabi/include/c++/14.2.1/bits/stl_algobase.h **** 
  82:/Applications/ArmGNUToolchain/14.2.rel1/arm-none-eabi/arm-none-eabi/include/c++/14.2.1/bits/stl_algobase.h **** namespace std _GLIBCXX_VISIBILITY(default)
  83:/Applications/ArmGNUToolchain/14.2.rel1/arm-none-eabi/arm-none-eabi/include/c++/14.2.1/bits/stl_algobase.h **** {
  84:/Applications/ArmGNUToolchain/14.2.rel1/arm-none-eabi/arm-none-eabi/include/c++/14.2.1/bits/stl_algobase.h **** _GLIBCXX_BEGIN_NAMESPACE_VERSION
  85:/Applications/ArmGNUToolchain/14.2.rel1/arm-none-eabi/arm-none-eabi/include/c++/14.2.1/bits/stl_algobase.h **** 
  86:/Applications/ArmGNUToolchain/14.2.rel1/arm-none-eabi/arm-none-eabi/include/c++/14.2.1/bits/stl_algobase.h ****   /*
  87:/Applications/ArmGNUToolchain/14.2.rel1/arm-none-eabi/arm-none-eabi/include/c++/14.2.1/bits/stl_algobase.h ****    * A constexpr wrapper for __builtin_memcmp.
  88:/Applications/ArmGNUToolchain/14.2.rel1/arm-none-eabi/arm-none-eabi/include/c++/14.2.1/bits/stl_algobase.h ****    * @param __num The number of elements of type _Tp (not bytes).
  89:/Applications/ArmGNUToolchain/14.2.rel1/arm-none-eabi/arm-none-eabi/include/c++/14.2.1/bits/stl_algobase.h ****    */
  90:/Applications/ArmGNUToolchain/14.2.rel1/arm-none-eabi/arm-none-eabi/include/c++/14.2.1/bits/stl_algobase.h ****   template<typename _Tp, typename _Up>
  91:/Applications/ArmGNUToolchain/14.2.rel1/arm-none-eabi/arm-none-eabi/include/c++/14.2.1/bits/stl_algobase.h ****     _GLIBCXX14_CONSTEXPR
  92:/Applications/ArmGNUToolchain/14.2.rel1/arm-none-eabi/arm-none-eabi/include/c++/14.2.1/bits/stl_algobase.h ****     inline int
  93:/Applications/ArmGNUToolchain/14.2.rel1/arm-none-eabi/arm-none-eabi/include/c++/14.2.1/bits/stl_algobase.h ****     __memcmp(const _Tp* __first1, const _Up* __first2, size_t __num)
  94:/Applications/ArmGNUToolchain/14.2.rel1/arm-none-eabi/arm-none-eabi/include/c++/14.2.1/bits/stl_algobase.h ****     {
  95:/Applications/ArmGNUToolchain/14.2.rel1/arm-none-eabi/arm-none-eabi/include/c++/14.2.1/bits/stl_algobase.h **** #if __cplusplus >= 201103L
  96:/Applications/ArmGNUToolchain/14.2.rel1/arm-none-eabi/arm-none-eabi/include/c++/14.2.1/bits/stl_algobase.h ****       static_assert(sizeof(_Tp) == sizeof(_Up), "can be compared with memcmp");
  97:/Applications/ArmGNUToolchain/14.2.rel1/arm-none-eabi/arm-none-eabi/include/c++/14.2.1/bits/stl_algobase.h **** #endif
  98:/Applications/ArmGNUToolchain/14.2.rel1/arm-none-eabi/arm-none-eabi/include/c++/14.2.1/bits/stl_algobase.h **** #ifdef __cpp_lib_is_constant_evaluated
  99:/Applications/ArmGNUToolchain/14.2.rel1/arm-none-eabi/arm-none-eabi/include/c++/14.2.1/bits/stl_algobase.h ****       if (std::is_constant_evaluated())
 100:/Applications/ArmGNUToolchain/14.2.rel1/arm-none-eabi/arm-none-eabi/include/c++/14.2.1/bits/stl_algobase.h **** 	{
 101:/Applications/ArmGNUToolchain/14.2.rel1/arm-none-eabi/arm-none-eabi/include/c++/14.2.1/bits/stl_algobase.h **** 	  for(; __num > 0; ++__first1, ++__first2, --__num)
 102:/Applications/ArmGNUToolchain/14.2.rel1/arm-none-eabi/arm-none-eabi/include/c++/14.2.1/bits/stl_algobase.h **** 	    if (*__first1 != *__first2)
 103:/Applications/ArmGNUToolchain/14.2.rel1/arm-none-eabi/arm-none-eabi/include/c++/14.2.1/bits/stl_algobase.h **** 	      return *__first1 < *__first2 ? -1 : 1;
 104:/Applications/ArmGNUToolchain/14.2.rel1/arm-none-eabi/arm-none-eabi/include/c++/14.2.1/bits/stl_algobase.h **** 	  return 0;
 105:/Applications/ArmGNUToolchain/14.2.rel1/arm-none-eabi/arm-none-eabi/include/c++/14.2.1/bits/stl_algobase.h **** 	}
 106:/Applications/ArmGNUToolchain/14.2.rel1/arm-none-eabi/arm-none-eabi/include/c++/14.2.1/bits/stl_algobase.h ****       else
 107:/Applications/ArmGNUToolchain/14.2.rel1/arm-none-eabi/arm-none-eabi/include/c++/14.2.1/bits/stl_algobase.h **** #endif
 108:/Applications/ArmGNUToolchain/14.2.rel1/arm-none-eabi/arm-none-eabi/include/c++/14.2.1/bits/stl_algobase.h **** 	return __builtin_memcmp(__first1, __first2, sizeof(_Tp) * __num);
 109:/Applications/ArmGNUToolchain/14.2.rel1/arm-none-eabi/arm-none-eabi/include/c++/14.2.1/bits/stl_algobase.h ****     }
 110:/Applications/ArmGNUToolchain/14.2.rel1/arm-none-eabi/arm-none-eabi/include/c++/14.2.1/bits/stl_algobase.h **** 
 111:/Applications/ArmGNUToolchain/14.2.rel1/arm-none-eabi/arm-none-eabi/include/c++/14.2.1/bits/stl_algobase.h **** #if __cplusplus < 201103L
 112:/Applications/ArmGNUToolchain/14.2.rel1/arm-none-eabi/arm-none-eabi/include/c++/14.2.1/bits/stl_algobase.h ****   // See http://gcc.gnu.org/ml/libstdc++/2004-08/msg00167.html: in a
 113:/Applications/ArmGNUToolchain/14.2.rel1/arm-none-eabi/arm-none-eabi/include/c++/14.2.1/bits/stl_algobase.h ****   // nutshell, we are partially implementing the resolution of DR 187,
 114:/Applications/ArmGNUToolchain/14.2.rel1/arm-none-eabi/arm-none-eabi/include/c++/14.2.1/bits/stl_algobase.h ****   // when it's safe, i.e., the value_types are equal.
 115:/Applications/ArmGNUToolchain/14.2.rel1/arm-none-eabi/arm-none-eabi/include/c++/14.2.1/bits/stl_algobase.h ****   template<bool _BoolType>
 116:/Applications/ArmGNUToolchain/14.2.rel1/arm-none-eabi/arm-none-eabi/include/c++/14.2.1/bits/stl_algobase.h ****     struct __iter_swap
 117:/Applications/ArmGNUToolchain/14.2.rel1/arm-none-eabi/arm-none-eabi/include/c++/14.2.1/bits/stl_algobase.h ****     {
ARM GAS  /var/folders/y7/g6pkzsp12sx54x3s3mvyn15r0000gn/T//cc9jJkGr.s 			page 15


 118:/Applications/ArmGNUToolchain/14.2.rel1/arm-none-eabi/arm-none-eabi/include/c++/14.2.1/bits/stl_algobase.h ****       template<typename _ForwardIterator1, typename _ForwardIterator2>
 119:/Applications/ArmGNUToolchain/14.2.rel1/arm-none-eabi/arm-none-eabi/include/c++/14.2.1/bits/stl_algobase.h **** 	static void
 120:/Applications/ArmGNUToolchain/14.2.rel1/arm-none-eabi/arm-none-eabi/include/c++/14.2.1/bits/stl_algobase.h **** 	iter_swap(_ForwardIterator1 __a, _ForwardIterator2 __b)
 121:/Applications/ArmGNUToolchain/14.2.rel1/arm-none-eabi/arm-none-eabi/include/c++/14.2.1/bits/stl_algobase.h **** 	{
 122:/Applications/ArmGNUToolchain/14.2.rel1/arm-none-eabi/arm-none-eabi/include/c++/14.2.1/bits/stl_algobase.h **** 	  typedef typename iterator_traits<_ForwardIterator1>::value_type
 123:/Applications/ArmGNUToolchain/14.2.rel1/arm-none-eabi/arm-none-eabi/include/c++/14.2.1/bits/stl_algobase.h **** 	    _ValueType1;
 124:/Applications/ArmGNUToolchain/14.2.rel1/arm-none-eabi/arm-none-eabi/include/c++/14.2.1/bits/stl_algobase.h **** 	  _ValueType1 __tmp = *__a;
 125:/Applications/ArmGNUToolchain/14.2.rel1/arm-none-eabi/arm-none-eabi/include/c++/14.2.1/bits/stl_algobase.h **** 	  *__a = *__b;
 126:/Applications/ArmGNUToolchain/14.2.rel1/arm-none-eabi/arm-none-eabi/include/c++/14.2.1/bits/stl_algobase.h **** 	  *__b = __tmp;
 127:/Applications/ArmGNUToolchain/14.2.rel1/arm-none-eabi/arm-none-eabi/include/c++/14.2.1/bits/stl_algobase.h **** 	}
 128:/Applications/ArmGNUToolchain/14.2.rel1/arm-none-eabi/arm-none-eabi/include/c++/14.2.1/bits/stl_algobase.h ****     };
 129:/Applications/ArmGNUToolchain/14.2.rel1/arm-none-eabi/arm-none-eabi/include/c++/14.2.1/bits/stl_algobase.h **** 
 130:/Applications/ArmGNUToolchain/14.2.rel1/arm-none-eabi/arm-none-eabi/include/c++/14.2.1/bits/stl_algobase.h ****   template<>
 131:/Applications/ArmGNUToolchain/14.2.rel1/arm-none-eabi/arm-none-eabi/include/c++/14.2.1/bits/stl_algobase.h ****     struct __iter_swap<true>
 132:/Applications/ArmGNUToolchain/14.2.rel1/arm-none-eabi/arm-none-eabi/include/c++/14.2.1/bits/stl_algobase.h ****     {
 133:/Applications/ArmGNUToolchain/14.2.rel1/arm-none-eabi/arm-none-eabi/include/c++/14.2.1/bits/stl_algobase.h ****       template<typename _ForwardIterator1, typename _ForwardIterator2>
 134:/Applications/ArmGNUToolchain/14.2.rel1/arm-none-eabi/arm-none-eabi/include/c++/14.2.1/bits/stl_algobase.h **** 	static void
 135:/Applications/ArmGNUToolchain/14.2.rel1/arm-none-eabi/arm-none-eabi/include/c++/14.2.1/bits/stl_algobase.h **** 	iter_swap(_ForwardIterator1 __a, _ForwardIterator2 __b)
 136:/Applications/ArmGNUToolchain/14.2.rel1/arm-none-eabi/arm-none-eabi/include/c++/14.2.1/bits/stl_algobase.h **** 	{
 137:/Applications/ArmGNUToolchain/14.2.rel1/arm-none-eabi/arm-none-eabi/include/c++/14.2.1/bits/stl_algobase.h **** 	  swap(*__a, *__b);
 138:/Applications/ArmGNUToolchain/14.2.rel1/arm-none-eabi/arm-none-eabi/include/c++/14.2.1/bits/stl_algobase.h **** 	}
 139:/Applications/ArmGNUToolchain/14.2.rel1/arm-none-eabi/arm-none-eabi/include/c++/14.2.1/bits/stl_algobase.h ****     };
 140:/Applications/ArmGNUToolchain/14.2.rel1/arm-none-eabi/arm-none-eabi/include/c++/14.2.1/bits/stl_algobase.h **** #endif // C++03
 141:/Applications/ArmGNUToolchain/14.2.rel1/arm-none-eabi/arm-none-eabi/include/c++/14.2.1/bits/stl_algobase.h **** 
 142:/Applications/ArmGNUToolchain/14.2.rel1/arm-none-eabi/arm-none-eabi/include/c++/14.2.1/bits/stl_algobase.h ****   /**
 143:/Applications/ArmGNUToolchain/14.2.rel1/arm-none-eabi/arm-none-eabi/include/c++/14.2.1/bits/stl_algobase.h ****    *  @brief Swaps the contents of two iterators.
 144:/Applications/ArmGNUToolchain/14.2.rel1/arm-none-eabi/arm-none-eabi/include/c++/14.2.1/bits/stl_algobase.h ****    *  @ingroup mutating_algorithms
 145:/Applications/ArmGNUToolchain/14.2.rel1/arm-none-eabi/arm-none-eabi/include/c++/14.2.1/bits/stl_algobase.h ****    *  @param  __a  An iterator.
 146:/Applications/ArmGNUToolchain/14.2.rel1/arm-none-eabi/arm-none-eabi/include/c++/14.2.1/bits/stl_algobase.h ****    *  @param  __b  Another iterator.
 147:/Applications/ArmGNUToolchain/14.2.rel1/arm-none-eabi/arm-none-eabi/include/c++/14.2.1/bits/stl_algobase.h ****    *  @return   Nothing.
 148:/Applications/ArmGNUToolchain/14.2.rel1/arm-none-eabi/arm-none-eabi/include/c++/14.2.1/bits/stl_algobase.h ****    *
 149:/Applications/ArmGNUToolchain/14.2.rel1/arm-none-eabi/arm-none-eabi/include/c++/14.2.1/bits/stl_algobase.h ****    *  This function swaps the values pointed to by two iterators, not the
 150:/Applications/ArmGNUToolchain/14.2.rel1/arm-none-eabi/arm-none-eabi/include/c++/14.2.1/bits/stl_algobase.h ****    *  iterators themselves.
 151:/Applications/ArmGNUToolchain/14.2.rel1/arm-none-eabi/arm-none-eabi/include/c++/14.2.1/bits/stl_algobase.h ****   */
 152:/Applications/ArmGNUToolchain/14.2.rel1/arm-none-eabi/arm-none-eabi/include/c++/14.2.1/bits/stl_algobase.h ****   template<typename _ForwardIterator1, typename _ForwardIterator2>
 153:/Applications/ArmGNUToolchain/14.2.rel1/arm-none-eabi/arm-none-eabi/include/c++/14.2.1/bits/stl_algobase.h ****     _GLIBCXX20_CONSTEXPR
 154:/Applications/ArmGNUToolchain/14.2.rel1/arm-none-eabi/arm-none-eabi/include/c++/14.2.1/bits/stl_algobase.h ****     inline void
 155:/Applications/ArmGNUToolchain/14.2.rel1/arm-none-eabi/arm-none-eabi/include/c++/14.2.1/bits/stl_algobase.h ****     iter_swap(_ForwardIterator1 __a, _ForwardIterator2 __b)
 156:/Applications/ArmGNUToolchain/14.2.rel1/arm-none-eabi/arm-none-eabi/include/c++/14.2.1/bits/stl_algobase.h ****     {
 157:/Applications/ArmGNUToolchain/14.2.rel1/arm-none-eabi/arm-none-eabi/include/c++/14.2.1/bits/stl_algobase.h ****       // concept requirements
 158:/Applications/ArmGNUToolchain/14.2.rel1/arm-none-eabi/arm-none-eabi/include/c++/14.2.1/bits/stl_algobase.h ****       __glibcxx_function_requires(_Mutable_ForwardIteratorConcept<
 159:/Applications/ArmGNUToolchain/14.2.rel1/arm-none-eabi/arm-none-eabi/include/c++/14.2.1/bits/stl_algobase.h **** 				  _ForwardIterator1>)
 160:/Applications/ArmGNUToolchain/14.2.rel1/arm-none-eabi/arm-none-eabi/include/c++/14.2.1/bits/stl_algobase.h ****       __glibcxx_function_requires(_Mutable_ForwardIteratorConcept<
 161:/Applications/ArmGNUToolchain/14.2.rel1/arm-none-eabi/arm-none-eabi/include/c++/14.2.1/bits/stl_algobase.h **** 				  _ForwardIterator2>)
 162:/Applications/ArmGNUToolchain/14.2.rel1/arm-none-eabi/arm-none-eabi/include/c++/14.2.1/bits/stl_algobase.h **** 
 163:/Applications/ArmGNUToolchain/14.2.rel1/arm-none-eabi/arm-none-eabi/include/c++/14.2.1/bits/stl_algobase.h **** #if __cplusplus < 201103L
 164:/Applications/ArmGNUToolchain/14.2.rel1/arm-none-eabi/arm-none-eabi/include/c++/14.2.1/bits/stl_algobase.h ****       typedef typename iterator_traits<_ForwardIterator1>::value_type
 165:/Applications/ArmGNUToolchain/14.2.rel1/arm-none-eabi/arm-none-eabi/include/c++/14.2.1/bits/stl_algobase.h **** 	_ValueType1;
 166:/Applications/ArmGNUToolchain/14.2.rel1/arm-none-eabi/arm-none-eabi/include/c++/14.2.1/bits/stl_algobase.h ****       typedef typename iterator_traits<_ForwardIterator2>::value_type
 167:/Applications/ArmGNUToolchain/14.2.rel1/arm-none-eabi/arm-none-eabi/include/c++/14.2.1/bits/stl_algobase.h **** 	_ValueType2;
 168:/Applications/ArmGNUToolchain/14.2.rel1/arm-none-eabi/arm-none-eabi/include/c++/14.2.1/bits/stl_algobase.h **** 
 169:/Applications/ArmGNUToolchain/14.2.rel1/arm-none-eabi/arm-none-eabi/include/c++/14.2.1/bits/stl_algobase.h ****       __glibcxx_function_requires(_ConvertibleConcept<_ValueType1,
 170:/Applications/ArmGNUToolchain/14.2.rel1/arm-none-eabi/arm-none-eabi/include/c++/14.2.1/bits/stl_algobase.h **** 				  _ValueType2>)
 171:/Applications/ArmGNUToolchain/14.2.rel1/arm-none-eabi/arm-none-eabi/include/c++/14.2.1/bits/stl_algobase.h ****       __glibcxx_function_requires(_ConvertibleConcept<_ValueType2,
 172:/Applications/ArmGNUToolchain/14.2.rel1/arm-none-eabi/arm-none-eabi/include/c++/14.2.1/bits/stl_algobase.h **** 				  _ValueType1>)
 173:/Applications/ArmGNUToolchain/14.2.rel1/arm-none-eabi/arm-none-eabi/include/c++/14.2.1/bits/stl_algobase.h **** 
 174:/Applications/ArmGNUToolchain/14.2.rel1/arm-none-eabi/arm-none-eabi/include/c++/14.2.1/bits/stl_algobase.h ****       typedef typename iterator_traits<_ForwardIterator1>::reference
ARM GAS  /var/folders/y7/g6pkzsp12sx54x3s3mvyn15r0000gn/T//cc9jJkGr.s 			page 16


 175:/Applications/ArmGNUToolchain/14.2.rel1/arm-none-eabi/arm-none-eabi/include/c++/14.2.1/bits/stl_algobase.h **** 	_ReferenceType1;
 176:/Applications/ArmGNUToolchain/14.2.rel1/arm-none-eabi/arm-none-eabi/include/c++/14.2.1/bits/stl_algobase.h ****       typedef typename iterator_traits<_ForwardIterator2>::reference
 177:/Applications/ArmGNUToolchain/14.2.rel1/arm-none-eabi/arm-none-eabi/include/c++/14.2.1/bits/stl_algobase.h **** 	_ReferenceType2;
 178:/Applications/ArmGNUToolchain/14.2.rel1/arm-none-eabi/arm-none-eabi/include/c++/14.2.1/bits/stl_algobase.h ****       std::__iter_swap<__are_same<_ValueType1, _ValueType2>::__value
 179:/Applications/ArmGNUToolchain/14.2.rel1/arm-none-eabi/arm-none-eabi/include/c++/14.2.1/bits/stl_algobase.h **** 	&& __are_same<_ValueType1&, _ReferenceType1>::__value
 180:/Applications/ArmGNUToolchain/14.2.rel1/arm-none-eabi/arm-none-eabi/include/c++/14.2.1/bits/stl_algobase.h **** 	&& __are_same<_ValueType2&, _ReferenceType2>::__value>::
 181:/Applications/ArmGNUToolchain/14.2.rel1/arm-none-eabi/arm-none-eabi/include/c++/14.2.1/bits/stl_algobase.h **** 	iter_swap(__a, __b);
 182:/Applications/ArmGNUToolchain/14.2.rel1/arm-none-eabi/arm-none-eabi/include/c++/14.2.1/bits/stl_algobase.h **** #else
 183:/Applications/ArmGNUToolchain/14.2.rel1/arm-none-eabi/arm-none-eabi/include/c++/14.2.1/bits/stl_algobase.h ****       // _GLIBCXX_RESOLVE_LIB_DEFECTS
 184:/Applications/ArmGNUToolchain/14.2.rel1/arm-none-eabi/arm-none-eabi/include/c++/14.2.1/bits/stl_algobase.h ****       // 187. iter_swap underspecified
 185:/Applications/ArmGNUToolchain/14.2.rel1/arm-none-eabi/arm-none-eabi/include/c++/14.2.1/bits/stl_algobase.h ****       swap(*__a, *__b);
 186:/Applications/ArmGNUToolchain/14.2.rel1/arm-none-eabi/arm-none-eabi/include/c++/14.2.1/bits/stl_algobase.h **** #endif
 187:/Applications/ArmGNUToolchain/14.2.rel1/arm-none-eabi/arm-none-eabi/include/c++/14.2.1/bits/stl_algobase.h ****     }
 188:/Applications/ArmGNUToolchain/14.2.rel1/arm-none-eabi/arm-none-eabi/include/c++/14.2.1/bits/stl_algobase.h **** 
 189:/Applications/ArmGNUToolchain/14.2.rel1/arm-none-eabi/arm-none-eabi/include/c++/14.2.1/bits/stl_algobase.h ****   /**
 190:/Applications/ArmGNUToolchain/14.2.rel1/arm-none-eabi/arm-none-eabi/include/c++/14.2.1/bits/stl_algobase.h ****    *  @brief Swap the elements of two sequences.
 191:/Applications/ArmGNUToolchain/14.2.rel1/arm-none-eabi/arm-none-eabi/include/c++/14.2.1/bits/stl_algobase.h ****    *  @ingroup mutating_algorithms
 192:/Applications/ArmGNUToolchain/14.2.rel1/arm-none-eabi/arm-none-eabi/include/c++/14.2.1/bits/stl_algobase.h ****    *  @param  __first1  A forward iterator.
 193:/Applications/ArmGNUToolchain/14.2.rel1/arm-none-eabi/arm-none-eabi/include/c++/14.2.1/bits/stl_algobase.h ****    *  @param  __last1   A forward iterator.
 194:/Applications/ArmGNUToolchain/14.2.rel1/arm-none-eabi/arm-none-eabi/include/c++/14.2.1/bits/stl_algobase.h ****    *  @param  __first2  A forward iterator.
 195:/Applications/ArmGNUToolchain/14.2.rel1/arm-none-eabi/arm-none-eabi/include/c++/14.2.1/bits/stl_algobase.h ****    *  @return   An iterator equal to @p first2+(last1-first1).
 196:/Applications/ArmGNUToolchain/14.2.rel1/arm-none-eabi/arm-none-eabi/include/c++/14.2.1/bits/stl_algobase.h ****    *
 197:/Applications/ArmGNUToolchain/14.2.rel1/arm-none-eabi/arm-none-eabi/include/c++/14.2.1/bits/stl_algobase.h ****    *  Swaps each element in the range @p [first1,last1) with the
 198:/Applications/ArmGNUToolchain/14.2.rel1/arm-none-eabi/arm-none-eabi/include/c++/14.2.1/bits/stl_algobase.h ****    *  corresponding element in the range @p [first2,(last1-first1)).
 199:/Applications/ArmGNUToolchain/14.2.rel1/arm-none-eabi/arm-none-eabi/include/c++/14.2.1/bits/stl_algobase.h ****    *  The ranges must not overlap.
 200:/Applications/ArmGNUToolchain/14.2.rel1/arm-none-eabi/arm-none-eabi/include/c++/14.2.1/bits/stl_algobase.h ****   */
 201:/Applications/ArmGNUToolchain/14.2.rel1/arm-none-eabi/arm-none-eabi/include/c++/14.2.1/bits/stl_algobase.h ****   template<typename _ForwardIterator1, typename _ForwardIterator2>
 202:/Applications/ArmGNUToolchain/14.2.rel1/arm-none-eabi/arm-none-eabi/include/c++/14.2.1/bits/stl_algobase.h ****     _GLIBCXX20_CONSTEXPR
 203:/Applications/ArmGNUToolchain/14.2.rel1/arm-none-eabi/arm-none-eabi/include/c++/14.2.1/bits/stl_algobase.h ****     _ForwardIterator2
 204:/Applications/ArmGNUToolchain/14.2.rel1/arm-none-eabi/arm-none-eabi/include/c++/14.2.1/bits/stl_algobase.h ****     swap_ranges(_ForwardIterator1 __first1, _ForwardIterator1 __last1,
 205:/Applications/ArmGNUToolchain/14.2.rel1/arm-none-eabi/arm-none-eabi/include/c++/14.2.1/bits/stl_algobase.h **** 		_ForwardIterator2 __first2)
 206:/Applications/ArmGNUToolchain/14.2.rel1/arm-none-eabi/arm-none-eabi/include/c++/14.2.1/bits/stl_algobase.h ****     {
 207:/Applications/ArmGNUToolchain/14.2.rel1/arm-none-eabi/arm-none-eabi/include/c++/14.2.1/bits/stl_algobase.h ****       // concept requirements
 208:/Applications/ArmGNUToolchain/14.2.rel1/arm-none-eabi/arm-none-eabi/include/c++/14.2.1/bits/stl_algobase.h ****       __glibcxx_function_requires(_Mutable_ForwardIteratorConcept<
 209:/Applications/ArmGNUToolchain/14.2.rel1/arm-none-eabi/arm-none-eabi/include/c++/14.2.1/bits/stl_algobase.h **** 				  _ForwardIterator1>)
 210:/Applications/ArmGNUToolchain/14.2.rel1/arm-none-eabi/arm-none-eabi/include/c++/14.2.1/bits/stl_algobase.h ****       __glibcxx_function_requires(_Mutable_ForwardIteratorConcept<
 211:/Applications/ArmGNUToolchain/14.2.rel1/arm-none-eabi/arm-none-eabi/include/c++/14.2.1/bits/stl_algobase.h **** 				  _ForwardIterator2>)
 212:/Applications/ArmGNUToolchain/14.2.rel1/arm-none-eabi/arm-none-eabi/include/c++/14.2.1/bits/stl_algobase.h ****       __glibcxx_requires_valid_range(__first1, __last1);
 213:/Applications/ArmGNUToolchain/14.2.rel1/arm-none-eabi/arm-none-eabi/include/c++/14.2.1/bits/stl_algobase.h **** 
 214:/Applications/ArmGNUToolchain/14.2.rel1/arm-none-eabi/arm-none-eabi/include/c++/14.2.1/bits/stl_algobase.h ****       for (; __first1 != __last1; ++__first1, (void)++__first2)
 215:/Applications/ArmGNUToolchain/14.2.rel1/arm-none-eabi/arm-none-eabi/include/c++/14.2.1/bits/stl_algobase.h **** 	std::iter_swap(__first1, __first2);
 216:/Applications/ArmGNUToolchain/14.2.rel1/arm-none-eabi/arm-none-eabi/include/c++/14.2.1/bits/stl_algobase.h ****       return __first2;
 217:/Applications/ArmGNUToolchain/14.2.rel1/arm-none-eabi/arm-none-eabi/include/c++/14.2.1/bits/stl_algobase.h ****     }
 218:/Applications/ArmGNUToolchain/14.2.rel1/arm-none-eabi/arm-none-eabi/include/c++/14.2.1/bits/stl_algobase.h **** 
 219:/Applications/ArmGNUToolchain/14.2.rel1/arm-none-eabi/arm-none-eabi/include/c++/14.2.1/bits/stl_algobase.h ****   /**
 220:/Applications/ArmGNUToolchain/14.2.rel1/arm-none-eabi/arm-none-eabi/include/c++/14.2.1/bits/stl_algobase.h ****    *  @brief This does what you think it does.
 221:/Applications/ArmGNUToolchain/14.2.rel1/arm-none-eabi/arm-none-eabi/include/c++/14.2.1/bits/stl_algobase.h ****    *  @ingroup sorting_algorithms
 222:/Applications/ArmGNUToolchain/14.2.rel1/arm-none-eabi/arm-none-eabi/include/c++/14.2.1/bits/stl_algobase.h ****    *  @param  __a  A thing of arbitrary type.
 223:/Applications/ArmGNUToolchain/14.2.rel1/arm-none-eabi/arm-none-eabi/include/c++/14.2.1/bits/stl_algobase.h ****    *  @param  __b  Another thing of arbitrary type.
 224:/Applications/ArmGNUToolchain/14.2.rel1/arm-none-eabi/arm-none-eabi/include/c++/14.2.1/bits/stl_algobase.h ****    *  @return   The lesser of the parameters.
 225:/Applications/ArmGNUToolchain/14.2.rel1/arm-none-eabi/arm-none-eabi/include/c++/14.2.1/bits/stl_algobase.h ****    *
 226:/Applications/ArmGNUToolchain/14.2.rel1/arm-none-eabi/arm-none-eabi/include/c++/14.2.1/bits/stl_algobase.h ****    *  This is the simple classic generic implementation.  It will work on
 227:/Applications/ArmGNUToolchain/14.2.rel1/arm-none-eabi/arm-none-eabi/include/c++/14.2.1/bits/stl_algobase.h ****    *  temporary expressions, since they are only evaluated once, unlike a
 228:/Applications/ArmGNUToolchain/14.2.rel1/arm-none-eabi/arm-none-eabi/include/c++/14.2.1/bits/stl_algobase.h ****    *  preprocessor macro.
 229:/Applications/ArmGNUToolchain/14.2.rel1/arm-none-eabi/arm-none-eabi/include/c++/14.2.1/bits/stl_algobase.h ****   */
 230:/Applications/ArmGNUToolchain/14.2.rel1/arm-none-eabi/arm-none-eabi/include/c++/14.2.1/bits/stl_algobase.h ****   template<typename _Tp>
 231:/Applications/ArmGNUToolchain/14.2.rel1/arm-none-eabi/arm-none-eabi/include/c++/14.2.1/bits/stl_algobase.h ****     _GLIBCXX_NODISCARD _GLIBCXX14_CONSTEXPR
ARM GAS  /var/folders/y7/g6pkzsp12sx54x3s3mvyn15r0000gn/T//cc9jJkGr.s 			page 17


 232:/Applications/ArmGNUToolchain/14.2.rel1/arm-none-eabi/arm-none-eabi/include/c++/14.2.1/bits/stl_algobase.h ****     inline const _Tp&
 233:/Applications/ArmGNUToolchain/14.2.rel1/arm-none-eabi/arm-none-eabi/include/c++/14.2.1/bits/stl_algobase.h ****     min(const _Tp& __a, const _Tp& __b)
 261              		.loc 4 233 5 view .LVU72
 262              	.LBB146:
 234:/Applications/ArmGNUToolchain/14.2.rel1/arm-none-eabi/arm-none-eabi/include/c++/14.2.1/bits/stl_algobase.h ****     {
 235:/Applications/ArmGNUToolchain/14.2.rel1/arm-none-eabi/arm-none-eabi/include/c++/14.2.1/bits/stl_algobase.h ****       // concept requirements
 236:/Applications/ArmGNUToolchain/14.2.rel1/arm-none-eabi/arm-none-eabi/include/c++/14.2.1/bits/stl_algobase.h ****       __glibcxx_function_requires(_LessThanComparableConcept<_Tp>)
 237:/Applications/ArmGNUToolchain/14.2.rel1/arm-none-eabi/arm-none-eabi/include/c++/14.2.1/bits/stl_algobase.h ****       //return __b < __a ? __b : __a;
 238:/Applications/ArmGNUToolchain/14.2.rel1/arm-none-eabi/arm-none-eabi/include/c++/14.2.1/bits/stl_algobase.h ****       if (__b < __a)
 263              		.loc 4 238 15 is_stmt 0 view .LVU73
 264 0012 046A     		ldr	r4, [r0, #32]
 265              	.LVL14:
 266              		.loc 4 238 15 view .LVU74
 267 0014 F6EE006A 		vmov.f32	s13, #5.0e-1
 268              	.LBE146:
 269              	.LBE145:
 270              		.loc 1 108 19 discriminator 1 view .LVU75
 271 0018 9442     		cmp	r4, r2
 272 001a 94BF     		ite	ls
 273 001c 241B     		subls	r4, r4, r4
 274 001e A41A     		subhi	r4, r4, r2
 275 0020 0462     		str	r4, [r0, #32]
 109:../eurorack/plaits/dsp/speech/naive_speech_synth.cc ****   
 110:../eurorack/plaits/dsp/speech/naive_speech_synth.cc ****   if (click_duration_) {
 276              		.loc 1 110 3 is_stmt 1 view .LVU76
 277 0022 0CB1     		cbz	r4, .L11
 111:../eurorack/plaits/dsp/speech/naive_speech_synth.cc ****     frequency *= 0.5f;
 278              		.loc 1 111 5 view .LVU77
 279              		.loc 1 111 15 is_stmt 0 view .LVU78
 280 0024 27EE267A 		vmul.f32	s14, s14, s13
 281              	.L11:
 282              	.LVL15:
 112:../eurorack/plaits/dsp/speech/naive_speech_synth.cc ****   }
 113:../eurorack/plaits/dsp/speech/naive_speech_synth.cc ****   
 114:../eurorack/plaits/dsp/speech/naive_speech_synth.cc ****   // Generate excitation signal (glottal pulse).
 115:../eurorack/plaits/dsp/speech/naive_speech_synth.cc ****   pulse_.Render<OSCILLATOR_SHAPE_IMPULSE_TRAIN>(
 283              		.loc 1 115 3 is_stmt 1 view .LVU79
 284              	.LBB147:
 285              	.LBI147:
  67:../eurorack/plaits/dsp/oscillator/oscillator.h ****   }
  68:../eurorack/plaits/dsp/oscillator/oscillator.h **** 
  69:../eurorack/plaits/dsp/oscillator/oscillator.h ****   template<OscillatorShape shape>
  70:../eurorack/plaits/dsp/oscillator/oscillator.h ****   void Render(float frequency, float pw, float* out, size_t size) {
 286              		.loc 3 70 8 view .LVU80
 287              	.LBB148:
 288              	.LBI148:
  71:../eurorack/plaits/dsp/oscillator/oscillator.h ****     Render<shape, false, false>(frequency, pw, NULL, out, size);
  72:../eurorack/plaits/dsp/oscillator/oscillator.h ****   }
  73:../eurorack/plaits/dsp/oscillator/oscillator.h ****   
  74:../eurorack/plaits/dsp/oscillator/oscillator.h ****   template<OscillatorShape shape>
  75:../eurorack/plaits/dsp/oscillator/oscillator.h ****   void Render(
  76:../eurorack/plaits/dsp/oscillator/oscillator.h ****       float frequency,
  77:../eurorack/plaits/dsp/oscillator/oscillator.h ****       float pw,
  78:../eurorack/plaits/dsp/oscillator/oscillator.h ****       const float* fm,
  79:../eurorack/plaits/dsp/oscillator/oscillator.h ****       float* out,
  80:../eurorack/plaits/dsp/oscillator/oscillator.h ****       size_t size) {
  81:../eurorack/plaits/dsp/oscillator/oscillator.h ****     if (!fm) {
ARM GAS  /var/folders/y7/g6pkzsp12sx54x3s3mvyn15r0000gn/T//cc9jJkGr.s 			page 18


  82:../eurorack/plaits/dsp/oscillator/oscillator.h ****       Render<shape, false, false>(frequency, pw, NULL, out, size);
  83:../eurorack/plaits/dsp/oscillator/oscillator.h ****     } else {
  84:../eurorack/plaits/dsp/oscillator/oscillator.h ****       Render<shape, true, true>(frequency, pw, fm, out, size);
  85:../eurorack/plaits/dsp/oscillator/oscillator.h ****     }
  86:../eurorack/plaits/dsp/oscillator/oscillator.h ****   }
  87:../eurorack/plaits/dsp/oscillator/oscillator.h **** 
  88:../eurorack/plaits/dsp/oscillator/oscillator.h ****   template<OscillatorShape shape, bool has_external_fm, bool through_zero_fm>
  89:../eurorack/plaits/dsp/oscillator/oscillator.h ****   void Render(
 289              		.loc 3 89 8 view .LVU81
 290              	.LBB149:
  90:../eurorack/plaits/dsp/oscillator/oscillator.h ****       float frequency,
  91:../eurorack/plaits/dsp/oscillator/oscillator.h ****       float pw,
  92:../eurorack/plaits/dsp/oscillator/oscillator.h ****       const float* external_fm,
  93:../eurorack/plaits/dsp/oscillator/oscillator.h ****       float* out,
  94:../eurorack/plaits/dsp/oscillator/oscillator.h ****       size_t size) {
  95:../eurorack/plaits/dsp/oscillator/oscillator.h ****     
  96:../eurorack/plaits/dsp/oscillator/oscillator.h ****     if (!has_external_fm) {
  97:../eurorack/plaits/dsp/oscillator/oscillator.h ****       if (!through_zero_fm) {
  98:../eurorack/plaits/dsp/oscillator/oscillator.h ****         CONSTRAIN(frequency, kMinFrequency, kMaxFrequency);
 291              		.loc 3 98 9 is_stmt 0 view .LVU82
 292 0028 9FEDC90A 		vldr.32	s0, .L41
 293 002c B4EEC07A 		vcmpe.f32	s14, s0
 294 0030 F1EE10FA 		vmrs	APSR_nzcv, FPSCR
 295 0034 07D4     		bmi	.L12
 296 0036 F5EE007A 		vmov.f32	s15, #2.5e-1
 297 003a B4EEE77A 		vcmpe.f32	s14, s15
 298 003e F1EE10FA 		vmrs	APSR_nzcv, FPSCR
 299 0042 37FE870A 		vselgt.f32	s0, s15, s14
 300              	.L12:
 301              	.LVL16:
 302              	.LBB150:
 303              	.LBI150:
 304              		.file 5 "../eurorack/stmlib/dsp/parameter_interpolator.h"
   1:../eurorack/stmlib/dsp/parameter_interpolator.h **** // Copyright 2015 Emilie Gillet.
   2:../eurorack/stmlib/dsp/parameter_interpolator.h **** //
   3:../eurorack/stmlib/dsp/parameter_interpolator.h **** // Author: Emilie Gillet (emilie.o.gillet@gmail.com)
   4:../eurorack/stmlib/dsp/parameter_interpolator.h **** //
   5:../eurorack/stmlib/dsp/parameter_interpolator.h **** // Permission is hereby granted, free of charge, to any person obtaining a copy
   6:../eurorack/stmlib/dsp/parameter_interpolator.h **** // of this software and associated documentation files (the "Software"), to deal
   7:../eurorack/stmlib/dsp/parameter_interpolator.h **** // in the Software without restriction, including without limitation the rights
   8:../eurorack/stmlib/dsp/parameter_interpolator.h **** // to use, copy, modify, merge, publish, distribute, sublicense, and/or sell
   9:../eurorack/stmlib/dsp/parameter_interpolator.h **** // copies of the Software, and to permit persons to whom the Software is
  10:../eurorack/stmlib/dsp/parameter_interpolator.h **** // furnished to do so, subject to the following conditions:
  11:../eurorack/stmlib/dsp/parameter_interpolator.h **** // 
  12:../eurorack/stmlib/dsp/parameter_interpolator.h **** // The above copyright notice and this permission notice shall be included in
  13:../eurorack/stmlib/dsp/parameter_interpolator.h **** // all copies or substantial portions of the Software.
  14:../eurorack/stmlib/dsp/parameter_interpolator.h **** // 
  15:../eurorack/stmlib/dsp/parameter_interpolator.h **** // THE SOFTWARE IS PROVIDED "AS IS", WITHOUT WARRANTY OF ANY KIND, EXPRESS OR
  16:../eurorack/stmlib/dsp/parameter_interpolator.h **** // IMPLIED, INCLUDING BUT NOT LIMITED TO THE WARRANTIES OF MERCHANTABILITY,
  17:../eurorack/stmlib/dsp/parameter_interpolator.h **** // FITNESS FOR A PARTICULAR PURPOSE AND NONINFRINGEMENT. IN NO EVENT SHALL THE
  18:../eurorack/stmlib/dsp/parameter_interpolator.h **** // AUTHORS OR COPYRIGHT HOLDERS BE LIABLE FOR ANY CLAIM, DAMAGES OR OTHER
  19:../eurorack/stmlib/dsp/parameter_interpolator.h **** // LIABILITY, WHETHER IN AN ACTION OF CONTRACT, TORT OR OTHERWISE, ARISING FROM,
  20:../eurorack/stmlib/dsp/parameter_interpolator.h **** // OUT OF OR IN CONNECTION WITH THE SOFTWARE OR THE USE OR OTHER DEALINGS IN
  21:../eurorack/stmlib/dsp/parameter_interpolator.h **** // THE SOFTWARE.
  22:../eurorack/stmlib/dsp/parameter_interpolator.h **** // 
  23:../eurorack/stmlib/dsp/parameter_interpolator.h **** // See http://creativecommons.org/licenses/MIT/ for more information.
  24:../eurorack/stmlib/dsp/parameter_interpolator.h **** //
ARM GAS  /var/folders/y7/g6pkzsp12sx54x3s3mvyn15r0000gn/T//cc9jJkGr.s 			page 19


  25:../eurorack/stmlib/dsp/parameter_interpolator.h **** // -----------------------------------------------------------------------------
  26:../eurorack/stmlib/dsp/parameter_interpolator.h **** //
  27:../eurorack/stmlib/dsp/parameter_interpolator.h **** // Linear interpolation of parameters in rendering loops.
  28:../eurorack/stmlib/dsp/parameter_interpolator.h **** 
  29:../eurorack/stmlib/dsp/parameter_interpolator.h **** #ifndef STMLIB_DSP_PARAMETER_INTERPOLATOR_H_
  30:../eurorack/stmlib/dsp/parameter_interpolator.h **** #define STMLIB_DSP_PARAMETER_INTERPOLATOR_H_
  31:../eurorack/stmlib/dsp/parameter_interpolator.h **** 
  32:../eurorack/stmlib/dsp/parameter_interpolator.h **** #include "stmlib/stmlib.h"
  33:../eurorack/stmlib/dsp/parameter_interpolator.h **** 
  34:../eurorack/stmlib/dsp/parameter_interpolator.h **** namespace stmlib {
  35:../eurorack/stmlib/dsp/parameter_interpolator.h **** 
  36:../eurorack/stmlib/dsp/parameter_interpolator.h **** class ParameterInterpolator {
  37:../eurorack/stmlib/dsp/parameter_interpolator.h ****  public:
  38:../eurorack/stmlib/dsp/parameter_interpolator.h ****   ParameterInterpolator() { }
  39:../eurorack/stmlib/dsp/parameter_interpolator.h ****   ParameterInterpolator(float* state, float new_value, size_t size) {
 305              		.loc 5 39 3 is_stmt 1 view .LVU83
 306              	.LBB151:
 307              	.LBI151:
  40:../eurorack/stmlib/dsp/parameter_interpolator.h ****     Init(state, new_value, size);
  41:../eurorack/stmlib/dsp/parameter_interpolator.h ****   }
  42:../eurorack/stmlib/dsp/parameter_interpolator.h **** 
  43:../eurorack/stmlib/dsp/parameter_interpolator.h ****   ParameterInterpolator(float* state, float new_value, float step) {
  44:../eurorack/stmlib/dsp/parameter_interpolator.h ****     state_ = state;
  45:../eurorack/stmlib/dsp/parameter_interpolator.h ****     value_ = *state;
  46:../eurorack/stmlib/dsp/parameter_interpolator.h ****     increment_ = (new_value - *state) * step;
  47:../eurorack/stmlib/dsp/parameter_interpolator.h ****   }
  48:../eurorack/stmlib/dsp/parameter_interpolator.h **** 
  49:../eurorack/stmlib/dsp/parameter_interpolator.h ****   ~ParameterInterpolator() {
  50:../eurorack/stmlib/dsp/parameter_interpolator.h ****     *state_ = value_;
  51:../eurorack/stmlib/dsp/parameter_interpolator.h ****   }
  52:../eurorack/stmlib/dsp/parameter_interpolator.h ****   
  53:../eurorack/stmlib/dsp/parameter_interpolator.h ****   inline void Init(float* state, float new_value, size_t size) {
 308              		.loc 5 53 15 view .LVU84
 309              	.LBB152:
  54:../eurorack/stmlib/dsp/parameter_interpolator.h ****     state_ = state;
 310              		.loc 5 54 5 view .LVU85
  55:../eurorack/stmlib/dsp/parameter_interpolator.h ****     value_ = *state;
 311              		.loc 5 55 5 view .LVU86
 312              		.loc 5 55 14 is_stmt 0 view .LVU87
 313 0046 90ED056A 		vldr.32	s12, [r0, #20]
 314              	.LVL17:
  56:../eurorack/stmlib/dsp/parameter_interpolator.h ****     increment_ = (new_value - *state) / static_cast<float>(size);
 315              		.loc 5 56 5 is_stmt 1 view .LVU88
 316              		.loc 5 56 41 is_stmt 0 view .LVU89
 317 004a 07EE902A 		vmov	s15, r2	@ int
 318              	.LBE152:
 319              	.LBE151:
 320              	.LBE150:
 321              	.LBB159:
 322              	.LBB160:
 323              	.LBB161:
  55:../eurorack/stmlib/dsp/parameter_interpolator.h ****     value_ = *state;
 324              		.loc 5 55 14 view .LVU90
 325 004e 90ED064A 		vldr.32	s8, [r0, #24]
 326              	.LBE161:
 327              	.LBE160:
 328              	.LBE159:
ARM GAS  /var/folders/y7/g6pkzsp12sx54x3s3mvyn15r0000gn/T//cc9jJkGr.s 			page 20


  99:../eurorack/plaits/dsp/oscillator/oscillator.h ****       } else {
 100:../eurorack/plaits/dsp/oscillator/oscillator.h ****         CONSTRAIN(frequency, -kMaxFrequency, kMaxFrequency);
 101:../eurorack/plaits/dsp/oscillator/oscillator.h ****       }
 102:../eurorack/plaits/dsp/oscillator/oscillator.h ****       CONSTRAIN(pw, fabsf(frequency) * 2.0f, 1.0f - 2.0f * fabsf(frequency))
 103:../eurorack/plaits/dsp/oscillator/oscillator.h ****     }
 104:../eurorack/plaits/dsp/oscillator/oscillator.h ****     
 105:../eurorack/plaits/dsp/oscillator/oscillator.h ****     stmlib::ParameterInterpolator fm(&frequency_, frequency, size);
 106:../eurorack/plaits/dsp/oscillator/oscillator.h ****     stmlib::ParameterInterpolator pwm(&pw_, pw, size);
 107:../eurorack/plaits/dsp/oscillator/oscillator.h ****   
 108:../eurorack/plaits/dsp/oscillator/oscillator.h ****     float next_sample = next_sample_;
 109:../eurorack/plaits/dsp/oscillator/oscillator.h ****   
 110:../eurorack/plaits/dsp/oscillator/oscillator.h ****     while (size--) {
 329              		.loc 3 110 5 view .LVU91
 330 0052 1146     		mov	r1, r2
 331              	.LBB166:
 332              	.LBB156:
 333              	.LBB153:
 334              		.loc 5 56 41 view .LVU92
 335 0054 F8EE677A 		vcvt.f32.u32	s15, s15
 336              	.LBE153:
 337              	.LBE156:
 338              	.LBE166:
 108:../eurorack/plaits/dsp/oscillator/oscillator.h ****   
 339              		.loc 3 108 11 view .LVU93
 340 0058 D0ED015A 		vldr.32	s11, [r0, #4]
 341              	.LBB167:
 342              	.LBB157:
 343              	.LBB154:
 344              		.loc 5 56 29 view .LVU94
 345 005c 30EE460A 		vsub.f32	s0, s0, s12
 346              	.LVL18:
 347              		.loc 5 56 29 view .LVU95
 348              	.LBE154:
 349              	.LBE157:
 350              	.LBE167:
 351              		.loc 3 110 5 view .LVU96
 352 0060 1E46     		mov	r6, r3
 353              	.LBB168:
 354              	.LBB164:
 355              	.LBB162:
 356              		.loc 5 56 29 view .LVU97
 357 0062 36EEC47A 		vsub.f32	s14, s13, s8
 358              	.LVL19:
 359              		.loc 5 56 29 view .LVU98
 360              	.LBE162:
 361              	.LBE164:
 362              	.LBE168:
 363              	.LBB169:
 364              	.LBB158:
 365              	.LBB155:
 366              		.loc 5 56 39 view .LVU99
 367 0066 C0EE273A 		vdiv.f32	s7, s0, s15
 368              	.LVL20:
 369              		.loc 5 56 39 view .LVU100
 370              	.LBE155:
 371              	.LBE158:
 372              	.LBE169:
ARM GAS  /var/folders/y7/g6pkzsp12sx54x3s3mvyn15r0000gn/T//cc9jJkGr.s 			page 21


 373              	.LBB170:
 374              	.LBI159:
  39:../eurorack/stmlib/dsp/parameter_interpolator.h ****     Init(state, new_value, size);
 375              		.loc 5 39 3 is_stmt 1 view .LVU101
 376              	.LBB165:
 377              	.LBI160:
  53:../eurorack/stmlib/dsp/parameter_interpolator.h ****     state_ = state;
 378              		.loc 5 53 15 view .LVU102
 379              	.LBB163:
  54:../eurorack/stmlib/dsp/parameter_interpolator.h ****     value_ = *state;
 380              		.loc 5 54 5 view .LVU103
  55:../eurorack/stmlib/dsp/parameter_interpolator.h ****     increment_ = (new_value - *state) / static_cast<float>(size);
 381              		.loc 5 55 5 view .LVU104
 382              		.loc 5 56 5 view .LVU105
 383              		.loc 5 56 39 is_stmt 0 view .LVU106
 384 006a 87EE273A 		vdiv.f32	s6, s14, s15
 385              	.LVL21:
 386              	.L13:
 387              		.loc 5 56 39 view .LVU107
 388              	.LBE163:
 389              	.LBE165:
 390              	.LBE170:
 391              		.loc 3 110 5 is_stmt 1 view .LVU108
 392 006e 0139     		subs	r1, r1, #1
 393              	.LVL22:
 394              		.loc 3 110 5 is_stmt 0 view .LVU109
 395 0070 80F0E780 		bcs	.L16
 396              	.LBB171:
 397              	.LBB172:
  50:../eurorack/stmlib/dsp/parameter_interpolator.h ****   }
 398              		.loc 5 50 13 view .LVU110
 399 0074 80ED056A 		vstr.32	s12, [r0, #20]
 400              	.LBE172:
 401              	.LBE171:
 402              	.LBE149:
 403              	.LBE148:
 404              	.LBE147:
 405              	.LBB200:
 406              	.LBB201:
 227:../eurorack/stmlib/dsp/filter.h ****   }
 228:../eurorack/stmlib/dsp/filter.h ****   
 229:../eurorack/stmlib/dsp/filter.h ****   template<FilterMode mode>
 230:../eurorack/stmlib/dsp/filter.h ****   inline float Process(float in) {
 231:../eurorack/stmlib/dsp/filter.h ****     float hp, bp, lp;
 232:../eurorack/stmlib/dsp/filter.h ****     hp = (in - r_ * state_1_ - g_ * state_1_ - state_2_) * h_;
 233:../eurorack/stmlib/dsp/filter.h ****     bp = g_ * hp + state_1_;
 234:../eurorack/stmlib/dsp/filter.h ****     state_1_ = g_ * hp + bp;
 235:../eurorack/stmlib/dsp/filter.h ****     lp = g_ * bp + state_2_;
 236:../eurorack/stmlib/dsp/filter.h ****     state_2_ = g_ * bp + lp;
 237:../eurorack/stmlib/dsp/filter.h ****     
 238:../eurorack/stmlib/dsp/filter.h ****     if (mode == FILTER_MODE_LOW_PASS) {
 239:../eurorack/stmlib/dsp/filter.h ****       return lp;
 240:../eurorack/stmlib/dsp/filter.h ****     } else if (mode == FILTER_MODE_BAND_PASS) {
 241:../eurorack/stmlib/dsp/filter.h ****       return bp;
 242:../eurorack/stmlib/dsp/filter.h ****     } else if (mode == FILTER_MODE_BAND_PASS_NORMALIZED) {
 243:../eurorack/stmlib/dsp/filter.h ****       return bp * r_;
 244:../eurorack/stmlib/dsp/filter.h ****     } else if (mode == FILTER_MODE_HIGH_PASS) {
ARM GAS  /var/folders/y7/g6pkzsp12sx54x3s3mvyn15r0000gn/T//cc9jJkGr.s 			page 22


 245:../eurorack/stmlib/dsp/filter.h ****       return hp;
 246:../eurorack/stmlib/dsp/filter.h ****     }
 247:../eurorack/stmlib/dsp/filter.h ****   }
 248:../eurorack/stmlib/dsp/filter.h ****   
 249:../eurorack/stmlib/dsp/filter.h ****   template<FilterMode mode_1, FilterMode mode_2>
 250:../eurorack/stmlib/dsp/filter.h ****   inline void Process(float in, float* out_1, float* out_2) {
 251:../eurorack/stmlib/dsp/filter.h ****     float hp, bp, lp;
 252:../eurorack/stmlib/dsp/filter.h ****     hp = (in - r_ * state_1_ - g_ * state_1_ - state_2_) * h_;
 253:../eurorack/stmlib/dsp/filter.h ****     bp = g_ * hp + state_1_;
 254:../eurorack/stmlib/dsp/filter.h ****     state_1_ = g_ * hp + bp;
 255:../eurorack/stmlib/dsp/filter.h ****     lp = g_ * bp + state_2_;
 256:../eurorack/stmlib/dsp/filter.h ****     state_2_ = g_ * bp + lp;
 257:../eurorack/stmlib/dsp/filter.h ****     
 258:../eurorack/stmlib/dsp/filter.h ****     if (mode_1 == FILTER_MODE_LOW_PASS) {
 259:../eurorack/stmlib/dsp/filter.h ****       *out_1 = lp;
 260:../eurorack/stmlib/dsp/filter.h ****     } else if (mode_1 == FILTER_MODE_BAND_PASS) {
 261:../eurorack/stmlib/dsp/filter.h ****       *out_1 = bp;
 262:../eurorack/stmlib/dsp/filter.h ****     } else if (mode_1 == FILTER_MODE_BAND_PASS_NORMALIZED) {
 263:../eurorack/stmlib/dsp/filter.h ****       *out_1 = bp * r_;
 264:../eurorack/stmlib/dsp/filter.h ****     } else if (mode_1 == FILTER_MODE_HIGH_PASS) {
 265:../eurorack/stmlib/dsp/filter.h ****       *out_1 = hp;
 266:../eurorack/stmlib/dsp/filter.h ****     }
 267:../eurorack/stmlib/dsp/filter.h **** 
 268:../eurorack/stmlib/dsp/filter.h ****     if (mode_2 == FILTER_MODE_LOW_PASS) {
 269:../eurorack/stmlib/dsp/filter.h ****       *out_2 = lp;
 270:../eurorack/stmlib/dsp/filter.h ****     } else if (mode_2 == FILTER_MODE_BAND_PASS) {
 271:../eurorack/stmlib/dsp/filter.h ****       *out_2 = bp;
 272:../eurorack/stmlib/dsp/filter.h ****     } else if (mode_2 == FILTER_MODE_BAND_PASS_NORMALIZED) {
 273:../eurorack/stmlib/dsp/filter.h ****       *out_2 = bp * r_;
 274:../eurorack/stmlib/dsp/filter.h ****     } else if (mode_2 == FILTER_MODE_HIGH_PASS) {
 275:../eurorack/stmlib/dsp/filter.h ****       *out_2 = hp;
 276:../eurorack/stmlib/dsp/filter.h ****     }
 277:../eurorack/stmlib/dsp/filter.h ****   }
 278:../eurorack/stmlib/dsp/filter.h ****   
 279:../eurorack/stmlib/dsp/filter.h ****   template<FilterMode mode>
 280:../eurorack/stmlib/dsp/filter.h ****   inline void Process(const float* in, float* out, size_t size) {
 281:../eurorack/stmlib/dsp/filter.h ****     float hp, bp, lp;
 282:../eurorack/stmlib/dsp/filter.h ****     float state_1 = state_1_;
 283:../eurorack/stmlib/dsp/filter.h ****     float state_2 = state_2_;
 284:../eurorack/stmlib/dsp/filter.h ****     
 285:../eurorack/stmlib/dsp/filter.h ****     while (size--) {
 407              		.loc 2 285 5 view .LVU111
 408 0078 1146     		mov	r1, r2
 409              	.LVL23:
 282:../eurorack/stmlib/dsp/filter.h ****     float state_2 = state_2_;
 410              		.loc 2 282 11 view .LVU112
 411 007a 90ED256A 		vldr.32	s12, [r0, #148]
 412              	.LVL24:
 413              		.loc 2 285 5 view .LVU113
 414 007e 1E46     		mov	r6, r3
 415              	.LVL25:
 283:../eurorack/stmlib/dsp/filter.h ****     
 416              		.loc 2 283 11 view .LVU114
 417 0080 90ED267A 		vldr.32	s14, [r0, #152]
 418              	.LBE201:
 419              	.LBE200:
 420              	.LBB205:
ARM GAS  /var/folders/y7/g6pkzsp12sx54x3s3mvyn15r0000gn/T//cc9jJkGr.s 			page 23


 421              	.LBB198:
 422              	.LBB196:
 111:../eurorack/plaits/dsp/oscillator/oscillator.h ****       float this_sample = next_sample;
 112:../eurorack/plaits/dsp/oscillator/oscillator.h ****       next_sample = 0.0f;
 113:../eurorack/plaits/dsp/oscillator/oscillator.h **** 
 114:../eurorack/plaits/dsp/oscillator/oscillator.h ****       float frequency = fm.Next();
 115:../eurorack/plaits/dsp/oscillator/oscillator.h ****       if (has_external_fm) {
 116:../eurorack/plaits/dsp/oscillator/oscillator.h ****         frequency *= (1.0f + *external_fm++);
 117:../eurorack/plaits/dsp/oscillator/oscillator.h ****         if (!through_zero_fm) {
 118:../eurorack/plaits/dsp/oscillator/oscillator.h ****           CONSTRAIN(frequency, kMinFrequency, kMaxFrequency);
 119:../eurorack/plaits/dsp/oscillator/oscillator.h ****         } else {
 120:../eurorack/plaits/dsp/oscillator/oscillator.h ****           CONSTRAIN(frequency, -kMaxFrequency, kMaxFrequency);
 121:../eurorack/plaits/dsp/oscillator/oscillator.h ****         }
 122:../eurorack/plaits/dsp/oscillator/oscillator.h ****       }
 123:../eurorack/plaits/dsp/oscillator/oscillator.h ****       float pw = (shape == OSCILLATOR_SHAPE_SQUARE_TRIANGLE ||
 124:../eurorack/plaits/dsp/oscillator/oscillator.h ****                   shape == OSCILLATOR_SHAPE_TRIANGLE) ? 0.5f : pwm.Next();
 125:../eurorack/plaits/dsp/oscillator/oscillator.h ****       if (has_external_fm) {
 126:../eurorack/plaits/dsp/oscillator/oscillator.h ****         CONSTRAIN(pw, fabsf(frequency) * 2.0f, 1.0f - 2.0f * fabsf(frequency))
 127:../eurorack/plaits/dsp/oscillator/oscillator.h ****       }
 128:../eurorack/plaits/dsp/oscillator/oscillator.h ****       phase_ += frequency;
 129:../eurorack/plaits/dsp/oscillator/oscillator.h ****       
 130:../eurorack/plaits/dsp/oscillator/oscillator.h ****       if (shape <= OSCILLATOR_SHAPE_SAW) {
 131:../eurorack/plaits/dsp/oscillator/oscillator.h ****         if (phase_ >= 1.0f) {
 132:../eurorack/plaits/dsp/oscillator/oscillator.h ****           phase_ -= 1.0f;
 133:../eurorack/plaits/dsp/oscillator/oscillator.h ****           float t = phase_ / frequency;
 134:../eurorack/plaits/dsp/oscillator/oscillator.h ****           this_sample -= stmlib::ThisBlepSample(t);
 135:../eurorack/plaits/dsp/oscillator/oscillator.h ****           next_sample -= stmlib::NextBlepSample(t);
 136:../eurorack/plaits/dsp/oscillator/oscillator.h ****         } else if (through_zero_fm && phase_ < 0.0f) {
 137:../eurorack/plaits/dsp/oscillator/oscillator.h ****           float t = phase_ / frequency;
 138:../eurorack/plaits/dsp/oscillator/oscillator.h ****           phase_ += 1.0f;
 139:../eurorack/plaits/dsp/oscillator/oscillator.h ****           this_sample += stmlib::ThisBlepSample(t);
 140:../eurorack/plaits/dsp/oscillator/oscillator.h ****           next_sample += stmlib::NextBlepSample(t);
 141:../eurorack/plaits/dsp/oscillator/oscillator.h ****         }
 142:../eurorack/plaits/dsp/oscillator/oscillator.h ****         next_sample += phase_;
 143:../eurorack/plaits/dsp/oscillator/oscillator.h **** 
 144:../eurorack/plaits/dsp/oscillator/oscillator.h ****         if (shape == OSCILLATOR_SHAPE_SAW) {
 145:../eurorack/plaits/dsp/oscillator/oscillator.h ****           *out++ = 2.0f * this_sample - 1.0f;
 146:../eurorack/plaits/dsp/oscillator/oscillator.h ****         } else {
 147:../eurorack/plaits/dsp/oscillator/oscillator.h ****           lp_state_ += 0.25f * ((hp_state_ - this_sample) - lp_state_);
 148:../eurorack/plaits/dsp/oscillator/oscillator.h ****           *out++ = 4.0f * lp_state_;
 149:../eurorack/plaits/dsp/oscillator/oscillator.h ****           hp_state_ = this_sample;
 150:../eurorack/plaits/dsp/oscillator/oscillator.h ****         }
 151:../eurorack/plaits/dsp/oscillator/oscillator.h ****       } else if (shape <= OSCILLATOR_SHAPE_SLOPE) {
 152:../eurorack/plaits/dsp/oscillator/oscillator.h ****         float slope_up = 2.0f;
 153:../eurorack/plaits/dsp/oscillator/oscillator.h ****         float slope_down = 2.0f;
 154:../eurorack/plaits/dsp/oscillator/oscillator.h ****         if (shape == OSCILLATOR_SHAPE_SLOPE) {
 155:../eurorack/plaits/dsp/oscillator/oscillator.h ****           slope_up = 1.0f / (pw);
 156:../eurorack/plaits/dsp/oscillator/oscillator.h ****           slope_down = 1.0f / (1.0f - pw);
 157:../eurorack/plaits/dsp/oscillator/oscillator.h ****         }
 158:../eurorack/plaits/dsp/oscillator/oscillator.h ****         if (high_ ^ (phase_ < pw)) {
 159:../eurorack/plaits/dsp/oscillator/oscillator.h ****           float t = (phase_ - pw) / frequency;
 160:../eurorack/plaits/dsp/oscillator/oscillator.h ****           float discontinuity = (slope_up + slope_down) * frequency;
 161:../eurorack/plaits/dsp/oscillator/oscillator.h ****           if (through_zero_fm && frequency < 0.0f) {
 162:../eurorack/plaits/dsp/oscillator/oscillator.h ****             discontinuity = -discontinuity;
 163:../eurorack/plaits/dsp/oscillator/oscillator.h ****           }
 164:../eurorack/plaits/dsp/oscillator/oscillator.h ****           this_sample -= stmlib::ThisIntegratedBlepSample(t) * discontinuity;
 165:../eurorack/plaits/dsp/oscillator/oscillator.h ****           next_sample -= stmlib::NextIntegratedBlepSample(t) * discontinuity;
ARM GAS  /var/folders/y7/g6pkzsp12sx54x3s3mvyn15r0000gn/T//cc9jJkGr.s 			page 24


 166:../eurorack/plaits/dsp/oscillator/oscillator.h ****           high_ = phase_ < pw;
 167:../eurorack/plaits/dsp/oscillator/oscillator.h ****         }
 168:../eurorack/plaits/dsp/oscillator/oscillator.h ****         if (phase_ >= 1.0f) {
 169:../eurorack/plaits/dsp/oscillator/oscillator.h ****           phase_ -= 1.0f;
 170:../eurorack/plaits/dsp/oscillator/oscillator.h ****           float t = phase_ / frequency;
 171:../eurorack/plaits/dsp/oscillator/oscillator.h ****           float discontinuity = (slope_up + slope_down) * frequency;
 172:../eurorack/plaits/dsp/oscillator/oscillator.h ****           this_sample += stmlib::ThisIntegratedBlepSample(t) * discontinuity;
 173:../eurorack/plaits/dsp/oscillator/oscillator.h ****           next_sample += stmlib::NextIntegratedBlepSample(t) * discontinuity;
 174:../eurorack/plaits/dsp/oscillator/oscillator.h ****           high_ = true;
 175:../eurorack/plaits/dsp/oscillator/oscillator.h ****         } else if (through_zero_fm && phase_ < 0.0f) {
 176:../eurorack/plaits/dsp/oscillator/oscillator.h ****           float t = phase_ / frequency;
 177:../eurorack/plaits/dsp/oscillator/oscillator.h ****           phase_ += 1.0f;
 178:../eurorack/plaits/dsp/oscillator/oscillator.h ****           float discontinuity = (slope_up + slope_down) * frequency;
 179:../eurorack/plaits/dsp/oscillator/oscillator.h ****           this_sample -= stmlib::ThisIntegratedBlepSample(t) * discontinuity;
 180:../eurorack/plaits/dsp/oscillator/oscillator.h ****           next_sample -= stmlib::NextIntegratedBlepSample(t) * discontinuity;
 181:../eurorack/plaits/dsp/oscillator/oscillator.h ****           high_ = false;
 182:../eurorack/plaits/dsp/oscillator/oscillator.h ****         }
 183:../eurorack/plaits/dsp/oscillator/oscillator.h ****         next_sample += high_
 184:../eurorack/plaits/dsp/oscillator/oscillator.h ****           ? phase_ * slope_up
 185:../eurorack/plaits/dsp/oscillator/oscillator.h ****           : 1.0f - (phase_ - pw) * slope_down;
 186:../eurorack/plaits/dsp/oscillator/oscillator.h ****         *out++ = 2.0f * this_sample - 1.0f;
 187:../eurorack/plaits/dsp/oscillator/oscillator.h ****       } else {
 188:../eurorack/plaits/dsp/oscillator/oscillator.h ****         if (high_ ^ (phase_ >= pw)) {
 189:../eurorack/plaits/dsp/oscillator/oscillator.h ****           float t = (phase_ - pw) / frequency;
 190:../eurorack/plaits/dsp/oscillator/oscillator.h ****           float discontinuity = 1.0f;
 191:../eurorack/plaits/dsp/oscillator/oscillator.h ****           if (through_zero_fm && frequency < 0.0f) {
 192:../eurorack/plaits/dsp/oscillator/oscillator.h ****             discontinuity = -discontinuity;
 193:../eurorack/plaits/dsp/oscillator/oscillator.h ****           }
 194:../eurorack/plaits/dsp/oscillator/oscillator.h ****           this_sample += stmlib::ThisBlepSample(t) * discontinuity;
 195:../eurorack/plaits/dsp/oscillator/oscillator.h ****           next_sample += stmlib::NextBlepSample(t) * discontinuity;
 196:../eurorack/plaits/dsp/oscillator/oscillator.h ****           high_ = phase_ >= pw;
 197:../eurorack/plaits/dsp/oscillator/oscillator.h ****         }
 198:../eurorack/plaits/dsp/oscillator/oscillator.h ****         if (phase_ >= 1.0f) {
 199:../eurorack/plaits/dsp/oscillator/oscillator.h ****           phase_ -= 1.0f;
 200:../eurorack/plaits/dsp/oscillator/oscillator.h ****           float t = phase_ / frequency;
 201:../eurorack/plaits/dsp/oscillator/oscillator.h ****           this_sample -= stmlib::ThisBlepSample(t);
 202:../eurorack/plaits/dsp/oscillator/oscillator.h ****           next_sample -= stmlib::NextBlepSample(t);
 203:../eurorack/plaits/dsp/oscillator/oscillator.h ****           high_ = false;
 204:../eurorack/plaits/dsp/oscillator/oscillator.h ****         } else if (through_zero_fm && phase_ < 0.0f) {
 205:../eurorack/plaits/dsp/oscillator/oscillator.h ****           float t = phase_ / frequency;
 206:../eurorack/plaits/dsp/oscillator/oscillator.h ****           phase_ += 1.0f;
 207:../eurorack/plaits/dsp/oscillator/oscillator.h ****           this_sample += stmlib::ThisBlepSample(t);
 208:../eurorack/plaits/dsp/oscillator/oscillator.h ****           next_sample += stmlib::NextBlepSample(t);
 209:../eurorack/plaits/dsp/oscillator/oscillator.h ****           high_ = true;
 210:../eurorack/plaits/dsp/oscillator/oscillator.h ****         }
 211:../eurorack/plaits/dsp/oscillator/oscillator.h ****         next_sample += phase_ < pw ? 0.0f : 1.0f;
 212:../eurorack/plaits/dsp/oscillator/oscillator.h ****         
 213:../eurorack/plaits/dsp/oscillator/oscillator.h ****         if (shape == OSCILLATOR_SHAPE_SQUARE_TRIANGLE) {
 214:../eurorack/plaits/dsp/oscillator/oscillator.h ****           const float integrator_coefficient = frequency * 0.0625f;
 215:../eurorack/plaits/dsp/oscillator/oscillator.h ****           this_sample = 128.0f * (this_sample - 0.5f);
 216:../eurorack/plaits/dsp/oscillator/oscillator.h ****           lp_state_ += integrator_coefficient * (this_sample - lp_state_);
 217:../eurorack/plaits/dsp/oscillator/oscillator.h ****           *out++ = lp_state_;
 218:../eurorack/plaits/dsp/oscillator/oscillator.h ****         } else if (shape == OSCILLATOR_SHAPE_SQUARE_DARK) {
 219:../eurorack/plaits/dsp/oscillator/oscillator.h ****           const float integrator_coefficient = frequency * 2.0f;
 220:../eurorack/plaits/dsp/oscillator/oscillator.h ****           this_sample = 4.0f * (this_sample - 0.5f);
 221:../eurorack/plaits/dsp/oscillator/oscillator.h ****           lp_state_ += integrator_coefficient * (this_sample - lp_state_);
 222:../eurorack/plaits/dsp/oscillator/oscillator.h ****           *out++ = lp_state_;
ARM GAS  /var/folders/y7/g6pkzsp12sx54x3s3mvyn15r0000gn/T//cc9jJkGr.s 			page 25


 223:../eurorack/plaits/dsp/oscillator/oscillator.h ****         } else if (shape == OSCILLATOR_SHAPE_SQUARE_BRIGHT) {
 224:../eurorack/plaits/dsp/oscillator/oscillator.h ****           const float integrator_coefficient = frequency * 2.0f;
 225:../eurorack/plaits/dsp/oscillator/oscillator.h ****           this_sample = 2.0f * this_sample - 1.0f;
 226:../eurorack/plaits/dsp/oscillator/oscillator.h ****           lp_state_ += integrator_coefficient * (this_sample - lp_state_);
 227:../eurorack/plaits/dsp/oscillator/oscillator.h ****           *out++ = (this_sample - lp_state_) * 0.5f;
 228:../eurorack/plaits/dsp/oscillator/oscillator.h ****         } else {
 229:../eurorack/plaits/dsp/oscillator/oscillator.h ****           this_sample = 2.0f * this_sample - 1.0f;
 230:../eurorack/plaits/dsp/oscillator/oscillator.h ****           *out++ = this_sample;
 231:../eurorack/plaits/dsp/oscillator/oscillator.h ****         }
 232:../eurorack/plaits/dsp/oscillator/oscillator.h ****       }
 233:../eurorack/plaits/dsp/oscillator/oscillator.h ****     }
 234:../eurorack/plaits/dsp/oscillator/oscillator.h ****     next_sample_ = next_sample;
 423              		.loc 3 234 18 view .LVU115
 424 0084 C0ED015A 		vstr.32	s11, [r0, #4]
 425              	.LVL26:
 426              	.LBB174:
 427              	.LBI174:
  49:../eurorack/stmlib/dsp/parameter_interpolator.h ****     *state_ = value_;
 428              		.loc 5 49 3 is_stmt 1 view .LVU116
 429              	.LBB175:
  50:../eurorack/stmlib/dsp/parameter_interpolator.h ****   }
 430              		.loc 5 50 5 view .LVU117
  50:../eurorack/stmlib/dsp/parameter_interpolator.h ****   }
 431              		.loc 5 50 13 is_stmt 0 view .LVU118
 432 0088 80ED064A 		vstr.32	s8, [r0, #24]
 433              	.LVL27:
  50:../eurorack/stmlib/dsp/parameter_interpolator.h ****   }
 434              		.loc 5 50 13 view .LVU119
 435              	.LBE175:
 436              	.LBE174:
 437              	.LBB176:
 438              	.LBI171:
  49:../eurorack/stmlib/dsp/parameter_interpolator.h ****     *state_ = value_;
 439              		.loc 5 49 3 is_stmt 1 view .LVU120
 440              	.LBB173:
  50:../eurorack/stmlib/dsp/parameter_interpolator.h ****   }
 441              		.loc 5 50 5 view .LVU121
  50:../eurorack/stmlib/dsp/parameter_interpolator.h ****   }
 442              		.loc 5 50 5 is_stmt 0 view .LVU122
 443              	.LBE173:
 444              	.LBE176:
 445              	.LBE196:
 446              	.LBE198:
 447              	.LBE205:
 116:../eurorack/plaits/dsp/speech/naive_speech_synth.cc ****       frequency, 0.5f, excitation, size);
 117:../eurorack/plaits/dsp/speech/naive_speech_synth.cc ****   pulse_coloration_.Process<FILTER_MODE_BAND_PASS>(
 448              		.loc 1 117 3 is_stmt 1 view .LVU123
 449              	.LBB206:
 450              	.LBI200:
 280:../eurorack/stmlib/dsp/filter.h ****     float hp, bp, lp;
 451              		.loc 2 280 15 view .LVU124
 452              	.L17:
 453              	.LBB203:
 454              		.loc 2 285 5 view .LVU125
 455 008c 0139     		subs	r1, r1, #1
 456              	.LVL28:
 457              		.loc 2 285 5 is_stmt 0 view .LVU126
ARM GAS  /var/folders/y7/g6pkzsp12sx54x3s3mvyn15r0000gn/T//cc9jJkGr.s 			page 26


 458 008e 80F01481 		bcs	.L18
 459              		.loc 2 285 5 view .LVU127
 460 0092 9600     		lsls	r6, r2, #2
 461              	.LVL29:
 286:../eurorack/stmlib/dsp/filter.h ****       hp = (*in - r_ * state_1 - g_ * state_1 - state_2) * h_;
 287:../eurorack/stmlib/dsp/filter.h ****       bp = g_ * hp + state_1;
 288:../eurorack/stmlib/dsp/filter.h ****       state_1 = g_ * hp + bp;
 289:../eurorack/stmlib/dsp/filter.h ****       lp = g_ * bp + state_2;
 290:../eurorack/stmlib/dsp/filter.h ****       state_2 = g_ * bp + lp;
 291:../eurorack/stmlib/dsp/filter.h ****     
 292:../eurorack/stmlib/dsp/filter.h ****       float value;
 293:../eurorack/stmlib/dsp/filter.h ****       if (mode == FILTER_MODE_LOW_PASS) {
 294:../eurorack/stmlib/dsp/filter.h ****         value = lp;
 295:../eurorack/stmlib/dsp/filter.h ****       } else if (mode == FILTER_MODE_BAND_PASS) {
 296:../eurorack/stmlib/dsp/filter.h ****         value = bp;
 297:../eurorack/stmlib/dsp/filter.h ****       } else if (mode == FILTER_MODE_BAND_PASS_NORMALIZED) {
 298:../eurorack/stmlib/dsp/filter.h ****         value = bp * r_;
 299:../eurorack/stmlib/dsp/filter.h ****       } else if (mode == FILTER_MODE_HIGH_PASS) {
 300:../eurorack/stmlib/dsp/filter.h ****         value = hp;
 301:../eurorack/stmlib/dsp/filter.h ****       }
 302:../eurorack/stmlib/dsp/filter.h ****       
 303:../eurorack/stmlib/dsp/filter.h ****       *out = value;
 304:../eurorack/stmlib/dsp/filter.h ****       ++out;
 305:../eurorack/stmlib/dsp/filter.h ****       ++in;
 306:../eurorack/stmlib/dsp/filter.h ****     }
 307:../eurorack/stmlib/dsp/filter.h ****     state_1_ = state_1;
 308:../eurorack/stmlib/dsp/filter.h ****     state_2_ = state_2;
 309:../eurorack/stmlib/dsp/filter.h ****   }
 462              		.loc 2 309 3 view .LVU128
 463 0094 1946     		mov	r1, r3
 464              	.LVL30:
 465              		.loc 2 309 3 view .LVU129
 466 0096 03EB8202 		add	r2, r3, r2, lsl #2
 307:../eurorack/stmlib/dsp/filter.h ****     state_2_ = state_2;
 467              		.loc 2 307 14 view .LVU130
 468 009a 80ED256A 		vstr.32	s12, [r0, #148]
 308:../eurorack/stmlib/dsp/filter.h ****   }
 469              		.loc 2 308 14 view .LVU131
 470 009e 80ED267A 		vstr.32	s14, [r0, #152]
 471              	.LVL31:
 308:../eurorack/stmlib/dsp/filter.h ****   }
 472              		.loc 2 308 14 view .LVU132
 473              	.LBE203:
 474              	.LBE206:
 118:../eurorack/plaits/dsp/speech/naive_speech_synth.cc ****       excitation, excitation, size);
 119:../eurorack/plaits/dsp/speech/naive_speech_synth.cc ****   for (size_t i = 0; i < size; ++i) {
 475              		.loc 1 119 3 is_stmt 1 view .LVU133
 476              	.L19:
 477              	.LBB207:
 478              		.loc 1 119 24 discriminator 1 view .LVU134
 479 00a2 8A42     		cmp	r2, r1
 480 00a4 40F02681 		bne	.L20
 481              	.LBE207:
 120:../eurorack/plaits/dsp/speech/naive_speech_synth.cc ****     excitation[i] *= 4.0f;
 121:../eurorack/plaits/dsp/speech/naive_speech_synth.cc ****   }
 122:../eurorack/plaits/dsp/speech/naive_speech_synth.cc ****   
 123:../eurorack/plaits/dsp/speech/naive_speech_synth.cc ****   float p = phoneme * (kNaiveSpeechNumPhonemes - 1.001f);
ARM GAS  /var/folders/y7/g6pkzsp12sx54x3s3mvyn15r0000gn/T//cc9jJkGr.s 			page 27


 482              		.loc 1 123 3 view .LVU135
 483              		.loc 1 123 9 is_stmt 0 view .LVU136
 484 00a8 DFEDAA7A 		vldr.32	s15, .L41+4
 124:../eurorack/plaits/dsp/speech/naive_speech_synth.cc ****   float r = vocal_register * (kNaiveSpeechNumRegisters - 1.001f);
 125:../eurorack/plaits/dsp/speech/naive_speech_synth.cc ****   
 126:../eurorack/plaits/dsp/speech/naive_speech_synth.cc ****   MAKE_INTEGRAL_FRACTIONAL(p);
 127:../eurorack/plaits/dsp/speech/naive_speech_synth.cc ****   MAKE_INTEGRAL_FRACTIONAL(r);
 128:../eurorack/plaits/dsp/speech/naive_speech_synth.cc ****   
 129:../eurorack/plaits/dsp/speech/naive_speech_synth.cc ****   fill(&output[0], &output[size], 0.0f);
 485              		.loc 1 129 7 view .LVU137
 486 00ac AA19     		adds	r2, r5, r6
 487              	.LBB208:
 488              	.LBB209:
 489              	.LBB210:
 490              	.LBB211:
 239:/Applications/ArmGNUToolchain/14.2.rel1/arm-none-eabi/arm-none-eabi/include/c++/14.2.1/bits/stl_algobase.h **** 	return __b;
 240:/Applications/ArmGNUToolchain/14.2.rel1/arm-none-eabi/arm-none-eabi/include/c++/14.2.1/bits/stl_algobase.h ****       return __a;
 241:/Applications/ArmGNUToolchain/14.2.rel1/arm-none-eabi/arm-none-eabi/include/c++/14.2.1/bits/stl_algobase.h ****     }
 242:/Applications/ArmGNUToolchain/14.2.rel1/arm-none-eabi/arm-none-eabi/include/c++/14.2.1/bits/stl_algobase.h **** 
 243:/Applications/ArmGNUToolchain/14.2.rel1/arm-none-eabi/arm-none-eabi/include/c++/14.2.1/bits/stl_algobase.h ****   /**
 244:/Applications/ArmGNUToolchain/14.2.rel1/arm-none-eabi/arm-none-eabi/include/c++/14.2.1/bits/stl_algobase.h ****    *  @brief This does what you think it does.
 245:/Applications/ArmGNUToolchain/14.2.rel1/arm-none-eabi/arm-none-eabi/include/c++/14.2.1/bits/stl_algobase.h ****    *  @ingroup sorting_algorithms
 246:/Applications/ArmGNUToolchain/14.2.rel1/arm-none-eabi/arm-none-eabi/include/c++/14.2.1/bits/stl_algobase.h ****    *  @param  __a  A thing of arbitrary type.
 247:/Applications/ArmGNUToolchain/14.2.rel1/arm-none-eabi/arm-none-eabi/include/c++/14.2.1/bits/stl_algobase.h ****    *  @param  __b  Another thing of arbitrary type.
 248:/Applications/ArmGNUToolchain/14.2.rel1/arm-none-eabi/arm-none-eabi/include/c++/14.2.1/bits/stl_algobase.h ****    *  @return   The greater of the parameters.
 249:/Applications/ArmGNUToolchain/14.2.rel1/arm-none-eabi/arm-none-eabi/include/c++/14.2.1/bits/stl_algobase.h ****    *
 250:/Applications/ArmGNUToolchain/14.2.rel1/arm-none-eabi/arm-none-eabi/include/c++/14.2.1/bits/stl_algobase.h ****    *  This is the simple classic generic implementation.  It will work on
 251:/Applications/ArmGNUToolchain/14.2.rel1/arm-none-eabi/arm-none-eabi/include/c++/14.2.1/bits/stl_algobase.h ****    *  temporary expressions, since they are only evaluated once, unlike a
 252:/Applications/ArmGNUToolchain/14.2.rel1/arm-none-eabi/arm-none-eabi/include/c++/14.2.1/bits/stl_algobase.h ****    *  preprocessor macro.
 253:/Applications/ArmGNUToolchain/14.2.rel1/arm-none-eabi/arm-none-eabi/include/c++/14.2.1/bits/stl_algobase.h ****   */
 254:/Applications/ArmGNUToolchain/14.2.rel1/arm-none-eabi/arm-none-eabi/include/c++/14.2.1/bits/stl_algobase.h ****   template<typename _Tp>
 255:/Applications/ArmGNUToolchain/14.2.rel1/arm-none-eabi/arm-none-eabi/include/c++/14.2.1/bits/stl_algobase.h ****     _GLIBCXX_NODISCARD _GLIBCXX14_CONSTEXPR
 256:/Applications/ArmGNUToolchain/14.2.rel1/arm-none-eabi/arm-none-eabi/include/c++/14.2.1/bits/stl_algobase.h ****     inline const _Tp&
 257:/Applications/ArmGNUToolchain/14.2.rel1/arm-none-eabi/arm-none-eabi/include/c++/14.2.1/bits/stl_algobase.h ****     max(const _Tp& __a, const _Tp& __b)
 258:/Applications/ArmGNUToolchain/14.2.rel1/arm-none-eabi/arm-none-eabi/include/c++/14.2.1/bits/stl_algobase.h ****     {
 259:/Applications/ArmGNUToolchain/14.2.rel1/arm-none-eabi/arm-none-eabi/include/c++/14.2.1/bits/stl_algobase.h ****       // concept requirements
 260:/Applications/ArmGNUToolchain/14.2.rel1/arm-none-eabi/arm-none-eabi/include/c++/14.2.1/bits/stl_algobase.h ****       __glibcxx_function_requires(_LessThanComparableConcept<_Tp>)
 261:/Applications/ArmGNUToolchain/14.2.rel1/arm-none-eabi/arm-none-eabi/include/c++/14.2.1/bits/stl_algobase.h ****       //return  __a < __b ? __b : __a;
 262:/Applications/ArmGNUToolchain/14.2.rel1/arm-none-eabi/arm-none-eabi/include/c++/14.2.1/bits/stl_algobase.h ****       if (__a < __b)
 263:/Applications/ArmGNUToolchain/14.2.rel1/arm-none-eabi/arm-none-eabi/include/c++/14.2.1/bits/stl_algobase.h **** 	return __b;
 264:/Applications/ArmGNUToolchain/14.2.rel1/arm-none-eabi/arm-none-eabi/include/c++/14.2.1/bits/stl_algobase.h ****       return __a;
 265:/Applications/ArmGNUToolchain/14.2.rel1/arm-none-eabi/arm-none-eabi/include/c++/14.2.1/bits/stl_algobase.h ****     }
 266:/Applications/ArmGNUToolchain/14.2.rel1/arm-none-eabi/arm-none-eabi/include/c++/14.2.1/bits/stl_algobase.h **** 
 267:/Applications/ArmGNUToolchain/14.2.rel1/arm-none-eabi/arm-none-eabi/include/c++/14.2.1/bits/stl_algobase.h ****   /**
 268:/Applications/ArmGNUToolchain/14.2.rel1/arm-none-eabi/arm-none-eabi/include/c++/14.2.1/bits/stl_algobase.h ****    *  @brief This does what you think it does.
 269:/Applications/ArmGNUToolchain/14.2.rel1/arm-none-eabi/arm-none-eabi/include/c++/14.2.1/bits/stl_algobase.h ****    *  @ingroup sorting_algorithms
 270:/Applications/ArmGNUToolchain/14.2.rel1/arm-none-eabi/arm-none-eabi/include/c++/14.2.1/bits/stl_algobase.h ****    *  @param  __a  A thing of arbitrary type.
 271:/Applications/ArmGNUToolchain/14.2.rel1/arm-none-eabi/arm-none-eabi/include/c++/14.2.1/bits/stl_algobase.h ****    *  @param  __b  Another thing of arbitrary type.
 272:/Applications/ArmGNUToolchain/14.2.rel1/arm-none-eabi/arm-none-eabi/include/c++/14.2.1/bits/stl_algobase.h ****    *  @param  __comp  A @link comparison_functors comparison functor@endlink.
 273:/Applications/ArmGNUToolchain/14.2.rel1/arm-none-eabi/arm-none-eabi/include/c++/14.2.1/bits/stl_algobase.h ****    *  @return   The lesser of the parameters.
 274:/Applications/ArmGNUToolchain/14.2.rel1/arm-none-eabi/arm-none-eabi/include/c++/14.2.1/bits/stl_algobase.h ****    *
 275:/Applications/ArmGNUToolchain/14.2.rel1/arm-none-eabi/arm-none-eabi/include/c++/14.2.1/bits/stl_algobase.h ****    *  This will work on temporary expressions, since they are only evaluated
 276:/Applications/ArmGNUToolchain/14.2.rel1/arm-none-eabi/arm-none-eabi/include/c++/14.2.1/bits/stl_algobase.h ****    *  once, unlike a preprocessor macro.
 277:/Applications/ArmGNUToolchain/14.2.rel1/arm-none-eabi/arm-none-eabi/include/c++/14.2.1/bits/stl_algobase.h ****   */
 278:/Applications/ArmGNUToolchain/14.2.rel1/arm-none-eabi/arm-none-eabi/include/c++/14.2.1/bits/stl_algobase.h ****   template<typename _Tp, typename _Compare>
 279:/Applications/ArmGNUToolchain/14.2.rel1/arm-none-eabi/arm-none-eabi/include/c++/14.2.1/bits/stl_algobase.h ****     _GLIBCXX_NODISCARD _GLIBCXX14_CONSTEXPR
 280:/Applications/ArmGNUToolchain/14.2.rel1/arm-none-eabi/arm-none-eabi/include/c++/14.2.1/bits/stl_algobase.h ****     inline const _Tp&
ARM GAS  /var/folders/y7/g6pkzsp12sx54x3s3mvyn15r0000gn/T//cc9jJkGr.s 			page 28


 281:/Applications/ArmGNUToolchain/14.2.rel1/arm-none-eabi/arm-none-eabi/include/c++/14.2.1/bits/stl_algobase.h ****     min(const _Tp& __a, const _Tp& __b, _Compare __comp)
 282:/Applications/ArmGNUToolchain/14.2.rel1/arm-none-eabi/arm-none-eabi/include/c++/14.2.1/bits/stl_algobase.h ****     {
 283:/Applications/ArmGNUToolchain/14.2.rel1/arm-none-eabi/arm-none-eabi/include/c++/14.2.1/bits/stl_algobase.h ****       //return __comp(__b, __a) ? __b : __a;
 284:/Applications/ArmGNUToolchain/14.2.rel1/arm-none-eabi/arm-none-eabi/include/c++/14.2.1/bits/stl_algobase.h ****       if (__comp(__b, __a))
 285:/Applications/ArmGNUToolchain/14.2.rel1/arm-none-eabi/arm-none-eabi/include/c++/14.2.1/bits/stl_algobase.h **** 	return __b;
 286:/Applications/ArmGNUToolchain/14.2.rel1/arm-none-eabi/arm-none-eabi/include/c++/14.2.1/bits/stl_algobase.h ****       return __a;
 287:/Applications/ArmGNUToolchain/14.2.rel1/arm-none-eabi/arm-none-eabi/include/c++/14.2.1/bits/stl_algobase.h ****     }
 288:/Applications/ArmGNUToolchain/14.2.rel1/arm-none-eabi/arm-none-eabi/include/c++/14.2.1/bits/stl_algobase.h **** 
 289:/Applications/ArmGNUToolchain/14.2.rel1/arm-none-eabi/arm-none-eabi/include/c++/14.2.1/bits/stl_algobase.h ****   /**
 290:/Applications/ArmGNUToolchain/14.2.rel1/arm-none-eabi/arm-none-eabi/include/c++/14.2.1/bits/stl_algobase.h ****    *  @brief This does what you think it does.
 291:/Applications/ArmGNUToolchain/14.2.rel1/arm-none-eabi/arm-none-eabi/include/c++/14.2.1/bits/stl_algobase.h ****    *  @ingroup sorting_algorithms
 292:/Applications/ArmGNUToolchain/14.2.rel1/arm-none-eabi/arm-none-eabi/include/c++/14.2.1/bits/stl_algobase.h ****    *  @param  __a  A thing of arbitrary type.
 293:/Applications/ArmGNUToolchain/14.2.rel1/arm-none-eabi/arm-none-eabi/include/c++/14.2.1/bits/stl_algobase.h ****    *  @param  __b  Another thing of arbitrary type.
 294:/Applications/ArmGNUToolchain/14.2.rel1/arm-none-eabi/arm-none-eabi/include/c++/14.2.1/bits/stl_algobase.h ****    *  @param  __comp  A @link comparison_functors comparison functor@endlink.
 295:/Applications/ArmGNUToolchain/14.2.rel1/arm-none-eabi/arm-none-eabi/include/c++/14.2.1/bits/stl_algobase.h ****    *  @return   The greater of the parameters.
 296:/Applications/ArmGNUToolchain/14.2.rel1/arm-none-eabi/arm-none-eabi/include/c++/14.2.1/bits/stl_algobase.h ****    *
 297:/Applications/ArmGNUToolchain/14.2.rel1/arm-none-eabi/arm-none-eabi/include/c++/14.2.1/bits/stl_algobase.h ****    *  This will work on temporary expressions, since they are only evaluated
 298:/Applications/ArmGNUToolchain/14.2.rel1/arm-none-eabi/arm-none-eabi/include/c++/14.2.1/bits/stl_algobase.h ****    *  once, unlike a preprocessor macro.
 299:/Applications/ArmGNUToolchain/14.2.rel1/arm-none-eabi/arm-none-eabi/include/c++/14.2.1/bits/stl_algobase.h ****   */
 300:/Applications/ArmGNUToolchain/14.2.rel1/arm-none-eabi/arm-none-eabi/include/c++/14.2.1/bits/stl_algobase.h ****   template<typename _Tp, typename _Compare>
 301:/Applications/ArmGNUToolchain/14.2.rel1/arm-none-eabi/arm-none-eabi/include/c++/14.2.1/bits/stl_algobase.h ****     _GLIBCXX_NODISCARD _GLIBCXX14_CONSTEXPR
 302:/Applications/ArmGNUToolchain/14.2.rel1/arm-none-eabi/arm-none-eabi/include/c++/14.2.1/bits/stl_algobase.h ****     inline const _Tp&
 303:/Applications/ArmGNUToolchain/14.2.rel1/arm-none-eabi/arm-none-eabi/include/c++/14.2.1/bits/stl_algobase.h ****     max(const _Tp& __a, const _Tp& __b, _Compare __comp)
 304:/Applications/ArmGNUToolchain/14.2.rel1/arm-none-eabi/arm-none-eabi/include/c++/14.2.1/bits/stl_algobase.h ****     {
 305:/Applications/ArmGNUToolchain/14.2.rel1/arm-none-eabi/arm-none-eabi/include/c++/14.2.1/bits/stl_algobase.h ****       //return __comp(__a, __b) ? __b : __a;
 306:/Applications/ArmGNUToolchain/14.2.rel1/arm-none-eabi/arm-none-eabi/include/c++/14.2.1/bits/stl_algobase.h ****       if (__comp(__a, __b))
 307:/Applications/ArmGNUToolchain/14.2.rel1/arm-none-eabi/arm-none-eabi/include/c++/14.2.1/bits/stl_algobase.h **** 	return __b;
 308:/Applications/ArmGNUToolchain/14.2.rel1/arm-none-eabi/arm-none-eabi/include/c++/14.2.1/bits/stl_algobase.h ****       return __a;
 309:/Applications/ArmGNUToolchain/14.2.rel1/arm-none-eabi/arm-none-eabi/include/c++/14.2.1/bits/stl_algobase.h ****     }
 310:/Applications/ArmGNUToolchain/14.2.rel1/arm-none-eabi/arm-none-eabi/include/c++/14.2.1/bits/stl_algobase.h **** 
 311:/Applications/ArmGNUToolchain/14.2.rel1/arm-none-eabi/arm-none-eabi/include/c++/14.2.1/bits/stl_algobase.h ****   // Fallback implementation of the function in bits/stl_iterator.h used to
 312:/Applications/ArmGNUToolchain/14.2.rel1/arm-none-eabi/arm-none-eabi/include/c++/14.2.1/bits/stl_algobase.h ****   // remove the __normal_iterator wrapper. See copy, fill, ...
 313:/Applications/ArmGNUToolchain/14.2.rel1/arm-none-eabi/arm-none-eabi/include/c++/14.2.1/bits/stl_algobase.h ****   template<typename _Iterator>
 314:/Applications/ArmGNUToolchain/14.2.rel1/arm-none-eabi/arm-none-eabi/include/c++/14.2.1/bits/stl_algobase.h ****     _GLIBCXX20_CONSTEXPR
 315:/Applications/ArmGNUToolchain/14.2.rel1/arm-none-eabi/arm-none-eabi/include/c++/14.2.1/bits/stl_algobase.h ****     inline _Iterator
 316:/Applications/ArmGNUToolchain/14.2.rel1/arm-none-eabi/arm-none-eabi/include/c++/14.2.1/bits/stl_algobase.h ****     __niter_base(_Iterator __it)
 317:/Applications/ArmGNUToolchain/14.2.rel1/arm-none-eabi/arm-none-eabi/include/c++/14.2.1/bits/stl_algobase.h ****     _GLIBCXX_NOEXCEPT_IF(std::is_nothrow_copy_constructible<_Iterator>::value)
 318:/Applications/ArmGNUToolchain/14.2.rel1/arm-none-eabi/arm-none-eabi/include/c++/14.2.1/bits/stl_algobase.h ****     { return __it; }
 319:/Applications/ArmGNUToolchain/14.2.rel1/arm-none-eabi/arm-none-eabi/include/c++/14.2.1/bits/stl_algobase.h **** 
 320:/Applications/ArmGNUToolchain/14.2.rel1/arm-none-eabi/arm-none-eabi/include/c++/14.2.1/bits/stl_algobase.h **** #if __cplusplus < 201103L
 321:/Applications/ArmGNUToolchain/14.2.rel1/arm-none-eabi/arm-none-eabi/include/c++/14.2.1/bits/stl_algobase.h ****   template<typename _Ite, typename _Seq>
 322:/Applications/ArmGNUToolchain/14.2.rel1/arm-none-eabi/arm-none-eabi/include/c++/14.2.1/bits/stl_algobase.h ****     _Ite
 323:/Applications/ArmGNUToolchain/14.2.rel1/arm-none-eabi/arm-none-eabi/include/c++/14.2.1/bits/stl_algobase.h ****     __niter_base(const ::__gnu_debug::_Safe_iterator<_Ite, _Seq,
 324:/Applications/ArmGNUToolchain/14.2.rel1/arm-none-eabi/arm-none-eabi/include/c++/14.2.1/bits/stl_algobase.h **** 		 std::random_access_iterator_tag>&);
 325:/Applications/ArmGNUToolchain/14.2.rel1/arm-none-eabi/arm-none-eabi/include/c++/14.2.1/bits/stl_algobase.h **** 
 326:/Applications/ArmGNUToolchain/14.2.rel1/arm-none-eabi/arm-none-eabi/include/c++/14.2.1/bits/stl_algobase.h ****  template<typename _Ite, typename _Cont, typename _Seq>
 327:/Applications/ArmGNUToolchain/14.2.rel1/arm-none-eabi/arm-none-eabi/include/c++/14.2.1/bits/stl_algobase.h ****     _Ite
 328:/Applications/ArmGNUToolchain/14.2.rel1/arm-none-eabi/arm-none-eabi/include/c++/14.2.1/bits/stl_algobase.h ****     __niter_base(const ::__gnu_debug::_Safe_iterator<
 329:/Applications/ArmGNUToolchain/14.2.rel1/arm-none-eabi/arm-none-eabi/include/c++/14.2.1/bits/stl_algobase.h **** 		 ::__gnu_cxx::__normal_iterator<_Ite, _Cont>, _Seq,
 330:/Applications/ArmGNUToolchain/14.2.rel1/arm-none-eabi/arm-none-eabi/include/c++/14.2.1/bits/stl_algobase.h **** 		 std::random_access_iterator_tag>&);
 331:/Applications/ArmGNUToolchain/14.2.rel1/arm-none-eabi/arm-none-eabi/include/c++/14.2.1/bits/stl_algobase.h **** #else
 332:/Applications/ArmGNUToolchain/14.2.rel1/arm-none-eabi/arm-none-eabi/include/c++/14.2.1/bits/stl_algobase.h ****   template<typename _Ite, typename _Seq>
 333:/Applications/ArmGNUToolchain/14.2.rel1/arm-none-eabi/arm-none-eabi/include/c++/14.2.1/bits/stl_algobase.h ****     _GLIBCXX20_CONSTEXPR
 334:/Applications/ArmGNUToolchain/14.2.rel1/arm-none-eabi/arm-none-eabi/include/c++/14.2.1/bits/stl_algobase.h ****     decltype(std::__niter_base(std::declval<_Ite>()))
 335:/Applications/ArmGNUToolchain/14.2.rel1/arm-none-eabi/arm-none-eabi/include/c++/14.2.1/bits/stl_algobase.h ****     __niter_base(const ::__gnu_debug::_Safe_iterator<_Ite, _Seq,
 336:/Applications/ArmGNUToolchain/14.2.rel1/arm-none-eabi/arm-none-eabi/include/c++/14.2.1/bits/stl_algobase.h **** 		 std::random_access_iterator_tag>&)
 337:/Applications/ArmGNUToolchain/14.2.rel1/arm-none-eabi/arm-none-eabi/include/c++/14.2.1/bits/stl_algobase.h ****     noexcept(std::is_nothrow_copy_constructible<_Ite>::value);
ARM GAS  /var/folders/y7/g6pkzsp12sx54x3s3mvyn15r0000gn/T//cc9jJkGr.s 			page 29


 338:/Applications/ArmGNUToolchain/14.2.rel1/arm-none-eabi/arm-none-eabi/include/c++/14.2.1/bits/stl_algobase.h **** #endif
 339:/Applications/ArmGNUToolchain/14.2.rel1/arm-none-eabi/arm-none-eabi/include/c++/14.2.1/bits/stl_algobase.h **** 
 340:/Applications/ArmGNUToolchain/14.2.rel1/arm-none-eabi/arm-none-eabi/include/c++/14.2.1/bits/stl_algobase.h ****   // Reverse the __niter_base transformation to get a
 341:/Applications/ArmGNUToolchain/14.2.rel1/arm-none-eabi/arm-none-eabi/include/c++/14.2.1/bits/stl_algobase.h ****   // __normal_iterator back again (this assumes that __normal_iterator
 342:/Applications/ArmGNUToolchain/14.2.rel1/arm-none-eabi/arm-none-eabi/include/c++/14.2.1/bits/stl_algobase.h ****   // is only used to wrap random access iterators, like pointers).
 343:/Applications/ArmGNUToolchain/14.2.rel1/arm-none-eabi/arm-none-eabi/include/c++/14.2.1/bits/stl_algobase.h ****   template<typename _From, typename _To>
 344:/Applications/ArmGNUToolchain/14.2.rel1/arm-none-eabi/arm-none-eabi/include/c++/14.2.1/bits/stl_algobase.h ****     _GLIBCXX20_CONSTEXPR
 345:/Applications/ArmGNUToolchain/14.2.rel1/arm-none-eabi/arm-none-eabi/include/c++/14.2.1/bits/stl_algobase.h ****     inline _From
 346:/Applications/ArmGNUToolchain/14.2.rel1/arm-none-eabi/arm-none-eabi/include/c++/14.2.1/bits/stl_algobase.h ****     __niter_wrap(_From __from, _To __res)
 347:/Applications/ArmGNUToolchain/14.2.rel1/arm-none-eabi/arm-none-eabi/include/c++/14.2.1/bits/stl_algobase.h ****     { return __from + (std::__niter_base(__res) - std::__niter_base(__from)); }
 348:/Applications/ArmGNUToolchain/14.2.rel1/arm-none-eabi/arm-none-eabi/include/c++/14.2.1/bits/stl_algobase.h **** 
 349:/Applications/ArmGNUToolchain/14.2.rel1/arm-none-eabi/arm-none-eabi/include/c++/14.2.1/bits/stl_algobase.h ****   // No need to wrap, iterator already has the right type.
 350:/Applications/ArmGNUToolchain/14.2.rel1/arm-none-eabi/arm-none-eabi/include/c++/14.2.1/bits/stl_algobase.h ****   template<typename _Iterator>
 351:/Applications/ArmGNUToolchain/14.2.rel1/arm-none-eabi/arm-none-eabi/include/c++/14.2.1/bits/stl_algobase.h ****     _GLIBCXX20_CONSTEXPR
 352:/Applications/ArmGNUToolchain/14.2.rel1/arm-none-eabi/arm-none-eabi/include/c++/14.2.1/bits/stl_algobase.h ****     inline _Iterator
 353:/Applications/ArmGNUToolchain/14.2.rel1/arm-none-eabi/arm-none-eabi/include/c++/14.2.1/bits/stl_algobase.h ****     __niter_wrap(const _Iterator&, _Iterator __res)
 354:/Applications/ArmGNUToolchain/14.2.rel1/arm-none-eabi/arm-none-eabi/include/c++/14.2.1/bits/stl_algobase.h ****     { return __res; }
 355:/Applications/ArmGNUToolchain/14.2.rel1/arm-none-eabi/arm-none-eabi/include/c++/14.2.1/bits/stl_algobase.h **** 
 356:/Applications/ArmGNUToolchain/14.2.rel1/arm-none-eabi/arm-none-eabi/include/c++/14.2.1/bits/stl_algobase.h ****   // All of these auxiliary structs serve two purposes.  (1) Replace
 357:/Applications/ArmGNUToolchain/14.2.rel1/arm-none-eabi/arm-none-eabi/include/c++/14.2.1/bits/stl_algobase.h ****   // calls to copy with memmove whenever possible.  (Memmove, not memcpy,
 358:/Applications/ArmGNUToolchain/14.2.rel1/arm-none-eabi/arm-none-eabi/include/c++/14.2.1/bits/stl_algobase.h ****   // because the input and output ranges are permitted to overlap.)
 359:/Applications/ArmGNUToolchain/14.2.rel1/arm-none-eabi/arm-none-eabi/include/c++/14.2.1/bits/stl_algobase.h ****   // (2) If we're using random access iterators, then write the loop as
 360:/Applications/ArmGNUToolchain/14.2.rel1/arm-none-eabi/arm-none-eabi/include/c++/14.2.1/bits/stl_algobase.h ****   // a for loop with an explicit count.
 361:/Applications/ArmGNUToolchain/14.2.rel1/arm-none-eabi/arm-none-eabi/include/c++/14.2.1/bits/stl_algobase.h **** 
 362:/Applications/ArmGNUToolchain/14.2.rel1/arm-none-eabi/arm-none-eabi/include/c++/14.2.1/bits/stl_algobase.h ****   template<bool _IsMove, bool _IsSimple, typename _Category>
 363:/Applications/ArmGNUToolchain/14.2.rel1/arm-none-eabi/arm-none-eabi/include/c++/14.2.1/bits/stl_algobase.h ****     struct __copy_move
 364:/Applications/ArmGNUToolchain/14.2.rel1/arm-none-eabi/arm-none-eabi/include/c++/14.2.1/bits/stl_algobase.h ****     {
 365:/Applications/ArmGNUToolchain/14.2.rel1/arm-none-eabi/arm-none-eabi/include/c++/14.2.1/bits/stl_algobase.h ****       template<typename _II, typename _OI>
 366:/Applications/ArmGNUToolchain/14.2.rel1/arm-none-eabi/arm-none-eabi/include/c++/14.2.1/bits/stl_algobase.h **** 	_GLIBCXX20_CONSTEXPR
 367:/Applications/ArmGNUToolchain/14.2.rel1/arm-none-eabi/arm-none-eabi/include/c++/14.2.1/bits/stl_algobase.h **** 	static _OI
 368:/Applications/ArmGNUToolchain/14.2.rel1/arm-none-eabi/arm-none-eabi/include/c++/14.2.1/bits/stl_algobase.h **** 	__copy_m(_II __first, _II __last, _OI __result)
 369:/Applications/ArmGNUToolchain/14.2.rel1/arm-none-eabi/arm-none-eabi/include/c++/14.2.1/bits/stl_algobase.h **** 	{
 370:/Applications/ArmGNUToolchain/14.2.rel1/arm-none-eabi/arm-none-eabi/include/c++/14.2.1/bits/stl_algobase.h **** 	  for (; __first != __last; ++__result, (void)++__first)
 371:/Applications/ArmGNUToolchain/14.2.rel1/arm-none-eabi/arm-none-eabi/include/c++/14.2.1/bits/stl_algobase.h **** 	    *__result = *__first;
 372:/Applications/ArmGNUToolchain/14.2.rel1/arm-none-eabi/arm-none-eabi/include/c++/14.2.1/bits/stl_algobase.h **** 	  return __result;
 373:/Applications/ArmGNUToolchain/14.2.rel1/arm-none-eabi/arm-none-eabi/include/c++/14.2.1/bits/stl_algobase.h **** 	}
 374:/Applications/ArmGNUToolchain/14.2.rel1/arm-none-eabi/arm-none-eabi/include/c++/14.2.1/bits/stl_algobase.h ****     };
 375:/Applications/ArmGNUToolchain/14.2.rel1/arm-none-eabi/arm-none-eabi/include/c++/14.2.1/bits/stl_algobase.h **** 
 376:/Applications/ArmGNUToolchain/14.2.rel1/arm-none-eabi/arm-none-eabi/include/c++/14.2.1/bits/stl_algobase.h **** #if __cplusplus >= 201103L
 377:/Applications/ArmGNUToolchain/14.2.rel1/arm-none-eabi/arm-none-eabi/include/c++/14.2.1/bits/stl_algobase.h ****   template<typename _Category>
 378:/Applications/ArmGNUToolchain/14.2.rel1/arm-none-eabi/arm-none-eabi/include/c++/14.2.1/bits/stl_algobase.h ****     struct __copy_move<true, false, _Category>
 379:/Applications/ArmGNUToolchain/14.2.rel1/arm-none-eabi/arm-none-eabi/include/c++/14.2.1/bits/stl_algobase.h ****     {
 380:/Applications/ArmGNUToolchain/14.2.rel1/arm-none-eabi/arm-none-eabi/include/c++/14.2.1/bits/stl_algobase.h ****       template<typename _II, typename _OI>
 381:/Applications/ArmGNUToolchain/14.2.rel1/arm-none-eabi/arm-none-eabi/include/c++/14.2.1/bits/stl_algobase.h **** 	_GLIBCXX20_CONSTEXPR
 382:/Applications/ArmGNUToolchain/14.2.rel1/arm-none-eabi/arm-none-eabi/include/c++/14.2.1/bits/stl_algobase.h **** 	static _OI
 383:/Applications/ArmGNUToolchain/14.2.rel1/arm-none-eabi/arm-none-eabi/include/c++/14.2.1/bits/stl_algobase.h **** 	__copy_m(_II __first, _II __last, _OI __result)
 384:/Applications/ArmGNUToolchain/14.2.rel1/arm-none-eabi/arm-none-eabi/include/c++/14.2.1/bits/stl_algobase.h **** 	{
 385:/Applications/ArmGNUToolchain/14.2.rel1/arm-none-eabi/arm-none-eabi/include/c++/14.2.1/bits/stl_algobase.h **** 	  for (; __first != __last; ++__result, (void)++__first)
 386:/Applications/ArmGNUToolchain/14.2.rel1/arm-none-eabi/arm-none-eabi/include/c++/14.2.1/bits/stl_algobase.h **** 	    *__result = std::move(*__first);
 387:/Applications/ArmGNUToolchain/14.2.rel1/arm-none-eabi/arm-none-eabi/include/c++/14.2.1/bits/stl_algobase.h **** 	  return __result;
 388:/Applications/ArmGNUToolchain/14.2.rel1/arm-none-eabi/arm-none-eabi/include/c++/14.2.1/bits/stl_algobase.h **** 	}
 389:/Applications/ArmGNUToolchain/14.2.rel1/arm-none-eabi/arm-none-eabi/include/c++/14.2.1/bits/stl_algobase.h ****     };
 390:/Applications/ArmGNUToolchain/14.2.rel1/arm-none-eabi/arm-none-eabi/include/c++/14.2.1/bits/stl_algobase.h **** #endif
 391:/Applications/ArmGNUToolchain/14.2.rel1/arm-none-eabi/arm-none-eabi/include/c++/14.2.1/bits/stl_algobase.h **** 
 392:/Applications/ArmGNUToolchain/14.2.rel1/arm-none-eabi/arm-none-eabi/include/c++/14.2.1/bits/stl_algobase.h ****   template<>
 393:/Applications/ArmGNUToolchain/14.2.rel1/arm-none-eabi/arm-none-eabi/include/c++/14.2.1/bits/stl_algobase.h ****     struct __copy_move<false, false, random_access_iterator_tag>
 394:/Applications/ArmGNUToolchain/14.2.rel1/arm-none-eabi/arm-none-eabi/include/c++/14.2.1/bits/stl_algobase.h ****     {
ARM GAS  /var/folders/y7/g6pkzsp12sx54x3s3mvyn15r0000gn/T//cc9jJkGr.s 			page 30


 395:/Applications/ArmGNUToolchain/14.2.rel1/arm-none-eabi/arm-none-eabi/include/c++/14.2.1/bits/stl_algobase.h ****       template<typename _II, typename _OI>
 396:/Applications/ArmGNUToolchain/14.2.rel1/arm-none-eabi/arm-none-eabi/include/c++/14.2.1/bits/stl_algobase.h **** 	_GLIBCXX20_CONSTEXPR
 397:/Applications/ArmGNUToolchain/14.2.rel1/arm-none-eabi/arm-none-eabi/include/c++/14.2.1/bits/stl_algobase.h **** 	static _OI
 398:/Applications/ArmGNUToolchain/14.2.rel1/arm-none-eabi/arm-none-eabi/include/c++/14.2.1/bits/stl_algobase.h **** 	__copy_m(_II __first, _II __last, _OI __result)
 399:/Applications/ArmGNUToolchain/14.2.rel1/arm-none-eabi/arm-none-eabi/include/c++/14.2.1/bits/stl_algobase.h **** 	{
 400:/Applications/ArmGNUToolchain/14.2.rel1/arm-none-eabi/arm-none-eabi/include/c++/14.2.1/bits/stl_algobase.h **** 	  typedef typename iterator_traits<_II>::difference_type _Distance;
 401:/Applications/ArmGNUToolchain/14.2.rel1/arm-none-eabi/arm-none-eabi/include/c++/14.2.1/bits/stl_algobase.h **** 	  for(_Distance __n = __last - __first; __n > 0; --__n)
 402:/Applications/ArmGNUToolchain/14.2.rel1/arm-none-eabi/arm-none-eabi/include/c++/14.2.1/bits/stl_algobase.h **** 	    {
 403:/Applications/ArmGNUToolchain/14.2.rel1/arm-none-eabi/arm-none-eabi/include/c++/14.2.1/bits/stl_algobase.h **** 	      *__result = *__first;
 404:/Applications/ArmGNUToolchain/14.2.rel1/arm-none-eabi/arm-none-eabi/include/c++/14.2.1/bits/stl_algobase.h **** 	      ++__first;
 405:/Applications/ArmGNUToolchain/14.2.rel1/arm-none-eabi/arm-none-eabi/include/c++/14.2.1/bits/stl_algobase.h **** 	      ++__result;
 406:/Applications/ArmGNUToolchain/14.2.rel1/arm-none-eabi/arm-none-eabi/include/c++/14.2.1/bits/stl_algobase.h **** 	    }
 407:/Applications/ArmGNUToolchain/14.2.rel1/arm-none-eabi/arm-none-eabi/include/c++/14.2.1/bits/stl_algobase.h **** 	  return __result;
 408:/Applications/ArmGNUToolchain/14.2.rel1/arm-none-eabi/arm-none-eabi/include/c++/14.2.1/bits/stl_algobase.h **** 	}
 409:/Applications/ArmGNUToolchain/14.2.rel1/arm-none-eabi/arm-none-eabi/include/c++/14.2.1/bits/stl_algobase.h **** 
 410:/Applications/ArmGNUToolchain/14.2.rel1/arm-none-eabi/arm-none-eabi/include/c++/14.2.1/bits/stl_algobase.h ****       template<typename _Tp, typename _Up>
 411:/Applications/ArmGNUToolchain/14.2.rel1/arm-none-eabi/arm-none-eabi/include/c++/14.2.1/bits/stl_algobase.h **** 	static void
 412:/Applications/ArmGNUToolchain/14.2.rel1/arm-none-eabi/arm-none-eabi/include/c++/14.2.1/bits/stl_algobase.h **** 	__assign_one(_Tp* __to, _Up* __from)
 413:/Applications/ArmGNUToolchain/14.2.rel1/arm-none-eabi/arm-none-eabi/include/c++/14.2.1/bits/stl_algobase.h **** 	{ *__to = *__from; }
 414:/Applications/ArmGNUToolchain/14.2.rel1/arm-none-eabi/arm-none-eabi/include/c++/14.2.1/bits/stl_algobase.h ****     };
 415:/Applications/ArmGNUToolchain/14.2.rel1/arm-none-eabi/arm-none-eabi/include/c++/14.2.1/bits/stl_algobase.h **** 
 416:/Applications/ArmGNUToolchain/14.2.rel1/arm-none-eabi/arm-none-eabi/include/c++/14.2.1/bits/stl_algobase.h **** #if __cplusplus >= 201103L
 417:/Applications/ArmGNUToolchain/14.2.rel1/arm-none-eabi/arm-none-eabi/include/c++/14.2.1/bits/stl_algobase.h ****   template<>
 418:/Applications/ArmGNUToolchain/14.2.rel1/arm-none-eabi/arm-none-eabi/include/c++/14.2.1/bits/stl_algobase.h ****     struct __copy_move<true, false, random_access_iterator_tag>
 419:/Applications/ArmGNUToolchain/14.2.rel1/arm-none-eabi/arm-none-eabi/include/c++/14.2.1/bits/stl_algobase.h ****     {
 420:/Applications/ArmGNUToolchain/14.2.rel1/arm-none-eabi/arm-none-eabi/include/c++/14.2.1/bits/stl_algobase.h ****       template<typename _II, typename _OI>
 421:/Applications/ArmGNUToolchain/14.2.rel1/arm-none-eabi/arm-none-eabi/include/c++/14.2.1/bits/stl_algobase.h **** 	_GLIBCXX20_CONSTEXPR
 422:/Applications/ArmGNUToolchain/14.2.rel1/arm-none-eabi/arm-none-eabi/include/c++/14.2.1/bits/stl_algobase.h **** 	static _OI
 423:/Applications/ArmGNUToolchain/14.2.rel1/arm-none-eabi/arm-none-eabi/include/c++/14.2.1/bits/stl_algobase.h **** 	__copy_m(_II __first, _II __last, _OI __result)
 424:/Applications/ArmGNUToolchain/14.2.rel1/arm-none-eabi/arm-none-eabi/include/c++/14.2.1/bits/stl_algobase.h **** 	{
 425:/Applications/ArmGNUToolchain/14.2.rel1/arm-none-eabi/arm-none-eabi/include/c++/14.2.1/bits/stl_algobase.h **** 	  typedef typename iterator_traits<_II>::difference_type _Distance;
 426:/Applications/ArmGNUToolchain/14.2.rel1/arm-none-eabi/arm-none-eabi/include/c++/14.2.1/bits/stl_algobase.h **** 	  for(_Distance __n = __last - __first; __n > 0; --__n)
 427:/Applications/ArmGNUToolchain/14.2.rel1/arm-none-eabi/arm-none-eabi/include/c++/14.2.1/bits/stl_algobase.h **** 	    {
 428:/Applications/ArmGNUToolchain/14.2.rel1/arm-none-eabi/arm-none-eabi/include/c++/14.2.1/bits/stl_algobase.h **** 	      *__result = std::move(*__first);
 429:/Applications/ArmGNUToolchain/14.2.rel1/arm-none-eabi/arm-none-eabi/include/c++/14.2.1/bits/stl_algobase.h **** 	      ++__first;
 430:/Applications/ArmGNUToolchain/14.2.rel1/arm-none-eabi/arm-none-eabi/include/c++/14.2.1/bits/stl_algobase.h **** 	      ++__result;
 431:/Applications/ArmGNUToolchain/14.2.rel1/arm-none-eabi/arm-none-eabi/include/c++/14.2.1/bits/stl_algobase.h **** 	    }
 432:/Applications/ArmGNUToolchain/14.2.rel1/arm-none-eabi/arm-none-eabi/include/c++/14.2.1/bits/stl_algobase.h **** 	  return __result;
 433:/Applications/ArmGNUToolchain/14.2.rel1/arm-none-eabi/arm-none-eabi/include/c++/14.2.1/bits/stl_algobase.h **** 	}
 434:/Applications/ArmGNUToolchain/14.2.rel1/arm-none-eabi/arm-none-eabi/include/c++/14.2.1/bits/stl_algobase.h **** 
 435:/Applications/ArmGNUToolchain/14.2.rel1/arm-none-eabi/arm-none-eabi/include/c++/14.2.1/bits/stl_algobase.h ****       template<typename _Tp, typename _Up>
 436:/Applications/ArmGNUToolchain/14.2.rel1/arm-none-eabi/arm-none-eabi/include/c++/14.2.1/bits/stl_algobase.h **** 	static void
 437:/Applications/ArmGNUToolchain/14.2.rel1/arm-none-eabi/arm-none-eabi/include/c++/14.2.1/bits/stl_algobase.h **** 	__assign_one(_Tp* __to, _Up* __from)
 438:/Applications/ArmGNUToolchain/14.2.rel1/arm-none-eabi/arm-none-eabi/include/c++/14.2.1/bits/stl_algobase.h **** 	{ *__to = std::move(*__from); }
 439:/Applications/ArmGNUToolchain/14.2.rel1/arm-none-eabi/arm-none-eabi/include/c++/14.2.1/bits/stl_algobase.h ****     };
 440:/Applications/ArmGNUToolchain/14.2.rel1/arm-none-eabi/arm-none-eabi/include/c++/14.2.1/bits/stl_algobase.h **** #endif
 441:/Applications/ArmGNUToolchain/14.2.rel1/arm-none-eabi/arm-none-eabi/include/c++/14.2.1/bits/stl_algobase.h **** 
 442:/Applications/ArmGNUToolchain/14.2.rel1/arm-none-eabi/arm-none-eabi/include/c++/14.2.1/bits/stl_algobase.h ****   template<bool _IsMove>
 443:/Applications/ArmGNUToolchain/14.2.rel1/arm-none-eabi/arm-none-eabi/include/c++/14.2.1/bits/stl_algobase.h ****     struct __copy_move<_IsMove, true, random_access_iterator_tag>
 444:/Applications/ArmGNUToolchain/14.2.rel1/arm-none-eabi/arm-none-eabi/include/c++/14.2.1/bits/stl_algobase.h ****     {
 445:/Applications/ArmGNUToolchain/14.2.rel1/arm-none-eabi/arm-none-eabi/include/c++/14.2.1/bits/stl_algobase.h ****       template<typename _Tp, typename _Up>
 446:/Applications/ArmGNUToolchain/14.2.rel1/arm-none-eabi/arm-none-eabi/include/c++/14.2.1/bits/stl_algobase.h **** 	_GLIBCXX20_CONSTEXPR
 447:/Applications/ArmGNUToolchain/14.2.rel1/arm-none-eabi/arm-none-eabi/include/c++/14.2.1/bits/stl_algobase.h **** 	static _Up*
 448:/Applications/ArmGNUToolchain/14.2.rel1/arm-none-eabi/arm-none-eabi/include/c++/14.2.1/bits/stl_algobase.h **** 	__copy_m(_Tp* __first, _Tp* __last, _Up* __result)
 449:/Applications/ArmGNUToolchain/14.2.rel1/arm-none-eabi/arm-none-eabi/include/c++/14.2.1/bits/stl_algobase.h **** 	{
 450:/Applications/ArmGNUToolchain/14.2.rel1/arm-none-eabi/arm-none-eabi/include/c++/14.2.1/bits/stl_algobase.h **** 	  const ptrdiff_t _Num = __last - __first;
 451:/Applications/ArmGNUToolchain/14.2.rel1/arm-none-eabi/arm-none-eabi/include/c++/14.2.1/bits/stl_algobase.h **** 	  if (__builtin_expect(_Num > 1, true))
ARM GAS  /var/folders/y7/g6pkzsp12sx54x3s3mvyn15r0000gn/T//cc9jJkGr.s 			page 31


 452:/Applications/ArmGNUToolchain/14.2.rel1/arm-none-eabi/arm-none-eabi/include/c++/14.2.1/bits/stl_algobase.h **** 	    __builtin_memmove(__result, __first, sizeof(_Tp) * _Num);
 453:/Applications/ArmGNUToolchain/14.2.rel1/arm-none-eabi/arm-none-eabi/include/c++/14.2.1/bits/stl_algobase.h **** 	  else if (_Num == 1)
 454:/Applications/ArmGNUToolchain/14.2.rel1/arm-none-eabi/arm-none-eabi/include/c++/14.2.1/bits/stl_algobase.h **** 	    std::__copy_move<_IsMove, false, random_access_iterator_tag>::
 455:/Applications/ArmGNUToolchain/14.2.rel1/arm-none-eabi/arm-none-eabi/include/c++/14.2.1/bits/stl_algobase.h **** 	      __assign_one(__result, __first);
 456:/Applications/ArmGNUToolchain/14.2.rel1/arm-none-eabi/arm-none-eabi/include/c++/14.2.1/bits/stl_algobase.h **** 	  return __result + _Num;
 457:/Applications/ArmGNUToolchain/14.2.rel1/arm-none-eabi/arm-none-eabi/include/c++/14.2.1/bits/stl_algobase.h **** 	}
 458:/Applications/ArmGNUToolchain/14.2.rel1/arm-none-eabi/arm-none-eabi/include/c++/14.2.1/bits/stl_algobase.h ****     };
 459:/Applications/ArmGNUToolchain/14.2.rel1/arm-none-eabi/arm-none-eabi/include/c++/14.2.1/bits/stl_algobase.h **** 
 460:/Applications/ArmGNUToolchain/14.2.rel1/arm-none-eabi/arm-none-eabi/include/c++/14.2.1/bits/stl_algobase.h **** _GLIBCXX_BEGIN_NAMESPACE_CONTAINER
 461:/Applications/ArmGNUToolchain/14.2.rel1/arm-none-eabi/arm-none-eabi/include/c++/14.2.1/bits/stl_algobase.h **** 
 462:/Applications/ArmGNUToolchain/14.2.rel1/arm-none-eabi/arm-none-eabi/include/c++/14.2.1/bits/stl_algobase.h ****   template<typename _Tp, typename _Ref, typename _Ptr>
 463:/Applications/ArmGNUToolchain/14.2.rel1/arm-none-eabi/arm-none-eabi/include/c++/14.2.1/bits/stl_algobase.h ****     struct _Deque_iterator;
 464:/Applications/ArmGNUToolchain/14.2.rel1/arm-none-eabi/arm-none-eabi/include/c++/14.2.1/bits/stl_algobase.h **** 
 465:/Applications/ArmGNUToolchain/14.2.rel1/arm-none-eabi/arm-none-eabi/include/c++/14.2.1/bits/stl_algobase.h ****   struct _Bit_iterator;
 466:/Applications/ArmGNUToolchain/14.2.rel1/arm-none-eabi/arm-none-eabi/include/c++/14.2.1/bits/stl_algobase.h **** 
 467:/Applications/ArmGNUToolchain/14.2.rel1/arm-none-eabi/arm-none-eabi/include/c++/14.2.1/bits/stl_algobase.h **** _GLIBCXX_END_NAMESPACE_CONTAINER
 468:/Applications/ArmGNUToolchain/14.2.rel1/arm-none-eabi/arm-none-eabi/include/c++/14.2.1/bits/stl_algobase.h **** 
 469:/Applications/ArmGNUToolchain/14.2.rel1/arm-none-eabi/arm-none-eabi/include/c++/14.2.1/bits/stl_algobase.h **** #if _GLIBCXX_HOSTED
 470:/Applications/ArmGNUToolchain/14.2.rel1/arm-none-eabi/arm-none-eabi/include/c++/14.2.1/bits/stl_algobase.h ****   // Helpers for streambuf iterators (either istream or ostream).
 471:/Applications/ArmGNUToolchain/14.2.rel1/arm-none-eabi/arm-none-eabi/include/c++/14.2.1/bits/stl_algobase.h ****   // NB: avoid including <iosfwd>, relatively large.
 472:/Applications/ArmGNUToolchain/14.2.rel1/arm-none-eabi/arm-none-eabi/include/c++/14.2.1/bits/stl_algobase.h ****   template<typename _CharT>
 473:/Applications/ArmGNUToolchain/14.2.rel1/arm-none-eabi/arm-none-eabi/include/c++/14.2.1/bits/stl_algobase.h ****     struct char_traits;
 474:/Applications/ArmGNUToolchain/14.2.rel1/arm-none-eabi/arm-none-eabi/include/c++/14.2.1/bits/stl_algobase.h **** 
 475:/Applications/ArmGNUToolchain/14.2.rel1/arm-none-eabi/arm-none-eabi/include/c++/14.2.1/bits/stl_algobase.h ****   template<typename _CharT, typename _Traits>
 476:/Applications/ArmGNUToolchain/14.2.rel1/arm-none-eabi/arm-none-eabi/include/c++/14.2.1/bits/stl_algobase.h ****     class istreambuf_iterator;
 477:/Applications/ArmGNUToolchain/14.2.rel1/arm-none-eabi/arm-none-eabi/include/c++/14.2.1/bits/stl_algobase.h **** 
 478:/Applications/ArmGNUToolchain/14.2.rel1/arm-none-eabi/arm-none-eabi/include/c++/14.2.1/bits/stl_algobase.h ****   template<typename _CharT, typename _Traits>
 479:/Applications/ArmGNUToolchain/14.2.rel1/arm-none-eabi/arm-none-eabi/include/c++/14.2.1/bits/stl_algobase.h ****     class ostreambuf_iterator;
 480:/Applications/ArmGNUToolchain/14.2.rel1/arm-none-eabi/arm-none-eabi/include/c++/14.2.1/bits/stl_algobase.h **** 
 481:/Applications/ArmGNUToolchain/14.2.rel1/arm-none-eabi/arm-none-eabi/include/c++/14.2.1/bits/stl_algobase.h ****   template<bool _IsMove, typename _CharT>
 482:/Applications/ArmGNUToolchain/14.2.rel1/arm-none-eabi/arm-none-eabi/include/c++/14.2.1/bits/stl_algobase.h ****     typename __gnu_cxx::__enable_if<__is_char<_CharT>::__value,
 483:/Applications/ArmGNUToolchain/14.2.rel1/arm-none-eabi/arm-none-eabi/include/c++/14.2.1/bits/stl_algobase.h **** 	     ostreambuf_iterator<_CharT, char_traits<_CharT> > >::__type
 484:/Applications/ArmGNUToolchain/14.2.rel1/arm-none-eabi/arm-none-eabi/include/c++/14.2.1/bits/stl_algobase.h ****     __copy_move_a2(_CharT*, _CharT*,
 485:/Applications/ArmGNUToolchain/14.2.rel1/arm-none-eabi/arm-none-eabi/include/c++/14.2.1/bits/stl_algobase.h **** 		   ostreambuf_iterator<_CharT, char_traits<_CharT> >);
 486:/Applications/ArmGNUToolchain/14.2.rel1/arm-none-eabi/arm-none-eabi/include/c++/14.2.1/bits/stl_algobase.h **** 
 487:/Applications/ArmGNUToolchain/14.2.rel1/arm-none-eabi/arm-none-eabi/include/c++/14.2.1/bits/stl_algobase.h ****   template<bool _IsMove, typename _CharT>
 488:/Applications/ArmGNUToolchain/14.2.rel1/arm-none-eabi/arm-none-eabi/include/c++/14.2.1/bits/stl_algobase.h ****     typename __gnu_cxx::__enable_if<__is_char<_CharT>::__value,
 489:/Applications/ArmGNUToolchain/14.2.rel1/arm-none-eabi/arm-none-eabi/include/c++/14.2.1/bits/stl_algobase.h **** 	     ostreambuf_iterator<_CharT, char_traits<_CharT> > >::__type
 490:/Applications/ArmGNUToolchain/14.2.rel1/arm-none-eabi/arm-none-eabi/include/c++/14.2.1/bits/stl_algobase.h ****     __copy_move_a2(const _CharT*, const _CharT*,
 491:/Applications/ArmGNUToolchain/14.2.rel1/arm-none-eabi/arm-none-eabi/include/c++/14.2.1/bits/stl_algobase.h **** 		   ostreambuf_iterator<_CharT, char_traits<_CharT> >);
 492:/Applications/ArmGNUToolchain/14.2.rel1/arm-none-eabi/arm-none-eabi/include/c++/14.2.1/bits/stl_algobase.h **** 
 493:/Applications/ArmGNUToolchain/14.2.rel1/arm-none-eabi/arm-none-eabi/include/c++/14.2.1/bits/stl_algobase.h ****   template<bool _IsMove, typename _CharT>
 494:/Applications/ArmGNUToolchain/14.2.rel1/arm-none-eabi/arm-none-eabi/include/c++/14.2.1/bits/stl_algobase.h ****     typename __gnu_cxx::__enable_if<__is_char<_CharT>::__value,
 495:/Applications/ArmGNUToolchain/14.2.rel1/arm-none-eabi/arm-none-eabi/include/c++/14.2.1/bits/stl_algobase.h **** 				    _CharT*>::__type
 496:/Applications/ArmGNUToolchain/14.2.rel1/arm-none-eabi/arm-none-eabi/include/c++/14.2.1/bits/stl_algobase.h ****     __copy_move_a2(istreambuf_iterator<_CharT, char_traits<_CharT> >,
 497:/Applications/ArmGNUToolchain/14.2.rel1/arm-none-eabi/arm-none-eabi/include/c++/14.2.1/bits/stl_algobase.h **** 		   istreambuf_iterator<_CharT, char_traits<_CharT> >, _CharT*);
 498:/Applications/ArmGNUToolchain/14.2.rel1/arm-none-eabi/arm-none-eabi/include/c++/14.2.1/bits/stl_algobase.h **** 
 499:/Applications/ArmGNUToolchain/14.2.rel1/arm-none-eabi/arm-none-eabi/include/c++/14.2.1/bits/stl_algobase.h ****   template<bool _IsMove, typename _CharT>
 500:/Applications/ArmGNUToolchain/14.2.rel1/arm-none-eabi/arm-none-eabi/include/c++/14.2.1/bits/stl_algobase.h ****     typename __gnu_cxx::__enable_if<
 501:/Applications/ArmGNUToolchain/14.2.rel1/arm-none-eabi/arm-none-eabi/include/c++/14.2.1/bits/stl_algobase.h ****       __is_char<_CharT>::__value,
 502:/Applications/ArmGNUToolchain/14.2.rel1/arm-none-eabi/arm-none-eabi/include/c++/14.2.1/bits/stl_algobase.h ****       _GLIBCXX_STD_C::_Deque_iterator<_CharT, _CharT&, _CharT*> >::__type
 503:/Applications/ArmGNUToolchain/14.2.rel1/arm-none-eabi/arm-none-eabi/include/c++/14.2.1/bits/stl_algobase.h ****     __copy_move_a2(
 504:/Applications/ArmGNUToolchain/14.2.rel1/arm-none-eabi/arm-none-eabi/include/c++/14.2.1/bits/stl_algobase.h **** 	istreambuf_iterator<_CharT, char_traits<_CharT> >,
 505:/Applications/ArmGNUToolchain/14.2.rel1/arm-none-eabi/arm-none-eabi/include/c++/14.2.1/bits/stl_algobase.h **** 	istreambuf_iterator<_CharT, char_traits<_CharT> >,
 506:/Applications/ArmGNUToolchain/14.2.rel1/arm-none-eabi/arm-none-eabi/include/c++/14.2.1/bits/stl_algobase.h **** 	_GLIBCXX_STD_C::_Deque_iterator<_CharT, _CharT&, _CharT*>);
 507:/Applications/ArmGNUToolchain/14.2.rel1/arm-none-eabi/arm-none-eabi/include/c++/14.2.1/bits/stl_algobase.h **** #endif // HOSTED
 508:/Applications/ArmGNUToolchain/14.2.rel1/arm-none-eabi/arm-none-eabi/include/c++/14.2.1/bits/stl_algobase.h **** 
ARM GAS  /var/folders/y7/g6pkzsp12sx54x3s3mvyn15r0000gn/T//cc9jJkGr.s 			page 32


 509:/Applications/ArmGNUToolchain/14.2.rel1/arm-none-eabi/arm-none-eabi/include/c++/14.2.1/bits/stl_algobase.h ****   template<bool _IsMove, typename _II, typename _OI>
 510:/Applications/ArmGNUToolchain/14.2.rel1/arm-none-eabi/arm-none-eabi/include/c++/14.2.1/bits/stl_algobase.h ****     _GLIBCXX20_CONSTEXPR
 511:/Applications/ArmGNUToolchain/14.2.rel1/arm-none-eabi/arm-none-eabi/include/c++/14.2.1/bits/stl_algobase.h ****     inline _OI
 512:/Applications/ArmGNUToolchain/14.2.rel1/arm-none-eabi/arm-none-eabi/include/c++/14.2.1/bits/stl_algobase.h ****     __copy_move_a2(_II __first, _II __last, _OI __result)
 513:/Applications/ArmGNUToolchain/14.2.rel1/arm-none-eabi/arm-none-eabi/include/c++/14.2.1/bits/stl_algobase.h ****     {
 514:/Applications/ArmGNUToolchain/14.2.rel1/arm-none-eabi/arm-none-eabi/include/c++/14.2.1/bits/stl_algobase.h ****       typedef typename iterator_traits<_II>::iterator_category _Category;
 515:/Applications/ArmGNUToolchain/14.2.rel1/arm-none-eabi/arm-none-eabi/include/c++/14.2.1/bits/stl_algobase.h **** #ifdef __cpp_lib_is_constant_evaluated
 516:/Applications/ArmGNUToolchain/14.2.rel1/arm-none-eabi/arm-none-eabi/include/c++/14.2.1/bits/stl_algobase.h ****       if (std::is_constant_evaluated())
 517:/Applications/ArmGNUToolchain/14.2.rel1/arm-none-eabi/arm-none-eabi/include/c++/14.2.1/bits/stl_algobase.h **** 	return std::__copy_move<_IsMove, false, _Category>::
 518:/Applications/ArmGNUToolchain/14.2.rel1/arm-none-eabi/arm-none-eabi/include/c++/14.2.1/bits/stl_algobase.h **** 	  __copy_m(__first, __last, __result);
 519:/Applications/ArmGNUToolchain/14.2.rel1/arm-none-eabi/arm-none-eabi/include/c++/14.2.1/bits/stl_algobase.h **** #endif
 520:/Applications/ArmGNUToolchain/14.2.rel1/arm-none-eabi/arm-none-eabi/include/c++/14.2.1/bits/stl_algobase.h ****       return std::__copy_move<_IsMove, __memcpyable<_OI, _II>::__value,
 521:/Applications/ArmGNUToolchain/14.2.rel1/arm-none-eabi/arm-none-eabi/include/c++/14.2.1/bits/stl_algobase.h **** 			      _Category>::__copy_m(__first, __last, __result);
 522:/Applications/ArmGNUToolchain/14.2.rel1/arm-none-eabi/arm-none-eabi/include/c++/14.2.1/bits/stl_algobase.h ****     }
 523:/Applications/ArmGNUToolchain/14.2.rel1/arm-none-eabi/arm-none-eabi/include/c++/14.2.1/bits/stl_algobase.h **** 
 524:/Applications/ArmGNUToolchain/14.2.rel1/arm-none-eabi/arm-none-eabi/include/c++/14.2.1/bits/stl_algobase.h ****   template<bool _IsMove,
 525:/Applications/ArmGNUToolchain/14.2.rel1/arm-none-eabi/arm-none-eabi/include/c++/14.2.1/bits/stl_algobase.h **** 	   typename _Tp, typename _Ref, typename _Ptr, typename _OI>
 526:/Applications/ArmGNUToolchain/14.2.rel1/arm-none-eabi/arm-none-eabi/include/c++/14.2.1/bits/stl_algobase.h ****     _OI
 527:/Applications/ArmGNUToolchain/14.2.rel1/arm-none-eabi/arm-none-eabi/include/c++/14.2.1/bits/stl_algobase.h ****     __copy_move_a1(_GLIBCXX_STD_C::_Deque_iterator<_Tp, _Ref, _Ptr>,
 528:/Applications/ArmGNUToolchain/14.2.rel1/arm-none-eabi/arm-none-eabi/include/c++/14.2.1/bits/stl_algobase.h **** 		   _GLIBCXX_STD_C::_Deque_iterator<_Tp, _Ref, _Ptr>,
 529:/Applications/ArmGNUToolchain/14.2.rel1/arm-none-eabi/arm-none-eabi/include/c++/14.2.1/bits/stl_algobase.h **** 		   _OI);
 530:/Applications/ArmGNUToolchain/14.2.rel1/arm-none-eabi/arm-none-eabi/include/c++/14.2.1/bits/stl_algobase.h **** 
 531:/Applications/ArmGNUToolchain/14.2.rel1/arm-none-eabi/arm-none-eabi/include/c++/14.2.1/bits/stl_algobase.h ****   template<bool _IsMove,
 532:/Applications/ArmGNUToolchain/14.2.rel1/arm-none-eabi/arm-none-eabi/include/c++/14.2.1/bits/stl_algobase.h **** 	   typename _ITp, typename _IRef, typename _IPtr, typename _OTp>
 533:/Applications/ArmGNUToolchain/14.2.rel1/arm-none-eabi/arm-none-eabi/include/c++/14.2.1/bits/stl_algobase.h ****     _GLIBCXX_STD_C::_Deque_iterator<_OTp, _OTp&, _OTp*>
 534:/Applications/ArmGNUToolchain/14.2.rel1/arm-none-eabi/arm-none-eabi/include/c++/14.2.1/bits/stl_algobase.h ****     __copy_move_a1(_GLIBCXX_STD_C::_Deque_iterator<_ITp, _IRef, _IPtr>,
 535:/Applications/ArmGNUToolchain/14.2.rel1/arm-none-eabi/arm-none-eabi/include/c++/14.2.1/bits/stl_algobase.h **** 		   _GLIBCXX_STD_C::_Deque_iterator<_ITp, _IRef, _IPtr>,
 536:/Applications/ArmGNUToolchain/14.2.rel1/arm-none-eabi/arm-none-eabi/include/c++/14.2.1/bits/stl_algobase.h **** 		   _GLIBCXX_STD_C::_Deque_iterator<_OTp, _OTp&, _OTp*>);
 537:/Applications/ArmGNUToolchain/14.2.rel1/arm-none-eabi/arm-none-eabi/include/c++/14.2.1/bits/stl_algobase.h **** 
 538:/Applications/ArmGNUToolchain/14.2.rel1/arm-none-eabi/arm-none-eabi/include/c++/14.2.1/bits/stl_algobase.h ****   template<bool _IsMove, typename _II, typename _Tp>
 539:/Applications/ArmGNUToolchain/14.2.rel1/arm-none-eabi/arm-none-eabi/include/c++/14.2.1/bits/stl_algobase.h ****     typename __gnu_cxx::__enable_if<
 540:/Applications/ArmGNUToolchain/14.2.rel1/arm-none-eabi/arm-none-eabi/include/c++/14.2.1/bits/stl_algobase.h ****       __is_random_access_iter<_II>::__value,
 541:/Applications/ArmGNUToolchain/14.2.rel1/arm-none-eabi/arm-none-eabi/include/c++/14.2.1/bits/stl_algobase.h ****       _GLIBCXX_STD_C::_Deque_iterator<_Tp, _Tp&, _Tp*> >::__type
 542:/Applications/ArmGNUToolchain/14.2.rel1/arm-none-eabi/arm-none-eabi/include/c++/14.2.1/bits/stl_algobase.h ****     __copy_move_a1(_II, _II, _GLIBCXX_STD_C::_Deque_iterator<_Tp, _Tp&, _Tp*>);
 543:/Applications/ArmGNUToolchain/14.2.rel1/arm-none-eabi/arm-none-eabi/include/c++/14.2.1/bits/stl_algobase.h **** 
 544:/Applications/ArmGNUToolchain/14.2.rel1/arm-none-eabi/arm-none-eabi/include/c++/14.2.1/bits/stl_algobase.h ****   template<bool _IsMove, typename _II, typename _OI>
 545:/Applications/ArmGNUToolchain/14.2.rel1/arm-none-eabi/arm-none-eabi/include/c++/14.2.1/bits/stl_algobase.h ****     _GLIBCXX20_CONSTEXPR
 546:/Applications/ArmGNUToolchain/14.2.rel1/arm-none-eabi/arm-none-eabi/include/c++/14.2.1/bits/stl_algobase.h ****     inline _OI
 547:/Applications/ArmGNUToolchain/14.2.rel1/arm-none-eabi/arm-none-eabi/include/c++/14.2.1/bits/stl_algobase.h ****     __copy_move_a1(_II __first, _II __last, _OI __result)
 548:/Applications/ArmGNUToolchain/14.2.rel1/arm-none-eabi/arm-none-eabi/include/c++/14.2.1/bits/stl_algobase.h ****     { return std::__copy_move_a2<_IsMove>(__first, __last, __result); }
 549:/Applications/ArmGNUToolchain/14.2.rel1/arm-none-eabi/arm-none-eabi/include/c++/14.2.1/bits/stl_algobase.h **** 
 550:/Applications/ArmGNUToolchain/14.2.rel1/arm-none-eabi/arm-none-eabi/include/c++/14.2.1/bits/stl_algobase.h ****   template<bool _IsMove, typename _II, typename _OI>
 551:/Applications/ArmGNUToolchain/14.2.rel1/arm-none-eabi/arm-none-eabi/include/c++/14.2.1/bits/stl_algobase.h ****     _GLIBCXX20_CONSTEXPR
 552:/Applications/ArmGNUToolchain/14.2.rel1/arm-none-eabi/arm-none-eabi/include/c++/14.2.1/bits/stl_algobase.h ****     inline _OI
 553:/Applications/ArmGNUToolchain/14.2.rel1/arm-none-eabi/arm-none-eabi/include/c++/14.2.1/bits/stl_algobase.h ****     __copy_move_a(_II __first, _II __last, _OI __result)
 554:/Applications/ArmGNUToolchain/14.2.rel1/arm-none-eabi/arm-none-eabi/include/c++/14.2.1/bits/stl_algobase.h ****     {
 555:/Applications/ArmGNUToolchain/14.2.rel1/arm-none-eabi/arm-none-eabi/include/c++/14.2.1/bits/stl_algobase.h ****       return std::__niter_wrap(__result,
 556:/Applications/ArmGNUToolchain/14.2.rel1/arm-none-eabi/arm-none-eabi/include/c++/14.2.1/bits/stl_algobase.h **** 		std::__copy_move_a1<_IsMove>(std::__niter_base(__first),
 557:/Applications/ArmGNUToolchain/14.2.rel1/arm-none-eabi/arm-none-eabi/include/c++/14.2.1/bits/stl_algobase.h **** 					     std::__niter_base(__last),
 558:/Applications/ArmGNUToolchain/14.2.rel1/arm-none-eabi/arm-none-eabi/include/c++/14.2.1/bits/stl_algobase.h **** 					     std::__niter_base(__result)));
 559:/Applications/ArmGNUToolchain/14.2.rel1/arm-none-eabi/arm-none-eabi/include/c++/14.2.1/bits/stl_algobase.h ****     }
 560:/Applications/ArmGNUToolchain/14.2.rel1/arm-none-eabi/arm-none-eabi/include/c++/14.2.1/bits/stl_algobase.h **** 
 561:/Applications/ArmGNUToolchain/14.2.rel1/arm-none-eabi/arm-none-eabi/include/c++/14.2.1/bits/stl_algobase.h ****   template<bool _IsMove,
 562:/Applications/ArmGNUToolchain/14.2.rel1/arm-none-eabi/arm-none-eabi/include/c++/14.2.1/bits/stl_algobase.h **** 	   typename _Ite, typename _Seq, typename _Cat, typename _OI>
 563:/Applications/ArmGNUToolchain/14.2.rel1/arm-none-eabi/arm-none-eabi/include/c++/14.2.1/bits/stl_algobase.h ****     _GLIBCXX20_CONSTEXPR
 564:/Applications/ArmGNUToolchain/14.2.rel1/arm-none-eabi/arm-none-eabi/include/c++/14.2.1/bits/stl_algobase.h ****     _OI
 565:/Applications/ArmGNUToolchain/14.2.rel1/arm-none-eabi/arm-none-eabi/include/c++/14.2.1/bits/stl_algobase.h ****     __copy_move_a(const ::__gnu_debug::_Safe_iterator<_Ite, _Seq, _Cat>&,
ARM GAS  /var/folders/y7/g6pkzsp12sx54x3s3mvyn15r0000gn/T//cc9jJkGr.s 			page 33


 566:/Applications/ArmGNUToolchain/14.2.rel1/arm-none-eabi/arm-none-eabi/include/c++/14.2.1/bits/stl_algobase.h **** 		  const ::__gnu_debug::_Safe_iterator<_Ite, _Seq, _Cat>&,
 567:/Applications/ArmGNUToolchain/14.2.rel1/arm-none-eabi/arm-none-eabi/include/c++/14.2.1/bits/stl_algobase.h **** 		  _OI);
 568:/Applications/ArmGNUToolchain/14.2.rel1/arm-none-eabi/arm-none-eabi/include/c++/14.2.1/bits/stl_algobase.h **** 
 569:/Applications/ArmGNUToolchain/14.2.rel1/arm-none-eabi/arm-none-eabi/include/c++/14.2.1/bits/stl_algobase.h ****   template<bool _IsMove,
 570:/Applications/ArmGNUToolchain/14.2.rel1/arm-none-eabi/arm-none-eabi/include/c++/14.2.1/bits/stl_algobase.h **** 	   typename _II, typename _Ite, typename _Seq, typename _Cat>
 571:/Applications/ArmGNUToolchain/14.2.rel1/arm-none-eabi/arm-none-eabi/include/c++/14.2.1/bits/stl_algobase.h ****     _GLIBCXX20_CONSTEXPR
 572:/Applications/ArmGNUToolchain/14.2.rel1/arm-none-eabi/arm-none-eabi/include/c++/14.2.1/bits/stl_algobase.h ****     __gnu_debug::_Safe_iterator<_Ite, _Seq, _Cat>
 573:/Applications/ArmGNUToolchain/14.2.rel1/arm-none-eabi/arm-none-eabi/include/c++/14.2.1/bits/stl_algobase.h ****     __copy_move_a(_II, _II,
 574:/Applications/ArmGNUToolchain/14.2.rel1/arm-none-eabi/arm-none-eabi/include/c++/14.2.1/bits/stl_algobase.h **** 		  const ::__gnu_debug::_Safe_iterator<_Ite, _Seq, _Cat>&);
 575:/Applications/ArmGNUToolchain/14.2.rel1/arm-none-eabi/arm-none-eabi/include/c++/14.2.1/bits/stl_algobase.h **** 
 576:/Applications/ArmGNUToolchain/14.2.rel1/arm-none-eabi/arm-none-eabi/include/c++/14.2.1/bits/stl_algobase.h ****   template<bool _IsMove,
 577:/Applications/ArmGNUToolchain/14.2.rel1/arm-none-eabi/arm-none-eabi/include/c++/14.2.1/bits/stl_algobase.h **** 	   typename _IIte, typename _ISeq, typename _ICat,
 578:/Applications/ArmGNUToolchain/14.2.rel1/arm-none-eabi/arm-none-eabi/include/c++/14.2.1/bits/stl_algobase.h **** 	   typename _OIte, typename _OSeq, typename _OCat>
 579:/Applications/ArmGNUToolchain/14.2.rel1/arm-none-eabi/arm-none-eabi/include/c++/14.2.1/bits/stl_algobase.h ****     _GLIBCXX20_CONSTEXPR
 580:/Applications/ArmGNUToolchain/14.2.rel1/arm-none-eabi/arm-none-eabi/include/c++/14.2.1/bits/stl_algobase.h ****     ::__gnu_debug::_Safe_iterator<_OIte, _OSeq, _OCat>
 581:/Applications/ArmGNUToolchain/14.2.rel1/arm-none-eabi/arm-none-eabi/include/c++/14.2.1/bits/stl_algobase.h ****     __copy_move_a(const ::__gnu_debug::_Safe_iterator<_IIte, _ISeq, _ICat>&,
 582:/Applications/ArmGNUToolchain/14.2.rel1/arm-none-eabi/arm-none-eabi/include/c++/14.2.1/bits/stl_algobase.h **** 		  const ::__gnu_debug::_Safe_iterator<_IIte, _ISeq, _ICat>&,
 583:/Applications/ArmGNUToolchain/14.2.rel1/arm-none-eabi/arm-none-eabi/include/c++/14.2.1/bits/stl_algobase.h **** 		  const ::__gnu_debug::_Safe_iterator<_OIte, _OSeq, _OCat>&);
 584:/Applications/ArmGNUToolchain/14.2.rel1/arm-none-eabi/arm-none-eabi/include/c++/14.2.1/bits/stl_algobase.h **** 
 585:/Applications/ArmGNUToolchain/14.2.rel1/arm-none-eabi/arm-none-eabi/include/c++/14.2.1/bits/stl_algobase.h ****   template<typename _InputIterator, typename _Size, typename _OutputIterator>
 586:/Applications/ArmGNUToolchain/14.2.rel1/arm-none-eabi/arm-none-eabi/include/c++/14.2.1/bits/stl_algobase.h ****     _GLIBCXX20_CONSTEXPR
 587:/Applications/ArmGNUToolchain/14.2.rel1/arm-none-eabi/arm-none-eabi/include/c++/14.2.1/bits/stl_algobase.h ****     _OutputIterator
 588:/Applications/ArmGNUToolchain/14.2.rel1/arm-none-eabi/arm-none-eabi/include/c++/14.2.1/bits/stl_algobase.h ****     __copy_n_a(_InputIterator __first, _Size __n, _OutputIterator __result,
 589:/Applications/ArmGNUToolchain/14.2.rel1/arm-none-eabi/arm-none-eabi/include/c++/14.2.1/bits/stl_algobase.h **** 	       bool)
 590:/Applications/ArmGNUToolchain/14.2.rel1/arm-none-eabi/arm-none-eabi/include/c++/14.2.1/bits/stl_algobase.h ****     {
 591:/Applications/ArmGNUToolchain/14.2.rel1/arm-none-eabi/arm-none-eabi/include/c++/14.2.1/bits/stl_algobase.h ****       if (__n > 0)
 592:/Applications/ArmGNUToolchain/14.2.rel1/arm-none-eabi/arm-none-eabi/include/c++/14.2.1/bits/stl_algobase.h **** 	{
 593:/Applications/ArmGNUToolchain/14.2.rel1/arm-none-eabi/arm-none-eabi/include/c++/14.2.1/bits/stl_algobase.h **** 	  while (true)
 594:/Applications/ArmGNUToolchain/14.2.rel1/arm-none-eabi/arm-none-eabi/include/c++/14.2.1/bits/stl_algobase.h **** 	    {
 595:/Applications/ArmGNUToolchain/14.2.rel1/arm-none-eabi/arm-none-eabi/include/c++/14.2.1/bits/stl_algobase.h **** 	      *__result = *__first;
 596:/Applications/ArmGNUToolchain/14.2.rel1/arm-none-eabi/arm-none-eabi/include/c++/14.2.1/bits/stl_algobase.h **** 	      ++__result;
 597:/Applications/ArmGNUToolchain/14.2.rel1/arm-none-eabi/arm-none-eabi/include/c++/14.2.1/bits/stl_algobase.h **** 	      if (--__n > 0)
 598:/Applications/ArmGNUToolchain/14.2.rel1/arm-none-eabi/arm-none-eabi/include/c++/14.2.1/bits/stl_algobase.h **** 		++__first;
 599:/Applications/ArmGNUToolchain/14.2.rel1/arm-none-eabi/arm-none-eabi/include/c++/14.2.1/bits/stl_algobase.h **** 	      else
 600:/Applications/ArmGNUToolchain/14.2.rel1/arm-none-eabi/arm-none-eabi/include/c++/14.2.1/bits/stl_algobase.h **** 		break;
 601:/Applications/ArmGNUToolchain/14.2.rel1/arm-none-eabi/arm-none-eabi/include/c++/14.2.1/bits/stl_algobase.h **** 	    }
 602:/Applications/ArmGNUToolchain/14.2.rel1/arm-none-eabi/arm-none-eabi/include/c++/14.2.1/bits/stl_algobase.h **** 	}
 603:/Applications/ArmGNUToolchain/14.2.rel1/arm-none-eabi/arm-none-eabi/include/c++/14.2.1/bits/stl_algobase.h ****       return __result;
 604:/Applications/ArmGNUToolchain/14.2.rel1/arm-none-eabi/arm-none-eabi/include/c++/14.2.1/bits/stl_algobase.h ****     }
 605:/Applications/ArmGNUToolchain/14.2.rel1/arm-none-eabi/arm-none-eabi/include/c++/14.2.1/bits/stl_algobase.h **** 
 606:/Applications/ArmGNUToolchain/14.2.rel1/arm-none-eabi/arm-none-eabi/include/c++/14.2.1/bits/stl_algobase.h **** #if _GLIBCXX_HOSTED
 607:/Applications/ArmGNUToolchain/14.2.rel1/arm-none-eabi/arm-none-eabi/include/c++/14.2.1/bits/stl_algobase.h ****   template<typename _CharT, typename _Size>
 608:/Applications/ArmGNUToolchain/14.2.rel1/arm-none-eabi/arm-none-eabi/include/c++/14.2.1/bits/stl_algobase.h ****     typename __gnu_cxx::__enable_if<
 609:/Applications/ArmGNUToolchain/14.2.rel1/arm-none-eabi/arm-none-eabi/include/c++/14.2.1/bits/stl_algobase.h ****       __is_char<_CharT>::__value, _CharT*>::__type
 610:/Applications/ArmGNUToolchain/14.2.rel1/arm-none-eabi/arm-none-eabi/include/c++/14.2.1/bits/stl_algobase.h ****     __copy_n_a(istreambuf_iterator<_CharT, char_traits<_CharT> >,
 611:/Applications/ArmGNUToolchain/14.2.rel1/arm-none-eabi/arm-none-eabi/include/c++/14.2.1/bits/stl_algobase.h **** 	       _Size, _CharT*, bool);
 612:/Applications/ArmGNUToolchain/14.2.rel1/arm-none-eabi/arm-none-eabi/include/c++/14.2.1/bits/stl_algobase.h **** 
 613:/Applications/ArmGNUToolchain/14.2.rel1/arm-none-eabi/arm-none-eabi/include/c++/14.2.1/bits/stl_algobase.h ****   template<typename _CharT, typename _Size>
 614:/Applications/ArmGNUToolchain/14.2.rel1/arm-none-eabi/arm-none-eabi/include/c++/14.2.1/bits/stl_algobase.h ****     typename __gnu_cxx::__enable_if<
 615:/Applications/ArmGNUToolchain/14.2.rel1/arm-none-eabi/arm-none-eabi/include/c++/14.2.1/bits/stl_algobase.h ****       __is_char<_CharT>::__value,
 616:/Applications/ArmGNUToolchain/14.2.rel1/arm-none-eabi/arm-none-eabi/include/c++/14.2.1/bits/stl_algobase.h ****       _GLIBCXX_STD_C::_Deque_iterator<_CharT, _CharT&, _CharT*> >::__type
 617:/Applications/ArmGNUToolchain/14.2.rel1/arm-none-eabi/arm-none-eabi/include/c++/14.2.1/bits/stl_algobase.h ****     __copy_n_a(istreambuf_iterator<_CharT, char_traits<_CharT> >, _Size,
 618:/Applications/ArmGNUToolchain/14.2.rel1/arm-none-eabi/arm-none-eabi/include/c++/14.2.1/bits/stl_algobase.h **** 	       _GLIBCXX_STD_C::_Deque_iterator<_CharT, _CharT&, _CharT*>,
 619:/Applications/ArmGNUToolchain/14.2.rel1/arm-none-eabi/arm-none-eabi/include/c++/14.2.1/bits/stl_algobase.h **** 	       bool);
 620:/Applications/ArmGNUToolchain/14.2.rel1/arm-none-eabi/arm-none-eabi/include/c++/14.2.1/bits/stl_algobase.h **** #endif
 621:/Applications/ArmGNUToolchain/14.2.rel1/arm-none-eabi/arm-none-eabi/include/c++/14.2.1/bits/stl_algobase.h **** 
 622:/Applications/ArmGNUToolchain/14.2.rel1/arm-none-eabi/arm-none-eabi/include/c++/14.2.1/bits/stl_algobase.h ****   /**
ARM GAS  /var/folders/y7/g6pkzsp12sx54x3s3mvyn15r0000gn/T//cc9jJkGr.s 			page 34


 623:/Applications/ArmGNUToolchain/14.2.rel1/arm-none-eabi/arm-none-eabi/include/c++/14.2.1/bits/stl_algobase.h ****    *  @brief Copies the range [first,last) into result.
 624:/Applications/ArmGNUToolchain/14.2.rel1/arm-none-eabi/arm-none-eabi/include/c++/14.2.1/bits/stl_algobase.h ****    *  @ingroup mutating_algorithms
 625:/Applications/ArmGNUToolchain/14.2.rel1/arm-none-eabi/arm-none-eabi/include/c++/14.2.1/bits/stl_algobase.h ****    *  @param  __first  An input iterator.
 626:/Applications/ArmGNUToolchain/14.2.rel1/arm-none-eabi/arm-none-eabi/include/c++/14.2.1/bits/stl_algobase.h ****    *  @param  __last   An input iterator.
 627:/Applications/ArmGNUToolchain/14.2.rel1/arm-none-eabi/arm-none-eabi/include/c++/14.2.1/bits/stl_algobase.h ****    *  @param  __result An output iterator.
 628:/Applications/ArmGNUToolchain/14.2.rel1/arm-none-eabi/arm-none-eabi/include/c++/14.2.1/bits/stl_algobase.h ****    *  @return   result + (last - first)
 629:/Applications/ArmGNUToolchain/14.2.rel1/arm-none-eabi/arm-none-eabi/include/c++/14.2.1/bits/stl_algobase.h ****    *
 630:/Applications/ArmGNUToolchain/14.2.rel1/arm-none-eabi/arm-none-eabi/include/c++/14.2.1/bits/stl_algobase.h ****    *  This inline function will boil down to a call to @c memmove whenever
 631:/Applications/ArmGNUToolchain/14.2.rel1/arm-none-eabi/arm-none-eabi/include/c++/14.2.1/bits/stl_algobase.h ****    *  possible.  Failing that, if random access iterators are passed, then the
 632:/Applications/ArmGNUToolchain/14.2.rel1/arm-none-eabi/arm-none-eabi/include/c++/14.2.1/bits/stl_algobase.h ****    *  loop count will be known (and therefore a candidate for compiler
 633:/Applications/ArmGNUToolchain/14.2.rel1/arm-none-eabi/arm-none-eabi/include/c++/14.2.1/bits/stl_algobase.h ****    *  optimizations such as unrolling).  Result may not be contained within
 634:/Applications/ArmGNUToolchain/14.2.rel1/arm-none-eabi/arm-none-eabi/include/c++/14.2.1/bits/stl_algobase.h ****    *  [first,last); the copy_backward function should be used instead.
 635:/Applications/ArmGNUToolchain/14.2.rel1/arm-none-eabi/arm-none-eabi/include/c++/14.2.1/bits/stl_algobase.h ****    *
 636:/Applications/ArmGNUToolchain/14.2.rel1/arm-none-eabi/arm-none-eabi/include/c++/14.2.1/bits/stl_algobase.h ****    *  Note that the end of the output range is permitted to be contained
 637:/Applications/ArmGNUToolchain/14.2.rel1/arm-none-eabi/arm-none-eabi/include/c++/14.2.1/bits/stl_algobase.h ****    *  within [first,last).
 638:/Applications/ArmGNUToolchain/14.2.rel1/arm-none-eabi/arm-none-eabi/include/c++/14.2.1/bits/stl_algobase.h ****   */
 639:/Applications/ArmGNUToolchain/14.2.rel1/arm-none-eabi/arm-none-eabi/include/c++/14.2.1/bits/stl_algobase.h ****   template<typename _II, typename _OI>
 640:/Applications/ArmGNUToolchain/14.2.rel1/arm-none-eabi/arm-none-eabi/include/c++/14.2.1/bits/stl_algobase.h ****     _GLIBCXX20_CONSTEXPR
 641:/Applications/ArmGNUToolchain/14.2.rel1/arm-none-eabi/arm-none-eabi/include/c++/14.2.1/bits/stl_algobase.h ****     inline _OI
 642:/Applications/ArmGNUToolchain/14.2.rel1/arm-none-eabi/arm-none-eabi/include/c++/14.2.1/bits/stl_algobase.h ****     copy(_II __first, _II __last, _OI __result)
 643:/Applications/ArmGNUToolchain/14.2.rel1/arm-none-eabi/arm-none-eabi/include/c++/14.2.1/bits/stl_algobase.h ****     {
 644:/Applications/ArmGNUToolchain/14.2.rel1/arm-none-eabi/arm-none-eabi/include/c++/14.2.1/bits/stl_algobase.h ****       // concept requirements
 645:/Applications/ArmGNUToolchain/14.2.rel1/arm-none-eabi/arm-none-eabi/include/c++/14.2.1/bits/stl_algobase.h ****       __glibcxx_function_requires(_InputIteratorConcept<_II>)
 646:/Applications/ArmGNUToolchain/14.2.rel1/arm-none-eabi/arm-none-eabi/include/c++/14.2.1/bits/stl_algobase.h ****       __glibcxx_function_requires(_OutputIteratorConcept<_OI,
 647:/Applications/ArmGNUToolchain/14.2.rel1/arm-none-eabi/arm-none-eabi/include/c++/14.2.1/bits/stl_algobase.h **** 	    typename iterator_traits<_II>::reference>)
 648:/Applications/ArmGNUToolchain/14.2.rel1/arm-none-eabi/arm-none-eabi/include/c++/14.2.1/bits/stl_algobase.h ****       __glibcxx_requires_can_increment_range(__first, __last, __result);
 649:/Applications/ArmGNUToolchain/14.2.rel1/arm-none-eabi/arm-none-eabi/include/c++/14.2.1/bits/stl_algobase.h **** 
 650:/Applications/ArmGNUToolchain/14.2.rel1/arm-none-eabi/arm-none-eabi/include/c++/14.2.1/bits/stl_algobase.h ****       return std::__copy_move_a<__is_move_iterator<_II>::__value>
 651:/Applications/ArmGNUToolchain/14.2.rel1/arm-none-eabi/arm-none-eabi/include/c++/14.2.1/bits/stl_algobase.h **** 	     (std::__miter_base(__first), std::__miter_base(__last), __result);
 652:/Applications/ArmGNUToolchain/14.2.rel1/arm-none-eabi/arm-none-eabi/include/c++/14.2.1/bits/stl_algobase.h ****     }
 653:/Applications/ArmGNUToolchain/14.2.rel1/arm-none-eabi/arm-none-eabi/include/c++/14.2.1/bits/stl_algobase.h **** 
 654:/Applications/ArmGNUToolchain/14.2.rel1/arm-none-eabi/arm-none-eabi/include/c++/14.2.1/bits/stl_algobase.h **** #if __cplusplus >= 201103L
 655:/Applications/ArmGNUToolchain/14.2.rel1/arm-none-eabi/arm-none-eabi/include/c++/14.2.1/bits/stl_algobase.h ****   /**
 656:/Applications/ArmGNUToolchain/14.2.rel1/arm-none-eabi/arm-none-eabi/include/c++/14.2.1/bits/stl_algobase.h ****    *  @brief Moves the range [first,last) into result.
 657:/Applications/ArmGNUToolchain/14.2.rel1/arm-none-eabi/arm-none-eabi/include/c++/14.2.1/bits/stl_algobase.h ****    *  @ingroup mutating_algorithms
 658:/Applications/ArmGNUToolchain/14.2.rel1/arm-none-eabi/arm-none-eabi/include/c++/14.2.1/bits/stl_algobase.h ****    *  @param  __first  An input iterator.
 659:/Applications/ArmGNUToolchain/14.2.rel1/arm-none-eabi/arm-none-eabi/include/c++/14.2.1/bits/stl_algobase.h ****    *  @param  __last   An input iterator.
 660:/Applications/ArmGNUToolchain/14.2.rel1/arm-none-eabi/arm-none-eabi/include/c++/14.2.1/bits/stl_algobase.h ****    *  @param  __result An output iterator.
 661:/Applications/ArmGNUToolchain/14.2.rel1/arm-none-eabi/arm-none-eabi/include/c++/14.2.1/bits/stl_algobase.h ****    *  @return   result + (last - first)
 662:/Applications/ArmGNUToolchain/14.2.rel1/arm-none-eabi/arm-none-eabi/include/c++/14.2.1/bits/stl_algobase.h ****    *
 663:/Applications/ArmGNUToolchain/14.2.rel1/arm-none-eabi/arm-none-eabi/include/c++/14.2.1/bits/stl_algobase.h ****    *  This inline function will boil down to a call to @c memmove whenever
 664:/Applications/ArmGNUToolchain/14.2.rel1/arm-none-eabi/arm-none-eabi/include/c++/14.2.1/bits/stl_algobase.h ****    *  possible.  Failing that, if random access iterators are passed, then the
 665:/Applications/ArmGNUToolchain/14.2.rel1/arm-none-eabi/arm-none-eabi/include/c++/14.2.1/bits/stl_algobase.h ****    *  loop count will be known (and therefore a candidate for compiler
 666:/Applications/ArmGNUToolchain/14.2.rel1/arm-none-eabi/arm-none-eabi/include/c++/14.2.1/bits/stl_algobase.h ****    *  optimizations such as unrolling).  Result may not be contained within
 667:/Applications/ArmGNUToolchain/14.2.rel1/arm-none-eabi/arm-none-eabi/include/c++/14.2.1/bits/stl_algobase.h ****    *  [first,last); the move_backward function should be used instead.
 668:/Applications/ArmGNUToolchain/14.2.rel1/arm-none-eabi/arm-none-eabi/include/c++/14.2.1/bits/stl_algobase.h ****    *
 669:/Applications/ArmGNUToolchain/14.2.rel1/arm-none-eabi/arm-none-eabi/include/c++/14.2.1/bits/stl_algobase.h ****    *  Note that the end of the output range is permitted to be contained
 670:/Applications/ArmGNUToolchain/14.2.rel1/arm-none-eabi/arm-none-eabi/include/c++/14.2.1/bits/stl_algobase.h ****    *  within [first,last).
 671:/Applications/ArmGNUToolchain/14.2.rel1/arm-none-eabi/arm-none-eabi/include/c++/14.2.1/bits/stl_algobase.h ****   */
 672:/Applications/ArmGNUToolchain/14.2.rel1/arm-none-eabi/arm-none-eabi/include/c++/14.2.1/bits/stl_algobase.h ****   template<typename _II, typename _OI>
 673:/Applications/ArmGNUToolchain/14.2.rel1/arm-none-eabi/arm-none-eabi/include/c++/14.2.1/bits/stl_algobase.h ****     _GLIBCXX20_CONSTEXPR
 674:/Applications/ArmGNUToolchain/14.2.rel1/arm-none-eabi/arm-none-eabi/include/c++/14.2.1/bits/stl_algobase.h ****     inline _OI
 675:/Applications/ArmGNUToolchain/14.2.rel1/arm-none-eabi/arm-none-eabi/include/c++/14.2.1/bits/stl_algobase.h ****     move(_II __first, _II __last, _OI __result)
 676:/Applications/ArmGNUToolchain/14.2.rel1/arm-none-eabi/arm-none-eabi/include/c++/14.2.1/bits/stl_algobase.h ****     {
 677:/Applications/ArmGNUToolchain/14.2.rel1/arm-none-eabi/arm-none-eabi/include/c++/14.2.1/bits/stl_algobase.h ****       // concept requirements
 678:/Applications/ArmGNUToolchain/14.2.rel1/arm-none-eabi/arm-none-eabi/include/c++/14.2.1/bits/stl_algobase.h ****       __glibcxx_function_requires(_InputIteratorConcept<_II>)
 679:/Applications/ArmGNUToolchain/14.2.rel1/arm-none-eabi/arm-none-eabi/include/c++/14.2.1/bits/stl_algobase.h ****       __glibcxx_function_requires(_OutputIteratorConcept<_OI,
ARM GAS  /var/folders/y7/g6pkzsp12sx54x3s3mvyn15r0000gn/T//cc9jJkGr.s 			page 35


 680:/Applications/ArmGNUToolchain/14.2.rel1/arm-none-eabi/arm-none-eabi/include/c++/14.2.1/bits/stl_algobase.h **** 	    typename iterator_traits<_II>::value_type&&>)
 681:/Applications/ArmGNUToolchain/14.2.rel1/arm-none-eabi/arm-none-eabi/include/c++/14.2.1/bits/stl_algobase.h ****       __glibcxx_requires_can_increment_range(__first, __last, __result);
 682:/Applications/ArmGNUToolchain/14.2.rel1/arm-none-eabi/arm-none-eabi/include/c++/14.2.1/bits/stl_algobase.h **** 
 683:/Applications/ArmGNUToolchain/14.2.rel1/arm-none-eabi/arm-none-eabi/include/c++/14.2.1/bits/stl_algobase.h ****       return std::__copy_move_a<true>(std::__miter_base(__first),
 684:/Applications/ArmGNUToolchain/14.2.rel1/arm-none-eabi/arm-none-eabi/include/c++/14.2.1/bits/stl_algobase.h **** 				      std::__miter_base(__last), __result);
 685:/Applications/ArmGNUToolchain/14.2.rel1/arm-none-eabi/arm-none-eabi/include/c++/14.2.1/bits/stl_algobase.h ****     }
 686:/Applications/ArmGNUToolchain/14.2.rel1/arm-none-eabi/arm-none-eabi/include/c++/14.2.1/bits/stl_algobase.h **** 
 687:/Applications/ArmGNUToolchain/14.2.rel1/arm-none-eabi/arm-none-eabi/include/c++/14.2.1/bits/stl_algobase.h **** #define _GLIBCXX_MOVE3(_Tp, _Up, _Vp) std::move(_Tp, _Up, _Vp)
 688:/Applications/ArmGNUToolchain/14.2.rel1/arm-none-eabi/arm-none-eabi/include/c++/14.2.1/bits/stl_algobase.h **** #else
 689:/Applications/ArmGNUToolchain/14.2.rel1/arm-none-eabi/arm-none-eabi/include/c++/14.2.1/bits/stl_algobase.h **** #define _GLIBCXX_MOVE3(_Tp, _Up, _Vp) std::copy(_Tp, _Up, _Vp)
 690:/Applications/ArmGNUToolchain/14.2.rel1/arm-none-eabi/arm-none-eabi/include/c++/14.2.1/bits/stl_algobase.h **** #endif
 691:/Applications/ArmGNUToolchain/14.2.rel1/arm-none-eabi/arm-none-eabi/include/c++/14.2.1/bits/stl_algobase.h **** 
 692:/Applications/ArmGNUToolchain/14.2.rel1/arm-none-eabi/arm-none-eabi/include/c++/14.2.1/bits/stl_algobase.h ****   template<bool _IsMove, bool _IsSimple, typename _Category>
 693:/Applications/ArmGNUToolchain/14.2.rel1/arm-none-eabi/arm-none-eabi/include/c++/14.2.1/bits/stl_algobase.h ****     struct __copy_move_backward
 694:/Applications/ArmGNUToolchain/14.2.rel1/arm-none-eabi/arm-none-eabi/include/c++/14.2.1/bits/stl_algobase.h ****     {
 695:/Applications/ArmGNUToolchain/14.2.rel1/arm-none-eabi/arm-none-eabi/include/c++/14.2.1/bits/stl_algobase.h ****       template<typename _BI1, typename _BI2>
 696:/Applications/ArmGNUToolchain/14.2.rel1/arm-none-eabi/arm-none-eabi/include/c++/14.2.1/bits/stl_algobase.h **** 	_GLIBCXX20_CONSTEXPR
 697:/Applications/ArmGNUToolchain/14.2.rel1/arm-none-eabi/arm-none-eabi/include/c++/14.2.1/bits/stl_algobase.h **** 	static _BI2
 698:/Applications/ArmGNUToolchain/14.2.rel1/arm-none-eabi/arm-none-eabi/include/c++/14.2.1/bits/stl_algobase.h **** 	__copy_move_b(_BI1 __first, _BI1 __last, _BI2 __result)
 699:/Applications/ArmGNUToolchain/14.2.rel1/arm-none-eabi/arm-none-eabi/include/c++/14.2.1/bits/stl_algobase.h **** 	{
 700:/Applications/ArmGNUToolchain/14.2.rel1/arm-none-eabi/arm-none-eabi/include/c++/14.2.1/bits/stl_algobase.h **** 	  while (__first != __last)
 701:/Applications/ArmGNUToolchain/14.2.rel1/arm-none-eabi/arm-none-eabi/include/c++/14.2.1/bits/stl_algobase.h **** 	    *--__result = *--__last;
 702:/Applications/ArmGNUToolchain/14.2.rel1/arm-none-eabi/arm-none-eabi/include/c++/14.2.1/bits/stl_algobase.h **** 	  return __result;
 703:/Applications/ArmGNUToolchain/14.2.rel1/arm-none-eabi/arm-none-eabi/include/c++/14.2.1/bits/stl_algobase.h **** 	}
 704:/Applications/ArmGNUToolchain/14.2.rel1/arm-none-eabi/arm-none-eabi/include/c++/14.2.1/bits/stl_algobase.h ****     };
 705:/Applications/ArmGNUToolchain/14.2.rel1/arm-none-eabi/arm-none-eabi/include/c++/14.2.1/bits/stl_algobase.h **** 
 706:/Applications/ArmGNUToolchain/14.2.rel1/arm-none-eabi/arm-none-eabi/include/c++/14.2.1/bits/stl_algobase.h **** #if __cplusplus >= 201103L
 707:/Applications/ArmGNUToolchain/14.2.rel1/arm-none-eabi/arm-none-eabi/include/c++/14.2.1/bits/stl_algobase.h ****   template<typename _Category>
 708:/Applications/ArmGNUToolchain/14.2.rel1/arm-none-eabi/arm-none-eabi/include/c++/14.2.1/bits/stl_algobase.h ****     struct __copy_move_backward<true, false, _Category>
 709:/Applications/ArmGNUToolchain/14.2.rel1/arm-none-eabi/arm-none-eabi/include/c++/14.2.1/bits/stl_algobase.h ****     {
 710:/Applications/ArmGNUToolchain/14.2.rel1/arm-none-eabi/arm-none-eabi/include/c++/14.2.1/bits/stl_algobase.h ****       template<typename _BI1, typename _BI2>
 711:/Applications/ArmGNUToolchain/14.2.rel1/arm-none-eabi/arm-none-eabi/include/c++/14.2.1/bits/stl_algobase.h **** 	_GLIBCXX20_CONSTEXPR
 712:/Applications/ArmGNUToolchain/14.2.rel1/arm-none-eabi/arm-none-eabi/include/c++/14.2.1/bits/stl_algobase.h **** 	static _BI2
 713:/Applications/ArmGNUToolchain/14.2.rel1/arm-none-eabi/arm-none-eabi/include/c++/14.2.1/bits/stl_algobase.h **** 	__copy_move_b(_BI1 __first, _BI1 __last, _BI2 __result)
 714:/Applications/ArmGNUToolchain/14.2.rel1/arm-none-eabi/arm-none-eabi/include/c++/14.2.1/bits/stl_algobase.h **** 	{
 715:/Applications/ArmGNUToolchain/14.2.rel1/arm-none-eabi/arm-none-eabi/include/c++/14.2.1/bits/stl_algobase.h **** 	  while (__first != __last)
 716:/Applications/ArmGNUToolchain/14.2.rel1/arm-none-eabi/arm-none-eabi/include/c++/14.2.1/bits/stl_algobase.h **** 	    *--__result = std::move(*--__last);
 717:/Applications/ArmGNUToolchain/14.2.rel1/arm-none-eabi/arm-none-eabi/include/c++/14.2.1/bits/stl_algobase.h **** 	  return __result;
 718:/Applications/ArmGNUToolchain/14.2.rel1/arm-none-eabi/arm-none-eabi/include/c++/14.2.1/bits/stl_algobase.h **** 	}
 719:/Applications/ArmGNUToolchain/14.2.rel1/arm-none-eabi/arm-none-eabi/include/c++/14.2.1/bits/stl_algobase.h ****     };
 720:/Applications/ArmGNUToolchain/14.2.rel1/arm-none-eabi/arm-none-eabi/include/c++/14.2.1/bits/stl_algobase.h **** #endif
 721:/Applications/ArmGNUToolchain/14.2.rel1/arm-none-eabi/arm-none-eabi/include/c++/14.2.1/bits/stl_algobase.h **** 
 722:/Applications/ArmGNUToolchain/14.2.rel1/arm-none-eabi/arm-none-eabi/include/c++/14.2.1/bits/stl_algobase.h ****   template<>
 723:/Applications/ArmGNUToolchain/14.2.rel1/arm-none-eabi/arm-none-eabi/include/c++/14.2.1/bits/stl_algobase.h ****     struct __copy_move_backward<false, false, random_access_iterator_tag>
 724:/Applications/ArmGNUToolchain/14.2.rel1/arm-none-eabi/arm-none-eabi/include/c++/14.2.1/bits/stl_algobase.h ****     {
 725:/Applications/ArmGNUToolchain/14.2.rel1/arm-none-eabi/arm-none-eabi/include/c++/14.2.1/bits/stl_algobase.h ****       template<typename _BI1, typename _BI2>
 726:/Applications/ArmGNUToolchain/14.2.rel1/arm-none-eabi/arm-none-eabi/include/c++/14.2.1/bits/stl_algobase.h **** 	_GLIBCXX20_CONSTEXPR
 727:/Applications/ArmGNUToolchain/14.2.rel1/arm-none-eabi/arm-none-eabi/include/c++/14.2.1/bits/stl_algobase.h **** 	static _BI2
 728:/Applications/ArmGNUToolchain/14.2.rel1/arm-none-eabi/arm-none-eabi/include/c++/14.2.1/bits/stl_algobase.h **** 	__copy_move_b(_BI1 __first, _BI1 __last, _BI2 __result)
 729:/Applications/ArmGNUToolchain/14.2.rel1/arm-none-eabi/arm-none-eabi/include/c++/14.2.1/bits/stl_algobase.h **** 	{
 730:/Applications/ArmGNUToolchain/14.2.rel1/arm-none-eabi/arm-none-eabi/include/c++/14.2.1/bits/stl_algobase.h **** 	  typename iterator_traits<_BI1>::difference_type
 731:/Applications/ArmGNUToolchain/14.2.rel1/arm-none-eabi/arm-none-eabi/include/c++/14.2.1/bits/stl_algobase.h **** 	    __n = __last - __first;
 732:/Applications/ArmGNUToolchain/14.2.rel1/arm-none-eabi/arm-none-eabi/include/c++/14.2.1/bits/stl_algobase.h **** 	  for (; __n > 0; --__n)
 733:/Applications/ArmGNUToolchain/14.2.rel1/arm-none-eabi/arm-none-eabi/include/c++/14.2.1/bits/stl_algobase.h **** 	    *--__result = *--__last;
 734:/Applications/ArmGNUToolchain/14.2.rel1/arm-none-eabi/arm-none-eabi/include/c++/14.2.1/bits/stl_algobase.h **** 	  return __result;
 735:/Applications/ArmGNUToolchain/14.2.rel1/arm-none-eabi/arm-none-eabi/include/c++/14.2.1/bits/stl_algobase.h **** 	}
 736:/Applications/ArmGNUToolchain/14.2.rel1/arm-none-eabi/arm-none-eabi/include/c++/14.2.1/bits/stl_algobase.h ****     };
ARM GAS  /var/folders/y7/g6pkzsp12sx54x3s3mvyn15r0000gn/T//cc9jJkGr.s 			page 36


 737:/Applications/ArmGNUToolchain/14.2.rel1/arm-none-eabi/arm-none-eabi/include/c++/14.2.1/bits/stl_algobase.h **** 
 738:/Applications/ArmGNUToolchain/14.2.rel1/arm-none-eabi/arm-none-eabi/include/c++/14.2.1/bits/stl_algobase.h **** #if __cplusplus >= 201103L
 739:/Applications/ArmGNUToolchain/14.2.rel1/arm-none-eabi/arm-none-eabi/include/c++/14.2.1/bits/stl_algobase.h ****   template<>
 740:/Applications/ArmGNUToolchain/14.2.rel1/arm-none-eabi/arm-none-eabi/include/c++/14.2.1/bits/stl_algobase.h ****     struct __copy_move_backward<true, false, random_access_iterator_tag>
 741:/Applications/ArmGNUToolchain/14.2.rel1/arm-none-eabi/arm-none-eabi/include/c++/14.2.1/bits/stl_algobase.h ****     {
 742:/Applications/ArmGNUToolchain/14.2.rel1/arm-none-eabi/arm-none-eabi/include/c++/14.2.1/bits/stl_algobase.h ****       template<typename _BI1, typename _BI2>
 743:/Applications/ArmGNUToolchain/14.2.rel1/arm-none-eabi/arm-none-eabi/include/c++/14.2.1/bits/stl_algobase.h **** 	_GLIBCXX20_CONSTEXPR
 744:/Applications/ArmGNUToolchain/14.2.rel1/arm-none-eabi/arm-none-eabi/include/c++/14.2.1/bits/stl_algobase.h **** 	static _BI2
 745:/Applications/ArmGNUToolchain/14.2.rel1/arm-none-eabi/arm-none-eabi/include/c++/14.2.1/bits/stl_algobase.h **** 	__copy_move_b(_BI1 __first, _BI1 __last, _BI2 __result)
 746:/Applications/ArmGNUToolchain/14.2.rel1/arm-none-eabi/arm-none-eabi/include/c++/14.2.1/bits/stl_algobase.h **** 	{
 747:/Applications/ArmGNUToolchain/14.2.rel1/arm-none-eabi/arm-none-eabi/include/c++/14.2.1/bits/stl_algobase.h **** 	  typename iterator_traits<_BI1>::difference_type
 748:/Applications/ArmGNUToolchain/14.2.rel1/arm-none-eabi/arm-none-eabi/include/c++/14.2.1/bits/stl_algobase.h **** 	    __n = __last - __first;
 749:/Applications/ArmGNUToolchain/14.2.rel1/arm-none-eabi/arm-none-eabi/include/c++/14.2.1/bits/stl_algobase.h **** 	  for (; __n > 0; --__n)
 750:/Applications/ArmGNUToolchain/14.2.rel1/arm-none-eabi/arm-none-eabi/include/c++/14.2.1/bits/stl_algobase.h **** 	    *--__result = std::move(*--__last);
 751:/Applications/ArmGNUToolchain/14.2.rel1/arm-none-eabi/arm-none-eabi/include/c++/14.2.1/bits/stl_algobase.h **** 	  return __result;
 752:/Applications/ArmGNUToolchain/14.2.rel1/arm-none-eabi/arm-none-eabi/include/c++/14.2.1/bits/stl_algobase.h **** 	}
 753:/Applications/ArmGNUToolchain/14.2.rel1/arm-none-eabi/arm-none-eabi/include/c++/14.2.1/bits/stl_algobase.h ****     };
 754:/Applications/ArmGNUToolchain/14.2.rel1/arm-none-eabi/arm-none-eabi/include/c++/14.2.1/bits/stl_algobase.h **** #endif
 755:/Applications/ArmGNUToolchain/14.2.rel1/arm-none-eabi/arm-none-eabi/include/c++/14.2.1/bits/stl_algobase.h **** 
 756:/Applications/ArmGNUToolchain/14.2.rel1/arm-none-eabi/arm-none-eabi/include/c++/14.2.1/bits/stl_algobase.h ****   template<bool _IsMove>
 757:/Applications/ArmGNUToolchain/14.2.rel1/arm-none-eabi/arm-none-eabi/include/c++/14.2.1/bits/stl_algobase.h ****     struct __copy_move_backward<_IsMove, true, random_access_iterator_tag>
 758:/Applications/ArmGNUToolchain/14.2.rel1/arm-none-eabi/arm-none-eabi/include/c++/14.2.1/bits/stl_algobase.h ****     {
 759:/Applications/ArmGNUToolchain/14.2.rel1/arm-none-eabi/arm-none-eabi/include/c++/14.2.1/bits/stl_algobase.h ****       template<typename _Tp, typename _Up>
 760:/Applications/ArmGNUToolchain/14.2.rel1/arm-none-eabi/arm-none-eabi/include/c++/14.2.1/bits/stl_algobase.h **** 	_GLIBCXX20_CONSTEXPR
 761:/Applications/ArmGNUToolchain/14.2.rel1/arm-none-eabi/arm-none-eabi/include/c++/14.2.1/bits/stl_algobase.h **** 	static _Up*
 762:/Applications/ArmGNUToolchain/14.2.rel1/arm-none-eabi/arm-none-eabi/include/c++/14.2.1/bits/stl_algobase.h **** 	__copy_move_b(_Tp* __first, _Tp* __last, _Up* __result)
 763:/Applications/ArmGNUToolchain/14.2.rel1/arm-none-eabi/arm-none-eabi/include/c++/14.2.1/bits/stl_algobase.h **** 	{
 764:/Applications/ArmGNUToolchain/14.2.rel1/arm-none-eabi/arm-none-eabi/include/c++/14.2.1/bits/stl_algobase.h **** 	  const ptrdiff_t _Num = __last - __first;
 765:/Applications/ArmGNUToolchain/14.2.rel1/arm-none-eabi/arm-none-eabi/include/c++/14.2.1/bits/stl_algobase.h **** 	  if (__builtin_expect(_Num > 1, true))
 766:/Applications/ArmGNUToolchain/14.2.rel1/arm-none-eabi/arm-none-eabi/include/c++/14.2.1/bits/stl_algobase.h **** 	    __builtin_memmove(__result - _Num, __first, sizeof(_Tp) * _Num);
 767:/Applications/ArmGNUToolchain/14.2.rel1/arm-none-eabi/arm-none-eabi/include/c++/14.2.1/bits/stl_algobase.h **** 	  else if (_Num == 1)
 768:/Applications/ArmGNUToolchain/14.2.rel1/arm-none-eabi/arm-none-eabi/include/c++/14.2.1/bits/stl_algobase.h **** 	    std::__copy_move<_IsMove, false, random_access_iterator_tag>::
 769:/Applications/ArmGNUToolchain/14.2.rel1/arm-none-eabi/arm-none-eabi/include/c++/14.2.1/bits/stl_algobase.h **** 	      __assign_one(__result - 1, __first);
 770:/Applications/ArmGNUToolchain/14.2.rel1/arm-none-eabi/arm-none-eabi/include/c++/14.2.1/bits/stl_algobase.h **** 	  return __result - _Num;
 771:/Applications/ArmGNUToolchain/14.2.rel1/arm-none-eabi/arm-none-eabi/include/c++/14.2.1/bits/stl_algobase.h **** 	}
 772:/Applications/ArmGNUToolchain/14.2.rel1/arm-none-eabi/arm-none-eabi/include/c++/14.2.1/bits/stl_algobase.h ****     };
 773:/Applications/ArmGNUToolchain/14.2.rel1/arm-none-eabi/arm-none-eabi/include/c++/14.2.1/bits/stl_algobase.h **** 
 774:/Applications/ArmGNUToolchain/14.2.rel1/arm-none-eabi/arm-none-eabi/include/c++/14.2.1/bits/stl_algobase.h ****   template<bool _IsMove, typename _BI1, typename _BI2>
 775:/Applications/ArmGNUToolchain/14.2.rel1/arm-none-eabi/arm-none-eabi/include/c++/14.2.1/bits/stl_algobase.h ****     _GLIBCXX20_CONSTEXPR
 776:/Applications/ArmGNUToolchain/14.2.rel1/arm-none-eabi/arm-none-eabi/include/c++/14.2.1/bits/stl_algobase.h ****     inline _BI2
 777:/Applications/ArmGNUToolchain/14.2.rel1/arm-none-eabi/arm-none-eabi/include/c++/14.2.1/bits/stl_algobase.h ****     __copy_move_backward_a2(_BI1 __first, _BI1 __last, _BI2 __result)
 778:/Applications/ArmGNUToolchain/14.2.rel1/arm-none-eabi/arm-none-eabi/include/c++/14.2.1/bits/stl_algobase.h ****     {
 779:/Applications/ArmGNUToolchain/14.2.rel1/arm-none-eabi/arm-none-eabi/include/c++/14.2.1/bits/stl_algobase.h ****       typedef typename iterator_traits<_BI1>::iterator_category _Category;
 780:/Applications/ArmGNUToolchain/14.2.rel1/arm-none-eabi/arm-none-eabi/include/c++/14.2.1/bits/stl_algobase.h **** #ifdef __cpp_lib_is_constant_evaluated
 781:/Applications/ArmGNUToolchain/14.2.rel1/arm-none-eabi/arm-none-eabi/include/c++/14.2.1/bits/stl_algobase.h ****       if (std::is_constant_evaluated())
 782:/Applications/ArmGNUToolchain/14.2.rel1/arm-none-eabi/arm-none-eabi/include/c++/14.2.1/bits/stl_algobase.h **** 	return std::__copy_move_backward<_IsMove, false, _Category>::
 783:/Applications/ArmGNUToolchain/14.2.rel1/arm-none-eabi/arm-none-eabi/include/c++/14.2.1/bits/stl_algobase.h **** 	  __copy_move_b(__first, __last, __result);
 784:/Applications/ArmGNUToolchain/14.2.rel1/arm-none-eabi/arm-none-eabi/include/c++/14.2.1/bits/stl_algobase.h **** #endif
 785:/Applications/ArmGNUToolchain/14.2.rel1/arm-none-eabi/arm-none-eabi/include/c++/14.2.1/bits/stl_algobase.h ****       return std::__copy_move_backward<_IsMove,
 786:/Applications/ArmGNUToolchain/14.2.rel1/arm-none-eabi/arm-none-eabi/include/c++/14.2.1/bits/stl_algobase.h **** 				       __memcpyable<_BI2, _BI1>::__value,
 787:/Applications/ArmGNUToolchain/14.2.rel1/arm-none-eabi/arm-none-eabi/include/c++/14.2.1/bits/stl_algobase.h **** 				       _Category>::__copy_move_b(__first,
 788:/Applications/ArmGNUToolchain/14.2.rel1/arm-none-eabi/arm-none-eabi/include/c++/14.2.1/bits/stl_algobase.h **** 								 __last,
 789:/Applications/ArmGNUToolchain/14.2.rel1/arm-none-eabi/arm-none-eabi/include/c++/14.2.1/bits/stl_algobase.h **** 								 __result);
 790:/Applications/ArmGNUToolchain/14.2.rel1/arm-none-eabi/arm-none-eabi/include/c++/14.2.1/bits/stl_algobase.h ****     }
 791:/Applications/ArmGNUToolchain/14.2.rel1/arm-none-eabi/arm-none-eabi/include/c++/14.2.1/bits/stl_algobase.h **** 
 792:/Applications/ArmGNUToolchain/14.2.rel1/arm-none-eabi/arm-none-eabi/include/c++/14.2.1/bits/stl_algobase.h ****   template<bool _IsMove, typename _BI1, typename _BI2>
 793:/Applications/ArmGNUToolchain/14.2.rel1/arm-none-eabi/arm-none-eabi/include/c++/14.2.1/bits/stl_algobase.h ****     _GLIBCXX20_CONSTEXPR
ARM GAS  /var/folders/y7/g6pkzsp12sx54x3s3mvyn15r0000gn/T//cc9jJkGr.s 			page 37


 794:/Applications/ArmGNUToolchain/14.2.rel1/arm-none-eabi/arm-none-eabi/include/c++/14.2.1/bits/stl_algobase.h ****     inline _BI2
 795:/Applications/ArmGNUToolchain/14.2.rel1/arm-none-eabi/arm-none-eabi/include/c++/14.2.1/bits/stl_algobase.h ****     __copy_move_backward_a1(_BI1 __first, _BI1 __last, _BI2 __result)
 796:/Applications/ArmGNUToolchain/14.2.rel1/arm-none-eabi/arm-none-eabi/include/c++/14.2.1/bits/stl_algobase.h ****     { return std::__copy_move_backward_a2<_IsMove>(__first, __last, __result); }
 797:/Applications/ArmGNUToolchain/14.2.rel1/arm-none-eabi/arm-none-eabi/include/c++/14.2.1/bits/stl_algobase.h **** 
 798:/Applications/ArmGNUToolchain/14.2.rel1/arm-none-eabi/arm-none-eabi/include/c++/14.2.1/bits/stl_algobase.h ****   template<bool _IsMove,
 799:/Applications/ArmGNUToolchain/14.2.rel1/arm-none-eabi/arm-none-eabi/include/c++/14.2.1/bits/stl_algobase.h **** 	   typename _Tp, typename _Ref, typename _Ptr, typename _OI>
 800:/Applications/ArmGNUToolchain/14.2.rel1/arm-none-eabi/arm-none-eabi/include/c++/14.2.1/bits/stl_algobase.h ****     _OI
 801:/Applications/ArmGNUToolchain/14.2.rel1/arm-none-eabi/arm-none-eabi/include/c++/14.2.1/bits/stl_algobase.h ****     __copy_move_backward_a1(_GLIBCXX_STD_C::_Deque_iterator<_Tp, _Ref, _Ptr>,
 802:/Applications/ArmGNUToolchain/14.2.rel1/arm-none-eabi/arm-none-eabi/include/c++/14.2.1/bits/stl_algobase.h **** 			    _GLIBCXX_STD_C::_Deque_iterator<_Tp, _Ref, _Ptr>,
 803:/Applications/ArmGNUToolchain/14.2.rel1/arm-none-eabi/arm-none-eabi/include/c++/14.2.1/bits/stl_algobase.h **** 			    _OI);
 804:/Applications/ArmGNUToolchain/14.2.rel1/arm-none-eabi/arm-none-eabi/include/c++/14.2.1/bits/stl_algobase.h **** 
 805:/Applications/ArmGNUToolchain/14.2.rel1/arm-none-eabi/arm-none-eabi/include/c++/14.2.1/bits/stl_algobase.h ****   template<bool _IsMove,
 806:/Applications/ArmGNUToolchain/14.2.rel1/arm-none-eabi/arm-none-eabi/include/c++/14.2.1/bits/stl_algobase.h **** 	   typename _ITp, typename _IRef, typename _IPtr, typename _OTp>
 807:/Applications/ArmGNUToolchain/14.2.rel1/arm-none-eabi/arm-none-eabi/include/c++/14.2.1/bits/stl_algobase.h ****     _GLIBCXX_STD_C::_Deque_iterator<_OTp, _OTp&, _OTp*>
 808:/Applications/ArmGNUToolchain/14.2.rel1/arm-none-eabi/arm-none-eabi/include/c++/14.2.1/bits/stl_algobase.h ****     __copy_move_backward_a1(
 809:/Applications/ArmGNUToolchain/14.2.rel1/arm-none-eabi/arm-none-eabi/include/c++/14.2.1/bits/stl_algobase.h **** 			_GLIBCXX_STD_C::_Deque_iterator<_ITp, _IRef, _IPtr>,
 810:/Applications/ArmGNUToolchain/14.2.rel1/arm-none-eabi/arm-none-eabi/include/c++/14.2.1/bits/stl_algobase.h **** 			_GLIBCXX_STD_C::_Deque_iterator<_ITp, _IRef, _IPtr>,
 811:/Applications/ArmGNUToolchain/14.2.rel1/arm-none-eabi/arm-none-eabi/include/c++/14.2.1/bits/stl_algobase.h **** 			_GLIBCXX_STD_C::_Deque_iterator<_OTp, _OTp&, _OTp*>);
 812:/Applications/ArmGNUToolchain/14.2.rel1/arm-none-eabi/arm-none-eabi/include/c++/14.2.1/bits/stl_algobase.h **** 
 813:/Applications/ArmGNUToolchain/14.2.rel1/arm-none-eabi/arm-none-eabi/include/c++/14.2.1/bits/stl_algobase.h ****   template<bool _IsMove, typename _II, typename _Tp>
 814:/Applications/ArmGNUToolchain/14.2.rel1/arm-none-eabi/arm-none-eabi/include/c++/14.2.1/bits/stl_algobase.h ****     typename __gnu_cxx::__enable_if<
 815:/Applications/ArmGNUToolchain/14.2.rel1/arm-none-eabi/arm-none-eabi/include/c++/14.2.1/bits/stl_algobase.h ****       __is_random_access_iter<_II>::__value,
 816:/Applications/ArmGNUToolchain/14.2.rel1/arm-none-eabi/arm-none-eabi/include/c++/14.2.1/bits/stl_algobase.h ****       _GLIBCXX_STD_C::_Deque_iterator<_Tp, _Tp&, _Tp*> >::__type
 817:/Applications/ArmGNUToolchain/14.2.rel1/arm-none-eabi/arm-none-eabi/include/c++/14.2.1/bits/stl_algobase.h ****     __copy_move_backward_a1(_II, _II,
 818:/Applications/ArmGNUToolchain/14.2.rel1/arm-none-eabi/arm-none-eabi/include/c++/14.2.1/bits/stl_algobase.h **** 			    _GLIBCXX_STD_C::_Deque_iterator<_Tp, _Tp&, _Tp*>);
 819:/Applications/ArmGNUToolchain/14.2.rel1/arm-none-eabi/arm-none-eabi/include/c++/14.2.1/bits/stl_algobase.h **** 
 820:/Applications/ArmGNUToolchain/14.2.rel1/arm-none-eabi/arm-none-eabi/include/c++/14.2.1/bits/stl_algobase.h ****   template<bool _IsMove, typename _II, typename _OI>
 821:/Applications/ArmGNUToolchain/14.2.rel1/arm-none-eabi/arm-none-eabi/include/c++/14.2.1/bits/stl_algobase.h ****     _GLIBCXX20_CONSTEXPR
 822:/Applications/ArmGNUToolchain/14.2.rel1/arm-none-eabi/arm-none-eabi/include/c++/14.2.1/bits/stl_algobase.h ****     inline _OI
 823:/Applications/ArmGNUToolchain/14.2.rel1/arm-none-eabi/arm-none-eabi/include/c++/14.2.1/bits/stl_algobase.h ****     __copy_move_backward_a(_II __first, _II __last, _OI __result)
 824:/Applications/ArmGNUToolchain/14.2.rel1/arm-none-eabi/arm-none-eabi/include/c++/14.2.1/bits/stl_algobase.h ****     {
 825:/Applications/ArmGNUToolchain/14.2.rel1/arm-none-eabi/arm-none-eabi/include/c++/14.2.1/bits/stl_algobase.h ****       return std::__niter_wrap(__result,
 826:/Applications/ArmGNUToolchain/14.2.rel1/arm-none-eabi/arm-none-eabi/include/c++/14.2.1/bits/stl_algobase.h **** 		std::__copy_move_backward_a1<_IsMove>
 827:/Applications/ArmGNUToolchain/14.2.rel1/arm-none-eabi/arm-none-eabi/include/c++/14.2.1/bits/stl_algobase.h **** 		  (std::__niter_base(__first), std::__niter_base(__last),
 828:/Applications/ArmGNUToolchain/14.2.rel1/arm-none-eabi/arm-none-eabi/include/c++/14.2.1/bits/stl_algobase.h **** 		   std::__niter_base(__result)));
 829:/Applications/ArmGNUToolchain/14.2.rel1/arm-none-eabi/arm-none-eabi/include/c++/14.2.1/bits/stl_algobase.h ****     }
 830:/Applications/ArmGNUToolchain/14.2.rel1/arm-none-eabi/arm-none-eabi/include/c++/14.2.1/bits/stl_algobase.h **** 
 831:/Applications/ArmGNUToolchain/14.2.rel1/arm-none-eabi/arm-none-eabi/include/c++/14.2.1/bits/stl_algobase.h ****   template<bool _IsMove,
 832:/Applications/ArmGNUToolchain/14.2.rel1/arm-none-eabi/arm-none-eabi/include/c++/14.2.1/bits/stl_algobase.h **** 	   typename _Ite, typename _Seq, typename _Cat, typename _OI>
 833:/Applications/ArmGNUToolchain/14.2.rel1/arm-none-eabi/arm-none-eabi/include/c++/14.2.1/bits/stl_algobase.h ****     _GLIBCXX20_CONSTEXPR
 834:/Applications/ArmGNUToolchain/14.2.rel1/arm-none-eabi/arm-none-eabi/include/c++/14.2.1/bits/stl_algobase.h ****     _OI
 835:/Applications/ArmGNUToolchain/14.2.rel1/arm-none-eabi/arm-none-eabi/include/c++/14.2.1/bits/stl_algobase.h ****     __copy_move_backward_a(
 836:/Applications/ArmGNUToolchain/14.2.rel1/arm-none-eabi/arm-none-eabi/include/c++/14.2.1/bits/stl_algobase.h **** 		const ::__gnu_debug::_Safe_iterator<_Ite, _Seq, _Cat>&,
 837:/Applications/ArmGNUToolchain/14.2.rel1/arm-none-eabi/arm-none-eabi/include/c++/14.2.1/bits/stl_algobase.h **** 		const ::__gnu_debug::_Safe_iterator<_Ite, _Seq, _Cat>&,
 838:/Applications/ArmGNUToolchain/14.2.rel1/arm-none-eabi/arm-none-eabi/include/c++/14.2.1/bits/stl_algobase.h **** 		_OI);
 839:/Applications/ArmGNUToolchain/14.2.rel1/arm-none-eabi/arm-none-eabi/include/c++/14.2.1/bits/stl_algobase.h **** 
 840:/Applications/ArmGNUToolchain/14.2.rel1/arm-none-eabi/arm-none-eabi/include/c++/14.2.1/bits/stl_algobase.h ****   template<bool _IsMove,
 841:/Applications/ArmGNUToolchain/14.2.rel1/arm-none-eabi/arm-none-eabi/include/c++/14.2.1/bits/stl_algobase.h **** 	   typename _II, typename _Ite, typename _Seq, typename _Cat>
 842:/Applications/ArmGNUToolchain/14.2.rel1/arm-none-eabi/arm-none-eabi/include/c++/14.2.1/bits/stl_algobase.h ****     _GLIBCXX20_CONSTEXPR
 843:/Applications/ArmGNUToolchain/14.2.rel1/arm-none-eabi/arm-none-eabi/include/c++/14.2.1/bits/stl_algobase.h ****     __gnu_debug::_Safe_iterator<_Ite, _Seq, _Cat>
 844:/Applications/ArmGNUToolchain/14.2.rel1/arm-none-eabi/arm-none-eabi/include/c++/14.2.1/bits/stl_algobase.h ****     __copy_move_backward_a(_II, _II,
 845:/Applications/ArmGNUToolchain/14.2.rel1/arm-none-eabi/arm-none-eabi/include/c++/14.2.1/bits/stl_algobase.h **** 		const ::__gnu_debug::_Safe_iterator<_Ite, _Seq, _Cat>&);
 846:/Applications/ArmGNUToolchain/14.2.rel1/arm-none-eabi/arm-none-eabi/include/c++/14.2.1/bits/stl_algobase.h **** 
 847:/Applications/ArmGNUToolchain/14.2.rel1/arm-none-eabi/arm-none-eabi/include/c++/14.2.1/bits/stl_algobase.h ****   template<bool _IsMove,
 848:/Applications/ArmGNUToolchain/14.2.rel1/arm-none-eabi/arm-none-eabi/include/c++/14.2.1/bits/stl_algobase.h **** 	   typename _IIte, typename _ISeq, typename _ICat,
 849:/Applications/ArmGNUToolchain/14.2.rel1/arm-none-eabi/arm-none-eabi/include/c++/14.2.1/bits/stl_algobase.h **** 	   typename _OIte, typename _OSeq, typename _OCat>
 850:/Applications/ArmGNUToolchain/14.2.rel1/arm-none-eabi/arm-none-eabi/include/c++/14.2.1/bits/stl_algobase.h ****     _GLIBCXX20_CONSTEXPR
ARM GAS  /var/folders/y7/g6pkzsp12sx54x3s3mvyn15r0000gn/T//cc9jJkGr.s 			page 38


 851:/Applications/ArmGNUToolchain/14.2.rel1/arm-none-eabi/arm-none-eabi/include/c++/14.2.1/bits/stl_algobase.h ****     ::__gnu_debug::_Safe_iterator<_OIte, _OSeq, _OCat>
 852:/Applications/ArmGNUToolchain/14.2.rel1/arm-none-eabi/arm-none-eabi/include/c++/14.2.1/bits/stl_algobase.h ****     __copy_move_backward_a(
 853:/Applications/ArmGNUToolchain/14.2.rel1/arm-none-eabi/arm-none-eabi/include/c++/14.2.1/bits/stl_algobase.h **** 		const ::__gnu_debug::_Safe_iterator<_IIte, _ISeq, _ICat>&,
 854:/Applications/ArmGNUToolchain/14.2.rel1/arm-none-eabi/arm-none-eabi/include/c++/14.2.1/bits/stl_algobase.h **** 		const ::__gnu_debug::_Safe_iterator<_IIte, _ISeq, _ICat>&,
 855:/Applications/ArmGNUToolchain/14.2.rel1/arm-none-eabi/arm-none-eabi/include/c++/14.2.1/bits/stl_algobase.h **** 		const ::__gnu_debug::_Safe_iterator<_OIte, _OSeq, _OCat>&);
 856:/Applications/ArmGNUToolchain/14.2.rel1/arm-none-eabi/arm-none-eabi/include/c++/14.2.1/bits/stl_algobase.h **** 
 857:/Applications/ArmGNUToolchain/14.2.rel1/arm-none-eabi/arm-none-eabi/include/c++/14.2.1/bits/stl_algobase.h ****   /**
 858:/Applications/ArmGNUToolchain/14.2.rel1/arm-none-eabi/arm-none-eabi/include/c++/14.2.1/bits/stl_algobase.h ****    *  @brief Copies the range [first,last) into result.
 859:/Applications/ArmGNUToolchain/14.2.rel1/arm-none-eabi/arm-none-eabi/include/c++/14.2.1/bits/stl_algobase.h ****    *  @ingroup mutating_algorithms
 860:/Applications/ArmGNUToolchain/14.2.rel1/arm-none-eabi/arm-none-eabi/include/c++/14.2.1/bits/stl_algobase.h ****    *  @param  __first  A bidirectional iterator.
 861:/Applications/ArmGNUToolchain/14.2.rel1/arm-none-eabi/arm-none-eabi/include/c++/14.2.1/bits/stl_algobase.h ****    *  @param  __last   A bidirectional iterator.
 862:/Applications/ArmGNUToolchain/14.2.rel1/arm-none-eabi/arm-none-eabi/include/c++/14.2.1/bits/stl_algobase.h ****    *  @param  __result A bidirectional iterator.
 863:/Applications/ArmGNUToolchain/14.2.rel1/arm-none-eabi/arm-none-eabi/include/c++/14.2.1/bits/stl_algobase.h ****    *  @return   result - (last - first)
 864:/Applications/ArmGNUToolchain/14.2.rel1/arm-none-eabi/arm-none-eabi/include/c++/14.2.1/bits/stl_algobase.h ****    *
 865:/Applications/ArmGNUToolchain/14.2.rel1/arm-none-eabi/arm-none-eabi/include/c++/14.2.1/bits/stl_algobase.h ****    *  The function has the same effect as copy, but starts at the end of the
 866:/Applications/ArmGNUToolchain/14.2.rel1/arm-none-eabi/arm-none-eabi/include/c++/14.2.1/bits/stl_algobase.h ****    *  range and works its way to the start, returning the start of the result.
 867:/Applications/ArmGNUToolchain/14.2.rel1/arm-none-eabi/arm-none-eabi/include/c++/14.2.1/bits/stl_algobase.h ****    *  This inline function will boil down to a call to @c memmove whenever
 868:/Applications/ArmGNUToolchain/14.2.rel1/arm-none-eabi/arm-none-eabi/include/c++/14.2.1/bits/stl_algobase.h ****    *  possible.  Failing that, if random access iterators are passed, then the
 869:/Applications/ArmGNUToolchain/14.2.rel1/arm-none-eabi/arm-none-eabi/include/c++/14.2.1/bits/stl_algobase.h ****    *  loop count will be known (and therefore a candidate for compiler
 870:/Applications/ArmGNUToolchain/14.2.rel1/arm-none-eabi/arm-none-eabi/include/c++/14.2.1/bits/stl_algobase.h ****    *  optimizations such as unrolling).
 871:/Applications/ArmGNUToolchain/14.2.rel1/arm-none-eabi/arm-none-eabi/include/c++/14.2.1/bits/stl_algobase.h ****    *
 872:/Applications/ArmGNUToolchain/14.2.rel1/arm-none-eabi/arm-none-eabi/include/c++/14.2.1/bits/stl_algobase.h ****    *  Result may not be in the range (first,last].  Use copy instead.  Note
 873:/Applications/ArmGNUToolchain/14.2.rel1/arm-none-eabi/arm-none-eabi/include/c++/14.2.1/bits/stl_algobase.h ****    *  that the start of the output range may overlap [first,last).
 874:/Applications/ArmGNUToolchain/14.2.rel1/arm-none-eabi/arm-none-eabi/include/c++/14.2.1/bits/stl_algobase.h ****   */
 875:/Applications/ArmGNUToolchain/14.2.rel1/arm-none-eabi/arm-none-eabi/include/c++/14.2.1/bits/stl_algobase.h ****   template<typename _BI1, typename _BI2>
 876:/Applications/ArmGNUToolchain/14.2.rel1/arm-none-eabi/arm-none-eabi/include/c++/14.2.1/bits/stl_algobase.h ****     _GLIBCXX20_CONSTEXPR
 877:/Applications/ArmGNUToolchain/14.2.rel1/arm-none-eabi/arm-none-eabi/include/c++/14.2.1/bits/stl_algobase.h ****     inline _BI2
 878:/Applications/ArmGNUToolchain/14.2.rel1/arm-none-eabi/arm-none-eabi/include/c++/14.2.1/bits/stl_algobase.h ****     copy_backward(_BI1 __first, _BI1 __last, _BI2 __result)
 879:/Applications/ArmGNUToolchain/14.2.rel1/arm-none-eabi/arm-none-eabi/include/c++/14.2.1/bits/stl_algobase.h ****     {
 880:/Applications/ArmGNUToolchain/14.2.rel1/arm-none-eabi/arm-none-eabi/include/c++/14.2.1/bits/stl_algobase.h ****       // concept requirements
 881:/Applications/ArmGNUToolchain/14.2.rel1/arm-none-eabi/arm-none-eabi/include/c++/14.2.1/bits/stl_algobase.h ****       __glibcxx_function_requires(_BidirectionalIteratorConcept<_BI1>)
 882:/Applications/ArmGNUToolchain/14.2.rel1/arm-none-eabi/arm-none-eabi/include/c++/14.2.1/bits/stl_algobase.h ****       __glibcxx_function_requires(_Mutable_BidirectionalIteratorConcept<_BI2>)
 883:/Applications/ArmGNUToolchain/14.2.rel1/arm-none-eabi/arm-none-eabi/include/c++/14.2.1/bits/stl_algobase.h ****       __glibcxx_function_requires(_OutputIteratorConcept<_BI2,
 884:/Applications/ArmGNUToolchain/14.2.rel1/arm-none-eabi/arm-none-eabi/include/c++/14.2.1/bits/stl_algobase.h **** 	    typename iterator_traits<_BI1>::reference>)
 885:/Applications/ArmGNUToolchain/14.2.rel1/arm-none-eabi/arm-none-eabi/include/c++/14.2.1/bits/stl_algobase.h ****       __glibcxx_requires_can_decrement_range(__first, __last, __result);
 886:/Applications/ArmGNUToolchain/14.2.rel1/arm-none-eabi/arm-none-eabi/include/c++/14.2.1/bits/stl_algobase.h **** 
 887:/Applications/ArmGNUToolchain/14.2.rel1/arm-none-eabi/arm-none-eabi/include/c++/14.2.1/bits/stl_algobase.h ****       return std::__copy_move_backward_a<__is_move_iterator<_BI1>::__value>
 888:/Applications/ArmGNUToolchain/14.2.rel1/arm-none-eabi/arm-none-eabi/include/c++/14.2.1/bits/stl_algobase.h **** 	     (std::__miter_base(__first), std::__miter_base(__last), __result);
 889:/Applications/ArmGNUToolchain/14.2.rel1/arm-none-eabi/arm-none-eabi/include/c++/14.2.1/bits/stl_algobase.h ****     }
 890:/Applications/ArmGNUToolchain/14.2.rel1/arm-none-eabi/arm-none-eabi/include/c++/14.2.1/bits/stl_algobase.h **** 
 891:/Applications/ArmGNUToolchain/14.2.rel1/arm-none-eabi/arm-none-eabi/include/c++/14.2.1/bits/stl_algobase.h **** #if __cplusplus >= 201103L
 892:/Applications/ArmGNUToolchain/14.2.rel1/arm-none-eabi/arm-none-eabi/include/c++/14.2.1/bits/stl_algobase.h ****   /**
 893:/Applications/ArmGNUToolchain/14.2.rel1/arm-none-eabi/arm-none-eabi/include/c++/14.2.1/bits/stl_algobase.h ****    *  @brief Moves the range [first,last) into result.
 894:/Applications/ArmGNUToolchain/14.2.rel1/arm-none-eabi/arm-none-eabi/include/c++/14.2.1/bits/stl_algobase.h ****    *  @ingroup mutating_algorithms
 895:/Applications/ArmGNUToolchain/14.2.rel1/arm-none-eabi/arm-none-eabi/include/c++/14.2.1/bits/stl_algobase.h ****    *  @param  __first  A bidirectional iterator.
 896:/Applications/ArmGNUToolchain/14.2.rel1/arm-none-eabi/arm-none-eabi/include/c++/14.2.1/bits/stl_algobase.h ****    *  @param  __last   A bidirectional iterator.
 897:/Applications/ArmGNUToolchain/14.2.rel1/arm-none-eabi/arm-none-eabi/include/c++/14.2.1/bits/stl_algobase.h ****    *  @param  __result A bidirectional iterator.
 898:/Applications/ArmGNUToolchain/14.2.rel1/arm-none-eabi/arm-none-eabi/include/c++/14.2.1/bits/stl_algobase.h ****    *  @return   result - (last - first)
 899:/Applications/ArmGNUToolchain/14.2.rel1/arm-none-eabi/arm-none-eabi/include/c++/14.2.1/bits/stl_algobase.h ****    *
 900:/Applications/ArmGNUToolchain/14.2.rel1/arm-none-eabi/arm-none-eabi/include/c++/14.2.1/bits/stl_algobase.h ****    *  The function has the same effect as move, but starts at the end of the
 901:/Applications/ArmGNUToolchain/14.2.rel1/arm-none-eabi/arm-none-eabi/include/c++/14.2.1/bits/stl_algobase.h ****    *  range and works its way to the start, returning the start of the result.
 902:/Applications/ArmGNUToolchain/14.2.rel1/arm-none-eabi/arm-none-eabi/include/c++/14.2.1/bits/stl_algobase.h ****    *  This inline function will boil down to a call to @c memmove whenever
 903:/Applications/ArmGNUToolchain/14.2.rel1/arm-none-eabi/arm-none-eabi/include/c++/14.2.1/bits/stl_algobase.h ****    *  possible.  Failing that, if random access iterators are passed, then the
 904:/Applications/ArmGNUToolchain/14.2.rel1/arm-none-eabi/arm-none-eabi/include/c++/14.2.1/bits/stl_algobase.h ****    *  loop count will be known (and therefore a candidate for compiler
 905:/Applications/ArmGNUToolchain/14.2.rel1/arm-none-eabi/arm-none-eabi/include/c++/14.2.1/bits/stl_algobase.h ****    *  optimizations such as unrolling).
 906:/Applications/ArmGNUToolchain/14.2.rel1/arm-none-eabi/arm-none-eabi/include/c++/14.2.1/bits/stl_algobase.h ****    *
 907:/Applications/ArmGNUToolchain/14.2.rel1/arm-none-eabi/arm-none-eabi/include/c++/14.2.1/bits/stl_algobase.h ****    *  Result may not be in the range (first,last].  Use move instead.  Note
ARM GAS  /var/folders/y7/g6pkzsp12sx54x3s3mvyn15r0000gn/T//cc9jJkGr.s 			page 39


 908:/Applications/ArmGNUToolchain/14.2.rel1/arm-none-eabi/arm-none-eabi/include/c++/14.2.1/bits/stl_algobase.h ****    *  that the start of the output range may overlap [first,last).
 909:/Applications/ArmGNUToolchain/14.2.rel1/arm-none-eabi/arm-none-eabi/include/c++/14.2.1/bits/stl_algobase.h ****   */
 910:/Applications/ArmGNUToolchain/14.2.rel1/arm-none-eabi/arm-none-eabi/include/c++/14.2.1/bits/stl_algobase.h ****   template<typename _BI1, typename _BI2>
 911:/Applications/ArmGNUToolchain/14.2.rel1/arm-none-eabi/arm-none-eabi/include/c++/14.2.1/bits/stl_algobase.h ****     _GLIBCXX20_CONSTEXPR
 912:/Applications/ArmGNUToolchain/14.2.rel1/arm-none-eabi/arm-none-eabi/include/c++/14.2.1/bits/stl_algobase.h ****     inline _BI2
 913:/Applications/ArmGNUToolchain/14.2.rel1/arm-none-eabi/arm-none-eabi/include/c++/14.2.1/bits/stl_algobase.h ****     move_backward(_BI1 __first, _BI1 __last, _BI2 __result)
 914:/Applications/ArmGNUToolchain/14.2.rel1/arm-none-eabi/arm-none-eabi/include/c++/14.2.1/bits/stl_algobase.h ****     {
 915:/Applications/ArmGNUToolchain/14.2.rel1/arm-none-eabi/arm-none-eabi/include/c++/14.2.1/bits/stl_algobase.h ****       // concept requirements
 916:/Applications/ArmGNUToolchain/14.2.rel1/arm-none-eabi/arm-none-eabi/include/c++/14.2.1/bits/stl_algobase.h ****       __glibcxx_function_requires(_BidirectionalIteratorConcept<_BI1>)
 917:/Applications/ArmGNUToolchain/14.2.rel1/arm-none-eabi/arm-none-eabi/include/c++/14.2.1/bits/stl_algobase.h ****       __glibcxx_function_requires(_Mutable_BidirectionalIteratorConcept<_BI2>)
 918:/Applications/ArmGNUToolchain/14.2.rel1/arm-none-eabi/arm-none-eabi/include/c++/14.2.1/bits/stl_algobase.h ****       __glibcxx_function_requires(_OutputIteratorConcept<_BI2,
 919:/Applications/ArmGNUToolchain/14.2.rel1/arm-none-eabi/arm-none-eabi/include/c++/14.2.1/bits/stl_algobase.h **** 	    typename iterator_traits<_BI1>::value_type&&>)
 920:/Applications/ArmGNUToolchain/14.2.rel1/arm-none-eabi/arm-none-eabi/include/c++/14.2.1/bits/stl_algobase.h ****       __glibcxx_requires_can_decrement_range(__first, __last, __result);
 921:/Applications/ArmGNUToolchain/14.2.rel1/arm-none-eabi/arm-none-eabi/include/c++/14.2.1/bits/stl_algobase.h **** 
 922:/Applications/ArmGNUToolchain/14.2.rel1/arm-none-eabi/arm-none-eabi/include/c++/14.2.1/bits/stl_algobase.h ****       return std::__copy_move_backward_a<true>(std::__miter_base(__first),
 923:/Applications/ArmGNUToolchain/14.2.rel1/arm-none-eabi/arm-none-eabi/include/c++/14.2.1/bits/stl_algobase.h **** 					       std::__miter_base(__last),
 924:/Applications/ArmGNUToolchain/14.2.rel1/arm-none-eabi/arm-none-eabi/include/c++/14.2.1/bits/stl_algobase.h **** 					       __result);
 925:/Applications/ArmGNUToolchain/14.2.rel1/arm-none-eabi/arm-none-eabi/include/c++/14.2.1/bits/stl_algobase.h ****     }
 926:/Applications/ArmGNUToolchain/14.2.rel1/arm-none-eabi/arm-none-eabi/include/c++/14.2.1/bits/stl_algobase.h **** 
 927:/Applications/ArmGNUToolchain/14.2.rel1/arm-none-eabi/arm-none-eabi/include/c++/14.2.1/bits/stl_algobase.h **** #define _GLIBCXX_MOVE_BACKWARD3(_Tp, _Up, _Vp) std::move_backward(_Tp, _Up, _Vp)
 928:/Applications/ArmGNUToolchain/14.2.rel1/arm-none-eabi/arm-none-eabi/include/c++/14.2.1/bits/stl_algobase.h **** #else
 929:/Applications/ArmGNUToolchain/14.2.rel1/arm-none-eabi/arm-none-eabi/include/c++/14.2.1/bits/stl_algobase.h **** #define _GLIBCXX_MOVE_BACKWARD3(_Tp, _Up, _Vp) std::copy_backward(_Tp, _Up, _Vp)
 930:/Applications/ArmGNUToolchain/14.2.rel1/arm-none-eabi/arm-none-eabi/include/c++/14.2.1/bits/stl_algobase.h **** #endif
 931:/Applications/ArmGNUToolchain/14.2.rel1/arm-none-eabi/arm-none-eabi/include/c++/14.2.1/bits/stl_algobase.h **** 
 932:/Applications/ArmGNUToolchain/14.2.rel1/arm-none-eabi/arm-none-eabi/include/c++/14.2.1/bits/stl_algobase.h ****   template<typename _ForwardIterator, typename _Tp>
 933:/Applications/ArmGNUToolchain/14.2.rel1/arm-none-eabi/arm-none-eabi/include/c++/14.2.1/bits/stl_algobase.h ****     _GLIBCXX20_CONSTEXPR
 934:/Applications/ArmGNUToolchain/14.2.rel1/arm-none-eabi/arm-none-eabi/include/c++/14.2.1/bits/stl_algobase.h ****     inline typename
 935:/Applications/ArmGNUToolchain/14.2.rel1/arm-none-eabi/arm-none-eabi/include/c++/14.2.1/bits/stl_algobase.h ****     __gnu_cxx::__enable_if<!__is_scalar<_Tp>::__value, void>::__type
 936:/Applications/ArmGNUToolchain/14.2.rel1/arm-none-eabi/arm-none-eabi/include/c++/14.2.1/bits/stl_algobase.h ****     __fill_a1(_ForwardIterator __first, _ForwardIterator __last,
 937:/Applications/ArmGNUToolchain/14.2.rel1/arm-none-eabi/arm-none-eabi/include/c++/14.2.1/bits/stl_algobase.h **** 	      const _Tp& __value)
 938:/Applications/ArmGNUToolchain/14.2.rel1/arm-none-eabi/arm-none-eabi/include/c++/14.2.1/bits/stl_algobase.h ****     {
 939:/Applications/ArmGNUToolchain/14.2.rel1/arm-none-eabi/arm-none-eabi/include/c++/14.2.1/bits/stl_algobase.h ****       for (; __first != __last; ++__first)
 940:/Applications/ArmGNUToolchain/14.2.rel1/arm-none-eabi/arm-none-eabi/include/c++/14.2.1/bits/stl_algobase.h **** 	*__first = __value;
 941:/Applications/ArmGNUToolchain/14.2.rel1/arm-none-eabi/arm-none-eabi/include/c++/14.2.1/bits/stl_algobase.h ****     }
 942:/Applications/ArmGNUToolchain/14.2.rel1/arm-none-eabi/arm-none-eabi/include/c++/14.2.1/bits/stl_algobase.h **** 
 943:/Applications/ArmGNUToolchain/14.2.rel1/arm-none-eabi/arm-none-eabi/include/c++/14.2.1/bits/stl_algobase.h ****   template<typename _ForwardIterator, typename _Tp>
 944:/Applications/ArmGNUToolchain/14.2.rel1/arm-none-eabi/arm-none-eabi/include/c++/14.2.1/bits/stl_algobase.h ****     _GLIBCXX20_CONSTEXPR
 945:/Applications/ArmGNUToolchain/14.2.rel1/arm-none-eabi/arm-none-eabi/include/c++/14.2.1/bits/stl_algobase.h ****     inline typename
 946:/Applications/ArmGNUToolchain/14.2.rel1/arm-none-eabi/arm-none-eabi/include/c++/14.2.1/bits/stl_algobase.h ****     __gnu_cxx::__enable_if<__is_scalar<_Tp>::__value, void>::__type
 947:/Applications/ArmGNUToolchain/14.2.rel1/arm-none-eabi/arm-none-eabi/include/c++/14.2.1/bits/stl_algobase.h ****     __fill_a1(_ForwardIterator __first, _ForwardIterator __last,
 948:/Applications/ArmGNUToolchain/14.2.rel1/arm-none-eabi/arm-none-eabi/include/c++/14.2.1/bits/stl_algobase.h **** 	      const _Tp& __value)
 949:/Applications/ArmGNUToolchain/14.2.rel1/arm-none-eabi/arm-none-eabi/include/c++/14.2.1/bits/stl_algobase.h ****     {
 950:/Applications/ArmGNUToolchain/14.2.rel1/arm-none-eabi/arm-none-eabi/include/c++/14.2.1/bits/stl_algobase.h ****       const _Tp __tmp = __value;
 951:/Applications/ArmGNUToolchain/14.2.rel1/arm-none-eabi/arm-none-eabi/include/c++/14.2.1/bits/stl_algobase.h ****       for (; __first != __last; ++__first)
 491              		.loc 4 951 7 view .LVU138
 492 00ae 2E46     		mov	r6, r5
 493              	.LBE211:
 494              	.LBE210:
 495              	.LBE209:
 496              	.LBE208:
 123:../eurorack/plaits/dsp/speech/naive_speech_synth.cc ****   float r = vocal_register * (kNaiveSpeechNumRegisters - 1.001f);
 497              		.loc 1 123 9 view .LVU139
 498 00b0 60EEA70A 		vmul.f32	s1, s1, s15
 499              	.LVL32:
 124:../eurorack/plaits/dsp/speech/naive_speech_synth.cc ****   float r = vocal_register * (kNaiveSpeechNumRegisters - 1.001f);
 500              		.loc 1 124 3 is_stmt 1 view .LVU140
 124:../eurorack/plaits/dsp/speech/naive_speech_synth.cc ****   float r = vocal_register * (kNaiveSpeechNumRegisters - 1.001f);
ARM GAS  /var/folders/y7/g6pkzsp12sx54x3s3mvyn15r0000gn/T//cc9jJkGr.s 			page 40


 501              		.loc 1 124 9 is_stmt 0 view .LVU141
 502 00b4 21EE271A 		vmul.f32	s2, s2, s15
 503              	.LVL33:
 126:../eurorack/plaits/dsp/speech/naive_speech_synth.cc ****   MAKE_INTEGRAL_FRACTIONAL(r);
 504              		.loc 1 126 3 is_stmt 1 view .LVU142
 505 00b8 BDEEE07A 		vcvt.s32.f32	s14, s1
 506              	.LVL34:
 126:../eurorack/plaits/dsp/speech/naive_speech_synth.cc ****   MAKE_INTEGRAL_FRACTIONAL(r);
 507              		.loc 1 126 3 view .LVU143
 508 00bc F8EEC77A 		vcvt.f32.s32	s15, s14
 509 00c0 70EEE70A 		vsub.f32	s1, s1, s15
 510              	.LVL35:
 126:../eurorack/plaits/dsp/speech/naive_speech_synth.cc ****   MAKE_INTEGRAL_FRACTIONAL(r);
 511              		.loc 1 126 30 view .LVU144
 127:../eurorack/plaits/dsp/speech/naive_speech_synth.cc ****   
 512              		.loc 1 127 3 view .LVU145
 513 00c4 FDEEC17A 		vcvt.s32.f32	s15, s2
 514              	.LVL36:
 127:../eurorack/plaits/dsp/speech/naive_speech_synth.cc ****   
 515              		.loc 1 127 3 view .LVU146
 516 00c8 B8EEE76A 		vcvt.f32.s32	s12, s15
 517 00cc 31EE461A 		vsub.f32	s2, s2, s12
 518              	.LVL37:
 127:../eurorack/plaits/dsp/speech/naive_speech_synth.cc ****   
 519              		.loc 1 127 30 view .LVU147
 520              		.loc 1 129 3 view .LVU148
 521              	.LBB218:
 522              	.LBI208:
 952:/Applications/ArmGNUToolchain/14.2.rel1/arm-none-eabi/arm-none-eabi/include/c++/14.2.1/bits/stl_algobase.h **** 	*__first = __tmp;
 953:/Applications/ArmGNUToolchain/14.2.rel1/arm-none-eabi/arm-none-eabi/include/c++/14.2.1/bits/stl_algobase.h ****     }
 954:/Applications/ArmGNUToolchain/14.2.rel1/arm-none-eabi/arm-none-eabi/include/c++/14.2.1/bits/stl_algobase.h **** 
 955:/Applications/ArmGNUToolchain/14.2.rel1/arm-none-eabi/arm-none-eabi/include/c++/14.2.1/bits/stl_algobase.h ****   // Specialization: for char types we can use memset.
 956:/Applications/ArmGNUToolchain/14.2.rel1/arm-none-eabi/arm-none-eabi/include/c++/14.2.1/bits/stl_algobase.h ****   template<typename _Tp>
 957:/Applications/ArmGNUToolchain/14.2.rel1/arm-none-eabi/arm-none-eabi/include/c++/14.2.1/bits/stl_algobase.h ****     _GLIBCXX20_CONSTEXPR
 958:/Applications/ArmGNUToolchain/14.2.rel1/arm-none-eabi/arm-none-eabi/include/c++/14.2.1/bits/stl_algobase.h ****     inline typename
 959:/Applications/ArmGNUToolchain/14.2.rel1/arm-none-eabi/arm-none-eabi/include/c++/14.2.1/bits/stl_algobase.h ****     __gnu_cxx::__enable_if<__is_byte<_Tp>::__value, void>::__type
 960:/Applications/ArmGNUToolchain/14.2.rel1/arm-none-eabi/arm-none-eabi/include/c++/14.2.1/bits/stl_algobase.h ****     __fill_a1(_Tp* __first, _Tp* __last, const _Tp& __c)
 961:/Applications/ArmGNUToolchain/14.2.rel1/arm-none-eabi/arm-none-eabi/include/c++/14.2.1/bits/stl_algobase.h ****     {
 962:/Applications/ArmGNUToolchain/14.2.rel1/arm-none-eabi/arm-none-eabi/include/c++/14.2.1/bits/stl_algobase.h ****       const _Tp __tmp = __c;
 963:/Applications/ArmGNUToolchain/14.2.rel1/arm-none-eabi/arm-none-eabi/include/c++/14.2.1/bits/stl_algobase.h **** #if __cpp_lib_is_constant_evaluated
 964:/Applications/ArmGNUToolchain/14.2.rel1/arm-none-eabi/arm-none-eabi/include/c++/14.2.1/bits/stl_algobase.h ****       if (std::is_constant_evaluated())
 965:/Applications/ArmGNUToolchain/14.2.rel1/arm-none-eabi/arm-none-eabi/include/c++/14.2.1/bits/stl_algobase.h **** 	{
 966:/Applications/ArmGNUToolchain/14.2.rel1/arm-none-eabi/arm-none-eabi/include/c++/14.2.1/bits/stl_algobase.h **** 	  for (; __first != __last; ++__first)
 967:/Applications/ArmGNUToolchain/14.2.rel1/arm-none-eabi/arm-none-eabi/include/c++/14.2.1/bits/stl_algobase.h **** 	    *__first = __tmp;
 968:/Applications/ArmGNUToolchain/14.2.rel1/arm-none-eabi/arm-none-eabi/include/c++/14.2.1/bits/stl_algobase.h **** 	  return;
 969:/Applications/ArmGNUToolchain/14.2.rel1/arm-none-eabi/arm-none-eabi/include/c++/14.2.1/bits/stl_algobase.h **** 	}
 970:/Applications/ArmGNUToolchain/14.2.rel1/arm-none-eabi/arm-none-eabi/include/c++/14.2.1/bits/stl_algobase.h **** #endif
 971:/Applications/ArmGNUToolchain/14.2.rel1/arm-none-eabi/arm-none-eabi/include/c++/14.2.1/bits/stl_algobase.h ****       if (const size_t __len = __last - __first)
 972:/Applications/ArmGNUToolchain/14.2.rel1/arm-none-eabi/arm-none-eabi/include/c++/14.2.1/bits/stl_algobase.h **** 	__builtin_memset(__first, static_cast<unsigned char>(__tmp), __len);
 973:/Applications/ArmGNUToolchain/14.2.rel1/arm-none-eabi/arm-none-eabi/include/c++/14.2.1/bits/stl_algobase.h ****     }
 974:/Applications/ArmGNUToolchain/14.2.rel1/arm-none-eabi/arm-none-eabi/include/c++/14.2.1/bits/stl_algobase.h **** 
 975:/Applications/ArmGNUToolchain/14.2.rel1/arm-none-eabi/arm-none-eabi/include/c++/14.2.1/bits/stl_algobase.h ****   template<typename _Ite, typename _Cont, typename _Tp>
 976:/Applications/ArmGNUToolchain/14.2.rel1/arm-none-eabi/arm-none-eabi/include/c++/14.2.1/bits/stl_algobase.h ****     _GLIBCXX20_CONSTEXPR
 977:/Applications/ArmGNUToolchain/14.2.rel1/arm-none-eabi/arm-none-eabi/include/c++/14.2.1/bits/stl_algobase.h ****     inline void
 978:/Applications/ArmGNUToolchain/14.2.rel1/arm-none-eabi/arm-none-eabi/include/c++/14.2.1/bits/stl_algobase.h ****     __fill_a1(::__gnu_cxx::__normal_iterator<_Ite, _Cont> __first,
 979:/Applications/ArmGNUToolchain/14.2.rel1/arm-none-eabi/arm-none-eabi/include/c++/14.2.1/bits/stl_algobase.h **** 	      ::__gnu_cxx::__normal_iterator<_Ite, _Cont> __last,
 980:/Applications/ArmGNUToolchain/14.2.rel1/arm-none-eabi/arm-none-eabi/include/c++/14.2.1/bits/stl_algobase.h **** 	      const _Tp& __value)
ARM GAS  /var/folders/y7/g6pkzsp12sx54x3s3mvyn15r0000gn/T//cc9jJkGr.s 			page 41


 981:/Applications/ArmGNUToolchain/14.2.rel1/arm-none-eabi/arm-none-eabi/include/c++/14.2.1/bits/stl_algobase.h ****     { std::__fill_a1(__first.base(), __last.base(), __value); }
 982:/Applications/ArmGNUToolchain/14.2.rel1/arm-none-eabi/arm-none-eabi/include/c++/14.2.1/bits/stl_algobase.h **** 
 983:/Applications/ArmGNUToolchain/14.2.rel1/arm-none-eabi/arm-none-eabi/include/c++/14.2.1/bits/stl_algobase.h ****   template<typename _Tp, typename _VTp>
 984:/Applications/ArmGNUToolchain/14.2.rel1/arm-none-eabi/arm-none-eabi/include/c++/14.2.1/bits/stl_algobase.h ****     void
 985:/Applications/ArmGNUToolchain/14.2.rel1/arm-none-eabi/arm-none-eabi/include/c++/14.2.1/bits/stl_algobase.h ****     __fill_a1(const _GLIBCXX_STD_C::_Deque_iterator<_Tp, _Tp&, _Tp*>&,
 986:/Applications/ArmGNUToolchain/14.2.rel1/arm-none-eabi/arm-none-eabi/include/c++/14.2.1/bits/stl_algobase.h **** 	      const _GLIBCXX_STD_C::_Deque_iterator<_Tp, _Tp&, _Tp*>&,
 987:/Applications/ArmGNUToolchain/14.2.rel1/arm-none-eabi/arm-none-eabi/include/c++/14.2.1/bits/stl_algobase.h **** 	      const _VTp&);
 988:/Applications/ArmGNUToolchain/14.2.rel1/arm-none-eabi/arm-none-eabi/include/c++/14.2.1/bits/stl_algobase.h **** 
 989:/Applications/ArmGNUToolchain/14.2.rel1/arm-none-eabi/arm-none-eabi/include/c++/14.2.1/bits/stl_algobase.h ****   _GLIBCXX20_CONSTEXPR
 990:/Applications/ArmGNUToolchain/14.2.rel1/arm-none-eabi/arm-none-eabi/include/c++/14.2.1/bits/stl_algobase.h ****   void
 991:/Applications/ArmGNUToolchain/14.2.rel1/arm-none-eabi/arm-none-eabi/include/c++/14.2.1/bits/stl_algobase.h ****   __fill_a1(_GLIBCXX_STD_C::_Bit_iterator, _GLIBCXX_STD_C::_Bit_iterator,
 992:/Applications/ArmGNUToolchain/14.2.rel1/arm-none-eabi/arm-none-eabi/include/c++/14.2.1/bits/stl_algobase.h **** 	    const bool&);
 993:/Applications/ArmGNUToolchain/14.2.rel1/arm-none-eabi/arm-none-eabi/include/c++/14.2.1/bits/stl_algobase.h **** 
 994:/Applications/ArmGNUToolchain/14.2.rel1/arm-none-eabi/arm-none-eabi/include/c++/14.2.1/bits/stl_algobase.h ****   template<typename _FIte, typename _Tp>
 995:/Applications/ArmGNUToolchain/14.2.rel1/arm-none-eabi/arm-none-eabi/include/c++/14.2.1/bits/stl_algobase.h ****     _GLIBCXX20_CONSTEXPR
 996:/Applications/ArmGNUToolchain/14.2.rel1/arm-none-eabi/arm-none-eabi/include/c++/14.2.1/bits/stl_algobase.h ****     inline void
 997:/Applications/ArmGNUToolchain/14.2.rel1/arm-none-eabi/arm-none-eabi/include/c++/14.2.1/bits/stl_algobase.h ****     __fill_a(_FIte __first, _FIte __last, const _Tp& __value)
 998:/Applications/ArmGNUToolchain/14.2.rel1/arm-none-eabi/arm-none-eabi/include/c++/14.2.1/bits/stl_algobase.h ****     { std::__fill_a1(__first, __last, __value); }
 999:/Applications/ArmGNUToolchain/14.2.rel1/arm-none-eabi/arm-none-eabi/include/c++/14.2.1/bits/stl_algobase.h **** 
1000:/Applications/ArmGNUToolchain/14.2.rel1/arm-none-eabi/arm-none-eabi/include/c++/14.2.1/bits/stl_algobase.h ****   template<typename _Ite, typename _Seq, typename _Cat, typename _Tp>
1001:/Applications/ArmGNUToolchain/14.2.rel1/arm-none-eabi/arm-none-eabi/include/c++/14.2.1/bits/stl_algobase.h ****     _GLIBCXX20_CONSTEXPR
1002:/Applications/ArmGNUToolchain/14.2.rel1/arm-none-eabi/arm-none-eabi/include/c++/14.2.1/bits/stl_algobase.h ****     void
1003:/Applications/ArmGNUToolchain/14.2.rel1/arm-none-eabi/arm-none-eabi/include/c++/14.2.1/bits/stl_algobase.h ****     __fill_a(const ::__gnu_debug::_Safe_iterator<_Ite, _Seq, _Cat>&,
1004:/Applications/ArmGNUToolchain/14.2.rel1/arm-none-eabi/arm-none-eabi/include/c++/14.2.1/bits/stl_algobase.h **** 	     const ::__gnu_debug::_Safe_iterator<_Ite, _Seq, _Cat>&,
1005:/Applications/ArmGNUToolchain/14.2.rel1/arm-none-eabi/arm-none-eabi/include/c++/14.2.1/bits/stl_algobase.h **** 	     const _Tp&);
1006:/Applications/ArmGNUToolchain/14.2.rel1/arm-none-eabi/arm-none-eabi/include/c++/14.2.1/bits/stl_algobase.h **** 
1007:/Applications/ArmGNUToolchain/14.2.rel1/arm-none-eabi/arm-none-eabi/include/c++/14.2.1/bits/stl_algobase.h ****   /**
1008:/Applications/ArmGNUToolchain/14.2.rel1/arm-none-eabi/arm-none-eabi/include/c++/14.2.1/bits/stl_algobase.h ****    *  @brief Fills the range [first,last) with copies of value.
1009:/Applications/ArmGNUToolchain/14.2.rel1/arm-none-eabi/arm-none-eabi/include/c++/14.2.1/bits/stl_algobase.h ****    *  @ingroup mutating_algorithms
1010:/Applications/ArmGNUToolchain/14.2.rel1/arm-none-eabi/arm-none-eabi/include/c++/14.2.1/bits/stl_algobase.h ****    *  @param  __first  A forward iterator.
1011:/Applications/ArmGNUToolchain/14.2.rel1/arm-none-eabi/arm-none-eabi/include/c++/14.2.1/bits/stl_algobase.h ****    *  @param  __last   A forward iterator.
1012:/Applications/ArmGNUToolchain/14.2.rel1/arm-none-eabi/arm-none-eabi/include/c++/14.2.1/bits/stl_algobase.h ****    *  @param  __value  A reference-to-const of arbitrary type.
1013:/Applications/ArmGNUToolchain/14.2.rel1/arm-none-eabi/arm-none-eabi/include/c++/14.2.1/bits/stl_algobase.h ****    *  @return   Nothing.
1014:/Applications/ArmGNUToolchain/14.2.rel1/arm-none-eabi/arm-none-eabi/include/c++/14.2.1/bits/stl_algobase.h ****    *
1015:/Applications/ArmGNUToolchain/14.2.rel1/arm-none-eabi/arm-none-eabi/include/c++/14.2.1/bits/stl_algobase.h ****    *  This function fills a range with copies of the same value.  For char
1016:/Applications/ArmGNUToolchain/14.2.rel1/arm-none-eabi/arm-none-eabi/include/c++/14.2.1/bits/stl_algobase.h ****    *  types filling contiguous areas of memory, this becomes an inline call
1017:/Applications/ArmGNUToolchain/14.2.rel1/arm-none-eabi/arm-none-eabi/include/c++/14.2.1/bits/stl_algobase.h ****    *  to @c memset or @c wmemset.
1018:/Applications/ArmGNUToolchain/14.2.rel1/arm-none-eabi/arm-none-eabi/include/c++/14.2.1/bits/stl_algobase.h ****   */
1019:/Applications/ArmGNUToolchain/14.2.rel1/arm-none-eabi/arm-none-eabi/include/c++/14.2.1/bits/stl_algobase.h ****   template<typename _ForwardIterator, typename _Tp>
1020:/Applications/ArmGNUToolchain/14.2.rel1/arm-none-eabi/arm-none-eabi/include/c++/14.2.1/bits/stl_algobase.h ****     _GLIBCXX20_CONSTEXPR
1021:/Applications/ArmGNUToolchain/14.2.rel1/arm-none-eabi/arm-none-eabi/include/c++/14.2.1/bits/stl_algobase.h ****     inline void
1022:/Applications/ArmGNUToolchain/14.2.rel1/arm-none-eabi/arm-none-eabi/include/c++/14.2.1/bits/stl_algobase.h ****     fill(_ForwardIterator __first, _ForwardIterator __last, const _Tp& __value)
 523              		.loc 4 1022 5 view .LVU149
 524              	.LBB216:
 525              	.LBI209:
 997:/Applications/ArmGNUToolchain/14.2.rel1/arm-none-eabi/arm-none-eabi/include/c++/14.2.1/bits/stl_algobase.h ****     { std::__fill_a1(__first, __last, __value); }
 526              		.loc 4 997 5 view .LVU150
 527              	.LBB214:
 528              	.LBI210:
 947:/Applications/ArmGNUToolchain/14.2.rel1/arm-none-eabi/arm-none-eabi/include/c++/14.2.1/bits/stl_algobase.h **** 	      const _Tp& __value)
 529              		.loc 4 947 5 view .LVU151
 530              	.L21:
 531              	.LBB212:
 951:/Applications/ArmGNUToolchain/14.2.rel1/arm-none-eabi/arm-none-eabi/include/c++/14.2.1/bits/stl_algobase.h **** 	*__first = __tmp;
 532              		.loc 4 951 22 discriminator 1 view .LVU152
 533 00d0 B242     		cmp	r2, r6
 534 00d2 40F01881 		bne	.L22
ARM GAS  /var/folders/y7/g6pkzsp12sx54x3s3mvyn15r0000gn/T//cc9jJkGr.s 			page 42


 535 00d6 0A22     		movs	r2, #10
 536              	.LVL38:
 951:/Applications/ArmGNUToolchain/14.2.rel1/arm-none-eabi/arm-none-eabi/include/c++/14.2.1/bits/stl_algobase.h **** 	*__first = __tmp;
 537              		.loc 4 951 22 is_stmt 0 discriminator 1 view .LVU153
 538 00d8 17EE901A 		vmov	r1, s15	@ int
 539 00dc 17EE107A 		vmov	r7, s14	@ int
 540              	.LBE212:
 541              	.LBE214:
 542              	.LBE216:
 543              	.LBE218:
 544              	.LBB219:
 130:../eurorack/plaits/dsp/speech/naive_speech_synth.cc ****   for (int i = 0; i < kNaiveSpeechNumFormants; ++i) {
 545              		.loc 1 130 12 view .LVU154
 546 00e0 4FF0000C 		mov	ip, #0
 547 00e4 5143     		muls	r1, r2, r1
 548 00e6 0A46     		mov	r2, r1
 549 00e8 3221     		movs	r1, #50
 550 00ea 01FB0722 		mla	r2, r1, r7, r2
 551 00ee 9A49     		ldr	r1, .L41+8
 552 00f0 0A44     		add	r2, r2, r1
 553              	.LVL39:
 554              	.L26:
 555              	.LBB220:
 131:../eurorack/plaits/dsp/speech/naive_speech_synth.cc ****     const Formant& p0r0 = phonemes_[p_integral][r_integral].formant[i];
 556              		.loc 1 131 5 is_stmt 1 view .LVU155
 132:../eurorack/plaits/dsp/speech/naive_speech_synth.cc ****     const Formant& p0r1 = phonemes_[p_integral][r_integral + 1].formant[i];
 557              		.loc 1 132 5 view .LVU156
 133:../eurorack/plaits/dsp/speech/naive_speech_synth.cc ****     const Formant& p1r0 = phonemes_[p_integral + 1][r_integral].formant[i];
 558              		.loc 1 133 5 view .LVU157
 134:../eurorack/plaits/dsp/speech/naive_speech_synth.cc ****     const Formant& p1r1 = phonemes_[p_integral + 1][r_integral + 1].formant[i];
 559              		.loc 1 134 5 view .LVU158
 135:../eurorack/plaits/dsp/speech/naive_speech_synth.cc **** 
 136:../eurorack/plaits/dsp/speech/naive_speech_synth.cc ****     float p0r_f = p0r0.frequency + \
 560              		.loc 1 136 5 view .LVU159
 561              		.loc 1 136 24 is_stmt 0 view .LVU160
 562 00f2 1178     		ldrb	r1, [r2]	@ zero_extendqisi2
 137:../eurorack/plaits/dsp/speech/naive_speech_synth.cc ****         (p0r1.frequency - p0r0.frequency) * r_fractional;
 563              		.loc 1 137 15 view .LVU161
 564 00f4 977A     		ldrb	r7, [r2, #10]	@ zero_extendqisi2
 136:../eurorack/plaits/dsp/speech/naive_speech_synth.cc ****         (p0r1.frequency - p0r0.frequency) * r_fractional;
 565              		.loc 1 136 34 view .LVU162
 566 00f6 07EE101A 		vmov	s14, r1	@ int
 567              		.loc 1 137 25 view .LVU163
 568 00fa 7F1A     		subs	r7, r7, r1
 138:../eurorack/plaits/dsp/speech/naive_speech_synth.cc ****     float p1r_f = p1r0.frequency + \
 569              		.loc 1 138 24 view .LVU164
 570 00fc 92F83210 		ldrb	r1, [r2, #50]	@ zero_extendqisi2
 136:../eurorack/plaits/dsp/speech/naive_speech_synth.cc ****         (p0r1.frequency - p0r0.frequency) * r_fractional;
 571              		.loc 1 136 34 view .LVU165
 572 0100 B8EEC77A 		vcvt.f32.s32	s14, s14
 137:../eurorack/plaits/dsp/speech/naive_speech_synth.cc ****         (p0r1.frequency - p0r0.frequency) * r_fractional;
 573              		.loc 1 137 43 view .LVU166
 574 0104 07EE907A 		vmov	s15, r7	@ int
 139:../eurorack/plaits/dsp/speech/naive_speech_synth.cc ****         (p1r1.frequency - p1r0.frequency) * r_fractional;
 575              		.loc 1 139 15 view .LVU167
 576 0108 92F83C70 		ldrb	r7, [r2, #60]	@ zero_extendqisi2
 137:../eurorack/plaits/dsp/speech/naive_speech_synth.cc ****     float p1r_f = p1r0.frequency + \
ARM GAS  /var/folders/y7/g6pkzsp12sx54x3s3mvyn15r0000gn/T//cc9jJkGr.s 			page 43


 577              		.loc 1 137 43 view .LVU168
 578 010c F8EEE77A 		vcvt.f32.s32	s15, s15
 579              		.loc 1 139 25 view .LVU169
 580 0110 7F1A     		subs	r7, r7, r1
 136:../eurorack/plaits/dsp/speech/naive_speech_synth.cc ****         (p0r1.frequency - p0r0.frequency) * r_fractional;
 581              		.loc 1 136 11 view .LVU170
 582 0112 A7EE817A 		vfma.f32	s14, s15, s2
 583              	.LVL40:
 138:../eurorack/plaits/dsp/speech/naive_speech_synth.cc ****         (p1r1.frequency - p1r0.frequency) * r_fractional;
 584              		.loc 1 138 5 is_stmt 1 view .LVU171
 585              		.loc 1 139 43 is_stmt 0 view .LVU172
 586 0116 07EE907A 		vmov	s15, r7	@ int
 140:../eurorack/plaits/dsp/speech/naive_speech_synth.cc ****     float f = p0r_f + (p1r_f - p0r_f) * p_fractional;
 141:../eurorack/plaits/dsp/speech/naive_speech_synth.cc **** 
 142:../eurorack/plaits/dsp/speech/naive_speech_synth.cc ****     float p0r_a = p0r0.amplitude + \
 143:../eurorack/plaits/dsp/speech/naive_speech_synth.cc ****         (p0r1.amplitude - p0r0.amplitude) * r_fractional;
 587              		.loc 1 143 15 view .LVU173
 588 011a D77A     		ldrb	r7, [r2, #11]	@ zero_extendqisi2
 139:../eurorack/plaits/dsp/speech/naive_speech_synth.cc ****     float f = p0r_f + (p1r_f - p0r_f) * p_fractional;
 589              		.loc 1 139 43 view .LVU174
 590 011c B8EEE76A 		vcvt.f32.s32	s12, s15
 138:../eurorack/plaits/dsp/speech/naive_speech_synth.cc ****         (p1r1.frequency - p1r0.frequency) * r_fractional;
 591              		.loc 1 138 34 view .LVU175
 592 0120 07EE901A 		vmov	s15, r1	@ int
 142:../eurorack/plaits/dsp/speech/naive_speech_synth.cc ****         (p0r1.amplitude - p0r0.amplitude) * r_fractional;
 593              		.loc 1 142 24 view .LVU176
 594 0124 5178     		ldrb	r1, [r2, #1]	@ zero_extendqisi2
 138:../eurorack/plaits/dsp/speech/naive_speech_synth.cc ****         (p1r1.frequency - p1r0.frequency) * r_fractional;
 595              		.loc 1 138 34 view .LVU177
 596 0126 F8EEE77A 		vcvt.f32.s32	s15, s15
 597              		.loc 1 143 25 view .LVU178
 598 012a 7F1A     		subs	r7, r7, r1
 138:../eurorack/plaits/dsp/speech/naive_speech_synth.cc ****         (p1r1.frequency - p1r0.frequency) * r_fractional;
 599              		.loc 1 138 11 view .LVU179
 600 012c E6EE017A 		vfma.f32	s15, s12, s2
 601              	.LVL41:
 140:../eurorack/plaits/dsp/speech/naive_speech_synth.cc **** 
