ARM GAS  /var/folders/y7/g6pkzsp12sx54x3s3mvyn15r0000gn/T//ccyV2DV7.s 			page 1


   1              		.cpu cortex-m7
   2              		.arch armv7e-m
   3              		.fpu fpv5-d16
   4              		.eabi_attribute 28, 1
   5              		.eabi_attribute 20, 1
   6              		.eabi_attribute 21, 1
   7              		.eabi_attribute 23, 3
   8              		.eabi_attribute 24, 1
   9              		.eabi_attribute 25, 1
  10              		.eabi_attribute 26, 1
  11              		.eabi_attribute 30, 4
  12              		.eabi_attribute 34, 1
  13              		.eabi_attribute 18, 4
  14              		.file	"phase_distortion_engine.cc"
  15              		.text
  16              	.Ltext0:
  17              		.cfi_sections	.debug_frame
  18              		.file 1 "../eurorack/plaits/dsp/engine2/phase_distortion_engine.cc"
  19              		.section	.text._ZN6plaits21PhaseDistortionEngine12LoadUserDataEPKh,"axG",%progbits,_ZN6plaits21Pha
  20              		.align	1
  21              		.weak	_ZN6plaits21PhaseDistortionEngine12LoadUserDataEPKh
  22              		.syntax unified
  23              		.thumb
  24              		.thumb_func
  26              	_ZN6plaits21PhaseDistortionEngine12LoadUserDataEPKh:
  27              	.LVL0:
  28              	.LFB1293:
  29              		.file 2 "../eurorack/plaits/dsp/engine2/phase_distortion_engine.h"
   1:../eurorack/plaits/dsp/engine2/phase_distortion_engine.h **** // Copyright 2021 Emilie Gillet.
   2:../eurorack/plaits/dsp/engine2/phase_distortion_engine.h **** //
   3:../eurorack/plaits/dsp/engine2/phase_distortion_engine.h **** // Author: Emilie Gillet (emilie.o.gillet@gmail.com)
   4:../eurorack/plaits/dsp/engine2/phase_distortion_engine.h **** //
   5:../eurorack/plaits/dsp/engine2/phase_distortion_engine.h **** // Permission is hereby granted, free of charge, to any person obtaining a copy
   6:../eurorack/plaits/dsp/engine2/phase_distortion_engine.h **** // of this software and associated documentation files (the "Software"), to deal
   7:../eurorack/plaits/dsp/engine2/phase_distortion_engine.h **** // in the Software without restriction, including without limitation the rights
   8:../eurorack/plaits/dsp/engine2/phase_distortion_engine.h **** // to use, copy, modify, merge, publish, distribute, sublicense, and/or sell
   9:../eurorack/plaits/dsp/engine2/phase_distortion_engine.h **** // copies of the Software, and to permit persons to whom the Software is
  10:../eurorack/plaits/dsp/engine2/phase_distortion_engine.h **** // furnished to do so, subject to the following conditions:
  11:../eurorack/plaits/dsp/engine2/phase_distortion_engine.h **** // 
  12:../eurorack/plaits/dsp/engine2/phase_distortion_engine.h **** // The above copyright notice and this permission notice shall be included in
  13:../eurorack/plaits/dsp/engine2/phase_distortion_engine.h **** // all copies or substantial portions of the Software.
  14:../eurorack/plaits/dsp/engine2/phase_distortion_engine.h **** // 
  15:../eurorack/plaits/dsp/engine2/phase_distortion_engine.h **** // THE SOFTWARE IS PROVIDED "AS IS", WITHOUT WARRANTY OF ANY KIND, EXPRESS OR
  16:../eurorack/plaits/dsp/engine2/phase_distortion_engine.h **** // IMPLIED, INCLUDING BUT NOT LIMITED TO THE WARRANTIES OF MERCHANTABILITY,
  17:../eurorack/plaits/dsp/engine2/phase_distortion_engine.h **** // FITNESS FOR A PARTICULAR PURPOSE AND NONINFRINGEMENT. IN NO EVENT SHALL THE
  18:../eurorack/plaits/dsp/engine2/phase_distortion_engine.h **** // AUTHORS OR COPYRIGHT HOLDERS BE LIABLE FOR ANY CLAIM, DAMAGES OR OTHER
  19:../eurorack/plaits/dsp/engine2/phase_distortion_engine.h **** // LIABILITY, WHETHER IN AN ACTION OF CONTRACT, TORT OR OTHERWISE, ARISING FROM,
  20:../eurorack/plaits/dsp/engine2/phase_distortion_engine.h **** // OUT OF OR IN CONNECTION WITH THE SOFTWARE OR THE USE OR OTHER DEALINGS IN
  21:../eurorack/plaits/dsp/engine2/phase_distortion_engine.h **** // THE SOFTWARE.
  22:../eurorack/plaits/dsp/engine2/phase_distortion_engine.h **** // 
  23:../eurorack/plaits/dsp/engine2/phase_distortion_engine.h **** // See http://creativecommons.org/licenses/MIT/ for more information.
  24:../eurorack/plaits/dsp/engine2/phase_distortion_engine.h **** //
  25:../eurorack/plaits/dsp/engine2/phase_distortion_engine.h **** // -----------------------------------------------------------------------------
  26:../eurorack/plaits/dsp/engine2/phase_distortion_engine.h **** //
  27:../eurorack/plaits/dsp/engine2/phase_distortion_engine.h **** // Phase distortion and phase modulation with an asymmetric triangle as the
  28:../eurorack/plaits/dsp/engine2/phase_distortion_engine.h **** // modulator.
  29:../eurorack/plaits/dsp/engine2/phase_distortion_engine.h **** 
ARM GAS  /var/folders/y7/g6pkzsp12sx54x3s3mvyn15r0000gn/T//ccyV2DV7.s 			page 2


  30:../eurorack/plaits/dsp/engine2/phase_distortion_engine.h **** #ifndef PLAITS_DSP_ENGINE_PHASE_DISTORTION_ENGINE_H_
  31:../eurorack/plaits/dsp/engine2/phase_distortion_engine.h **** #define PLAITS_DSP_ENGINE_PHASE_DISTORTION_ENGINE_H_
  32:../eurorack/plaits/dsp/engine2/phase_distortion_engine.h **** 
  33:../eurorack/plaits/dsp/engine2/phase_distortion_engine.h **** #include "plaits/dsp/engine/engine.h"
  34:../eurorack/plaits/dsp/engine2/phase_distortion_engine.h **** #include "plaits/dsp/oscillator/variable_shape_oscillator.h"
  35:../eurorack/plaits/dsp/engine2/phase_distortion_engine.h **** 
  36:../eurorack/plaits/dsp/engine2/phase_distortion_engine.h **** namespace plaits {
  37:../eurorack/plaits/dsp/engine2/phase_distortion_engine.h ****   
  38:../eurorack/plaits/dsp/engine2/phase_distortion_engine.h **** class PhaseDistortionEngine : public Engine {
  39:../eurorack/plaits/dsp/engine2/phase_distortion_engine.h ****  public:
  40:../eurorack/plaits/dsp/engine2/phase_distortion_engine.h ****   PhaseDistortionEngine() { }
  41:../eurorack/plaits/dsp/engine2/phase_distortion_engine.h ****   ~PhaseDistortionEngine() { }
  42:../eurorack/plaits/dsp/engine2/phase_distortion_engine.h ****   
  43:../eurorack/plaits/dsp/engine2/phase_distortion_engine.h ****   virtual void Init(stmlib::BufferAllocator* allocator);
  44:../eurorack/plaits/dsp/engine2/phase_distortion_engine.h ****   virtual void Reset();
  45:../eurorack/plaits/dsp/engine2/phase_distortion_engine.h ****   virtual void LoadUserData(const uint8_t* user_data) { }
  30              		.loc 2 45 16 view -0
  31              		.cfi_startproc
  32              		@ args = 0, pretend = 0, frame = 0
  33              		@ frame_needed = 0, uses_anonymous_args = 0
  34              		@ link register save eliminated.
  35              		.loc 2 45 57 is_stmt 0 view .LVU1
  36 0000 7047     		bx	lr
  37              		.cfi_endproc
  38              	.LFE1293:
  40              		.section	.text._ZN6plaits21PhaseDistortionEngine5ResetEv,"ax",%progbits
  41              		.align	1
  42              		.global	_ZN6plaits21PhaseDistortionEngine5ResetEv
  43              		.syntax unified
  44              		.thumb
  45              		.thumb_func
  47              	_ZN6plaits21PhaseDistortionEngine5ResetEv:
  48              	.LVL1:
  49              	.LFB1326:
   1:../eurorack/plaits/dsp/engine2/phase_distortion_engine.cc **** // Copyright 2021 Emilie Gillet.
   2:../eurorack/plaits/dsp/engine2/phase_distortion_engine.cc **** //
   3:../eurorack/plaits/dsp/engine2/phase_distortion_engine.cc **** // Author: Emilie Gillet (emilie.o.gillet@gmail.com)
   4:../eurorack/plaits/dsp/engine2/phase_distortion_engine.cc **** //
   5:../eurorack/plaits/dsp/engine2/phase_distortion_engine.cc **** // Permission is hereby granted, free of charge, to any person obtaining a copy
   6:../eurorack/plaits/dsp/engine2/phase_distortion_engine.cc **** // of this software and associated documentation files (the "Software"), to deal
   7:../eurorack/plaits/dsp/engine2/phase_distortion_engine.cc **** // in the Software without restriction, including without limitation the rights
   8:../eurorack/plaits/dsp/engine2/phase_distortion_engine.cc **** // to use, copy, modify, merge, publish, distribute, sublicense, and/or sell
   9:../eurorack/plaits/dsp/engine2/phase_distortion_engine.cc **** // copies of the Software, and to permit persons to whom the Software is
  10:../eurorack/plaits/dsp/engine2/phase_distortion_engine.cc **** // furnished to do so, subject to the following conditions:
  11:../eurorack/plaits/dsp/engine2/phase_distortion_engine.cc **** // 
  12:../eurorack/plaits/dsp/engine2/phase_distortion_engine.cc **** // The above copyright notice and this permission notice shall be included in
  13:../eurorack/plaits/dsp/engine2/phase_distortion_engine.cc **** // all copies or substantial portions of the Software.
  14:../eurorack/plaits/dsp/engine2/phase_distortion_engine.cc **** // 
  15:../eurorack/plaits/dsp/engine2/phase_distortion_engine.cc **** // THE SOFTWARE IS PROVIDED "AS IS", WITHOUT WARRANTY OF ANY KIND, EXPRESS OR
  16:../eurorack/plaits/dsp/engine2/phase_distortion_engine.cc **** // IMPLIED, INCLUDING BUT NOT LIMITED TO THE WARRANTIES OF MERCHANTABILITY,
  17:../eurorack/plaits/dsp/engine2/phase_distortion_engine.cc **** // FITNESS FOR A PARTICULAR PURPOSE AND NONINFRINGEMENT. IN NO EVENT SHALL THE
  18:../eurorack/plaits/dsp/engine2/phase_distortion_engine.cc **** // AUTHORS OR COPYRIGHT HOLDERS BE LIABLE FOR ANY CLAIM, DAMAGES OR OTHER
  19:../eurorack/plaits/dsp/engine2/phase_distortion_engine.cc **** // LIABILITY, WHETHER IN AN ACTION OF CONTRACT, TORT OR OTHERWISE, ARISING FROM,
  20:../eurorack/plaits/dsp/engine2/phase_distortion_engine.cc **** // OUT OF OR IN CONNECTION WITH THE SOFTWARE OR THE USE OR OTHER DEALINGS IN
  21:../eurorack/plaits/dsp/engine2/phase_distortion_engine.cc **** // THE SOFTWARE.
  22:../eurorack/plaits/dsp/engine2/phase_distortion_engine.cc **** // 
  23:../eurorack/plaits/dsp/engine2/phase_distortion_engine.cc **** // See http://creativecommons.org/licenses/MIT/ for more information.
ARM GAS  /var/folders/y7/g6pkzsp12sx54x3s3mvyn15r0000gn/T//ccyV2DV7.s 			page 3


  24:../eurorack/plaits/dsp/engine2/phase_distortion_engine.cc **** //
  25:../eurorack/plaits/dsp/engine2/phase_distortion_engine.cc **** // -----------------------------------------------------------------------------
  26:../eurorack/plaits/dsp/engine2/phase_distortion_engine.cc **** //
  27:../eurorack/plaits/dsp/engine2/phase_distortion_engine.cc **** // Phase distortion and phase modulation with an asymmetric triangle as the
  28:../eurorack/plaits/dsp/engine2/phase_distortion_engine.cc **** // modulator.
  29:../eurorack/plaits/dsp/engine2/phase_distortion_engine.cc **** 
  30:../eurorack/plaits/dsp/engine2/phase_distortion_engine.cc **** #include "plaits/dsp/engine2/phase_distortion_engine.h"
  31:../eurorack/plaits/dsp/engine2/phase_distortion_engine.cc **** 
  32:../eurorack/plaits/dsp/engine2/phase_distortion_engine.cc **** #include <algorithm>
  33:../eurorack/plaits/dsp/engine2/phase_distortion_engine.cc **** 
  34:../eurorack/plaits/dsp/engine2/phase_distortion_engine.cc **** #include "stmlib/dsp/parameter_interpolator.h"
  35:../eurorack/plaits/dsp/engine2/phase_distortion_engine.cc **** 
  36:../eurorack/plaits/dsp/engine2/phase_distortion_engine.cc **** #include "plaits/dsp/oscillator/sine_oscillator.h"
  37:../eurorack/plaits/dsp/engine2/phase_distortion_engine.cc **** #include "plaits/resources.h"
  38:../eurorack/plaits/dsp/engine2/phase_distortion_engine.cc **** 
  39:../eurorack/plaits/dsp/engine2/phase_distortion_engine.cc **** namespace plaits {
  40:../eurorack/plaits/dsp/engine2/phase_distortion_engine.cc **** 
  41:../eurorack/plaits/dsp/engine2/phase_distortion_engine.cc **** using namespace std;
  42:../eurorack/plaits/dsp/engine2/phase_distortion_engine.cc **** using namespace stmlib;
  43:../eurorack/plaits/dsp/engine2/phase_distortion_engine.cc **** 
  44:../eurorack/plaits/dsp/engine2/phase_distortion_engine.cc **** void PhaseDistortionEngine::Init(BufferAllocator* allocator) {
  45:../eurorack/plaits/dsp/engine2/phase_distortion_engine.cc ****   modulator_.Init();
  46:../eurorack/plaits/dsp/engine2/phase_distortion_engine.cc ****   shaper_.Init();
  47:../eurorack/plaits/dsp/engine2/phase_distortion_engine.cc ****   temp_buffer_ = allocator->Allocate<float>(kMaxBlockSize * 4);
  48:../eurorack/plaits/dsp/engine2/phase_distortion_engine.cc **** }
  49:../eurorack/plaits/dsp/engine2/phase_distortion_engine.cc **** 
  50:../eurorack/plaits/dsp/engine2/phase_distortion_engine.cc **** void PhaseDistortionEngine::Reset() {
  50              		.loc 1 50 37 is_stmt 1 view -0
  51              		.cfi_startproc
  52              		@ args = 0, pretend = 0, frame = 0
  53              		@ frame_needed = 0, uses_anonymous_args = 0
  54              		@ link register save eliminated.
  51:../eurorack/plaits/dsp/engine2/phase_distortion_engine.cc ****   
  52:../eurorack/plaits/dsp/engine2/phase_distortion_engine.cc **** }
  55              		.loc 1 52 1 is_stmt 0 view .LVU3
  56 0000 7047     		bx	lr
  57              		.cfi_endproc
  58              	.LFE1326:
  60              		.section	.text._ZN6plaits21PhaseDistortionEngine4InitEPN6stmlib15BufferAllocatorE,"ax",%progbits
  61              		.align	1
  62              		.global	_ZN6plaits21PhaseDistortionEngine4InitEPN6stmlib15BufferAllocatorE
  63              		.syntax unified
  64              		.thumb
  65              		.thumb_func
  67              	_ZN6plaits21PhaseDistortionEngine4InitEPN6stmlib15BufferAllocatorE:
  68              	.LVL2:
  69              	.LFB1325:
  44:../eurorack/plaits/dsp/engine2/phase_distortion_engine.cc ****   modulator_.Init();
  70              		.loc 1 44 62 is_stmt 1 view -0
  71              		.cfi_startproc
  72              		@ args = 0, pretend = 0, frame = 0
  73              		@ frame_needed = 0, uses_anonymous_args = 0
  45:../eurorack/plaits/dsp/engine2/phase_distortion_engine.cc ****   shaper_.Init();
  74              		.loc 1 45 3 view .LVU5
  75              	.LBB153:
  76              	.LBI153:
  77              		.file 3 "../eurorack/plaits/dsp/oscillator/variable_shape_oscillator.h"
ARM GAS  /var/folders/y7/g6pkzsp12sx54x3s3mvyn15r0000gn/T//ccyV2DV7.s 			page 4


   1:../eurorack/plaits/dsp/oscillator/variable_shape_oscillator.h **** // Copyright 2016 Emilie Gillet.
   2:../eurorack/plaits/dsp/oscillator/variable_shape_oscillator.h **** //
   3:../eurorack/plaits/dsp/oscillator/variable_shape_oscillator.h **** // Author: Emilie Gillet (emilie.o.gillet@gmail.com)
   4:../eurorack/plaits/dsp/oscillator/variable_shape_oscillator.h **** //
   5:../eurorack/plaits/dsp/oscillator/variable_shape_oscillator.h **** // Permission is hereby granted, free of charge, to any person obtaining a copy
   6:../eurorack/plaits/dsp/oscillator/variable_shape_oscillator.h **** // of this software and associated documentation files (the "Software"), to deal
   7:../eurorack/plaits/dsp/oscillator/variable_shape_oscillator.h **** // in the Software without restriction, including without limitation the rights
   8:../eurorack/plaits/dsp/oscillator/variable_shape_oscillator.h **** // to use, copy, modify, merge, publish, distribute, sublicense, and/or sell
   9:../eurorack/plaits/dsp/oscillator/variable_shape_oscillator.h **** // copies of the Software, and to permit persons to whom the Software is
  10:../eurorack/plaits/dsp/oscillator/variable_shape_oscillator.h **** // furnished to do so, subject to the following conditions:
  11:../eurorack/plaits/dsp/oscillator/variable_shape_oscillator.h **** // 
  12:../eurorack/plaits/dsp/oscillator/variable_shape_oscillator.h **** // The above copyright notice and this permission notice shall be included in
  13:../eurorack/plaits/dsp/oscillator/variable_shape_oscillator.h **** // all copies or substantial portions of the Software.
  14:../eurorack/plaits/dsp/oscillator/variable_shape_oscillator.h **** // 
  15:../eurorack/plaits/dsp/oscillator/variable_shape_oscillator.h **** // THE SOFTWARE IS PROVIDED "AS IS", WITHOUT WARRANTY OF ANY KIND, EXPRESS OR
  16:../eurorack/plaits/dsp/oscillator/variable_shape_oscillator.h **** // IMPLIED, INCLUDING BUT NOT LIMITED TO THE WARRANTIES OF MERCHANTABILITY,
  17:../eurorack/plaits/dsp/oscillator/variable_shape_oscillator.h **** // FITNESS FOR A PARTICULAR PURPOSE AND NONINFRINGEMENT. IN NO EVENT SHALL THE
  18:../eurorack/plaits/dsp/oscillator/variable_shape_oscillator.h **** // AUTHORS OR COPYRIGHT HOLDERS BE LIABLE FOR ANY CLAIM, DAMAGES OR OTHER
  19:../eurorack/plaits/dsp/oscillator/variable_shape_oscillator.h **** // LIABILITY, WHETHER IN AN ACTION OF CONTRACT, TORT OR OTHERWISE, ARISING FROM,
  20:../eurorack/plaits/dsp/oscillator/variable_shape_oscillator.h **** // OUT OF OR IN CONNECTION WITH THE SOFTWARE OR THE USE OR OTHER DEALINGS IN
  21:../eurorack/plaits/dsp/oscillator/variable_shape_oscillator.h **** // THE SOFTWARE.
  22:../eurorack/plaits/dsp/oscillator/variable_shape_oscillator.h **** // 
  23:../eurorack/plaits/dsp/oscillator/variable_shape_oscillator.h **** // See http://creativecommons.org/licenses/MIT/ for more information.
  24:../eurorack/plaits/dsp/oscillator/variable_shape_oscillator.h **** //
  25:../eurorack/plaits/dsp/oscillator/variable_shape_oscillator.h **** // -----------------------------------------------------------------------------
  26:../eurorack/plaits/dsp/oscillator/variable_shape_oscillator.h **** //
  27:../eurorack/plaits/dsp/oscillator/variable_shape_oscillator.h **** // Continuously variable waveform: triangle > saw > square. Both square and
  28:../eurorack/plaits/dsp/oscillator/variable_shape_oscillator.h **** // triangle have variable slope / pulse-width. Additionally, the phase resets
  29:../eurorack/plaits/dsp/oscillator/variable_shape_oscillator.h **** // can be locked to a master frequency.
  30:../eurorack/plaits/dsp/oscillator/variable_shape_oscillator.h **** //
  31:../eurorack/plaits/dsp/oscillator/variable_shape_oscillator.h **** // A template parameter allows the generation of a master + slave signal,
  32:../eurorack/plaits/dsp/oscillator/variable_shape_oscillator.h **** // which can be used as the phase for phase distortion or modulation synthesis.
  33:../eurorack/plaits/dsp/oscillator/variable_shape_oscillator.h **** 
  34:../eurorack/plaits/dsp/oscillator/variable_shape_oscillator.h **** #ifndef PLAITS_DSP_OSCILLATOR_VARIABLE_SHAPE_OSCILLATOR_H_
  35:../eurorack/plaits/dsp/oscillator/variable_shape_oscillator.h **** #define PLAITS_DSP_OSCILLATOR_VARIABLE_SHAPE_OSCILLATOR_H_
  36:../eurorack/plaits/dsp/oscillator/variable_shape_oscillator.h **** 
  37:../eurorack/plaits/dsp/oscillator/variable_shape_oscillator.h **** #include "stmlib/dsp/dsp.h"
  38:../eurorack/plaits/dsp/oscillator/variable_shape_oscillator.h **** #include "stmlib/dsp/parameter_interpolator.h"
  39:../eurorack/plaits/dsp/oscillator/variable_shape_oscillator.h **** #include "stmlib/dsp/polyblep.h"
  40:../eurorack/plaits/dsp/oscillator/variable_shape_oscillator.h **** 
  41:../eurorack/plaits/dsp/oscillator/variable_shape_oscillator.h **** #include "plaits/dsp/oscillator/oscillator.h"
  42:../eurorack/plaits/dsp/oscillator/variable_shape_oscillator.h **** 
  43:../eurorack/plaits/dsp/oscillator/variable_shape_oscillator.h **** #include <algorithm>
  44:../eurorack/plaits/dsp/oscillator/variable_shape_oscillator.h **** 
  45:../eurorack/plaits/dsp/oscillator/variable_shape_oscillator.h **** namespace plaits {
  46:../eurorack/plaits/dsp/oscillator/variable_shape_oscillator.h **** 
  47:../eurorack/plaits/dsp/oscillator/variable_shape_oscillator.h **** class VariableShapeOscillator {
  48:../eurorack/plaits/dsp/oscillator/variable_shape_oscillator.h ****  public:
  49:../eurorack/plaits/dsp/oscillator/variable_shape_oscillator.h ****   VariableShapeOscillator() { }
  50:../eurorack/plaits/dsp/oscillator/variable_shape_oscillator.h ****   ~VariableShapeOscillator() { }
  51:../eurorack/plaits/dsp/oscillator/variable_shape_oscillator.h **** 
  52:../eurorack/plaits/dsp/oscillator/variable_shape_oscillator.h ****   void Init() {
  78              		.loc 3 52 8 view .LVU6
  79              	.LBB154:
  53:../eurorack/plaits/dsp/oscillator/variable_shape_oscillator.h ****     master_phase_ = 0.0f;
  80              		.loc 3 53 5 view .LVU7
  81              	.LBE154:
ARM GAS  /var/folders/y7/g6pkzsp12sx54x3s3mvyn15r0000gn/T//ccyV2DV7.s 			page 5


  82              	.LBE153:
  44:../eurorack/plaits/dsp/engine2/phase_distortion_engine.cc ****   modulator_.Init();
  83              		.loc 1 44 62 is_stmt 0 view .LVU8
  84 0000 30B5     		push	{r4, r5, lr}
  85              		.cfi_def_cfa_offset 12
  86              		.cfi_offset 4, -12
  87              		.cfi_offset 5, -8
  88              		.cfi_offset 14, -4
  89              	.LBB161:
  90              	.LBB155:
  54:../eurorack/plaits/dsp/oscillator/variable_shape_oscillator.h ****     slave_phase_ = 0.0f;
  55:../eurorack/plaits/dsp/oscillator/variable_shape_oscillator.h ****     next_sample_ = 0.0f;
  56:../eurorack/plaits/dsp/oscillator/variable_shape_oscillator.h ****     previous_pw_ = 0.5f;
  91              		.loc 3 56 18 view .LVU9
  92 0002 4FF07C54 		mov	r4, #1056964608
  53:../eurorack/plaits/dsp/oscillator/variable_shape_oscillator.h ****     slave_phase_ = 0.0f;
  93              		.loc 3 53 19 view .LVU10
  94 0006 0023     		movs	r3, #0
  57:../eurorack/plaits/dsp/oscillator/variable_shape_oscillator.h ****     high_ = false;
  95              		.loc 3 57 11 view .LVU11
  96 0008 0022     		movs	r2, #0
  58:../eurorack/plaits/dsp/oscillator/variable_shape_oscillator.h ****   
  59:../eurorack/plaits/dsp/oscillator/variable_shape_oscillator.h ****     master_frequency_ = 0.0f;
  60:../eurorack/plaits/dsp/oscillator/variable_shape_oscillator.h ****     slave_frequency_ = 0.01f;
  97              		.loc 3 60 22 view .LVU12
  98 000a 144D     		ldr	r5, .L6
  56:../eurorack/plaits/dsp/oscillator/variable_shape_oscillator.h ****     high_ = false;
  99              		.loc 3 56 18 view .LVU13
 100 000c 4464     		str	r4, [r0, #68]	@ float
  61:../eurorack/plaits/dsp/oscillator/variable_shape_oscillator.h ****     pw_ = 0.5f;
 101              		.loc 3 61 9 view .LVU14
 102 000e 4465     		str	r4, [r0, #84]	@ float
 103              	.LBE155:
 104              	.LBE161:
 105              	.LBB162:
 106              	.LBB163:
  56:../eurorack/plaits/dsp/oscillator/variable_shape_oscillator.h ****     high_ = false;
 107              		.loc 3 56 18 view .LVU15
 108 0010 C461     		str	r4, [r0, #28]	@ float
 109              		.loc 3 61 9 view .LVU16
 110 0012 C462     		str	r4, [r0, #44]	@ float
 111              	.LBE163:
 112              	.LBE162:
 113              	.LBB167:
 114              	.LBB168:
 115              	.LBB169:
 116              		.file 4 "../eurorack/stmlib/utils/buffer_allocator.h"
   1:../eurorack/stmlib/utils/buffer_allocator.h **** // Copyright 2014 Emilie Gillet.
   2:../eurorack/stmlib/utils/buffer_allocator.h **** //
   3:../eurorack/stmlib/utils/buffer_allocator.h **** // Author: Emilie Gillet (emilie.o.gillet@gmail.com)
   4:../eurorack/stmlib/utils/buffer_allocator.h **** //
   5:../eurorack/stmlib/utils/buffer_allocator.h **** // Permission is hereby granted, free of charge, to any person obtaining a copy
   6:../eurorack/stmlib/utils/buffer_allocator.h **** // of this software and associated documentation files (the "Software"), to deal
   7:../eurorack/stmlib/utils/buffer_allocator.h **** // in the Software without restriction, including without limitation the rights
   8:../eurorack/stmlib/utils/buffer_allocator.h **** // to use, copy, modify, merge, publish, distribute, sublicense, and/or sell
   9:../eurorack/stmlib/utils/buffer_allocator.h **** // copies of the Software, and to permit persons to whom the Software is
  10:../eurorack/stmlib/utils/buffer_allocator.h **** // furnished to do so, subject to the following conditions:
ARM GAS  /var/folders/y7/g6pkzsp12sx54x3s3mvyn15r0000gn/T//ccyV2DV7.s 			page 6


  11:../eurorack/stmlib/utils/buffer_allocator.h **** // 
  12:../eurorack/stmlib/utils/buffer_allocator.h **** // The above copyright notice and this permission notice shall be included in
  13:../eurorack/stmlib/utils/buffer_allocator.h **** // all copies or substantial portions of the Software.
  14:../eurorack/stmlib/utils/buffer_allocator.h **** // 
  15:../eurorack/stmlib/utils/buffer_allocator.h **** // THE SOFTWARE IS PROVIDED "AS IS", WITHOUT WARRANTY OF ANY KIND, EXPRESS OR
  16:../eurorack/stmlib/utils/buffer_allocator.h **** // IMPLIED, INCLUDING BUT NOT LIMITED TO THE WARRANTIES OF MERCHANTABILITY,
  17:../eurorack/stmlib/utils/buffer_allocator.h **** // FITNESS FOR A PARTICULAR PURPOSE AND NONINFRINGEMENT. IN NO EVENT SHALL THE
  18:../eurorack/stmlib/utils/buffer_allocator.h **** // AUTHORS OR COPYRIGHT HOLDERS BE LIABLE FOR ANY CLAIM, DAMAGES OR OTHER
  19:../eurorack/stmlib/utils/buffer_allocator.h **** // LIABILITY, WHETHER IN AN ACTION OF CONTRACT, TORT OR OTHERWISE, ARISING FROM,
  20:../eurorack/stmlib/utils/buffer_allocator.h **** // OUT OF OR IN CONNECTION WITH THE SOFTWARE OR THE USE OR OTHER DEALINGS IN
  21:../eurorack/stmlib/utils/buffer_allocator.h **** // THE SOFTWARE.
  22:../eurorack/stmlib/utils/buffer_allocator.h **** // 
  23:../eurorack/stmlib/utils/buffer_allocator.h **** // See http://creativecommons.org/licenses/MIT/ for more information.
  24:../eurorack/stmlib/utils/buffer_allocator.h **** //
  25:../eurorack/stmlib/utils/buffer_allocator.h **** // -----------------------------------------------------------------------------
  26:../eurorack/stmlib/utils/buffer_allocator.h **** //
  27:../eurorack/stmlib/utils/buffer_allocator.h **** // Stream buffer for serialization.
  28:../eurorack/stmlib/utils/buffer_allocator.h **** 
  29:../eurorack/stmlib/utils/buffer_allocator.h **** #ifndef STMLIB_UTILS_BUFFER_ALLOCATOR_H_
  30:../eurorack/stmlib/utils/buffer_allocator.h **** #define STMLIB_UTILS_BUFFER_ALLOCATOR_H_
  31:../eurorack/stmlib/utils/buffer_allocator.h **** 
  32:../eurorack/stmlib/utils/buffer_allocator.h **** #include "stmlib/stmlib.h"
  33:../eurorack/stmlib/utils/buffer_allocator.h **** 
  34:../eurorack/stmlib/utils/buffer_allocator.h **** namespace stmlib {
  35:../eurorack/stmlib/utils/buffer_allocator.h **** 
  36:../eurorack/stmlib/utils/buffer_allocator.h **** class BufferAllocator {
  37:../eurorack/stmlib/utils/buffer_allocator.h ****  public:
  38:../eurorack/stmlib/utils/buffer_allocator.h ****   BufferAllocator() { }
  39:../eurorack/stmlib/utils/buffer_allocator.h ****   ~BufferAllocator() { }
  40:../eurorack/stmlib/utils/buffer_allocator.h ****   
  41:../eurorack/stmlib/utils/buffer_allocator.h ****   BufferAllocator(void* buffer, size_t size) {
  42:../eurorack/stmlib/utils/buffer_allocator.h ****     Init(buffer, size);
  43:../eurorack/stmlib/utils/buffer_allocator.h ****   }
  44:../eurorack/stmlib/utils/buffer_allocator.h ****   
  45:../eurorack/stmlib/utils/buffer_allocator.h ****   inline void Init(void* buffer, size_t size) {
  46:../eurorack/stmlib/utils/buffer_allocator.h ****     buffer_ = static_cast<uint8_t*>(buffer);
  47:../eurorack/stmlib/utils/buffer_allocator.h ****     size_ = size;
  48:../eurorack/stmlib/utils/buffer_allocator.h ****     Free();
  49:../eurorack/stmlib/utils/buffer_allocator.h ****   }
  50:../eurorack/stmlib/utils/buffer_allocator.h **** 
  51:../eurorack/stmlib/utils/buffer_allocator.h ****   template<typename T>
  52:../eurorack/stmlib/utils/buffer_allocator.h ****   inline T* Allocate() {
  53:../eurorack/stmlib/utils/buffer_allocator.h ****     return Allocate<T>(1);
  54:../eurorack/stmlib/utils/buffer_allocator.h ****   }
  55:../eurorack/stmlib/utils/buffer_allocator.h ****   
  56:../eurorack/stmlib/utils/buffer_allocator.h ****   template<typename T>
  57:../eurorack/stmlib/utils/buffer_allocator.h ****   inline T* Allocate(size_t size) {
  58:../eurorack/stmlib/utils/buffer_allocator.h ****     size_t size_bytes = sizeof(T) * size;
  59:../eurorack/stmlib/utils/buffer_allocator.h ****     if (size_bytes <= free_) {
 117              		.loc 4 59 23 view .LVU17
 118 0014 8C68     		ldr	r4, [r1, #8]
 119              	.LBE169:
 120              	.LBE168:
 121              	.LBE167:
 122              	.LBB184:
 123              	.LBB156:
  53:../eurorack/plaits/dsp/oscillator/variable_shape_oscillator.h ****     slave_phase_ = 0.0f;
ARM GAS  /var/folders/y7/g6pkzsp12sx54x3s3mvyn15r0000gn/T//ccyV2DV7.s 			page 7


 124              		.loc 3 53 19 view .LVU18
 125 0016 8363     		str	r3, [r0, #56]	@ float
  54:../eurorack/plaits/dsp/oscillator/variable_shape_oscillator.h ****     next_sample_ = 0.0f;
 126              		.loc 3 54 5 is_stmt 1 view .LVU19
 127              	.LBE156:
 128              	.LBE184:
 129              	.LBB185:
 130              	.LBB179:
 131              	.LBB174:
 132              		.loc 4 59 5 is_stmt 0 view .LVU20
 133 0018 B4F5C07F 		cmp	r4, #384
 134              	.LBE174:
 135              	.LBE179:
 136              	.LBE185:
 137              	.LBB186:
 138              	.LBB157:
  54:../eurorack/plaits/dsp/oscillator/variable_shape_oscillator.h ****     next_sample_ = 0.0f;
 139              		.loc 3 54 18 view .LVU21
 140 001c C363     		str	r3, [r0, #60]	@ float
  55:../eurorack/plaits/dsp/oscillator/variable_shape_oscillator.h ****     previous_pw_ = 0.5f;
 141              		.loc 3 55 5 is_stmt 1 view .LVU22
  55:../eurorack/plaits/dsp/oscillator/variable_shape_oscillator.h ****     previous_pw_ = 0.5f;
 142              		.loc 3 55 18 is_stmt 0 view .LVU23
 143 001e 0364     		str	r3, [r0, #64]	@ float
  56:../eurorack/plaits/dsp/oscillator/variable_shape_oscillator.h ****     high_ = false;
 144              		.loc 3 56 5 is_stmt 1 view .LVU24
  57:../eurorack/plaits/dsp/oscillator/variable_shape_oscillator.h ****   
 145              		.loc 3 57 5 view .LVU25
  59:../eurorack/plaits/dsp/oscillator/variable_shape_oscillator.h ****     slave_frequency_ = 0.01f;
 146              		.loc 3 59 23 is_stmt 0 view .LVU26
 147 0020 C364     		str	r3, [r0, #76]	@ float
 148              	.LBE157:
 149              	.LBE186:
 150              	.LBB187:
 151              	.LBB180:
 152              	.LBB175:
 153              	.LBB170:
  60:../eurorack/stmlib/utils/buffer_allocator.h ****       T* start = static_cast<T*>(static_cast<void*>(next_));
  61:../eurorack/stmlib/utils/buffer_allocator.h ****       next_ += size_bytes;
  62:../eurorack/stmlib/utils/buffer_allocator.h ****       free_ -= size_bytes;
 154              		.loc 4 62 13 view .LVU27
 155 0022 28BF     		it	cs
 156 0024 A4F5C074 		subcs	r4, r4, #384
 157              	.LBE170:
 158              	.LBE175:
 159              	.LBE180:
 160              	.LBE187:
 161              	.LBB188:
 162              	.LBB158:
  62:../eurorack/plaits/dsp/oscillator/variable_shape_oscillator.h ****     waveshape_ = 0.0f;
 163              		.loc 3 62 16 view .LVU28
 164 0028 8365     		str	r3, [r0, #88]	@ float
  63:../eurorack/plaits/dsp/oscillator/variable_shape_oscillator.h ****     phase_modulation_ = 0.0f;
 165              		.loc 3 63 23 view .LVU29
 166 002a C365     		str	r3, [r0, #92]	@ float
 167              	.LBE158:
 168              	.LBE188:
ARM GAS  /var/folders/y7/g6pkzsp12sx54x3s3mvyn15r0000gn/T//ccyV2DV7.s 			page 8


 169              	.LBB189:
 170              	.LBB164:
  53:../eurorack/plaits/dsp/oscillator/variable_shape_oscillator.h ****     slave_phase_ = 0.0f;
 171              		.loc 3 53 19 view .LVU30
 172 002c 0361     		str	r3, [r0, #16]	@ float
  54:../eurorack/plaits/dsp/oscillator/variable_shape_oscillator.h ****     next_sample_ = 0.0f;
 173              		.loc 3 54 18 view .LVU31
 174 002e 4361     		str	r3, [r0, #20]	@ float
  55:../eurorack/plaits/dsp/oscillator/variable_shape_oscillator.h ****     previous_pw_ = 0.5f;
 175              		.loc 3 55 18 view .LVU32
 176 0030 8361     		str	r3, [r0, #24]	@ float
  59:../eurorack/plaits/dsp/oscillator/variable_shape_oscillator.h ****     slave_frequency_ = 0.01f;
 177              		.loc 3 59 23 view .LVU33
 178 0032 4362     		str	r3, [r0, #36]	@ float
  62:../eurorack/plaits/dsp/oscillator/variable_shape_oscillator.h ****     phase_modulation_ = 0.0f;
 179              		.loc 3 62 16 view .LVU34
 180 0034 0363     		str	r3, [r0, #48]	@ float
 181              		.loc 3 63 23 view .LVU35
 182 0036 4363     		str	r3, [r0, #52]	@ float
 183              	.LBE164:
 184              	.LBE189:
 185              	.LBB190:
 186              	.LBB181:
 187              	.LBB176:
  63:../eurorack/stmlib/utils/buffer_allocator.h ****       return start;
  64:../eurorack/stmlib/utils/buffer_allocator.h ****     } else {
  65:../eurorack/stmlib/utils/buffer_allocator.h ****       return NULL;
 188              		.loc 4 65 14 view .LVU36
 189 0038 34BF     		ite	cc
 190 003a 1346     		movcc	r3, r2
 191              	.LBB171:
  60:../eurorack/stmlib/utils/buffer_allocator.h ****       next_ += size_bytes;
 192              		.loc 4 60 10 view .LVU37
 193 003c 0B68     		ldrcs	r3, [r1]
 194              	.LBE171:
 195              	.LBE176:
 196              	.LBE181:
 197              	.LBE190:
 198              	.LBB191:
 199              	.LBB159:
  57:../eurorack/plaits/dsp/oscillator/variable_shape_oscillator.h ****   
 200              		.loc 3 57 11 view .LVU38
 201 003e 80F84820 		strb	r2, [r0, #72]
  59:../eurorack/plaits/dsp/oscillator/variable_shape_oscillator.h ****     slave_frequency_ = 0.01f;
 202              		.loc 3 59 5 is_stmt 1 view .LVU39
  60:../eurorack/plaits/dsp/oscillator/variable_shape_oscillator.h ****     pw_ = 0.5f;
 203              		.loc 3 60 5 view .LVU40
 204              	.LBE159:
 205              	.LBE191:
 206              	.LBB192:
 207              	.LBB165:
  57:../eurorack/plaits/dsp/oscillator/variable_shape_oscillator.h ****   
 208              		.loc 3 57 11 is_stmt 0 view .LVU41
 209 0042 80F82020 		strb	r2, [r0, #32]
 210              	.LBE165:
 211              	.LBE192:
 212              	.LBB193:
ARM GAS  /var/folders/y7/g6pkzsp12sx54x3s3mvyn15r0000gn/T//ccyV2DV7.s 			page 9


 213              	.LBB182:
 214              	.LBB177:
 215              	.LBB172:
  61:../eurorack/stmlib/utils/buffer_allocator.h ****       free_ -= size_bytes;
 216              		.loc 4 61 13 view .LVU42
 217 0046 28BF     		it	cs
 218 0048 03F5C072 		addcs	r2, r3, #384
 219              	.LBE172:
 220              	.LBE177:
 221              	.LBE182:
 222              	.LBE193:
 223              	.LBB194:
 224              	.LBB160:
  60:../eurorack/plaits/dsp/oscillator/variable_shape_oscillator.h ****     pw_ = 0.5f;
 225              		.loc 3 60 22 view .LVU43
 226 004c 0565     		str	r5, [r0, #80]	@ float
  61:../eurorack/plaits/dsp/oscillator/variable_shape_oscillator.h ****     waveshape_ = 0.0f;
 227              		.loc 3 61 5 is_stmt 1 view .LVU44
  62:../eurorack/plaits/dsp/oscillator/variable_shape_oscillator.h ****     phase_modulation_ = 0.0f;
 228              		.loc 3 62 5 view .LVU45
 229              		.loc 3 63 5 view .LVU46
 230              	.LVL3:
 231              		.loc 3 63 5 is_stmt 0 view .LVU47
 232              	.LBE160:
 233              	.LBE194:
  46:../eurorack/plaits/dsp/engine2/phase_distortion_engine.cc ****   temp_buffer_ = allocator->Allocate<float>(kMaxBlockSize * 4);
 234              		.loc 1 46 3 is_stmt 1 view .LVU48
 235              	.LBB195:
 236              	.LBI162:
  52:../eurorack/plaits/dsp/oscillator/variable_shape_oscillator.h ****     master_phase_ = 0.0f;
 237              		.loc 3 52 8 view .LVU49
 238              	.LBB166:
  53:../eurorack/plaits/dsp/oscillator/variable_shape_oscillator.h ****     slave_phase_ = 0.0f;
 239              		.loc 3 53 5 view .LVU50
  54:../eurorack/plaits/dsp/oscillator/variable_shape_oscillator.h ****     next_sample_ = 0.0f;
 240              		.loc 3 54 5 view .LVU51
  55:../eurorack/plaits/dsp/oscillator/variable_shape_oscillator.h ****     previous_pw_ = 0.5f;
 241              		.loc 3 55 5 view .LVU52
  56:../eurorack/plaits/dsp/oscillator/variable_shape_oscillator.h ****     high_ = false;
 242              		.loc 3 56 5 view .LVU53
  57:../eurorack/plaits/dsp/oscillator/variable_shape_oscillator.h ****   
 243              		.loc 3 57 5 view .LVU54
  59:../eurorack/plaits/dsp/oscillator/variable_shape_oscillator.h ****     slave_frequency_ = 0.01f;
 244              		.loc 3 59 5 view .LVU55
  60:../eurorack/plaits/dsp/oscillator/variable_shape_oscillator.h ****     pw_ = 0.5f;
 245              		.loc 3 60 5 view .LVU56
  60:../eurorack/plaits/dsp/oscillator/variable_shape_oscillator.h ****     pw_ = 0.5f;
 246              		.loc 3 60 22 is_stmt 0 view .LVU57
 247 004e 8562     		str	r5, [r0, #40]	@ float
  61:../eurorack/plaits/dsp/oscillator/variable_shape_oscillator.h ****     waveshape_ = 0.0f;
 248              		.loc 3 61 5 is_stmt 1 view .LVU58
  62:../eurorack/plaits/dsp/oscillator/variable_shape_oscillator.h ****     phase_modulation_ = 0.0f;
 249              		.loc 3 62 5 view .LVU59
 250              		.loc 3 63 5 view .LVU60
 251              	.LVL4:
 252              		.loc 3 63 5 is_stmt 0 view .LVU61
 253              	.LBE166:
ARM GAS  /var/folders/y7/g6pkzsp12sx54x3s3mvyn15r0000gn/T//ccyV2DV7.s 			page 10


 254              	.LBE195:
  47:../eurorack/plaits/dsp/engine2/phase_distortion_engine.cc **** }
 255              		.loc 1 47 3 is_stmt 1 view .LVU62
 256              	.LBB196:
 257              	.LBI167:
  57:../eurorack/stmlib/utils/buffer_allocator.h ****     size_t size_bytes = sizeof(T) * size;
 258              		.loc 4 57 13 view .LVU63
 259              	.LBB183:
 260              	.LBB178:
 261              	.LBB173:
  61:../eurorack/stmlib/utils/buffer_allocator.h ****       free_ -= size_bytes;
 262              		.loc 4 61 13 is_stmt 0 view .LVU64
 263 0050 24BF     		itt	cs
 264 0052 0A60     		strcs	r2, [r1]
  62:../eurorack/stmlib/utils/buffer_allocator.h ****       return start;
 265              		.loc 4 62 13 view .LVU65
 266 0054 8C60     		strcs	r4, [r1, #8]
 267              	.LBE173:
 268              	.LBE178:
 269              	.LBE183:
 270              	.LBE196:
  47:../eurorack/plaits/dsp/engine2/phase_distortion_engine.cc **** }
 271              		.loc 1 47 16 discriminator 1 view .LVU66
 272 0056 0366     		str	r3, [r0, #96]
  48:../eurorack/plaits/dsp/engine2/phase_distortion_engine.cc **** 
 273              		.loc 1 48 1 view .LVU67
 274 0058 30BD     		pop	{r4, r5, pc}
 275              	.L7:
 276 005a 00BF     		.align	2
 277              	.L6:
 278 005c 0AD7233C 		.word	1008981770
 279              		.cfi_endproc
 280              	.LFE1325:
 282              		.section	.text._ZN6stmlib16SemitonesToRatioEf,"axG",%progbits,_ZN6stmlib16SemitonesToRatioEf,comda
 283              		.align	1
 284              		.weak	_ZN6stmlib16SemitonesToRatioEf
 285              		.syntax unified
 286              		.thumb
 287              		.thumb_func
 289              	_ZN6stmlib16SemitonesToRatioEf:
 290              	.LVL5:
 291              	.LFB576:
 292              		.file 5 "../eurorack/stmlib/dsp/units.h"
   1:../eurorack/stmlib/dsp/units.h **** // Copyright 2014 Emilie Gillet.
   2:../eurorack/stmlib/dsp/units.h **** //
   3:../eurorack/stmlib/dsp/units.h **** // Author: Emilie Gillet (emilie.o.gillet@gmail.com)
   4:../eurorack/stmlib/dsp/units.h **** //
   5:../eurorack/stmlib/dsp/units.h **** // Permission is hereby granted, free of charge, to any person obtaining a copy
   6:../eurorack/stmlib/dsp/units.h **** // of this software and associated documentation files (the "Software"), to deal
   7:../eurorack/stmlib/dsp/units.h **** // in the Software without restriction, including without limitation the rights
   8:../eurorack/stmlib/dsp/units.h **** // to use, copy, modify, merge, publish, distribute, sublicense, and/or sell
   9:../eurorack/stmlib/dsp/units.h **** // copies of the Software, and to permit persons to whom the Software is
  10:../eurorack/stmlib/dsp/units.h **** // furnished to do so, subject to the following conditions:
  11:../eurorack/stmlib/dsp/units.h **** // 
  12:../eurorack/stmlib/dsp/units.h **** // The above copyright notice and this permission notice shall be included in
  13:../eurorack/stmlib/dsp/units.h **** // all copies or substantial portions of the Software.
  14:../eurorack/stmlib/dsp/units.h **** // 
ARM GAS  /var/folders/y7/g6pkzsp12sx54x3s3mvyn15r0000gn/T//ccyV2DV7.s 			page 11


  15:../eurorack/stmlib/dsp/units.h **** // THE SOFTWARE IS PROVIDED "AS IS", WITHOUT WARRANTY OF ANY KIND, EXPRESS OR
  16:../eurorack/stmlib/dsp/units.h **** // IMPLIED, INCLUDING BUT NOT LIMITED TO THE WARRANTIES OF MERCHANTABILITY,
  17:../eurorack/stmlib/dsp/units.h **** // FITNESS FOR A PARTICULAR PURPOSE AND NONINFRINGEMENT. IN NO EVENT SHALL THE
  18:../eurorack/stmlib/dsp/units.h **** // AUTHORS OR COPYRIGHT HOLDERS BE LIABLE FOR ANY CLAIM, DAMAGES OR OTHER
  19:../eurorack/stmlib/dsp/units.h **** // LIABILITY, WHETHER IN AN ACTION OF CONTRACT, TORT OR OTHERWISE, ARISING FROM,
  20:../eurorack/stmlib/dsp/units.h **** // OUT OF OR IN CONNECTION WITH THE SOFTWARE OR THE USE OR OTHER DEALINGS IN
  21:../eurorack/stmlib/dsp/units.h **** // THE SOFTWARE.
  22:../eurorack/stmlib/dsp/units.h **** // 
  23:../eurorack/stmlib/dsp/units.h **** // See http://creativecommons.org/licenses/MIT/ for more information.
  24:../eurorack/stmlib/dsp/units.h **** //
  25:../eurorack/stmlib/dsp/units.h **** // -----------------------------------------------------------------------------
  26:../eurorack/stmlib/dsp/units.h **** //
  27:../eurorack/stmlib/dsp/units.h **** // Conversion from semitones to frequency ratio.
  28:../eurorack/stmlib/dsp/units.h **** 
  29:../eurorack/stmlib/dsp/units.h **** #ifndef STMLIB_DSP_UNITS_H_
  30:../eurorack/stmlib/dsp/units.h **** #define STMLIB_DSP_UNITS_H_
  31:../eurorack/stmlib/dsp/units.h **** 
  32:../eurorack/stmlib/dsp/units.h **** #include "stmlib/stmlib.h"
  33:../eurorack/stmlib/dsp/units.h **** #include "stmlib/dsp/dsp.h"
  34:../eurorack/stmlib/dsp/units.h **** 
  35:../eurorack/stmlib/dsp/units.h **** namespace stmlib {
  36:../eurorack/stmlib/dsp/units.h **** 
  37:../eurorack/stmlib/dsp/units.h **** extern const float lut_pitch_ratio_high[257];
  38:../eurorack/stmlib/dsp/units.h **** extern const float lut_pitch_ratio_low[257];
  39:../eurorack/stmlib/dsp/units.h **** 
  40:../eurorack/stmlib/dsp/units.h **** inline float SemitonesToRatio(float semitones) {
 293              		.loc 5 40 48 is_stmt 1 view -0
 294              		.cfi_startproc
 295              		@ args = 0, pretend = 0, frame = 0
 296              		@ frame_needed = 0, uses_anonymous_args = 0
 297              		@ link register save eliminated.
  41:../eurorack/stmlib/dsp/units.h ****   float pitch = semitones + 128.0f;
 298              		.loc 5 41 3 view .LVU69
 299              		.loc 5 41 9 is_stmt 0 view .LVU70
 300 0000 DFED0E7A 		vldr.32	s15, .L9
  42:../eurorack/stmlib/dsp/units.h ****   MAKE_INTEGRAL_FRACTIONAL(pitch)
  43:../eurorack/stmlib/dsp/units.h **** 
  44:../eurorack/stmlib/dsp/units.h ****   return lut_pitch_ratio_high[pitch_integral] * \
  45:../eurorack/stmlib/dsp/units.h ****       lut_pitch_ratio_low[static_cast<int32_t>(pitch_fractional * 256.0f)];
 301              		.loc 5 45 74 view .LVU71
 302 0004 0E4A     		ldr	r2, .L9+4
  41:../eurorack/stmlib/dsp/units.h ****   float pitch = semitones + 128.0f;
 303              		.loc 5 41 9 view .LVU72
 304 0006 30EE270A 		vadd.f32	s0, s0, s15
 305              	.LVL6:
  42:../eurorack/stmlib/dsp/units.h ****   MAKE_INTEGRAL_FRACTIONAL(pitch)
 306              		.loc 5 42 3 is_stmt 1 view .LVU73
 307 000a FDEEC07A 		vcvt.s32.f32	s15, s0
 308              	.LVL7:
  42:../eurorack/stmlib/dsp/units.h ****   MAKE_INTEGRAL_FRACTIONAL(pitch)
 309              		.loc 5 42 3 view .LVU74
  44:../eurorack/stmlib/dsp/units.h ****       lut_pitch_ratio_low[static_cast<int32_t>(pitch_fractional * 256.0f)];
 310              		.loc 5 44 3 view .LVU75
  42:../eurorack/stmlib/dsp/units.h ****   MAKE_INTEGRAL_FRACTIONAL(pitch)
 311              		.loc 5 42 3 is_stmt 0 view .LVU76
 312 000e B8EEE77A 		vcvt.f32.s32	s14, s15
  44:../eurorack/stmlib/dsp/units.h ****       lut_pitch_ratio_low[static_cast<int32_t>(pitch_fractional * 256.0f)];
ARM GAS  /var/folders/y7/g6pkzsp12sx54x3s3mvyn15r0000gn/T//ccyV2DV7.s 			page 12


 313              		.loc 5 44 45 view .LVU77
 314 0012 17EE901A 		vmov	r1, s15	@ int
  42:../eurorack/stmlib/dsp/units.h ****   MAKE_INTEGRAL_FRACTIONAL(pitch)
 315              		.loc 5 42 3 view .LVU78
 316 0016 30EE470A 		vsub.f32	s0, s0, s14
 317              	.LVL8:
 318              		.loc 5 45 27 view .LVU79
 319 001a BEEECC0A 		vcvt.s32.f32	s0, s0, #8
 320              	.LVL9:
 321              		.loc 5 45 74 view .LVU80
 322 001e 10EE103A 		vmov	r3, s0	@ int
 323 0022 02EB8302 		add	r2, r2, r3, lsl #2
  44:../eurorack/stmlib/dsp/units.h ****       lut_pitch_ratio_low[static_cast<int32_t>(pitch_fractional * 256.0f)];
 324              		.loc 5 44 45 view .LVU81
 325 0026 074B     		ldr	r3, .L9+8
 326 0028 03EB8103 		add	r3, r3, r1, lsl #2
 327              		.loc 5 45 74 view .LVU82
 328 002c 92ED000A 		vldr.32	s0, [r2]
 329 0030 D3ED007A 		vldr.32	s15, [r3]
 330              	.LVL10:
  46:../eurorack/stmlib/dsp/units.h **** }
 331              		.loc 5 46 1 view .LVU83
 332 0034 20EE270A 		vmul.f32	s0, s0, s15
 333 0038 7047     		bx	lr
 334              	.L10:
 335 003a 00BF     		.align	2
 336              	.L9:
 337 003c 00000043 		.word	1124073472
 338 0040 00000000 		.word	_ZN6stmlib19lut_pitch_ratio_lowE
 339 0044 00000000 		.word	_ZN6stmlib20lut_pitch_ratio_highE
 340              		.cfi_endproc
 341              	.LFE576:
 343              		.section	.text._ZN6stmlib24NextIntegratedBlepSampleEf,"axG",%progbits,_ZN6stmlib24NextIntegratedBl
 344              		.align	1
 345              		.weak	_ZN6stmlib24NextIntegratedBlepSampleEf
 346              		.syntax unified
 347              		.thumb
 348              		.thumb_func
 350              	_ZN6stmlib24NextIntegratedBlepSampleEf:
 351              	.LVL11:
 352              	.LFB623:
 353              		.file 6 "../eurorack/stmlib/dsp/polyblep.h"
   1:../eurorack/stmlib/dsp/polyblep.h **** // Copyright 2017 Emilie Gillet.
   2:../eurorack/stmlib/dsp/polyblep.h **** //
   3:../eurorack/stmlib/dsp/polyblep.h **** // Author: Emilie Gillet (emilie.o.gillet@gmail.com)
   4:../eurorack/stmlib/dsp/polyblep.h **** //
   5:../eurorack/stmlib/dsp/polyblep.h **** // Permission is hereby granted, free of charge, to any person obtaining a copy
   6:../eurorack/stmlib/dsp/polyblep.h **** // of this software and associated documentation files (the "Software"), to deal
   7:../eurorack/stmlib/dsp/polyblep.h **** // in the Software without restriction, including without limitation the rights
   8:../eurorack/stmlib/dsp/polyblep.h **** // to use, copy, modify, merge, publish, distribute, sublicense, and/or sell
   9:../eurorack/stmlib/dsp/polyblep.h **** // copies of the Software, and to permit persons to whom the Software is
  10:../eurorack/stmlib/dsp/polyblep.h **** // furnished to do so, subject to the following conditions:
  11:../eurorack/stmlib/dsp/polyblep.h **** // 
  12:../eurorack/stmlib/dsp/polyblep.h **** // The above copyright notice and this permission notice shall be included in
  13:../eurorack/stmlib/dsp/polyblep.h **** // all copies or substantial portions of the Software.
  14:../eurorack/stmlib/dsp/polyblep.h **** // 
  15:../eurorack/stmlib/dsp/polyblep.h **** // THE SOFTWARE IS PROVIDED "AS IS", WITHOUT WARRANTY OF ANY KIND, EXPRESS OR
ARM GAS  /var/folders/y7/g6pkzsp12sx54x3s3mvyn15r0000gn/T//ccyV2DV7.s 			page 13


  16:../eurorack/stmlib/dsp/polyblep.h **** // IMPLIED, INCLUDING BUT NOT LIMITED TO THE WARRANTIES OF MERCHANTABILITY,
  17:../eurorack/stmlib/dsp/polyblep.h **** // FITNESS FOR A PARTICULAR PURPOSE AND NONINFRINGEMENT. IN NO EVENT SHALL THE
  18:../eurorack/stmlib/dsp/polyblep.h **** // AUTHORS OR COPYRIGHT HOLDERS BE LIABLE FOR ANY CLAIM, DAMAGES OR OTHER
  19:../eurorack/stmlib/dsp/polyblep.h **** // LIABILITY, WHETHER IN AN ACTION OF CONTRACT, TORT OR OTHERWISE, ARISING FROM,
  20:../eurorack/stmlib/dsp/polyblep.h **** // OUT OF OR IN CONNECTION WITH THE SOFTWARE OR THE USE OR OTHER DEALINGS IN
  21:../eurorack/stmlib/dsp/polyblep.h **** // THE SOFTWARE.
  22:../eurorack/stmlib/dsp/polyblep.h **** // 
  23:../eurorack/stmlib/dsp/polyblep.h **** // See http://creativecommons.org/licenses/MIT/ for more information.
  24:../eurorack/stmlib/dsp/polyblep.h **** //
  25:../eurorack/stmlib/dsp/polyblep.h **** // -----------------------------------------------------------------------------
  26:../eurorack/stmlib/dsp/polyblep.h **** //
  27:../eurorack/stmlib/dsp/polyblep.h **** // Polynomial approximation of band-limited step for band-limited waveform
  28:../eurorack/stmlib/dsp/polyblep.h **** // synthesis.
  29:../eurorack/stmlib/dsp/polyblep.h **** 
  30:../eurorack/stmlib/dsp/polyblep.h **** #ifndef STMLIB_DSP_POLYBLEP_H_
  31:../eurorack/stmlib/dsp/polyblep.h **** #define STMLIB_DSP_POLYBLEP_H_
  32:../eurorack/stmlib/dsp/polyblep.h **** 
  33:../eurorack/stmlib/dsp/polyblep.h **** #include "stmlib/stmlib.h"
  34:../eurorack/stmlib/dsp/polyblep.h **** 
  35:../eurorack/stmlib/dsp/polyblep.h **** namespace stmlib {
  36:../eurorack/stmlib/dsp/polyblep.h **** 
  37:../eurorack/stmlib/dsp/polyblep.h **** inline float ThisBlepSample(float t) {
  38:../eurorack/stmlib/dsp/polyblep.h ****   return 0.5f * t * t;
  39:../eurorack/stmlib/dsp/polyblep.h **** }
  40:../eurorack/stmlib/dsp/polyblep.h **** 
  41:../eurorack/stmlib/dsp/polyblep.h **** inline float NextBlepSample(float t) {
  42:../eurorack/stmlib/dsp/polyblep.h ****   t = 1.0f - t;
  43:../eurorack/stmlib/dsp/polyblep.h ****   return -0.5f * t * t;
  44:../eurorack/stmlib/dsp/polyblep.h **** }
  45:../eurorack/stmlib/dsp/polyblep.h **** 
  46:../eurorack/stmlib/dsp/polyblep.h **** inline float NextIntegratedBlepSample(float t) {
 354              		.loc 6 46 48 is_stmt 1 view -0
 355              		.cfi_startproc
 356              		@ args = 0, pretend = 0, frame = 0
 357              		@ frame_needed = 0, uses_anonymous_args = 0
 358              		@ link register save eliminated.
  47:../eurorack/stmlib/dsp/polyblep.h ****   const float t1 = 0.5f * t;
 359              		.loc 6 47 3 view .LVU85
 360              		.loc 6 47 15 is_stmt 0 view .LVU86
 361 0000 F6EE007A 		vmov.f32	s15, #5.0e-1
 362 0004 60EE277A 		vmul.f32	s15, s0, s15
 363              	.LVL12:
  48:../eurorack/stmlib/dsp/polyblep.h ****   const float t2 = t1 * t1;
 364              		.loc 6 48 3 is_stmt 1 view .LVU87
  49:../eurorack/stmlib/dsp/polyblep.h ****   const float t4 = t2 * t2;
  50:../eurorack/stmlib/dsp/polyblep.h ****   return 0.1875f - t1 + 1.5f * t2 - t4;
 365              		.loc 6 50 18 is_stmt 0 view .LVU88
 366 0008 B4EE080A 		vmov.f32	s0, #1.875e-1
 367              	.LVL13:
  48:../eurorack/stmlib/dsp/polyblep.h ****   const float t2 = t1 * t1;
 368              		.loc 6 48 15 view .LVU89
 369 000c 27EEA77A 		vmul.f32	s14, s15, s15
 370              	.LVL14:
  49:../eurorack/stmlib/dsp/polyblep.h ****   const float t4 = t2 * t2;
 371              		.loc 6 49 3 is_stmt 1 view .LVU90
 372              		.loc 6 50 3 view .LVU91
 373              		.loc 6 50 18 is_stmt 0 view .LVU92
ARM GAS  /var/folders/y7/g6pkzsp12sx54x3s3mvyn15r0000gn/T//ccyV2DV7.s 			page 14


 374 0010 30EE670A 		vsub.f32	s0, s0, s15
 375              		.loc 6 50 23 view .LVU93
 376 0014 F7EE087A 		vmov.f32	s15, #1.5e+0
 377              	.LVL15:
 378              		.loc 6 50 23 view .LVU94
 379 0018 A7EE270A 		vfma.f32	s0, s14, s15
  51:../eurorack/stmlib/dsp/polyblep.h **** }
 380              		.loc 6 51 1 view .LVU95
 381 001c A7EE470A 		vfms.f32	s0, s14, s14
 382 0020 7047     		bx	lr
 383              		.cfi_endproc
 384              	.LFE623:
 386              		.section	.text._ZN6plaits4SineEf,"axG",%progbits,_ZN6plaits4SineEf,comdat
 387              		.align	1
 388              		.weak	_ZN6plaits4SineEf
 389              		.syntax unified
 390              		.thumb
 391              		.thumb_func
 393              	_ZN6plaits4SineEf:
 394              	.LVL16:
 395              	.LFB1297:
 396              		.file 7 "../eurorack/plaits/dsp/oscillator/sine_oscillator.h"
   1:../eurorack/plaits/dsp/oscillator/sine_oscillator.h **** // Copyright 2016 Emilie Gillet.
   2:../eurorack/plaits/dsp/oscillator/sine_oscillator.h **** //
   3:../eurorack/plaits/dsp/oscillator/sine_oscillator.h **** // Author: Emilie Gillet (emilie.o.gillet@gmail.com)
   4:../eurorack/plaits/dsp/oscillator/sine_oscillator.h **** //
   5:../eurorack/plaits/dsp/oscillator/sine_oscillator.h **** // Permission is hereby granted, free of charge, to any person obtaining a copy
   6:../eurorack/plaits/dsp/oscillator/sine_oscillator.h **** // of this software and associated documentation files (the "Software"), to deal
   7:../eurorack/plaits/dsp/oscillator/sine_oscillator.h **** // in the Software without restriction, including without limitation the rights
   8:../eurorack/plaits/dsp/oscillator/sine_oscillator.h **** // to use, copy, modify, merge, publish, distribute, sublicense, and/or sell
   9:../eurorack/plaits/dsp/oscillator/sine_oscillator.h **** // copies of the Software, and to permit persons to whom the Software is
  10:../eurorack/plaits/dsp/oscillator/sine_oscillator.h **** // furnished to do so, subject to the following conditions:
  11:../eurorack/plaits/dsp/oscillator/sine_oscillator.h **** // 
  12:../eurorack/plaits/dsp/oscillator/sine_oscillator.h **** // The above copyright notice and this permission notice shall be included in
  13:../eurorack/plaits/dsp/oscillator/sine_oscillator.h **** // all copies or substantial portions of the Software.
  14:../eurorack/plaits/dsp/oscillator/sine_oscillator.h **** // 
  15:../eurorack/plaits/dsp/oscillator/sine_oscillator.h **** // THE SOFTWARE IS PROVIDED "AS IS", WITHOUT WARRANTY OF ANY KIND, EXPRESS OR
  16:../eurorack/plaits/dsp/oscillator/sine_oscillator.h **** // IMPLIED, INCLUDING BUT NOT LIMITED TO THE WARRANTIES OF MERCHANTABILITY,
  17:../eurorack/plaits/dsp/oscillator/sine_oscillator.h **** // FITNESS FOR A PARTICULAR PURPOSE AND NONINFRINGEMENT. IN NO EVENT SHALL THE
  18:../eurorack/plaits/dsp/oscillator/sine_oscillator.h **** // AUTHORS OR COPYRIGHT HOLDERS BE LIABLE FOR ANY CLAIM, DAMAGES OR OTHER
  19:../eurorack/plaits/dsp/oscillator/sine_oscillator.h **** // LIABILITY, WHETHER IN AN ACTION OF CONTRACT, TORT OR OTHERWISE, ARISING FROM,
  20:../eurorack/plaits/dsp/oscillator/sine_oscillator.h **** // OUT OF OR IN CONNECTION WITH THE SOFTWARE OR THE USE OR OTHER DEALINGS IN
  21:../eurorack/plaits/dsp/oscillator/sine_oscillator.h **** // THE SOFTWARE.
  22:../eurorack/plaits/dsp/oscillator/sine_oscillator.h **** // 
  23:../eurorack/plaits/dsp/oscillator/sine_oscillator.h **** // See http://creativecommons.org/licenses/MIT/ for more information.
  24:../eurorack/plaits/dsp/oscillator/sine_oscillator.h **** //
  25:../eurorack/plaits/dsp/oscillator/sine_oscillator.h **** // -----------------------------------------------------------------------------
  26:../eurorack/plaits/dsp/oscillator/sine_oscillator.h **** //
  27:../eurorack/plaits/dsp/oscillator/sine_oscillator.h **** // Simple sine oscillator (wavetable) + fast sine oscillator (magic circle).
  28:../eurorack/plaits/dsp/oscillator/sine_oscillator.h **** //
  29:../eurorack/plaits/dsp/oscillator/sine_oscillator.h **** // The fast implementation might glitch a bit under heavy modulations of the
  30:../eurorack/plaits/dsp/oscillator/sine_oscillator.h **** // frequency.
  31:../eurorack/plaits/dsp/oscillator/sine_oscillator.h **** 
  32:../eurorack/plaits/dsp/oscillator/sine_oscillator.h **** #ifndef PLAITS_DSP_OSCILLATOR_SINE_OSCILLATOR_H_
  33:../eurorack/plaits/dsp/oscillator/sine_oscillator.h **** #define PLAITS_DSP_OSCILLATOR_SINE_OSCILLATOR_H_
  34:../eurorack/plaits/dsp/oscillator/sine_oscillator.h **** 
  35:../eurorack/plaits/dsp/oscillator/sine_oscillator.h **** #include "stmlib/dsp/dsp.h"
ARM GAS  /var/folders/y7/g6pkzsp12sx54x3s3mvyn15r0000gn/T//ccyV2DV7.s 			page 15


  36:../eurorack/plaits/dsp/oscillator/sine_oscillator.h **** #include "stmlib/dsp/parameter_interpolator.h"
  37:../eurorack/plaits/dsp/oscillator/sine_oscillator.h **** #include "stmlib/dsp/rsqrt.h"
  38:../eurorack/plaits/dsp/oscillator/sine_oscillator.h **** 
  39:../eurorack/plaits/dsp/oscillator/sine_oscillator.h **** #include "plaits/resources.h"
  40:../eurorack/plaits/dsp/oscillator/sine_oscillator.h **** 
  41:../eurorack/plaits/dsp/oscillator/sine_oscillator.h **** namespace plaits {
  42:../eurorack/plaits/dsp/oscillator/sine_oscillator.h ****   
  43:../eurorack/plaits/dsp/oscillator/sine_oscillator.h **** const float kSineLUTSize = 512.0f;
  44:../eurorack/plaits/dsp/oscillator/sine_oscillator.h **** const size_t kSineLUTQuadrature = 128;
  45:../eurorack/plaits/dsp/oscillator/sine_oscillator.h **** const size_t kSineLUTBits = 9;
  46:../eurorack/plaits/dsp/oscillator/sine_oscillator.h **** 
  47:../eurorack/plaits/dsp/oscillator/sine_oscillator.h **** // Safe for phase >= 0.0f, will wrap.
  48:../eurorack/plaits/dsp/oscillator/sine_oscillator.h **** inline float Sine(float phase) {
 397              		.loc 7 48 32 is_stmt 1 view -0
 398              		.cfi_startproc
 399              		@ args = 0, pretend = 0, frame = 0
 400              		@ frame_needed = 0, uses_anonymous_args = 0
 401              		@ link register save eliminated.
  49:../eurorack/plaits/dsp/oscillator/sine_oscillator.h ****   return stmlib::InterpolateWrap(lut_sine, phase, kSineLUTSize);
 402              		.loc 7 49 3 view .LVU97
 403              	.LBB199:
 404              	.LBI199:
 405              		.file 8 "../eurorack/stmlib/dsp/dsp.h"
   1:../eurorack/stmlib/dsp/dsp.h **** // Copyright 2012 Emilie Gillet.
   2:../eurorack/stmlib/dsp/dsp.h **** //
   3:../eurorack/stmlib/dsp/dsp.h **** // Author: Emilie Gillet (emilie.o.gillet@gmail.com)
   4:../eurorack/stmlib/dsp/dsp.h **** //
   5:../eurorack/stmlib/dsp/dsp.h **** // Permission is hereby granted, free of charge, to any person obtaining a copy
   6:../eurorack/stmlib/dsp/dsp.h **** // of this software and associated documentation files (the "Software"), to deal
   7:../eurorack/stmlib/dsp/dsp.h **** // in the Software without restriction, including without limitation the rights
   8:../eurorack/stmlib/dsp/dsp.h **** // to use, copy, modify, merge, publish, distribute, sublicense, and/or sell
   9:../eurorack/stmlib/dsp/dsp.h **** // copies of the Software, and to permit persons to whom the Software is
  10:../eurorack/stmlib/dsp/dsp.h **** // furnished to do so, subject to the following conditions:
  11:../eurorack/stmlib/dsp/dsp.h **** // 
  12:../eurorack/stmlib/dsp/dsp.h **** // The above copyright notice and this permission notice shall be included in
  13:../eurorack/stmlib/dsp/dsp.h **** // all copies or substantial portions of the Software.
  14:../eurorack/stmlib/dsp/dsp.h **** // 
  15:../eurorack/stmlib/dsp/dsp.h **** // THE SOFTWARE IS PROVIDED "AS IS", WITHOUT WARRANTY OF ANY KIND, EXPRESS OR
  16:../eurorack/stmlib/dsp/dsp.h **** // IMPLIED, INCLUDING BUT NOT LIMITED TO THE WARRANTIES OF MERCHANTABILITY,
  17:../eurorack/stmlib/dsp/dsp.h **** // FITNESS FOR A PARTICULAR PURPOSE AND NONINFRINGEMENT. IN NO EVENT SHALL THE
  18:../eurorack/stmlib/dsp/dsp.h **** // AUTHORS OR COPYRIGHT HOLDERS BE LIABLE FOR ANY CLAIM, DAMAGES OR OTHER
  19:../eurorack/stmlib/dsp/dsp.h **** // LIABILITY, WHETHER IN AN ACTION OF CONTRACT, TORT OR OTHERWISE, ARISING FROM,
  20:../eurorack/stmlib/dsp/dsp.h **** // OUT OF OR IN CONNECTION WITH THE SOFTWARE OR THE USE OR OTHER DEALINGS IN
  21:../eurorack/stmlib/dsp/dsp.h **** // THE SOFTWARE.
  22:../eurorack/stmlib/dsp/dsp.h **** // 
  23:../eurorack/stmlib/dsp/dsp.h **** // See http://creativecommons.org/licenses/MIT/ for more information.
  24:../eurorack/stmlib/dsp/dsp.h **** //
  25:../eurorack/stmlib/dsp/dsp.h **** // -----------------------------------------------------------------------------
  26:../eurorack/stmlib/dsp/dsp.h **** //
  27:../eurorack/stmlib/dsp/dsp.h **** // DSP utility routines.
  28:../eurorack/stmlib/dsp/dsp.h **** 
  29:../eurorack/stmlib/dsp/dsp.h **** #ifndef STMLIB_UTILS_DSP_DSP_H_
  30:../eurorack/stmlib/dsp/dsp.h **** #define STMLIB_UTILS_DSP_DSP_H_
  31:../eurorack/stmlib/dsp/dsp.h **** 
  32:../eurorack/stmlib/dsp/dsp.h **** #include "stmlib/stmlib.h"
  33:../eurorack/stmlib/dsp/dsp.h **** 
  34:../eurorack/stmlib/dsp/dsp.h **** #include <cmath>
ARM GAS  /var/folders/y7/g6pkzsp12sx54x3s3mvyn15r0000gn/T//ccyV2DV7.s 			page 16


  35:../eurorack/stmlib/dsp/dsp.h **** #include <math.h>
  36:../eurorack/stmlib/dsp/dsp.h **** 
  37:../eurorack/stmlib/dsp/dsp.h **** namespace stmlib {
  38:../eurorack/stmlib/dsp/dsp.h **** 
  39:../eurorack/stmlib/dsp/dsp.h **** #define MAKE_INTEGRAL_FRACTIONAL(x) \
  40:../eurorack/stmlib/dsp/dsp.h ****   int32_t x ## _integral = static_cast<int32_t>(x); \
  41:../eurorack/stmlib/dsp/dsp.h ****   float x ## _fractional = x - static_cast<float>(x ## _integral);
  42:../eurorack/stmlib/dsp/dsp.h **** 
  43:../eurorack/stmlib/dsp/dsp.h **** inline float Interpolate(const float* table, float index, float size) {
  44:../eurorack/stmlib/dsp/dsp.h ****   index *= size;
  45:../eurorack/stmlib/dsp/dsp.h ****   MAKE_INTEGRAL_FRACTIONAL(index)
  46:../eurorack/stmlib/dsp/dsp.h ****   float a = table[index_integral];
  47:../eurorack/stmlib/dsp/dsp.h ****   float b = table[index_integral + 1];
  48:../eurorack/stmlib/dsp/dsp.h ****   return a + (b - a) * index_fractional;
  49:../eurorack/stmlib/dsp/dsp.h **** }
  50:../eurorack/stmlib/dsp/dsp.h **** 
  51:../eurorack/stmlib/dsp/dsp.h **** 
  52:../eurorack/stmlib/dsp/dsp.h **** inline float InterpolateHermite(const float* table, float index, float size) {
  53:../eurorack/stmlib/dsp/dsp.h ****   index *= size;
  54:../eurorack/stmlib/dsp/dsp.h ****   MAKE_INTEGRAL_FRACTIONAL(index)
  55:../eurorack/stmlib/dsp/dsp.h ****   const float xm1 = table[index_integral - 1];
  56:../eurorack/stmlib/dsp/dsp.h ****   const float x0 = table[index_integral + 0];
  57:../eurorack/stmlib/dsp/dsp.h ****   const float x1 = table[index_integral + 1];
  58:../eurorack/stmlib/dsp/dsp.h ****   const float x2 = table[index_integral + 2];
  59:../eurorack/stmlib/dsp/dsp.h ****   const float c = (x1 - xm1) * 0.5f;
  60:../eurorack/stmlib/dsp/dsp.h ****   const float v = x0 - x1;
  61:../eurorack/stmlib/dsp/dsp.h ****   const float w = c + v;
  62:../eurorack/stmlib/dsp/dsp.h ****   const float a = w + v + (x2 - x0) * 0.5f;
  63:../eurorack/stmlib/dsp/dsp.h ****   const float b_neg = w + a;
  64:../eurorack/stmlib/dsp/dsp.h ****   const float f = index_fractional;
  65:../eurorack/stmlib/dsp/dsp.h ****   return (((a * f) - b_neg) * f + c) * f + x0;
  66:../eurorack/stmlib/dsp/dsp.h **** }
  67:../eurorack/stmlib/dsp/dsp.h **** 
  68:../eurorack/stmlib/dsp/dsp.h **** inline float InterpolateWrap(const float* table, float index, float size) {
 406              		.loc 8 68 14 view .LVU98
 407              	.LBB200:
  69:../eurorack/stmlib/dsp/dsp.h ****   index -= static_cast<float>(static_cast<int32_t>(index));
 408              		.loc 8 69 3 view .LVU99
 409              		.loc 8 69 31 is_stmt 0 view .LVU100
 410 0000 FDEEC07A 		vcvt.s32.f32	s15, s0
  70:../eurorack/stmlib/dsp/dsp.h ****   index *= size;
  71:../eurorack/stmlib/dsp/dsp.h ****   MAKE_INTEGRAL_FRACTIONAL(index)
  72:../eurorack/stmlib/dsp/dsp.h ****   float a = table[index_integral];
 411              		.loc 8 72 9 view .LVU101
 412 0004 0D4B     		ldr	r3, .L13
  69:../eurorack/stmlib/dsp/dsp.h ****   index -= static_cast<float>(static_cast<int32_t>(index));
 413              		.loc 8 69 12 view .LVU102
 414 0006 F8EEE77A 		vcvt.f32.s32	s15, s15
  69:../eurorack/stmlib/dsp/dsp.h ****   index -= static_cast<float>(static_cast<int32_t>(index));
 415              		.loc 8 69 9 view .LVU103
 416 000a 30EE670A 		vsub.f32	s0, s0, s15
 417              	.LVL17:
  70:../eurorack/stmlib/dsp/dsp.h ****   index *= size;
 418              		.loc 8 70 3 is_stmt 1 view .LVU104
  70:../eurorack/stmlib/dsp/dsp.h ****   index *= size;
 419              		.loc 8 70 9 is_stmt 0 view .LVU105
 420 000e DFED0C7A 		vldr.32	s15, .L13+4
ARM GAS  /var/folders/y7/g6pkzsp12sx54x3s3mvyn15r0000gn/T//ccyV2DV7.s 			page 17


 421 0012 60EE277A 		vmul.f32	s15, s0, s15
 422              	.LVL18:
  71:../eurorack/stmlib/dsp/dsp.h ****   float a = table[index_integral];
 423              		.loc 8 71 3 is_stmt 1 view .LVU106
 424 0016 BDEEE77A 		vcvt.s32.f32	s14, s15
 425 001a 17EE102A 		vmov	r2, s14	@ int
 426              	.LVL19:
  71:../eurorack/stmlib/dsp/dsp.h ****   float a = table[index_integral];
 427              		.loc 8 71 3 view .LVU107
 428              		.loc 8 72 3 view .LVU108
  71:../eurorack/stmlib/dsp/dsp.h ****   float a = table[index_integral];
 429              		.loc 8 71 3 is_stmt 0 view .LVU109
 430 001e B8EEC77A 		vcvt.f32.s32	s14, s14
 431              		.loc 8 72 9 view .LVU110
 432 0022 03EB8201 		add	r1, r3, r2, lsl #2
  71:../eurorack/stmlib/dsp/dsp.h ****   float a = table[index_integral];
 433              		.loc 8 71 3 view .LVU111
 434 0026 77EEC77A 		vsub.f32	s15, s15, s14
 435              	.LVL20:
 436              		.loc 8 72 9 view .LVU112
 437 002a 91ED000A 		vldr.32	s0, [r1]
 438              	.LVL21:
  73:../eurorack/stmlib/dsp/dsp.h ****   float b = table[index_integral + 1];
 439              		.loc 8 73 3 is_stmt 1 view .LVU113
  74:../eurorack/stmlib/dsp/dsp.h ****   return a + (b - a) * index_fractional;
 440              		.loc 8 74 3 view .LVU114
 441              		.loc 8 74 17 is_stmt 0 view .LVU115
 442 002e 91ED017A 		vldr.32	s14, [r1, #4]
 443 0032 37EE407A 		vsub.f32	s14, s14, s0
 444              	.LBE200:
 445              	.LBE199:
  50:../eurorack/plaits/dsp/oscillator/sine_oscillator.h **** }
 446              		.loc 7 50 1 view .LVU116
 447 0036 A7EE870A 		vfma.f32	s0, s15, s14
 448 003a 7047     		bx	lr
 449              	.L14:
 450              		.align	2
 451              	.L13:
 452 003c 00000000 		.word	_ZN6plaits8lut_sineE
 453 0040 00000044 		.word	1140850688
 454              		.cfi_endproc
 455              	.LFE1297:
 457              		.section	.text._ZN6plaits23VariableShapeOscillator6RenderILb1ELb1EEEvfffffPfj,"axG",%progbits,_ZN6
 458              		.align	1
 459              		.weak	_ZN6plaits23VariableShapeOscillator6RenderILb1ELb1EEEvfffffPfj
 460              		.syntax unified
 461              		.thumb
 462              		.thumb_func
 464              	_ZN6plaits23VariableShapeOscillator6RenderILb1ELb1EEEvfffffPfj:
 465              	.LVL22:
 466              	.LFB1339:
  64:../eurorack/plaits/dsp/oscillator/variable_shape_oscillator.h ****   }
  65:../eurorack/plaits/dsp/oscillator/variable_shape_oscillator.h **** 
  66:../eurorack/plaits/dsp/oscillator/variable_shape_oscillator.h ****   void Render(
  67:../eurorack/plaits/dsp/oscillator/variable_shape_oscillator.h ****       float frequency,
  68:../eurorack/plaits/dsp/oscillator/variable_shape_oscillator.h ****       float pw,
  69:../eurorack/plaits/dsp/oscillator/variable_shape_oscillator.h ****       float waveshape,
ARM GAS  /var/folders/y7/g6pkzsp12sx54x3s3mvyn15r0000gn/T//ccyV2DV7.s 			page 18


  70:../eurorack/plaits/dsp/oscillator/variable_shape_oscillator.h ****       float* out,
  71:../eurorack/plaits/dsp/oscillator/variable_shape_oscillator.h ****       size_t size) {
  72:../eurorack/plaits/dsp/oscillator/variable_shape_oscillator.h ****     Render<false, false>(0.0f, frequency, pw, waveshape, 0.0f, out, size);
  73:../eurorack/plaits/dsp/oscillator/variable_shape_oscillator.h ****   }
  74:../eurorack/plaits/dsp/oscillator/variable_shape_oscillator.h ****   
  75:../eurorack/plaits/dsp/oscillator/variable_shape_oscillator.h ****   void Render(
  76:../eurorack/plaits/dsp/oscillator/variable_shape_oscillator.h ****       float master_frequency,
  77:../eurorack/plaits/dsp/oscillator/variable_shape_oscillator.h ****       float frequency,
  78:../eurorack/plaits/dsp/oscillator/variable_shape_oscillator.h ****       float pw,
  79:../eurorack/plaits/dsp/oscillator/variable_shape_oscillator.h ****       float waveshape,
  80:../eurorack/plaits/dsp/oscillator/variable_shape_oscillator.h ****       float* out,
  81:../eurorack/plaits/dsp/oscillator/variable_shape_oscillator.h ****       size_t size) {
  82:../eurorack/plaits/dsp/oscillator/variable_shape_oscillator.h ****     Render<true, false>(
  83:../eurorack/plaits/dsp/oscillator/variable_shape_oscillator.h ****         master_frequency,
  84:../eurorack/plaits/dsp/oscillator/variable_shape_oscillator.h ****         frequency,
  85:../eurorack/plaits/dsp/oscillator/variable_shape_oscillator.h ****         pw,
  86:../eurorack/plaits/dsp/oscillator/variable_shape_oscillator.h ****         waveshape,
  87:../eurorack/plaits/dsp/oscillator/variable_shape_oscillator.h ****         0.0f,
  88:../eurorack/plaits/dsp/oscillator/variable_shape_oscillator.h ****         out, size);
  89:../eurorack/plaits/dsp/oscillator/variable_shape_oscillator.h ****   }
  90:../eurorack/plaits/dsp/oscillator/variable_shape_oscillator.h ****   
  91:../eurorack/plaits/dsp/oscillator/variable_shape_oscillator.h ****   template<bool enable_sync, bool output_phase>
  92:../eurorack/plaits/dsp/oscillator/variable_shape_oscillator.h ****   void Render(
 467              		.loc 3 92 8 is_stmt 1 view -0
 468              		.cfi_startproc
 469              		@ args = 0, pretend = 0, frame = 32
 470              		@ frame_needed = 0, uses_anonymous_args = 0
 471              		.loc 3 92 8 is_stmt 0 view .LVU118
 472 0000 F5EE007A 		vmov.f32	s15, #2.5e-1
 473 0004 2DE9F041 		push	{r4, r5, r6, r7, r8, lr}
 474              		.cfi_def_cfa_offset 24
 475              		.cfi_offset 4, -24
 476              		.cfi_offset 5, -20
 477              		.cfi_offset 6, -16
 478              		.cfi_offset 7, -12
 479              		.cfi_offset 8, -8
 480              		.cfi_offset 14, -4
 481 0008 B4EEE70A 		vcmpe.f32	s0, s15
 482 000c 0446     		mov	r4, r0
 483 000e 0F46     		mov	r7, r1
 484 0010 1546     		mov	r5, r2
 485 0012 F1EE10FA 		vmrs	APSR_nzcv, FPSCR
  93:../eurorack/plaits/dsp/oscillator/variable_shape_oscillator.h ****       float master_frequency,
  94:../eurorack/plaits/dsp/oscillator/variable_shape_oscillator.h ****       float frequency,
  95:../eurorack/plaits/dsp/oscillator/variable_shape_oscillator.h ****       float pw,
  96:../eurorack/plaits/dsp/oscillator/variable_shape_oscillator.h ****       float waveshape,
  97:../eurorack/plaits/dsp/oscillator/variable_shape_oscillator.h ****       float phase_modulation_amount,
  98:../eurorack/plaits/dsp/oscillator/variable_shape_oscillator.h ****       float* out,
  99:../eurorack/plaits/dsp/oscillator/variable_shape_oscillator.h ****       size_t size) {
 100:../eurorack/plaits/dsp/oscillator/variable_shape_oscillator.h ****     if (master_frequency >= kMaxFrequency) {
 101:../eurorack/plaits/dsp/oscillator/variable_shape_oscillator.h ****       master_frequency = kMaxFrequency;
 102:../eurorack/plaits/dsp/oscillator/variable_shape_oscillator.h ****     }
 103:../eurorack/plaits/dsp/oscillator/variable_shape_oscillator.h ****     if (frequency >= kMaxFrequency) {
 486              		.loc 3 103 5 view .LVU119
 487 0016 F4EEE70A 		vcmpe.f32	s1, s15
 488 001a 27FE800A 		vselge.f32	s0, s15, s0
 489              	.LVL23:
ARM GAS  /var/folders/y7/g6pkzsp12sx54x3s3mvyn15r0000gn/T//ccyV2DV7.s 			page 19


  92:../eurorack/plaits/dsp/oscillator/variable_shape_oscillator.h ****       float master_frequency,
 490              		.loc 3 92 8 view .LVU120
 491 001e 2DED108B 		vpush.64	{d8, d9, d10, d11, d12, d13, d14, d15}
 492              		.cfi_def_cfa_offset 88
 493              		.cfi_offset 80, -88
 494              		.cfi_offset 81, -84
 495              		.cfi_offset 82, -80
 496              		.cfi_offset 83, -76
 497              		.cfi_offset 84, -72
 498              		.cfi_offset 85, -68
 499              		.cfi_offset 86, -64
 500              		.cfi_offset 87, -60
 501              		.cfi_offset 88, -56
 502              		.cfi_offset 89, -52
 503              		.cfi_offset 90, -48
 504              		.cfi_offset 91, -44
 505              		.cfi_offset 92, -40
 506              		.cfi_offset 93, -36
 507              		.cfi_offset 94, -32
 508              		.cfi_offset 95, -28
 509              		.loc 3 103 5 view .LVU121
 510 0022 F1EE10FA 		vmrs	APSR_nzcv, FPSCR
  92:../eurorack/plaits/dsp/oscillator/variable_shape_oscillator.h ****       float master_frequency,
 511              		.loc 3 92 8 view .LVU122
 512 0026 88B0     		sub	sp, sp, #32
 513              		.cfi_def_cfa_offset 120
 514              		.loc 3 103 5 view .LVU123
 515 0028 52DA     		bge	.L37
 104:../eurorack/plaits/dsp/oscillator/variable_shape_oscillator.h ****       frequency = kMaxFrequency;
 105:../eurorack/plaits/dsp/oscillator/variable_shape_oscillator.h ****     }
 106:../eurorack/plaits/dsp/oscillator/variable_shape_oscillator.h ****     
 107:../eurorack/plaits/dsp/oscillator/variable_shape_oscillator.h ****     if (frequency >= 0.25f) {
 108:../eurorack/plaits/dsp/oscillator/variable_shape_oscillator.h ****       pw = 0.5f;
 109:../eurorack/plaits/dsp/oscillator/variable_shape_oscillator.h ****     } else {
 110:../eurorack/plaits/dsp/oscillator/variable_shape_oscillator.h ****       CONSTRAIN(pw, frequency * 2.0f, 1.0f - 2.0f * frequency);
 516              		.loc 3 110 7 view .LVU124
 517 002a 70EEA07A 		vadd.f32	s15, s1, s1
 518 002e F4EEC17A 		vcmpe.f32	s15, s2
 519 0032 F1EE10FA 		vmrs	APSR_nzcv, FPSCR
 520 0036 0ADC     		bgt	.L16
 521              		.loc 3 110 7 discriminator 2 view .LVU125
 522 0038 B7EE007A 		vmov.f32	s14, #1.0e+0
 523 003c 77EE677A 		vsub.f32	s15, s14, s15
 524 0040 F4EEC17A 		vcmpe.f32	s15, s2
 525 0044 F1EE10FA 		vmrs	APSR_nzcv, FPSCR
 526 0048 58BF     		it	pl
 527 004a F0EE417A 		vmovpl.f32	s15, s2
 528              	.LVL24:
 529              	.L16:
 530              	.LBB267:
 531              	.LBI267:
 532              		.file 9 "../eurorack/stmlib/dsp/parameter_interpolator.h"
   1:../eurorack/stmlib/dsp/parameter_interpolator.h **** // Copyright 2015 Emilie Gillet.
   2:../eurorack/stmlib/dsp/parameter_interpolator.h **** //
   3:../eurorack/stmlib/dsp/parameter_interpolator.h **** // Author: Emilie Gillet (emilie.o.gillet@gmail.com)
   4:../eurorack/stmlib/dsp/parameter_interpolator.h **** //
   5:../eurorack/stmlib/dsp/parameter_interpolator.h **** // Permission is hereby granted, free of charge, to any person obtaining a copy
ARM GAS  /var/folders/y7/g6pkzsp12sx54x3s3mvyn15r0000gn/T//ccyV2DV7.s 			page 20


   6:../eurorack/stmlib/dsp/parameter_interpolator.h **** // of this software and associated documentation files (the "Software"), to deal
   7:../eurorack/stmlib/dsp/parameter_interpolator.h **** // in the Software without restriction, including without limitation the rights
   8:../eurorack/stmlib/dsp/parameter_interpolator.h **** // to use, copy, modify, merge, publish, distribute, sublicense, and/or sell
   9:../eurorack/stmlib/dsp/parameter_interpolator.h **** // copies of the Software, and to permit persons to whom the Software is
  10:../eurorack/stmlib/dsp/parameter_interpolator.h **** // furnished to do so, subject to the following conditions:
  11:../eurorack/stmlib/dsp/parameter_interpolator.h **** // 
  12:../eurorack/stmlib/dsp/parameter_interpolator.h **** // The above copyright notice and this permission notice shall be included in
  13:../eurorack/stmlib/dsp/parameter_interpolator.h **** // all copies or substantial portions of the Software.
  14:../eurorack/stmlib/dsp/parameter_interpolator.h **** // 
  15:../eurorack/stmlib/dsp/parameter_interpolator.h **** // THE SOFTWARE IS PROVIDED "AS IS", WITHOUT WARRANTY OF ANY KIND, EXPRESS OR
  16:../eurorack/stmlib/dsp/parameter_interpolator.h **** // IMPLIED, INCLUDING BUT NOT LIMITED TO THE WARRANTIES OF MERCHANTABILITY,
  17:../eurorack/stmlib/dsp/parameter_interpolator.h **** // FITNESS FOR A PARTICULAR PURPOSE AND NONINFRINGEMENT. IN NO EVENT SHALL THE
  18:../eurorack/stmlib/dsp/parameter_interpolator.h **** // AUTHORS OR COPYRIGHT HOLDERS BE LIABLE FOR ANY CLAIM, DAMAGES OR OTHER
  19:../eurorack/stmlib/dsp/parameter_interpolator.h **** // LIABILITY, WHETHER IN AN ACTION OF CONTRACT, TORT OR OTHERWISE, ARISING FROM,
  20:../eurorack/stmlib/dsp/parameter_interpolator.h **** // OUT OF OR IN CONNECTION WITH THE SOFTWARE OR THE USE OR OTHER DEALINGS IN
  21:../eurorack/stmlib/dsp/parameter_interpolator.h **** // THE SOFTWARE.
  22:../eurorack/stmlib/dsp/parameter_interpolator.h **** // 
  23:../eurorack/stmlib/dsp/parameter_interpolator.h **** // See http://creativecommons.org/licenses/MIT/ for more information.
  24:../eurorack/stmlib/dsp/parameter_interpolator.h **** //
  25:../eurorack/stmlib/dsp/parameter_interpolator.h **** // -----------------------------------------------------------------------------
  26:../eurorack/stmlib/dsp/parameter_interpolator.h **** //
  27:../eurorack/stmlib/dsp/parameter_interpolator.h **** // Linear interpolation of parameters in rendering loops.
  28:../eurorack/stmlib/dsp/parameter_interpolator.h **** 
  29:../eurorack/stmlib/dsp/parameter_interpolator.h **** #ifndef STMLIB_DSP_PARAMETER_INTERPOLATOR_H_
  30:../eurorack/stmlib/dsp/parameter_interpolator.h **** #define STMLIB_DSP_PARAMETER_INTERPOLATOR_H_
  31:../eurorack/stmlib/dsp/parameter_interpolator.h **** 
  32:../eurorack/stmlib/dsp/parameter_interpolator.h **** #include "stmlib/stmlib.h"
  33:../eurorack/stmlib/dsp/parameter_interpolator.h **** 
  34:../eurorack/stmlib/dsp/parameter_interpolator.h **** namespace stmlib {
  35:../eurorack/stmlib/dsp/parameter_interpolator.h **** 
  36:../eurorack/stmlib/dsp/parameter_interpolator.h **** class ParameterInterpolator {
  37:../eurorack/stmlib/dsp/parameter_interpolator.h ****  public:
  38:../eurorack/stmlib/dsp/parameter_interpolator.h ****   ParameterInterpolator() { }
  39:../eurorack/stmlib/dsp/parameter_interpolator.h ****   ParameterInterpolator(float* state, float new_value, size_t size) {
 533              		.loc 9 39 3 is_stmt 1 view .LVU126
 534              	.LBB268:
 535              	.LBI268:
  40:../eurorack/stmlib/dsp/parameter_interpolator.h ****     Init(state, new_value, size);
  41:../eurorack/stmlib/dsp/parameter_interpolator.h ****   }
  42:../eurorack/stmlib/dsp/parameter_interpolator.h **** 
  43:../eurorack/stmlib/dsp/parameter_interpolator.h ****   ParameterInterpolator(float* state, float new_value, float step) {
  44:../eurorack/stmlib/dsp/parameter_interpolator.h ****     state_ = state;
  45:../eurorack/stmlib/dsp/parameter_interpolator.h ****     value_ = *state;
  46:../eurorack/stmlib/dsp/parameter_interpolator.h ****     increment_ = (new_value - *state) * step;
  47:../eurorack/stmlib/dsp/parameter_interpolator.h ****   }
  48:../eurorack/stmlib/dsp/parameter_interpolator.h **** 
  49:../eurorack/stmlib/dsp/parameter_interpolator.h ****   ~ParameterInterpolator() {
  50:../eurorack/stmlib/dsp/parameter_interpolator.h ****     *state_ = value_;
  51:../eurorack/stmlib/dsp/parameter_interpolator.h ****   }
  52:../eurorack/stmlib/dsp/parameter_interpolator.h ****   
  53:../eurorack/stmlib/dsp/parameter_interpolator.h ****   inline void Init(float* state, float new_value, size_t size) {
 536              		.loc 9 53 15 view .LVU127
 537              	.LBB269:
  54:../eurorack/stmlib/dsp/parameter_interpolator.h ****     state_ = state;
 538              		.loc 9 54 5 view .LVU128
  55:../eurorack/stmlib/dsp/parameter_interpolator.h ****     value_ = *state;
 539              		.loc 9 55 5 view .LVU129
ARM GAS  /var/folders/y7/g6pkzsp12sx54x3s3mvyn15r0000gn/T//ccyV2DV7.s 			page 21


  56:../eurorack/stmlib/dsp/parameter_interpolator.h ****     increment_ = (new_value - *state) / static_cast<float>(size);
 540              		.loc 9 56 39 is_stmt 0 view .LVU130
 541 004e 07EE105A 		vmov	s14, r5	@ int
 542              	.LBE269:
 543              	.LBE268:
 544              	.LBE267:
 545              	.LBB278:
 546              	.LBB279:
 547              	.LBB280:
  55:../eurorack/stmlib/dsp/parameter_interpolator.h ****     value_ = *state;
 548              		.loc 9 55 14 view .LVU131
 549 0052 94ED07EA 		vldr.32	s28, [r4, #28]
 550              	.LBE280:
 551              	.LBE279:
 552              	.LBE278:
 553              	.LBB289:
 554              	.LBB274:
 555              	.LBB270:
 556 0056 D4ED05EA 		vldr.32	s29, [r4, #20]
 557              	.LVL25:
 558              		.loc 9 56 5 is_stmt 1 view .LVU132
 559              		.loc 9 56 39 is_stmt 0 view .LVU133
 560 005a B8EE477A 		vcvt.f32.u32	s14, s14
 561              	.LBE270:
 562              	.LBE274:
 563              	.LBE289:
 564              	.LBB290:
 565              	.LBB291:
 566              	.LBB292:
  55:../eurorack/stmlib/dsp/parameter_interpolator.h ****     value_ = *state;
 567              		.loc 9 55 14 view .LVU134
 568 005e 94ED08BA 		vldr.32	s22, [r4, #32]
 569              	.LBE292:
 570              	.LBE291:
 571              	.LBE290:
 572              	.LBB301:
 573              	.LBB285:
 574              	.LBB281:
 575              		.loc 9 56 29 view .LVU135
 576 0062 77EECE7A 		vsub.f32	s15, s15, s28
 577              	.LVL26:
 578              		.loc 9 56 29 view .LVU136
 579              	.LBE281:
 580              	.LBE285:
 581              	.LBE301:
 582              	.LBB302:
 583              	.LBB303:
 584              	.LBB304:
  55:../eurorack/stmlib/dsp/parameter_interpolator.h ****     value_ = *state;
 585              		.loc 9 55 14 view .LVU137
 586 0066 D4ED06FA 		vldr.32	s31, [r4, #24]
 587              	.LBE304:
 588              	.LBE303:
 589              	.LBE302:
 590              	.LBB311:
 591              	.LBB275:
 592              	.LBB271:
ARM GAS  /var/folders/y7/g6pkzsp12sx54x3s3mvyn15r0000gn/T//ccyV2DV7.s 			page 22


 593              		.loc 9 56 29 view .LVU138
 594 006a 30EE6E0A 		vsub.f32	s0, s0, s29
 595              	.LVL27:
 596              		.loc 9 56 29 view .LVU139
 597              	.LBE271:
 598              	.LBE275:
 599              	.LBE311:
 600              	.LBB312:
 601              	.LBB313:
 602              	.LBB314:
  55:../eurorack/stmlib/dsp/parameter_interpolator.h ****     value_ = *state;
 603              		.loc 9 55 14 view .LVU140
 604 006e D4ED09AA 		vldr.32	s21, [r4, #36]
 605              	.LBE314:
 606              	.LBE313:
 607              	.LBE312:
 608              	.LBB321:
 609              	.LBB297:
 610              	.LBB293:
 611              		.loc 9 56 29 view .LVU141
 612 0072 71EECB1A 		vsub.f32	s3, s3, s22
 613              	.LVL28:
 614              		.loc 9 56 29 view .LVU142
 615              	.LBE293:
 616              	.LBE297:
 617              	.LBE321:
 111:../eurorack/plaits/dsp/oscillator/variable_shape_oscillator.h ****     }
 112:../eurorack/plaits/dsp/oscillator/variable_shape_oscillator.h ****     
 113:../eurorack/plaits/dsp/oscillator/variable_shape_oscillator.h ****     stmlib::ParameterInterpolator master_fm(
 114:../eurorack/plaits/dsp/oscillator/variable_shape_oscillator.h ****         &master_frequency_, master_frequency, size);
 115:../eurorack/plaits/dsp/oscillator/variable_shape_oscillator.h ****     stmlib::ParameterInterpolator fm(&slave_frequency_, frequency, size);
 116:../eurorack/plaits/dsp/oscillator/variable_shape_oscillator.h ****     stmlib::ParameterInterpolator pwm(&pw_, pw, size);
 117:../eurorack/plaits/dsp/oscillator/variable_shape_oscillator.h ****     stmlib::ParameterInterpolator waveshape_modulation(
 118:../eurorack/plaits/dsp/oscillator/variable_shape_oscillator.h ****         &waveshape_, waveshape, size);
 119:../eurorack/plaits/dsp/oscillator/variable_shape_oscillator.h ****     stmlib::ParameterInterpolator phase_modulation(
 120:../eurorack/plaits/dsp/oscillator/variable_shape_oscillator.h ****         &phase_modulation_, phase_modulation_amount, size);
 121:../eurorack/plaits/dsp/oscillator/variable_shape_oscillator.h **** 
 122:../eurorack/plaits/dsp/oscillator/variable_shape_oscillator.h ****     float next_sample = next_sample_;
 618              		.loc 3 122 11 view .LVU143
 619 0076 D4ED024A 		vldr.32	s9, [r4, #8]
 620              	.LBB322:
 621              	.LBB286:
 622              	.LBB282:
 623              		.loc 9 56 39 view .LVU144
 624 007a C7EE877A 		vdiv.f32	s15, s15, s14
 625              	.LBE282:
 626              	.LBE286:
 627              	.LBE322:
 628              	.LBB323:
 629              	.LBB276:
 630              	.LBB272:
 631 007e C0EE076A 		vdiv.f32	s13, s0, s14
 632              	.LBE272:
 633              	.LBE276:
 634              	.LBE323:
 635              	.LBB324:
 636              	.LBB308:
ARM GAS  /var/folders/y7/g6pkzsp12sx54x3s3mvyn15r0000gn/T//ccyV2DV7.s 			page 23


 637              	.LBB305:
 638              		.loc 9 56 29 view .LVU145
 639 0082 70EEEF0A 		vsub.f32	s1, s1, s31
 640              	.LBE305:
 641              	.LBE308:
 642              	.LBE324:
 643              	.LBB325:
 644              	.LBB318:
 645              	.LBB315:
 646 0086 32EE6A2A 		vsub.f32	s4, s4, s21
 647              	.LVL29:
 648              		.loc 9 56 29 view .LVU146
 649              	.LBE315:
 650              	.LBE318:
 651              	.LBE325:
 652              	.LBB326:
 653              	.LBB287:
 654              	.LBB283:
 655              		.loc 9 56 39 view .LVU147
 656 008a CDED007A 		vstr.32	s15, [sp]
 657              	.LBE283:
 658              	.LBE287:
 659              	.LBE326:
 660              	.LBB327:
 661              	.LBB298:
 662              	.LBB294:
 663 008e C1EE877A 		vdiv.f32	s15, s3, s14
 664              	.LBE294:
 665              	.LBE298:
 666              	.LBE327:
 667              	.LBB328:
 668              	.LBB277:
 669              	.LBB273:
 670 0092 CDED046A 		vstr.32	s13, [sp, #16]
 671              	.LVL30:
 672              		.loc 9 56 39 view .LVU148
 673              	.LBE273:
 674              	.LBE277:
 675              	.LBE328:
 676              	.LBB329:
 677              	.LBI302:
  39:../eurorack/stmlib/dsp/parameter_interpolator.h ****     Init(state, new_value, size);
 678              		.loc 9 39 3 is_stmt 1 view .LVU149
 679              	.LBB309:
 680              	.LBI303:
  53:../eurorack/stmlib/dsp/parameter_interpolator.h ****     state_ = state;
 681              		.loc 9 53 15 view .LVU150
 682              	.LBB306:
  54:../eurorack/stmlib/dsp/parameter_interpolator.h ****     value_ = *state;
 683              		.loc 9 54 5 view .LVU151
  55:../eurorack/stmlib/dsp/parameter_interpolator.h ****     increment_ = (new_value - *state) / static_cast<float>(size);
 684              		.loc 9 55 5 view .LVU152
 685              		.loc 9 56 5 view .LVU153
 686              		.loc 9 56 39 is_stmt 0 view .LVU154
 687 0096 C0EE876A 		vdiv.f32	s13, s1, s14
 688              	.LVL31:
 689              		.loc 9 56 39 view .LVU155
ARM GAS  /var/folders/y7/g6pkzsp12sx54x3s3mvyn15r0000gn/T//ccyV2DV7.s 			page 24


 690              	.LBE306:
 691              	.LBE309:
 692              	.LBE329:
 693              	.LBB330:
 694              	.LBB299:
 695              	.LBB295:
 696 009a CDED017A 		vstr.32	s15, [sp, #4]
 697              	.LBE295:
 698              	.LBE299:
 699              	.LBE330:
 700              	.LBB331:
 701              	.LBB319:
 702              	.LBB316:
 703 009e C2EE077A 		vdiv.f32	s15, s4, s14
 704              	.LBE316:
 705              	.LBE319:
 706              	.LBE331:
 707              	.LBB332:
 708              	.LBB310:
 709              	.LBB307:
 710 00a2 CDED036A 		vstr.32	s13, [sp, #12]
 711              	.LVL32:
 712              		.loc 9 56 39 view .LVU156
 713              	.LBE307:
 714              	.LBE310:
 715              	.LBE332:
 716              	.LBB333:
 717              	.LBI278:
  39:../eurorack/stmlib/dsp/parameter_interpolator.h ****     Init(state, new_value, size);
 718              		.loc 9 39 3 is_stmt 1 view .LVU157
 719              	.LBB288:
 720              	.LBI279:
  53:../eurorack/stmlib/dsp/parameter_interpolator.h ****     state_ = state;
 721              		.loc 9 53 15 view .LVU158
 722              	.LBB284:
  54:../eurorack/stmlib/dsp/parameter_interpolator.h ****     value_ = *state;
 723              		.loc 9 54 5 view .LVU159
  55:../eurorack/stmlib/dsp/parameter_interpolator.h ****     increment_ = (new_value - *state) / static_cast<float>(size);
 724              		.loc 9 55 5 view .LVU160
 725              		.loc 9 56 5 view .LVU161
 726              		.loc 9 56 5 is_stmt 0 view .LVU162
 727              	.LBE284:
 728              	.LBE288:
 729              	.LBE333:
 730              	.LBB334:
 731              	.LBI290:
  39:../eurorack/stmlib/dsp/parameter_interpolator.h ****     Init(state, new_value, size);
 732              		.loc 9 39 3 is_stmt 1 view .LVU163
 733              	.LBB300:
 734              	.LBI291:
  53:../eurorack/stmlib/dsp/parameter_interpolator.h ****     state_ = state;
 735              		.loc 9 53 15 view .LVU164
 736              	.LBB296:
  54:../eurorack/stmlib/dsp/parameter_interpolator.h ****     value_ = *state;
 737              		.loc 9 54 5 view .LVU165
  55:../eurorack/stmlib/dsp/parameter_interpolator.h ****     increment_ = (new_value - *state) / static_cast<float>(size);
 738              		.loc 9 55 5 view .LVU166
ARM GAS  /var/folders/y7/g6pkzsp12sx54x3s3mvyn15r0000gn/T//ccyV2DV7.s 			page 25


 739              		.loc 9 56 5 view .LVU167
 740              		.loc 9 56 5 is_stmt 0 view .LVU168
 741              	.LBE296:
 742              	.LBE300:
 743              	.LBE334:
 744              	.LBB335:
 745              	.LBI312:
  39:../eurorack/stmlib/dsp/parameter_interpolator.h ****     Init(state, new_value, size);
 746              		.loc 9 39 3 is_stmt 1 view .LVU169
 747              	.LBB320:
 748              	.LBI313:
  53:../eurorack/stmlib/dsp/parameter_interpolator.h ****     state_ = state;
 749              		.loc 9 53 15 view .LVU170
 750              	.LBB317:
  54:../eurorack/stmlib/dsp/parameter_interpolator.h ****     value_ = *state;
 751              		.loc 9 54 5 view .LVU171
  55:../eurorack/stmlib/dsp/parameter_interpolator.h ****     increment_ = (new_value - *state) / static_cast<float>(size);
 752              		.loc 9 55 5 view .LVU172
 753              		.loc 9 56 5 view .LVU173
 754              		.loc 9 56 39 is_stmt 0 view .LVU174
 755 00a6 CDED027A 		vstr.32	s15, [sp, #8]
 756              	.LVL33:
 757              	.L17:
 758              		.loc 9 56 39 view .LVU175
 759              	.LBE317:
 760              	.LBE320:
 761              	.LBE335:
 123:../eurorack/plaits/dsp/oscillator/variable_shape_oscillator.h ****     
 124:../eurorack/plaits/dsp/oscillator/variable_shape_oscillator.h ****     while (size--) {
 762              		.loc 3 124 5 is_stmt 1 view .LVU176
 763 00aa 013D     		subs	r5, r5, #1
 764              	.LVL34:
 765              		.loc 3 124 5 is_stmt 0 view .LVU177
 766 00ac 15D2     		bcs	.L35
 125:../eurorack/plaits/dsp/oscillator/variable_shape_oscillator.h ****       bool reset = false;
 126:../eurorack/plaits/dsp/oscillator/variable_shape_oscillator.h ****       bool transition_during_reset = false;
 127:../eurorack/plaits/dsp/oscillator/variable_shape_oscillator.h ****       float reset_time = 0.0f;
 128:../eurorack/plaits/dsp/oscillator/variable_shape_oscillator.h **** 
 129:../eurorack/plaits/dsp/oscillator/variable_shape_oscillator.h ****       float this_sample = next_sample;
 130:../eurorack/plaits/dsp/oscillator/variable_shape_oscillator.h ****       next_sample = 0.0f;
 131:../eurorack/plaits/dsp/oscillator/variable_shape_oscillator.h ****     
 132:../eurorack/plaits/dsp/oscillator/variable_shape_oscillator.h ****       const float master_frequency = master_fm.Next();
 133:../eurorack/plaits/dsp/oscillator/variable_shape_oscillator.h ****       const float slave_frequency = fm.Next();
 134:../eurorack/plaits/dsp/oscillator/variable_shape_oscillator.h ****       const float pw = pwm.Next();
 135:../eurorack/plaits/dsp/oscillator/variable_shape_oscillator.h ****       const float waveshape = waveshape_modulation.Next();
 136:../eurorack/plaits/dsp/oscillator/variable_shape_oscillator.h ****       
 137:../eurorack/plaits/dsp/oscillator/variable_shape_oscillator.h ****       const float square_amount = std::max(waveshape - 0.5f, 0.0f) * 2.0f;
 138:../eurorack/plaits/dsp/oscillator/variable_shape_oscillator.h ****       const float triangle_amount = std::max(1.0f - waveshape * 2.0f, 0.0f);
 139:../eurorack/plaits/dsp/oscillator/variable_shape_oscillator.h ****       
 140:../eurorack/plaits/dsp/oscillator/variable_shape_oscillator.h ****       const float slope_up = 1.0f / (pw);
 141:../eurorack/plaits/dsp/oscillator/variable_shape_oscillator.h ****       const float slope_down = 1.0f / (1.0f - pw);
 142:../eurorack/plaits/dsp/oscillator/variable_shape_oscillator.h **** 
 143:../eurorack/plaits/dsp/oscillator/variable_shape_oscillator.h ****       if (enable_sync) {
 144:../eurorack/plaits/dsp/oscillator/variable_shape_oscillator.h ****         master_phase_ += master_frequency;
 145:../eurorack/plaits/dsp/oscillator/variable_shape_oscillator.h ****         if (master_phase_ >= 1.0f) {
 146:../eurorack/plaits/dsp/oscillator/variable_shape_oscillator.h ****           master_phase_ -= 1.0f;
 147:../eurorack/plaits/dsp/oscillator/variable_shape_oscillator.h ****           reset_time = master_phase_ / master_frequency;
ARM GAS  /var/folders/y7/g6pkzsp12sx54x3s3mvyn15r0000gn/T//ccyV2DV7.s 			page 26


 148:../eurorack/plaits/dsp/oscillator/variable_shape_oscillator.h ****       
 149:../eurorack/plaits/dsp/oscillator/variable_shape_oscillator.h ****           float slave_phase_at_reset = slave_phase_ + \
 150:../eurorack/plaits/dsp/oscillator/variable_shape_oscillator.h ****               (1.0f - reset_time) * slave_frequency;
 151:../eurorack/plaits/dsp/oscillator/variable_shape_oscillator.h ****           reset = true;
 152:../eurorack/plaits/dsp/oscillator/variable_shape_oscillator.h ****           if (slave_phase_at_reset >= 1.0f) {
 153:../eurorack/plaits/dsp/oscillator/variable_shape_oscillator.h ****             slave_phase_at_reset -= 1.0f;
 154:../eurorack/plaits/dsp/oscillator/variable_shape_oscillator.h ****             transition_during_reset = true;
 155:../eurorack/plaits/dsp/oscillator/variable_shape_oscillator.h ****           }
 156:../eurorack/plaits/dsp/oscillator/variable_shape_oscillator.h ****           if (!high_ && slave_phase_at_reset >= pw) {
 157:../eurorack/plaits/dsp/oscillator/variable_shape_oscillator.h ****             transition_during_reset = true;
 158:../eurorack/plaits/dsp/oscillator/variable_shape_oscillator.h ****           }
 159:../eurorack/plaits/dsp/oscillator/variable_shape_oscillator.h ****           float value = ComputeNaiveSample(
 160:../eurorack/plaits/dsp/oscillator/variable_shape_oscillator.h ****               slave_phase_at_reset,
 161:../eurorack/plaits/dsp/oscillator/variable_shape_oscillator.h ****               pw,
 162:../eurorack/plaits/dsp/oscillator/variable_shape_oscillator.h ****               slope_up,
 163:../eurorack/plaits/dsp/oscillator/variable_shape_oscillator.h ****               slope_down,
 164:../eurorack/plaits/dsp/oscillator/variable_shape_oscillator.h ****               triangle_amount,
 165:../eurorack/plaits/dsp/oscillator/variable_shape_oscillator.h ****               square_amount);
 166:../eurorack/plaits/dsp/oscillator/variable_shape_oscillator.h ****           this_sample -= value * stmlib::ThisBlepSample(reset_time);
 167:../eurorack/plaits/dsp/oscillator/variable_shape_oscillator.h ****           next_sample -= value * stmlib::NextBlepSample(reset_time);
 168:../eurorack/plaits/dsp/oscillator/variable_shape_oscillator.h ****         }
 169:../eurorack/plaits/dsp/oscillator/variable_shape_oscillator.h ****       } else if (output_phase) {
 170:../eurorack/plaits/dsp/oscillator/variable_shape_oscillator.h ****         master_phase_ += master_frequency;
 171:../eurorack/plaits/dsp/oscillator/variable_shape_oscillator.h ****         if (master_phase_ >= 1.0f) {
 172:../eurorack/plaits/dsp/oscillator/variable_shape_oscillator.h ****           master_phase_ -= 1.0f;
 173:../eurorack/plaits/dsp/oscillator/variable_shape_oscillator.h ****         }
 174:../eurorack/plaits/dsp/oscillator/variable_shape_oscillator.h ****       }
 175:../eurorack/plaits/dsp/oscillator/variable_shape_oscillator.h ****       
 176:../eurorack/plaits/dsp/oscillator/variable_shape_oscillator.h ****       slave_phase_ += slave_frequency;
 177:../eurorack/plaits/dsp/oscillator/variable_shape_oscillator.h ****       while (transition_during_reset || !reset) {
 178:../eurorack/plaits/dsp/oscillator/variable_shape_oscillator.h ****         if (!high_) {
 179:../eurorack/plaits/dsp/oscillator/variable_shape_oscillator.h ****           if (slave_phase_ < pw) {
 180:../eurorack/plaits/dsp/oscillator/variable_shape_oscillator.h ****             break;
 181:../eurorack/plaits/dsp/oscillator/variable_shape_oscillator.h ****           }
 182:../eurorack/plaits/dsp/oscillator/variable_shape_oscillator.h ****           float t = (slave_phase_ - pw) / (previous_pw_ - pw + slave_frequency);
 183:../eurorack/plaits/dsp/oscillator/variable_shape_oscillator.h ****           float triangle_step = (slope_up + slope_down) * slave_frequency;
 184:../eurorack/plaits/dsp/oscillator/variable_shape_oscillator.h ****           triangle_step *= triangle_amount;
 185:../eurorack/plaits/dsp/oscillator/variable_shape_oscillator.h ****           
 186:../eurorack/plaits/dsp/oscillator/variable_shape_oscillator.h ****           this_sample += square_amount * stmlib::ThisBlepSample(t);
 187:../eurorack/plaits/dsp/oscillator/variable_shape_oscillator.h ****           next_sample += square_amount * stmlib::NextBlepSample(t);
 188:../eurorack/plaits/dsp/oscillator/variable_shape_oscillator.h ****           this_sample -= triangle_step * stmlib::ThisIntegratedBlepSample(t);
 189:../eurorack/plaits/dsp/oscillator/variable_shape_oscillator.h ****           next_sample -= triangle_step * stmlib::NextIntegratedBlepSample(t);
 190:../eurorack/plaits/dsp/oscillator/variable_shape_oscillator.h ****           high_ = true;
 191:../eurorack/plaits/dsp/oscillator/variable_shape_oscillator.h ****         }
 192:../eurorack/plaits/dsp/oscillator/variable_shape_oscillator.h ****       
 193:../eurorack/plaits/dsp/oscillator/variable_shape_oscillator.h ****         if (high_) {
 194:../eurorack/plaits/dsp/oscillator/variable_shape_oscillator.h ****           if (slave_phase_ < 1.0f) {
 195:../eurorack/plaits/dsp/oscillator/variable_shape_oscillator.h ****             break;
 196:../eurorack/plaits/dsp/oscillator/variable_shape_oscillator.h ****           }
 197:../eurorack/plaits/dsp/oscillator/variable_shape_oscillator.h ****           slave_phase_ -= 1.0f;
 198:../eurorack/plaits/dsp/oscillator/variable_shape_oscillator.h ****           float t = slave_phase_ / slave_frequency;
 199:../eurorack/plaits/dsp/oscillator/variable_shape_oscillator.h ****           float triangle_step = (slope_up + slope_down) * slave_frequency;
 200:../eurorack/plaits/dsp/oscillator/variable_shape_oscillator.h ****           triangle_step *= triangle_amount;
 201:../eurorack/plaits/dsp/oscillator/variable_shape_oscillator.h **** 
 202:../eurorack/plaits/dsp/oscillator/variable_shape_oscillator.h ****           this_sample -= (1.0f - triangle_amount) * stmlib::ThisBlepSample(t);
 203:../eurorack/plaits/dsp/oscillator/variable_shape_oscillator.h ****           next_sample -= (1.0f - triangle_amount) * stmlib::NextBlepSample(t);
 204:../eurorack/plaits/dsp/oscillator/variable_shape_oscillator.h ****           this_sample += triangle_step * stmlib::ThisIntegratedBlepSample(t);
ARM GAS  /var/folders/y7/g6pkzsp12sx54x3s3mvyn15r0000gn/T//ccyV2DV7.s 			page 27


 205:../eurorack/plaits/dsp/oscillator/variable_shape_oscillator.h ****           next_sample += triangle_step * stmlib::NextIntegratedBlepSample(t);
 206:../eurorack/plaits/dsp/oscillator/variable_shape_oscillator.h ****           high_ = false;
 207:../eurorack/plaits/dsp/oscillator/variable_shape_oscillator.h ****         }
 208:../eurorack/plaits/dsp/oscillator/variable_shape_oscillator.h ****       }
 209:../eurorack/plaits/dsp/oscillator/variable_shape_oscillator.h ****     
 210:../eurorack/plaits/dsp/oscillator/variable_shape_oscillator.h ****       if (enable_sync && reset) {
 211:../eurorack/plaits/dsp/oscillator/variable_shape_oscillator.h ****         slave_phase_ = reset_time * slave_frequency;
 212:../eurorack/plaits/dsp/oscillator/variable_shape_oscillator.h ****         high_ = false;
 213:../eurorack/plaits/dsp/oscillator/variable_shape_oscillator.h ****       }
 214:../eurorack/plaits/dsp/oscillator/variable_shape_oscillator.h ****     
 215:../eurorack/plaits/dsp/oscillator/variable_shape_oscillator.h ****       next_sample += ComputeNaiveSample(
 216:../eurorack/plaits/dsp/oscillator/variable_shape_oscillator.h ****           slave_phase_,
 217:../eurorack/plaits/dsp/oscillator/variable_shape_oscillator.h ****           pw,
 218:../eurorack/plaits/dsp/oscillator/variable_shape_oscillator.h ****           slope_up,
 219:../eurorack/plaits/dsp/oscillator/variable_shape_oscillator.h ****           slope_down,
 220:../eurorack/plaits/dsp/oscillator/variable_shape_oscillator.h ****           triangle_amount,
 221:../eurorack/plaits/dsp/oscillator/variable_shape_oscillator.h ****           square_amount);
 222:../eurorack/plaits/dsp/oscillator/variable_shape_oscillator.h ****       previous_pw_ = pw;
 223:../eurorack/plaits/dsp/oscillator/variable_shape_oscillator.h ****       
 224:../eurorack/plaits/dsp/oscillator/variable_shape_oscillator.h ****       if (output_phase) {
 225:../eurorack/plaits/dsp/oscillator/variable_shape_oscillator.h ****         float phasor = master_phase_;
 226:../eurorack/plaits/dsp/oscillator/variable_shape_oscillator.h ****         if (enable_sync) {
 227:../eurorack/plaits/dsp/oscillator/variable_shape_oscillator.h ****           // A trick to prevent discontinuities when the phase wraps around.
 228:../eurorack/plaits/dsp/oscillator/variable_shape_oscillator.h ****           const float w = 4.0f * (1.0f - master_phase_) * master_phase_;
 229:../eurorack/plaits/dsp/oscillator/variable_shape_oscillator.h ****           this_sample *= w * (2.0f - w);
 230:../eurorack/plaits/dsp/oscillator/variable_shape_oscillator.h ****           
 231:../eurorack/plaits/dsp/oscillator/variable_shape_oscillator.h ****           // Apply some asymmetry on the main phasor too.
 232:../eurorack/plaits/dsp/oscillator/variable_shape_oscillator.h ****           const float p2 = phasor * phasor;
 233:../eurorack/plaits/dsp/oscillator/variable_shape_oscillator.h ****           phasor += (p2 * p2 - phasor) * fabsf(pw - 0.5f) * 2.0f;
 234:../eurorack/plaits/dsp/oscillator/variable_shape_oscillator.h ****         }
 235:../eurorack/plaits/dsp/oscillator/variable_shape_oscillator.h ****         *out++ = phasor + phase_modulation.Next() * this_sample;
 236:../eurorack/plaits/dsp/oscillator/variable_shape_oscillator.h ****       } else {
 237:../eurorack/plaits/dsp/oscillator/variable_shape_oscillator.h ****         *out++ = (2.0f * this_sample - 1.0f);
 238:../eurorack/plaits/dsp/oscillator/variable_shape_oscillator.h ****       }
 239:../eurorack/plaits/dsp/oscillator/variable_shape_oscillator.h ****     }
 240:../eurorack/plaits/dsp/oscillator/variable_shape_oscillator.h ****     
 241:../eurorack/plaits/dsp/oscillator/variable_shape_oscillator.h ****     next_sample_ = next_sample;
 767              		.loc 3 241 18 view .LVU178
 768 00ae C4ED024A 		vstr.32	s9, [r4, #8]
 769              	.LVL35:
 770              	.LBB336:
 771              	.LBI336:
  49:../eurorack/stmlib/dsp/parameter_interpolator.h ****     *state_ = value_;
 772              		.loc 9 49 3 is_stmt 1 view .LVU179
 773              	.LBB337:
  50:../eurorack/stmlib/dsp/parameter_interpolator.h ****   }
 774              		.loc 9 50 5 view .LVU180
  50:../eurorack/stmlib/dsp/parameter_interpolator.h ****   }
 775              		.loc 9 50 13 is_stmt 0 view .LVU181
 776 00b2 C4ED09AA 		vstr.32	s21, [r4, #36]
 777              	.LVL36:
  50:../eurorack/stmlib/dsp/parameter_interpolator.h ****   }
 778              		.loc 9 50 13 view .LVU182
 779              	.LBE337:
 780              	.LBE336:
 781              	.LBB338:
 782              	.LBI338:
ARM GAS  /var/folders/y7/g6pkzsp12sx54x3s3mvyn15r0000gn/T//ccyV2DV7.s 			page 28


  49:../eurorack/stmlib/dsp/parameter_interpolator.h ****     *state_ = value_;
 783              		.loc 9 49 3 is_stmt 1 view .LVU183
 784              	.LBB339:
  50:../eurorack/stmlib/dsp/parameter_interpolator.h ****   }
 785              		.loc 9 50 5 view .LVU184
  50:../eurorack/stmlib/dsp/parameter_interpolator.h ****   }
 786              		.loc 9 50 13 is_stmt 0 view .LVU185
 787 00b6 84ED08BA 		vstr.32	s22, [r4, #32]
 788              	.LVL37:
  50:../eurorack/stmlib/dsp/parameter_interpolator.h ****   }
 789              		.loc 9 50 13 view .LVU186
 790              	.LBE339:
 791              	.LBE338:
 792              	.LBB340:
 793              	.LBI340:
  49:../eurorack/stmlib/dsp/parameter_interpolator.h ****     *state_ = value_;
 794              		.loc 9 49 3 is_stmt 1 view .LVU187
 795              	.LBB341:
  50:../eurorack/stmlib/dsp/parameter_interpolator.h ****   }
 796              		.loc 9 50 5 view .LVU188
  50:../eurorack/stmlib/dsp/parameter_interpolator.h ****   }
 797              		.loc 9 50 13 is_stmt 0 view .LVU189
 798 00ba 84ED07EA 		vstr.32	s28, [r4, #28]
 799              	.LVL38:
  50:../eurorack/stmlib/dsp/parameter_interpolator.h ****   }
 800              		.loc 9 50 13 view .LVU190
 801              	.LBE341:
 802              	.LBE340:
 803              	.LBB342:
 804              	.LBI342:
  49:../eurorack/stmlib/dsp/parameter_interpolator.h ****     *state_ = value_;
 805              		.loc 9 49 3 is_stmt 1 view .LVU191
 806              	.LBB343:
  50:../eurorack/stmlib/dsp/parameter_interpolator.h ****   }
 807              		.loc 9 50 5 view .LVU192
  50:../eurorack/stmlib/dsp/parameter_interpolator.h ****   }
 808              		.loc 9 50 13 is_stmt 0 view .LVU193
 809 00be C4ED06FA 		vstr.32	s31, [r4, #24]
 810              	.LVL39:
  50:../eurorack/stmlib/dsp/parameter_interpolator.h ****   }
 811              		.loc 9 50 13 view .LVU194
 812              	.LBE343:
 813              	.LBE342:
 814              	.LBB344:
 815              	.LBI344:
  49:../eurorack/stmlib/dsp/parameter_interpolator.h ****     *state_ = value_;
 816              		.loc 9 49 3 is_stmt 1 view .LVU195
 817              	.LBB345:
  50:../eurorack/stmlib/dsp/parameter_interpolator.h ****   }
 818              		.loc 9 50 5 view .LVU196
  50:../eurorack/stmlib/dsp/parameter_interpolator.h ****   }
 819              		.loc 9 50 13 is_stmt 0 view .LVU197
 820 00c2 C4ED05EA 		vstr.32	s29, [r4, #20]
 821              	.LVL40:
  50:../eurorack/stmlib/dsp/parameter_interpolator.h ****   }
 822              		.loc 9 50 13 view .LVU198
 823              	.LBE345:
ARM GAS  /var/folders/y7/g6pkzsp12sx54x3s3mvyn15r0000gn/T//ccyV2DV7.s 			page 29


 824              	.LBE344:
 242:../eurorack/plaits/dsp/oscillator/variable_shape_oscillator.h ****   }
 825              		.loc 3 242 3 view .LVU199
 826 00c6 08B0     		add	sp, sp, #32
 827              		.cfi_remember_state
 828              		.cfi_def_cfa_offset 88
 829              	.LVL41:
 830              		.loc 3 242 3 view .LVU200
 831              		@ sp needed
 832 00c8 BDEC108B 		vldm	sp!, {d8-d15}
 833              		.cfi_restore 94
 834              		.cfi_restore 95
 835              		.cfi_restore 92
 836              		.cfi_restore 93
 837              		.cfi_restore 90
 838              		.cfi_restore 91
 839              		.cfi_restore 88
 840              		.cfi_restore 89
 841              		.cfi_restore 86
 842              		.cfi_restore 87
 843              		.cfi_restore 84
 844              		.cfi_restore 85
 845              		.cfi_restore 82
 846              		.cfi_restore 83
 847              		.cfi_restore 80
 848              		.cfi_restore 81
 849              		.cfi_def_cfa_offset 24
 850              	.LVL42:
 851              		.loc 3 242 3 view .LVU201
 852 00cc BDE8F081 		pop	{r4, r5, r6, r7, r8, pc}
 853              	.LVL43:
 854              	.L37:
 855              		.cfi_restore_state
 104:../eurorack/plaits/dsp/oscillator/variable_shape_oscillator.h ****     }
 856              		.loc 3 104 17 view .LVU202
 857 00d0 F0EE670A 		vmov.f32	s1, s15
 858              	.LVL44:
 108:../eurorack/plaits/dsp/oscillator/variable_shape_oscillator.h ****     } else {
 859              		.loc 3 108 10 view .LVU203
 860 00d4 F6EE007A 		vmov.f32	s15, #5.0e-1
 861 00d8 B9E7     		b	.L16
 862              	.LVL45:
 863              	.L35:
 864              	.LBB346:
 865              	.LBB347:
 866              	.LBI347:
  57:../eurorack/stmlib/dsp/parameter_interpolator.h ****   }
  58:../eurorack/stmlib/dsp/parameter_interpolator.h **** 
  59:../eurorack/stmlib/dsp/parameter_interpolator.h ****   inline float Next() {
 867              		.loc 9 59 16 is_stmt 1 view .LVU204
 868              	.LBB348:
  60:../eurorack/stmlib/dsp/parameter_interpolator.h ****     value_ += increment_;
 869              		.loc 9 60 5 view .LVU205
 870              		.loc 9 60 12 is_stmt 0 view .LVU206
 871 00da DDED047A 		vldr.32	s15, [sp, #16]
 872              	.LBE348:
 873              	.LBE347:
ARM GAS  /var/folders/y7/g6pkzsp12sx54x3s3mvyn15r0000gn/T//ccyV2DV7.s 			page 30


 138:../eurorack/plaits/dsp/oscillator/variable_shape_oscillator.h ****       
 874              		.loc 3 138 51 view .LVU207
 875 00de B7EE008A 		vmov.f32	s16, #1.0e+0
 137:../eurorack/plaits/dsp/oscillator/variable_shape_oscillator.h ****       const float triangle_amount = std::max(1.0f - waveshape * 2.0f, 0.0f);
 876              		.loc 3 137 54 view .LVU208
 877 00e2 B6EE00CA 		vmov.f32	s24, #5.0e-1
 878              	.LBB350:
 144:../eurorack/plaits/dsp/oscillator/variable_shape_oscillator.h ****         if (master_phase_ >= 1.0f) {
 879              		.loc 3 144 23 view .LVU209
 880 00e6 D4ED00DA 		vldr.32	s27, [r4]
 881              	.LBE350:
 882              	.LBB370:
 883              	.LBB349:
 884              		.loc 9 60 12 view .LVU210
 885 00ea 7EEEA7EA 		vadd.f32	s29, s29, s15
 886              	.LVL46:
  61:../eurorack/stmlib/dsp/parameter_interpolator.h ****     return value_;
 887              		.loc 9 61 5 is_stmt 1 view .LVU211
 888              		.loc 9 61 5 is_stmt 0 view .LVU212
 889              	.LBE349:
 890              	.LBE370:
 891              	.LBB371:
 892              	.LBI371:
  59:../eurorack/stmlib/dsp/parameter_interpolator.h ****     value_ += increment_;
 893              		.loc 9 59 16 is_stmt 1 view .LVU213
 894              	.LBB372:
  60:../eurorack/stmlib/dsp/parameter_interpolator.h ****     return value_;
 895              		.loc 9 60 5 view .LVU214
  60:../eurorack/stmlib/dsp/parameter_interpolator.h ****     return value_;
 896              		.loc 9 60 12 is_stmt 0 view .LVU215
 897 00ee DDED037A 		vldr.32	s15, [sp, #12]
 898              	.LBE372:
 899              	.LBE371:
 138:../eurorack/plaits/dsp/oscillator/variable_shape_oscillator.h ****       
 900              		.loc 3 138 51 view .LVU216
 901 00f2 B0EE005A 		vmov.f32	s10, #2.0e+0
 902              	.LBB374:
 903              	.LBB351:
 904              	.LBB352:
 149:../eurorack/plaits/dsp/oscillator/variable_shape_oscillator.h ****               (1.0f - reset_time) * slave_frequency;
 905              		.loc 3 149 40 view .LVU217
 906 00f6 94ED013A 		vldr.32	s6, [r4, #4]
 907              	.LBE352:
 908              	.LBE351:
 909              	.LBE374:
 910              	.LBB375:
 911              	.LBB373:
  60:../eurorack/stmlib/dsp/parameter_interpolator.h ****     return value_;
 912              		.loc 9 60 12 view .LVU218
 913 00fa 7FEEA7FA 		vadd.f32	s31, s31, s15
 914              	.LVL47:
 915              		.loc 9 61 5 is_stmt 1 view .LVU219
 916              		.loc 9 61 5 is_stmt 0 view .LVU220
 917              	.LBE373:
 918              	.LBE375:
 919              	.LBB376:
 920              	.LBI376:
ARM GAS  /var/folders/y7/g6pkzsp12sx54x3s3mvyn15r0000gn/T//ccyV2DV7.s 			page 31


  59:../eurorack/stmlib/dsp/parameter_interpolator.h ****     value_ += increment_;
 921              		.loc 9 59 16 is_stmt 1 view .LVU221
 922              	.LBB377:
  60:../eurorack/stmlib/dsp/parameter_interpolator.h ****     return value_;
 923              		.loc 9 60 5 view .LVU222
  60:../eurorack/stmlib/dsp/parameter_interpolator.h ****     return value_;
 924              		.loc 9 60 12 is_stmt 0 view .LVU223
 925 00fe DDED007A 		vldr.32	s15, [sp]
 926              	.LBE377:
 927              	.LBE376:
 138:../eurorack/plaits/dsp/oscillator/variable_shape_oscillator.h ****       
 928              		.loc 3 138 51 view .LVU224
 929 0102 F0EE48CA 		vmov.f32	s25, s16
 930              	.LBB379:
 931              	.LBB378:
  60:../eurorack/stmlib/dsp/parameter_interpolator.h ****     return value_;
 932              		.loc 9 60 12 view .LVU225
 933 0106 3EEE27EA 		vadd.f32	s28, s28, s15
 934              	.LVL48:
 935              		.loc 9 61 5 is_stmt 1 view .LVU226
 936              		.loc 9 61 5 is_stmt 0 view .LVU227
 937              	.LBE378:
 938              	.LBE379:
 939              	.LBB380:
 940              	.LBI380:
  59:../eurorack/stmlib/dsp/parameter_interpolator.h ****     value_ += increment_;
 941              		.loc 9 59 16 is_stmt 1 view .LVU228
 942              	.LBB381:
  60:../eurorack/stmlib/dsp/parameter_interpolator.h ****     return value_;
 943              		.loc 9 60 5 view .LVU229
  60:../eurorack/stmlib/dsp/parameter_interpolator.h ****     return value_;
 944              		.loc 9 60 12 is_stmt 0 view .LVU230
 945 010a DDED017A 		vldr.32	s15, [sp, #4]
 946              	.LBE381:
 947              	.LBE380:
 948              	.LBB383:
 144:../eurorack/plaits/dsp/oscillator/variable_shape_oscillator.h ****         if (master_phase_ >= 1.0f) {
 949              		.loc 3 144 23 view .LVU231
 950 010e 7EEEADDA 		vadd.f32	s27, s29, s27
 951              	.LBE383:
 952              	.LBB384:
 953              	.LBB382:
  60:../eurorack/stmlib/dsp/parameter_interpolator.h ****     return value_;
 954              		.loc 9 60 12 view .LVU232
 955 0112 3BEE27BA 		vadd.f32	s22, s22, s15
 956              	.LVL49:
 957              		.loc 9 61 5 is_stmt 1 view .LVU233
 958              		.loc 9 61 5 is_stmt 0 view .LVU234
 959              	.LBE382:
 960              	.LBE384:
 137:../eurorack/plaits/dsp/oscillator/variable_shape_oscillator.h ****       const float triangle_amount = std::max(1.0f - waveshape * 2.0f, 0.0f);
 961              		.loc 3 137 19 discriminator 1 view .LVU235
 962 0116 DFEDA07A 		vldr.32	s15, .L53
 141:../eurorack/plaits/dsp/oscillator/variable_shape_oscillator.h **** 
 963              		.loc 3 141 45 view .LVU236
 964 011a 38EE4E7A 		vsub.f32	s14, s16, s28
 140:../eurorack/plaits/dsp/oscillator/variable_shape_oscillator.h ****       const float slope_down = 1.0f / (1.0f - pw);
ARM GAS  /var/folders/y7/g6pkzsp12sx54x3s3mvyn15r0000gn/T//ccyV2DV7.s 			page 32


 965              		.loc 3 140 19 view .LVU237
 966 011e 88EE0E9A 		vdiv.f32	s18, s16, s28
 967              	.LBB385:
 144:../eurorack/plaits/dsp/oscillator/variable_shape_oscillator.h ****         if (master_phase_ >= 1.0f) {
 968              		.loc 3 144 23 view .LVU238
 969 0122 C4ED00DA 		vstr.32	s27, [r4]
 970              	.LBE385:
 138:../eurorack/plaits/dsp/oscillator/variable_shape_oscillator.h ****       
 971              		.loc 3 138 51 view .LVU239
 972 0126 EBEE45CA 		vfms.f32	s25, s22, s10
 137:../eurorack/plaits/dsp/oscillator/variable_shape_oscillator.h ****       const float triangle_amount = std::max(1.0f - waveshape * 2.0f, 0.0f);
 973              		.loc 3 137 54 view .LVU240
 974 012a 7BEE4C8A 		vsub.f32	s17, s22, s24
 141:../eurorack/plaits/dsp/oscillator/variable_shape_oscillator.h **** 
 975              		.loc 3 141 19 view .LVU241
 976 012e C8EE07BA 		vdiv.f32	s23, s16, s14
 137:../eurorack/plaits/dsp/oscillator/variable_shape_oscillator.h ****       const float triangle_amount = std::max(1.0f - waveshape * 2.0f, 0.0f);
 977              		.loc 3 137 19 discriminator 1 view .LVU242
 978 0132 F4EEE78A 		vcmpe.f32	s17, s15
 979 0136 F1EE10FA 		vmrs	APSR_nzcv, FPSCR
 980 013a F4EEE7CA 		vcmpe.f32	s25, s15
 981 013e 48BF     		it	mi
 982 0140 F0EE678A 		vmovmi.f32	s17, s15
 983 0144 F1EE10FA 		vmrs	APSR_nzcv, FPSCR
 984              	.LBB386:
 985              	.LBB366:
 145:../eurorack/plaits/dsp/oscillator/variable_shape_oscillator.h ****           master_phase_ -= 1.0f;
 986              		.loc 3 145 9 view .LVU243
 987 0148 F4EEC8DA 		vcmpe.f32	s27, s16
 988              	.LBE366:
 989              	.LBE386:
 137:../eurorack/plaits/dsp/oscillator/variable_shape_oscillator.h ****       const float triangle_amount = std::max(1.0f - waveshape * 2.0f, 0.0f);
 990              		.loc 3 137 19 discriminator 1 view .LVU244
 991 014c 78EEA88A 		vadd.f32	s17, s17, s17
 992              	.LVL50:
 137:../eurorack/plaits/dsp/oscillator/variable_shape_oscillator.h ****       const float triangle_amount = std::max(1.0f - waveshape * 2.0f, 0.0f);
 993              		.loc 3 137 19 discriminator 1 view .LVU245
 994 0150 48BF     		it	mi
 995 0152 F0EE67CA 		vmovmi.f32	s25, s15
 996              	.LVL51:
 997              	.LBB387:
 998              	.LBB367:
 145:../eurorack/plaits/dsp/oscillator/variable_shape_oscillator.h ****           master_phase_ -= 1.0f;
 999              		.loc 3 145 9 view .LVU246
 1000 0156 F1EE10FA 		vmrs	APSR_nzcv, FPSCR
 1001 015a 57DB     		blt	.L48
 1002              	.LBB363:
 146:../eurorack/plaits/dsp/oscillator/variable_shape_oscillator.h ****           reset_time = master_phase_ / master_frequency;
 1003              		.loc 3 146 25 view .LVU247
 1004 015c 7DEEC8DA 		vsub.f32	s27, s27, s16
 156:../eurorack/plaits/dsp/oscillator/variable_shape_oscillator.h ****             transition_during_reset = true;
 1005              		.loc 3 156 11 view .LVU248
 1006 0160 237C     		ldrb	r3, [r4, #16]	@ zero_extendqisi2
 149:../eurorack/plaits/dsp/oscillator/variable_shape_oscillator.h ****               (1.0f - reset_time) * slave_frequency;
 1007              		.loc 3 149 17 view .LVU249
 1008 0162 B0EE437A 		vmov.f32	s14, s6
 147:../eurorack/plaits/dsp/oscillator/variable_shape_oscillator.h ****       
ARM GAS  /var/folders/y7/g6pkzsp12sx54x3s3mvyn15r0000gn/T//ccyV2DV7.s 			page 33


 1009              		.loc 3 147 22 view .LVU250
 1010 0166 CDEEAE9A 		vdiv.f32	s19, s27, s29
 1011              	.LVL52:
 146:../eurorack/plaits/dsp/oscillator/variable_shape_oscillator.h ****           reset_time = master_phase_ / master_frequency;
 1012              		.loc 3 146 25 view .LVU251
 1013 016a C4ED00DA 		vstr.32	s27, [r4]
 150:../eurorack/plaits/dsp/oscillator/variable_shape_oscillator.h ****           reset = true;
 1014              		.loc 3 150 21 view .LVU252
 1015 016e 38EE694A 		vsub.f32	s8, s16, s19
 149:../eurorack/plaits/dsp/oscillator/variable_shape_oscillator.h ****               (1.0f - reset_time) * slave_frequency;
 1016              		.loc 3 149 17 view .LVU253
 1017 0172 A4EE2F7A 		vfma.f32	s14, s8, s31
 1018              	.LVL53:
 152:../eurorack/plaits/dsp/oscillator/variable_shape_oscillator.h ****             slave_phase_at_reset -= 1.0f;
 1019              		.loc 3 152 11 view .LVU254
 1020 0176 B4EEC87A 		vcmpe.f32	s14, s16
 1021 017a F1EE10FA 		vmrs	APSR_nzcv, FPSCR
 153:../eurorack/plaits/dsp/oscillator/variable_shape_oscillator.h ****             transition_during_reset = true;
 1022              		.loc 3 153 34 view .LVU255
 1023 017e A6BF     		itte	ge
 1024 0180 37EE487A 		vsubge.f32	s14, s14, s16
 1025              	.LVL54:
 154:../eurorack/plaits/dsp/oscillator/variable_shape_oscillator.h ****           }
 1026              		.loc 3 154 37 view .LVU256
 1027 0184 0126     		movge	r6, #1
 1028              	.LBE363:
 1029              	.LBE367:
 1030              	.LBE387:
 126:../eurorack/plaits/dsp/oscillator/variable_shape_oscillator.h ****       float reset_time = 0.0f;
 1031              		.loc 3 126 12 view .LVU257
 1032 0186 0026     		movlt	r6, #0
 1033              	.LVL55:
 1034              	.LBB388:
 1035              	.LBB368:
 1036              	.LBB364:
 156:../eurorack/plaits/dsp/oscillator/variable_shape_oscillator.h ****             transition_during_reset = true;
 1037              		.loc 3 156 11 view .LVU258
 1038 0188 23B9     		cbnz	r3, .L22
 156:../eurorack/plaits/dsp/oscillator/variable_shape_oscillator.h ****             transition_during_reset = true;
 1039              		.loc 3 156 22 discriminator 1 view .LVU259
 1040 018a B4EECE7A 		vcmpe.f32	s14, s28
 1041 018e F1EE10FA 		vmrs	APSR_nzcv, FPSCR
 1042 0192 31DA     		bge	.L40
 1043              	.L22:
 1044              	.LVL56:
 1045              	.LBB353:
 1046              	.LBI353:
 243:../eurorack/plaits/dsp/oscillator/variable_shape_oscillator.h ****   
 244:../eurorack/plaits/dsp/oscillator/variable_shape_oscillator.h ****   inline void set_master_phase(float master_phase) {
 245:../eurorack/plaits/dsp/oscillator/variable_shape_oscillator.h ****     master_phase_ = master_phase;
 246:../eurorack/plaits/dsp/oscillator/variable_shape_oscillator.h ****   }
 247:../eurorack/plaits/dsp/oscillator/variable_shape_oscillator.h ****   
 248:../eurorack/plaits/dsp/oscillator/variable_shape_oscillator.h ****  private:
 249:../eurorack/plaits/dsp/oscillator/variable_shape_oscillator.h ****   inline float ComputeNaiveSample(
 1047              		.loc 3 249 16 is_stmt 1 view .LVU260
 1048              	.LBB354:
 250:../eurorack/plaits/dsp/oscillator/variable_shape_oscillator.h ****       float phase,
ARM GAS  /var/folders/y7/g6pkzsp12sx54x3s3mvyn15r0000gn/T//ccyV2DV7.s 			page 34


 251:../eurorack/plaits/dsp/oscillator/variable_shape_oscillator.h ****       float pw,
 252:../eurorack/plaits/dsp/oscillator/variable_shape_oscillator.h ****       float slope_up,
 253:../eurorack/plaits/dsp/oscillator/variable_shape_oscillator.h ****       float slope_down,
 254:../eurorack/plaits/dsp/oscillator/variable_shape_oscillator.h ****       float triangle_amount,
 255:../eurorack/plaits/dsp/oscillator/variable_shape_oscillator.h ****       float square_amount) const {
 256:../eurorack/plaits/dsp/oscillator/variable_shape_oscillator.h ****     float saw = phase;
 1049              		.loc 3 256 5 view .LVU261
 257:../eurorack/plaits/dsp/oscillator/variable_shape_oscillator.h ****     float square = phase < pw ? 0.0f : 1.0f;
 1050              		.loc 3 257 5 view .LVU262
 1051              		.loc 3 257 31 is_stmt 0 view .LVU263
 1052 0194 B4EECE7A 		vcmpe.f32	s14, s28
 1053 0198 F1EE10FA 		vmrs	APSR_nzcv, FPSCR
 1054 019c 2DD5     		bpl	.L23
 1055              	.LVL57:
 258:../eurorack/plaits/dsp/oscillator/variable_shape_oscillator.h ****     float triangle = phase < pw
 1056              		.loc 3 258 5 is_stmt 1 view .LVU264
 259:../eurorack/plaits/dsp/oscillator/variable_shape_oscillator.h ****         ? phase * slope_up
 1057              		.loc 3 259 9 is_stmt 0 discriminator 1 view .LVU265
 1058 019e 67EE092A 		vmul.f32	s5, s14, s18
 1059 01a2 9FED7D2A 		vldr.32	s4, .L53
 1060              	.LVL58:
 1061              	.L25:
 260:../eurorack/plaits/dsp/oscillator/variable_shape_oscillator.h ****         : 1.0f - (phase - pw) * slope_down;
 261:../eurorack/plaits/dsp/oscillator/variable_shape_oscillator.h ****     saw += (square - saw) * square_amount;
 1062              		.loc 3 261 5 is_stmt 1 view .LVU266
 1063              		.loc 3 261 20 is_stmt 0 view .LVU267
 1064 01a6 32EE472A 		vsub.f32	s4, s4, s14
 1065              	.LBE354:
 1066              	.LBE353:
 151:../eurorack/plaits/dsp/oscillator/variable_shape_oscillator.h ****           if (slave_phase_at_reset >= 1.0f) {
 1067              		.loc 3 151 17 view .LVU268
 1068 01aa 4FF00108 		mov	r8, #1
 1069              	.LBB357:
 1070              	.LBB355:
 1071              		.loc 3 261 9 view .LVU269
 1072 01ae A8EE827A 		vfma.f32	s14, s17, s4
 1073              	.LVL59:
 262:../eurorack/plaits/dsp/oscillator/variable_shape_oscillator.h ****     saw += (triangle - saw) * triangle_amount;
 1074              		.loc 3 262 5 is_stmt 1 view .LVU270
 1075              		.loc 3 262 22 is_stmt 0 view .LVU271
 1076 01b2 72EEC72A 		vsub.f32	s5, s5, s14
 1077              	.LVL60:
 1078              		.loc 3 262 9 view .LVU272
 1079 01b6 ACEEA27A 		vfma.f32	s14, s25, s5
 1080              	.LVL61:
 263:../eurorack/plaits/dsp/oscillator/variable_shape_oscillator.h ****     return saw;
 1081              		.loc 3 263 5 is_stmt 1 view .LVU273
 1082              		.loc 3 263 5 is_stmt 0 view .LVU274
 1083              	.LBE355:
 1084              	.LBE357:
 1085              	.LBB358:
 1086              	.LBI358:
  37:../eurorack/stmlib/dsp/polyblep.h ****   return 0.5f * t * t;
 1087              		.loc 6 37 14 is_stmt 1 view .LVU275
 1088              	.LBB359:
  38:../eurorack/stmlib/dsp/polyblep.h **** }
 1089              		.loc 6 38 3 view .LVU276
ARM GAS  /var/folders/y7/g6pkzsp12sx54x3s3mvyn15r0000gn/T//ccyV2DV7.s 			page 35


  38:../eurorack/stmlib/dsp/polyblep.h **** }
 1090              		.loc 6 38 15 is_stmt 0 view .LVU277
 1091 01ba 69EE8C2A 		vmul.f32	s5, s19, s24
 1092              	.LBE359:
 1093              	.LBE358:
 166:../eurorack/plaits/dsp/oscillator/variable_shape_oscillator.h ****           next_sample -= value * stmlib::NextBlepSample(reset_time);
 1094              		.loc 3 166 23 discriminator 1 view .LVU278
 1095 01be 69EEE22A 		vnmul.f32	s5, s19, s5
 1096 01c2 E7EE224A 		vfma.f32	s9, s14, s5
 1097              	.LVL62:
 1098              	.LBB360:
 1099              	.LBI360:
  41:../eurorack/stmlib/dsp/polyblep.h ****   t = 1.0f - t;
 1100              		.loc 6 41 14 is_stmt 1 view .LVU279
 1101              	.LBB361:
  42:../eurorack/stmlib/dsp/polyblep.h ****   return -0.5f * t * t;
 1102              		.loc 6 42 3 view .LVU280
  43:../eurorack/stmlib/dsp/polyblep.h **** }
 1103              		.loc 6 43 3 view .LVU281
  43:../eurorack/stmlib/dsp/polyblep.h **** }
 1104              		.loc 6 43 16 is_stmt 0 view .LVU282
 1105 01c6 FEEE002A 		vmov.f32	s5, #-5.0e-1
 1106 01ca 64EE222A 		vmul.f32	s5, s8, s5
 1107              	.LBE361:
 1108              	.LBE360:
 167:../eurorack/plaits/dsp/oscillator/variable_shape_oscillator.h ****         }
 1109              		.loc 3 167 23 discriminator 1 view .LVU283
 1110 01ce 24EE624A 		vnmul.f32	s8, s8, s5
 1111              	.LVL63:
 167:../eurorack/plaits/dsp/oscillator/variable_shape_oscillator.h ****         }
 1112              		.loc 3 167 23 discriminator 1 view .LVU284
 1113 01d2 E7EE047A 		vfma.f32	s15, s14, s8
 1114              	.LVL64:
 1115              	.L18:
 167:../eurorack/plaits/dsp/oscillator/variable_shape_oscillator.h ****         }
 1116              		.loc 3 167 23 discriminator 1 view .LVU285
 1117              	.LBE364:
 1118              	.LBE368:
 1119              	.LBE388:
 176:../eurorack/plaits/dsp/oscillator/variable_shape_oscillator.h ****       while (transition_during_reset || !reset) {
 1120              		.loc 3 176 20 view .LVU286
 1121 01d6 3FEE833A 		vadd.f32	s6, s31, s6
 177:../eurorack/plaits/dsp/oscillator/variable_shape_oscillator.h ****         if (!high_) {
 1122              		.loc 3 177 7 view .LVU287
 1123 01da B0EE64AA 		vmov.f32	s20, s9
 176:../eurorack/plaits/dsp/oscillator/variable_shape_oscillator.h ****       while (transition_during_reset || !reset) {
 1124              		.loc 3 176 20 view .LVU288
 1125 01de 84ED013A 		vstr.32	s6, [r4, #4]
 1126              	.LVL65:
 1127              	.L26:
 177:../eurorack/plaits/dsp/oscillator/variable_shape_oscillator.h ****         if (!high_) {
 1128              		.loc 3 177 38 is_stmt 1 view .LVU289
 1129 01e2 C6B9     		cbnz	r6, .L29
 177:../eurorack/plaits/dsp/oscillator/variable_shape_oscillator.h ****         if (!high_) {
 1130              		.loc 3 177 38 is_stmt 0 discriminator 1 view .LVU290
 1131 01e4 B8F1000F 		cmp	r8, #0
 1132 01e8 15D0     		beq	.L29
ARM GAS  /var/folders/y7/g6pkzsp12sx54x3s3mvyn15r0000gn/T//ccyV2DV7.s 			page 36


 1133              	.L30:
 211:../eurorack/plaits/dsp/oscillator/variable_shape_oscillator.h ****         high_ = false;
 1134              		.loc 3 211 35 view .LVU291
 1135 01ea 69EEAF9A 		vmul.f32	s19, s19, s31
 1136              	.LVL66:
 212:../eurorack/plaits/dsp/oscillator/variable_shape_oscillator.h ****       }
 1137              		.loc 3 212 15 view .LVU292
 1138 01ee 0023     		movs	r3, #0
 1139 01f0 2374     		strb	r3, [r4, #16]
 211:../eurorack/plaits/dsp/oscillator/variable_shape_oscillator.h ****         high_ = false;
 1140              		.loc 3 211 22 view .LVU293
 1141 01f2 C4ED019A 		vstr.32	s19, [r4, #4]
 1142 01f6 57E0     		b	.L31
 1143              	.LVL67:
 1144              	.L40:
 1145              	.LBB389:
 1146              	.LBB369:
 1147              	.LBB365:
 157:../eurorack/plaits/dsp/oscillator/variable_shape_oscillator.h ****           }
 1148              		.loc 3 157 37 view .LVU294
 1149 01f8 0126     		movs	r6, #1
 1150              	.LVL68:
 1151              	.L23:
 1152              	.LBB362:
 1153              	.LBB356:
 260:../eurorack/plaits/dsp/oscillator/variable_shape_oscillator.h ****     saw += (square - saw) * square_amount;
 1154              		.loc 3 260 25 view .LVU295
 1155 01fa 37EE4E2A 		vsub.f32	s4, s14, s28
 259:../eurorack/plaits/dsp/oscillator/variable_shape_oscillator.h ****         : 1.0f - (phase - pw) * slope_down;
 1156              		.loc 3 259 9 discriminator 2 view .LVU296
 1157 01fe F0EE482A 		vmov.f32	s5, s16
 1158 0202 EBEEC22A 		vfms.f32	s5, s23, s4
 1159 0206 B7EE002A 		vmov.f32	s4, #1.0e+0
 1160 020a CCE7     		b	.L25
 1161              	.LVL69:
 1162              	.L48:
 259:../eurorack/plaits/dsp/oscillator/variable_shape_oscillator.h ****         : 1.0f - (phase - pw) * slope_down;
 1163              		.loc 3 259 9 discriminator 2 view .LVU297
 1164              	.LBE356:
 1165              	.LBE362:
 1166              	.LBE365:
 1167              	.LBE369:
 1168              	.LBE389:
 126:../eurorack/plaits/dsp/oscillator/variable_shape_oscillator.h ****       float reset_time = 0.0f;
 1169              		.loc 3 126 12 view .LVU298
 1170 020c 0026     		movs	r6, #0
 127:../eurorack/plaits/dsp/oscillator/variable_shape_oscillator.h **** 
 1171              		.loc 3 127 13 view .LVU299
 1172 020e F0EE679A 		vmov.f32	s19, s15
 125:../eurorack/plaits/dsp/oscillator/variable_shape_oscillator.h ****       bool transition_during_reset = false;
 1173              		.loc 3 125 12 view .LVU300
 1174 0212 B046     		mov	r8, r6
 1175 0214 DFE7     		b	.L18
 1176              	.LVL70:
 1177              	.L29:
 1178              	.LBB390:
 178:../eurorack/plaits/dsp/oscillator/variable_shape_oscillator.h ****           if (slave_phase_ < pw) {
ARM GAS  /var/folders/y7/g6pkzsp12sx54x3s3mvyn15r0000gn/T//ccyV2DV7.s 			page 37


 1179              		.loc 3 178 9 view .LVU301
 1180 0216 237C     		ldrb	r3, [r4, #16]	@ zero_extendqisi2
 1181              	.LBB391:
 179:../eurorack/plaits/dsp/oscillator/variable_shape_oscillator.h ****             break;
 1182              		.loc 3 179 15 view .LVU302
 1183 0218 94ED01DA 		vldr.32	s26, [r4, #4]
 1184              	.LBE391:
 178:../eurorack/plaits/dsp/oscillator/variable_shape_oscillator.h ****           if (slave_phase_ < pw) {
 1185              		.loc 3 178 9 view .LVU303
 1186 021c E3BB     		cbnz	r3, .L27
 1187              	.LBB402:
 179:../eurorack/plaits/dsp/oscillator/variable_shape_oscillator.h ****             break;
 1188              		.loc 3 179 11 view .LVU304
 1189 021e B4EECDEA 		vcmpe.f32	s28, s26
 1190 0222 F1EE10FA 		vmrs	APSR_nzcv, FPSCR
 1191 0226 3CDC     		bgt	.L28
 182:../eurorack/plaits/dsp/oscillator/variable_shape_oscillator.h ****           float triangle_step = (slope_up + slope_down) * slave_frequency;
 1192              		.loc 3 182 57 view .LVU305
 1193 0228 94ED037A 		vldr.32	s14, [r4, #12]
 182:../eurorack/plaits/dsp/oscillator/variable_shape_oscillator.h ****           float triangle_step = (slope_up + slope_down) * slave_frequency;
 1194              		.loc 3 182 35 view .LVU306
 1195 022c 3DEE4E3A 		vsub.f32	s6, s26, s28
 183:../eurorack/plaits/dsp/oscillator/variable_shape_oscillator.h ****           triangle_step *= triangle_amount;
 1196              		.loc 3 183 43 view .LVU307
 1197 0230 39EE2BFA 		vadd.f32	s30, s18, s23
 1198 0234 8DED075A 		vstr.32	s10, [sp, #28]	@ int
 182:../eurorack/plaits/dsp/oscillator/variable_shape_oscillator.h ****           float triangle_step = (slope_up + slope_down) * slave_frequency;
 1199              		.loc 3 182 57 view .LVU308
 1200 0238 37EE4E7A 		vsub.f32	s14, s14, s28
 183:../eurorack/plaits/dsp/oscillator/variable_shape_oscillator.h ****           triangle_step *= triangle_amount;
 1201              		.loc 3 183 17 view .LVU309
 1202 023c 2FEE2FFA 		vmul.f32	s30, s30, s31
 182:../eurorack/plaits/dsp/oscillator/variable_shape_oscillator.h ****           float triangle_step = (slope_up + slope_down) * slave_frequency;
 1203              		.loc 3 182 62 view .LVU310
 1204 0240 37EE2F7A 		vadd.f32	s14, s14, s31
 184:../eurorack/plaits/dsp/oscillator/variable_shape_oscillator.h ****           
 1205              		.loc 3 184 25 view .LVU311
 1206 0244 2CEE8FFA 		vmul.f32	s30, s25, s30
 182:../eurorack/plaits/dsp/oscillator/variable_shape_oscillator.h ****           float triangle_step = (slope_up + slope_down) * slave_frequency;
 1207              		.loc 3 182 17 view .LVU312
 1208 0248 C3EE074A 		vdiv.f32	s9, s6, s14
 1209              	.LVL71:
 1210              	.LBB392:
 1211              	.LBI392:
  37:../eurorack/stmlib/dsp/polyblep.h ****   return 0.5f * t * t;
 1212              		.loc 6 37 14 is_stmt 1 view .LVU313
 1213              	.LBB393:
  38:../eurorack/stmlib/dsp/polyblep.h **** }
 1214              		.loc 6 38 3 view .LVU314
  38:../eurorack/stmlib/dsp/polyblep.h **** }
 1215              		.loc 6 38 15 is_stmt 0 view .LVU315
 1216 024c 24EE8C7A 		vmul.f32	s14, s9, s24
 1217              	.LBE393:
 1218              	.LBE392:
 1219              	.LBB395:
 1220              	.LBB396:
  42:../eurorack/stmlib/dsp/polyblep.h ****   return -0.5f * t * t;
ARM GAS  /var/folders/y7/g6pkzsp12sx54x3s3mvyn15r0000gn/T//ccyV2DV7.s 			page 38


 1221              		.loc 6 42 5 view .LVU316
 1222 0250 CDED064A 		vstr.32	s9, [sp, #24]	@ int
 1223 0254 38EE640A 		vsub.f32	s0, s16, s9
 1224              	.LBE396:
 1225              	.LBE395:
 1226              	.LBB398:
 1227              	.LBB394:
  38:../eurorack/stmlib/dsp/polyblep.h **** }
 1228              		.loc 6 38 21 view .LVU317
 1229 0258 27EE247A 		vmul.f32	s14, s14, s9
 1230              	.LBE394:
 1231              	.LBE398:
 186:../eurorack/plaits/dsp/oscillator/variable_shape_oscillator.h ****           next_sample += square_amount * stmlib::NextBlepSample(t);
 1232              		.loc 3 186 23 discriminator 1 view .LVU318
 1233 025c A8EE87AA 		vfma.f32	s20, s17, s14
 1234              	.LVL72:
 1235              	.LBB399:
 1236              	.LBI395:
  41:../eurorack/stmlib/dsp/polyblep.h ****   t = 1.0f - t;
 1237              		.loc 6 41 14 is_stmt 1 view .LVU319
 1238              	.LBB397:
  42:../eurorack/stmlib/dsp/polyblep.h ****   return -0.5f * t * t;
 1239              		.loc 6 42 3 view .LVU320
  43:../eurorack/stmlib/dsp/polyblep.h **** }
 1240              		.loc 6 43 3 view .LVU321
  43:../eurorack/stmlib/dsp/polyblep.h **** }
 1241              		.loc 6 43 16 is_stmt 0 view .LVU322
 1242 0260 BEEE007A 		vmov.f32	s14, #-5.0e-1
 1243 0264 20EE077A 		vmul.f32	s14, s0, s14
  43:../eurorack/stmlib/dsp/polyblep.h **** }
 1244              		.loc 6 43 22 view .LVU323
 1245 0268 27EE007A 		vmul.f32	s14, s14, s0
 1246              	.LBE397:
 1247              	.LBE399:
 187:../eurorack/plaits/dsp/oscillator/variable_shape_oscillator.h ****           this_sample -= triangle_step * stmlib::ThisIntegratedBlepSample(t);
 1248              		.loc 3 187 23 discriminator 1 view .LVU324
 1249 026c E8EE877A 		vfma.f32	s15, s17, s14
 1250              	.LVL73:
 187:../eurorack/plaits/dsp/oscillator/variable_shape_oscillator.h ****           this_sample -= triangle_step * stmlib::ThisIntegratedBlepSample(t);
 1251              		.loc 3 187 23 discriminator 1 view .LVU325
 1252 0270 CDED057A 		vstr.32	s15, [sp, #20]	@ int
 1253              	.LVL74:
 1254              	.LBB400:
 1255              	.LBI400:
  52:../eurorack/stmlib/dsp/polyblep.h **** 
  53:../eurorack/stmlib/dsp/polyblep.h **** inline float ThisIntegratedBlepSample(float t) {
 1256              		.loc 6 53 14 is_stmt 1 view .LVU326
 1257              	.LBB401:
  54:../eurorack/stmlib/dsp/polyblep.h ****   return NextIntegratedBlepSample(1.0f - t);
 1258              		.loc 6 54 3 view .LVU327
 1259              		.loc 6 54 34 is_stmt 0 view .LVU328
 1260 0274 FFF7FEFF 		bl	_ZN6stmlib24NextIntegratedBlepSampleEf
 1261              	.LVL75:
 1262              		.loc 6 54 34 view .LVU329
 1263              	.LBE401:
 1264              	.LBE400:
 189:../eurorack/plaits/dsp/oscillator/variable_shape_oscillator.h ****           high_ = true;
ARM GAS  /var/folders/y7/g6pkzsp12sx54x3s3mvyn15r0000gn/T//ccyV2DV7.s 			page 39


 1265              		.loc 3 189 74 view .LVU330
 1266 0278 DDED064A 		vldr.32	s9, [sp, #24]	@ int
 188:../eurorack/plaits/dsp/oscillator/variable_shape_oscillator.h ****           next_sample -= triangle_step * stmlib::NextIntegratedBlepSample(t);
 1267              		.loc 3 188 23 discriminator 1 view .LVU331
 1268 027c AFEE40AA 		vfms.f32	s20, s30, s0
 1269              	.LVL76:
 189:../eurorack/plaits/dsp/oscillator/variable_shape_oscillator.h ****           high_ = true;
 1270              		.loc 3 189 74 view .LVU332
 1271 0280 B0EE640A 		vmov.f32	s0, s9
 1272 0284 FFF7FEFF 		bl	_ZN6stmlib24NextIntegratedBlepSampleEf
 1273              	.LVL77:
 189:../eurorack/plaits/dsp/oscillator/variable_shape_oscillator.h ****           high_ = true;
 1274              		.loc 3 189 23 discriminator 1 view .LVU333
 1275 0288 DDED057A 		vldr.32	s15, [sp, #20]	@ int
 190:../eurorack/plaits/dsp/oscillator/variable_shape_oscillator.h ****         }
 1276              		.loc 3 190 17 view .LVU334
 1277 028c 0123     		movs	r3, #1
 1278              	.LBE402:
 1279 028e 9DED075A 		vldr.32	s10, [sp, #28]	@ int
 1280              	.LBB403:
 189:../eurorack/plaits/dsp/oscillator/variable_shape_oscillator.h ****           high_ = true;
 1281              		.loc 3 189 23 discriminator 1 view .LVU335
 1282 0292 E0EE4F7A 		vfms.f32	s15, s0, s30
 1283              	.LVL78:
 190:../eurorack/plaits/dsp/oscillator/variable_shape_oscillator.h ****         }
 1284              		.loc 3 190 17 view .LVU336
 1285 0296 2374     		strb	r3, [r4, #16]
 1286              	.LVL79:
 1287              	.L27:
 190:../eurorack/plaits/dsp/oscillator/variable_shape_oscillator.h ****         }
 1288              		.loc 3 190 17 view .LVU337
 1289              	.LBE403:
 1290              	.LBE390:
 1291              	.LBB404:
 1292              	.LBB405:
 194:../eurorack/plaits/dsp/oscillator/variable_shape_oscillator.h ****             break;
 1293              		.loc 3 194 11 view .LVU338
 1294 0298 B4EEC8DA 		vcmpe.f32	s26, s16
 1295 029c F1EE10FA 		vmrs	APSR_nzcv, FPSCR
 1296 02a0 47D5     		bpl	.L52
 1297              	.L28:
 194:../eurorack/plaits/dsp/oscillator/variable_shape_oscillator.h ****             break;
 1298              		.loc 3 194 11 view .LVU339
 1299              	.LBE405:
 1300              	.LBE404:
 210:../eurorack/plaits/dsp/oscillator/variable_shape_oscillator.h ****         slave_phase_ = reset_time * slave_frequency;
 1301              		.loc 3 210 7 view .LVU340
 1302 02a2 B8F1000F 		cmp	r8, #0
 1303 02a6 A0D1     		bne	.L30
 1304              	.LVL80:
 1305              	.L31:
 215:../eurorack/plaits/dsp/oscillator/variable_shape_oscillator.h ****           slave_phase_,
 1306              		.loc 3 215 40 view .LVU341
 1307 02a8 94ED017A 		vldr.32	s14, [r4, #4]
 1308              	.LVL81:
 1309              	.LBB417:
 1310              	.LBI417:
ARM GAS  /var/folders/y7/g6pkzsp12sx54x3s3mvyn15r0000gn/T//ccyV2DV7.s 			page 40


 249:../eurorack/plaits/dsp/oscillator/variable_shape_oscillator.h ****       float phase,
 1311              		.loc 3 249 16 is_stmt 1 view .LVU342
 1312              	.LBB418:
 256:../eurorack/plaits/dsp/oscillator/variable_shape_oscillator.h ****     float square = phase < pw ? 0.0f : 1.0f;
 1313              		.loc 3 256 5 view .LVU343
 257:../eurorack/plaits/dsp/oscillator/variable_shape_oscillator.h ****     float triangle = phase < pw
 1314              		.loc 3 257 5 view .LVU344
 1315              	.LBE418:
 1316              	.LBE417:
 1317              	.LBB422:
 1318              	.LBB423:
 1319              	.LBB424:
 233:../eurorack/plaits/dsp/oscillator/variable_shape_oscillator.h ****         }
 1320              		.loc 3 233 30 is_stmt 0 view .LVU345
 1321 02ac B0EE6D4A 		vmov.f32	s8, s27
 233:../eurorack/plaits/dsp/oscillator/variable_shape_oscillator.h ****         }
 1322              		.loc 3 233 51 view .LVU346
 1323 02b0 7EEE4C6A 		vsub.f32	s13, s28, s24
 1324              	.LBE424:
 1325              	.LBE423:
 1326              	.LBE422:
 222:../eurorack/plaits/dsp/oscillator/variable_shape_oscillator.h ****       
 1327              		.loc 3 222 20 view .LVU347
 1328 02b4 84ED03EA 		vstr.32	s28, [r4, #12]
 1329              	.LBB439:
 1330              	.LBB419:
 257:../eurorack/plaits/dsp/oscillator/variable_shape_oscillator.h ****     float triangle = phase < pw
 1331              		.loc 3 257 31 view .LVU348
 1332 02b8 B4EECE7A 		vcmpe.f32	s14, s28
 1333              	.LBE419:
 1334              	.LBE439:
 1335              	.LBB440:
 1336              	.LBB436:
 1337              	.LBB425:
 233:../eurorack/plaits/dsp/oscillator/variable_shape_oscillator.h ****         }
 1338              		.loc 3 233 47 view .LVU349
 1339 02bc F0EEE66A 		vabs.f32	s13, s13
 1340              	.LBE425:
 1341              	.LBE436:
 1342              	.LBE440:
 1343              	.LBB441:
 1344              	.LBB420:
 257:../eurorack/plaits/dsp/oscillator/variable_shape_oscillator.h ****     float triangle = phase < pw
 1345              		.loc 3 257 31 view .LVU350
 1346 02c0 F1EE10FA 		vmrs	APSR_nzcv, FPSCR
 1347              	.LVL82:
 258:../eurorack/plaits/dsp/oscillator/variable_shape_oscillator.h ****         ? phase * slope_up
 1348              		.loc 3 258 5 is_stmt 1 view .LVU351
 260:../eurorack/plaits/dsp/oscillator/variable_shape_oscillator.h ****     saw += (square - saw) * square_amount;
 1349              		.loc 3 260 25 is_stmt 0 view .LVU352
 1350 02c4 55BF     		itete	pl
 1351 02c6 77EE4E4A 		vsubpl.f32	s9, s14, s28
 257:../eurorack/plaits/dsp/oscillator/variable_shape_oscillator.h ****     float triangle = phase < pw
 1352              		.loc 3 257 31 discriminator 1 view .LVU353
 1353 02ca DFED334A 		vldrmi.32	s9, .L53
 1354              	.LVL83:
 258:../eurorack/plaits/dsp/oscillator/variable_shape_oscillator.h ****         ? phase * slope_up
ARM GAS  /var/folders/y7/g6pkzsp12sx54x3s3mvyn15r0000gn/T//ccyV2DV7.s 			page 41


 1355              		.loc 3 258 5 is_stmt 1 view .LVU354
 259:../eurorack/plaits/dsp/oscillator/variable_shape_oscillator.h ****         : 1.0f - (phase - pw) * slope_down;
 1356              		.loc 3 259 9 is_stmt 0 discriminator 2 view .LVU355
 1357 02ce B0EE489A 		vmovpl.f32	s18, s16
 1358              	.LVL84:
 259:../eurorack/plaits/dsp/oscillator/variable_shape_oscillator.h ****         : 1.0f - (phase - pw) * slope_down;
 1359              		.loc 3 259 9 discriminator 1 view .LVU356
 1360 02d2 27EE099A 		vmulmi.f32	s18, s14, s18
 1361              	.LBE420:
 1362              	.LBE441:
 1363              	.LBB442:
 1364              	.LBB437:
 1365              	.LBB426:
 228:../eurorack/plaits/dsp/oscillator/variable_shape_oscillator.h ****           this_sample *= w * (2.0f - w);
 1366              		.loc 3 228 40 view .LVU357
 1367 02d6 38EE6D8A 		vsub.f32	s16, s16, s27
 1368              	.LVL85:
 228:../eurorack/plaits/dsp/oscillator/variable_shape_oscillator.h ****           this_sample *= w * (2.0f - w);
 1369              		.loc 3 228 40 view .LVU358
 1370              	.LBE426:
 1371              	.LBE437:
 1372              	.LBE442:
 1373              	.LBB443:
 1374              	.LBB421:
 259:../eurorack/plaits/dsp/oscillator/variable_shape_oscillator.h ****         : 1.0f - (phase - pw) * slope_down;
 1375              		.loc 3 259 9 discriminator 2 view .LVU359
 1376 02da 5CBF     		itt	pl
 1377 02dc ABEEE49A 		vfmspl.f32	s18, s23, s9
 257:../eurorack/plaits/dsp/oscillator/variable_shape_oscillator.h ****     float triangle = phase < pw
 1378              		.loc 3 257 31 discriminator 2 view .LVU360
 1379 02e0 F7EE004A 		vmovpl.f32	s9, #1.0e+0
 1380              	.LVL86:
 261:../eurorack/plaits/dsp/oscillator/variable_shape_oscillator.h ****     saw += (triangle - saw) * triangle_amount;
 1381              		.loc 3 261 5 is_stmt 1 view .LVU361
 261:../eurorack/plaits/dsp/oscillator/variable_shape_oscillator.h ****     saw += (triangle - saw) * triangle_amount;
 1382              		.loc 3 261 20 is_stmt 0 view .LVU362
 1383 02e4 74EEC74A 		vsub.f32	s9, s9, s14
 261:../eurorack/plaits/dsp/oscillator/variable_shape_oscillator.h ****     saw += (triangle - saw) * triangle_amount;
 1384              		.loc 3 261 9 view .LVU363
 1385 02e8 A8EEA47A 		vfma.f32	s14, s17, s9
 1386              	.LVL87:
 262:../eurorack/plaits/dsp/oscillator/variable_shape_oscillator.h ****     return saw;
 1387              		.loc 3 262 5 is_stmt 1 view .LVU364
 262:../eurorack/plaits/dsp/oscillator/variable_shape_oscillator.h ****     return saw;
 1388              		.loc 3 262 22 is_stmt 0 view .LVU365
 1389 02ec 39EE479A 		vsub.f32	s18, s18, s14
 1390              	.LVL88:
 262:../eurorack/plaits/dsp/oscillator/variable_shape_oscillator.h ****     return saw;
 1391              		.loc 3 262 9 view .LVU366
 1392 02f0 ACEE897A 		vfma.f32	s14, s25, s18
 1393              	.LVL89:
 1394              		.loc 3 263 5 is_stmt 1 view .LVU367
 1395              		.loc 3 263 5 is_stmt 0 view .LVU368
 1396              	.LBE421:
 1397              	.LBE443:
 215:../eurorack/plaits/dsp/oscillator/variable_shape_oscillator.h ****           slave_phase_,
 1398              		.loc 3 215 19 discriminator 1 view .LVU369
ARM GAS  /var/folders/y7/g6pkzsp12sx54x3s3mvyn15r0000gn/T//ccyV2DV7.s 			page 42


 1399 02f4 77EE274A 		vadd.f32	s9, s14, s15
 1400              	.LVL90:
 1401              	.LBB444:
 1402              	.LBB438:
 1403              	.LBB427:
 232:../eurorack/plaits/dsp/oscillator/variable_shape_oscillator.h ****           phasor += (p2 * p2 - phasor) * fabsf(pw - 0.5f) * 2.0f;
 1404              		.loc 3 232 23 view .LVU370
 1405 02f8 2DEEAD7A 		vmul.f32	s14, s27, s27
 228:../eurorack/plaits/dsp/oscillator/variable_shape_oscillator.h ****           this_sample *= w * (2.0f - w);
 1406              		.loc 3 228 32 view .LVU371
 1407 02fc F1EE007A 		vmov.f32	s15, #4.0e+0
 233:../eurorack/plaits/dsp/oscillator/variable_shape_oscillator.h ****         }
 1408              		.loc 3 233 30 view .LVU372
 1409 0300 97EE074A 		vfnms.f32	s8, s14, s14
 1410              	.LBE427:
 1411              	.LBB428:
 1412              	.LBB429:
  60:../eurorack/stmlib/dsp/parameter_interpolator.h ****     return value_;
 1413              		.loc 9 60 12 view .LVU373
 1414 0304 9DED027A 		vldr.32	s14, [sp, #8]
 1415              	.LBE429:
 1416              	.LBE428:
 1417              	.LBB432:
 228:../eurorack/plaits/dsp/oscillator/variable_shape_oscillator.h ****           this_sample *= w * (2.0f - w);
 1418              		.loc 3 228 32 view .LVU374
 1419 0308 28EE278A 		vmul.f32	s16, s16, s15
 1420              	.LBE432:
 1421              	.LBB433:
 1422              	.LBB430:
  60:../eurorack/stmlib/dsp/parameter_interpolator.h ****     return value_;
 1423              		.loc 9 60 12 view .LVU375
 1424 030c 7AEE87AA 		vadd.f32	s21, s21, s14
 1425              	.LVL91:
  60:../eurorack/stmlib/dsp/parameter_interpolator.h ****     return value_;
 1426              		.loc 9 60 12 view .LVU376
 1427              	.LBE430:
 1428              	.LBE433:
 1429              	.LBB434:
 228:../eurorack/plaits/dsp/oscillator/variable_shape_oscillator.h ****           this_sample *= w * (2.0f - w);
 1430              		.loc 3 228 23 view .LVU377
 1431 0310 28EE2D8A 		vmul.f32	s16, s16, s27
 1432              	.LVL92:
 233:../eurorack/plaits/dsp/oscillator/variable_shape_oscillator.h ****         }
 1433              		.loc 3 233 40 view .LVU378
 1434 0314 66EE846A 		vmul.f32	s13, s13, s8
 229:../eurorack/plaits/dsp/oscillator/variable_shape_oscillator.h ****           
 1435              		.loc 3 229 36 view .LVU379
 1436 0318 75EE487A 		vsub.f32	s15, s10, s16
 233:../eurorack/plaits/dsp/oscillator/variable_shape_oscillator.h ****         }
 1437              		.loc 3 233 18 view .LVU380
 1438 031c E6EE85DA 		vfma.f32	s27, s13, s10
 229:../eurorack/plaits/dsp/oscillator/variable_shape_oscillator.h ****           
 1439              		.loc 3 229 28 view .LVU381
 1440 0320 67EE887A 		vmul.f32	s15, s15, s16
 229:../eurorack/plaits/dsp/oscillator/variable_shape_oscillator.h ****           
 1441              		.loc 3 229 23 view .LVU382
 1442 0324 67EE8A7A 		vmul.f32	s15, s15, s20
ARM GAS  /var/folders/y7/g6pkzsp12sx54x3s3mvyn15r0000gn/T//ccyV2DV7.s 			page 43


 1443              	.LVL93:
 229:../eurorack/plaits/dsp/oscillator/variable_shape_oscillator.h ****           
 1444              		.loc 3 229 23 view .LVU383
 1445              	.LBE434:
 1446              	.LBB435:
 1447              	.LBI428:
  59:../eurorack/stmlib/dsp/parameter_interpolator.h ****     value_ += increment_;
 1448              		.loc 9 59 16 is_stmt 1 view .LVU384
 1449              	.LBB431:
  60:../eurorack/stmlib/dsp/parameter_interpolator.h ****     return value_;
 1450              		.loc 9 60 5 view .LVU385
 1451              		.loc 9 61 5 view .LVU386
 1452              		.loc 9 61 5 is_stmt 0 view .LVU387
 1453              	.LBE431:
 1454              	.LBE435:
 235:../eurorack/plaits/dsp/oscillator/variable_shape_oscillator.h ****       } else {
 1455              		.loc 3 235 25 discriminator 1 view .LVU388
 1456 0328 E7EEAADA 		vfma.f32	s27, s15, s21
 1457              	.LVL94:
 235:../eurorack/plaits/dsp/oscillator/variable_shape_oscillator.h ****       } else {
 1458              		.loc 3 235 16 discriminator 1 view .LVU389
 1459 032c E7EC01DA 		vstmia.32	r7!, {s27}
 1460              	.LVL95:
 235:../eurorack/plaits/dsp/oscillator/variable_shape_oscillator.h ****       } else {
 1461              		.loc 3 235 16 discriminator 1 view .LVU390
 1462              	.LBE438:
 1463 0330 BBE6     		b	.L17
 1464              	.LVL96:
 1465              	.L52:
 235:../eurorack/plaits/dsp/oscillator/variable_shape_oscillator.h ****       } else {
 1466              		.loc 3 235 16 discriminator 1 view .LVU391
 1467              	.LBE444:
 1468              	.LBB445:
 1469              	.LBB416:
 197:../eurorack/plaits/dsp/oscillator/variable_shape_oscillator.h ****           float t = slave_phase_ / slave_frequency;
 1470              		.loc 3 197 24 view .LVU392
 1471 0332 3DEE48DA 		vsub.f32	s26, s26, s16
 1472 0336 8DED065A 		vstr.32	s10, [sp, #24]	@ int
 202:../eurorack/plaits/dsp/oscillator/variable_shape_oscillator.h ****           next_sample -= (1.0f - triangle_amount) * stmlib::NextBlepSample(t);
 1473              		.loc 3 202 32 view .LVU393
 1474 033a 78EE6C4A 		vsub.f32	s9, s16, s25
 198:../eurorack/plaits/dsp/oscillator/variable_shape_oscillator.h ****           float triangle_step = (slope_up + slope_down) * slave_frequency;
 1475              		.loc 3 198 17 view .LVU394
 1476 033e 8DEE2FFA 		vdiv.f32	s30, s26, s31
 1477              	.LVL97:
 197:../eurorack/plaits/dsp/oscillator/variable_shape_oscillator.h ****           float t = slave_phase_ / slave_frequency;
 1478              		.loc 3 197 24 view .LVU395
 1479 0342 84ED01DA 		vstr.32	s26, [r4, #4]
 199:../eurorack/plaits/dsp/oscillator/variable_shape_oscillator.h ****           triangle_step *= triangle_amount;
 1480              		.loc 3 199 43 view .LVU396
 1481 0346 39EE2BDA 		vadd.f32	s26, s18, s23
 199:../eurorack/plaits/dsp/oscillator/variable_shape_oscillator.h ****           triangle_step *= triangle_amount;
 1482              		.loc 3 199 17 view .LVU397
 1483 034a 2DEE2FDA 		vmul.f32	s26, s26, s31
 1484              	.LVL98:
 200:../eurorack/plaits/dsp/oscillator/variable_shape_oscillator.h **** 
 1485              		.loc 3 200 25 view .LVU398
ARM GAS  /var/folders/y7/g6pkzsp12sx54x3s3mvyn15r0000gn/T//ccyV2DV7.s 			page 44


 1486 034e 2CEE8DDA 		vmul.f32	s26, s25, s26
 1487              	.LVL99:
 1488              	.LBB406:
 1489              	.LBI406:
  37:../eurorack/stmlib/dsp/polyblep.h ****   return 0.5f * t * t;
 1490              		.loc 6 37 14 is_stmt 1 view .LVU399
 1491              	.LBB407:
  38:../eurorack/stmlib/dsp/polyblep.h **** }
 1492              		.loc 6 38 3 view .LVU400
  38:../eurorack/stmlib/dsp/polyblep.h **** }
 1493              		.loc 6 38 15 is_stmt 0 view .LVU401
 1494 0352 2FEE0C7A 		vmul.f32	s14, s30, s24
 1495              	.LBE407:
 1496              	.LBE406:
 1497              	.LBB409:
 1498              	.LBB410:
  42:../eurorack/stmlib/dsp/polyblep.h ****   return -0.5f * t * t;
 1499              		.loc 6 42 5 view .LVU402
 1500 0356 38EE4F0A 		vsub.f32	s0, s16, s30
 1501              	.LBE410:
 1502              	.LBE409:
 1503              	.LBB412:
 1504              	.LBB408:
  38:../eurorack/stmlib/dsp/polyblep.h **** }
 1505              		.loc 6 38 21 view .LVU403
 1506 035a 27EE0F7A 		vmul.f32	s14, s14, s30
 1507              	.LBE408:
 1508              	.LBE412:
 202:../eurorack/plaits/dsp/oscillator/variable_shape_oscillator.h ****           next_sample -= (1.0f - triangle_amount) * stmlib::NextBlepSample(t);
 1509              		.loc 3 202 23 discriminator 1 view .LVU404
 1510 035e A4EEC7AA 		vfms.f32	s20, s9, s14
 1511              	.LVL100:
 1512              	.LBB413:
 1513              	.LBI409:
  41:../eurorack/stmlib/dsp/polyblep.h ****   t = 1.0f - t;
 1514              		.loc 6 41 14 is_stmt 1 view .LVU405
 1515              	.LBB411:
  42:../eurorack/stmlib/dsp/polyblep.h ****   return -0.5f * t * t;
 1516              		.loc 6 42 3 view .LVU406
  43:../eurorack/stmlib/dsp/polyblep.h **** }
 1517              		.loc 6 43 3 view .LVU407
  43:../eurorack/stmlib/dsp/polyblep.h **** }
 1518              		.loc 6 43 16 is_stmt 0 view .LVU408
 1519 0362 BEEE007A 		vmov.f32	s14, #-5.0e-1
 1520 0366 20EE077A 		vmul.f32	s14, s0, s14
  43:../eurorack/stmlib/dsp/polyblep.h **** }
 1521              		.loc 6 43 22 view .LVU409
 1522 036a 27EE007A 		vmul.f32	s14, s14, s0
 1523              	.LBE411:
 1524              	.LBE413:
 203:../eurorack/plaits/dsp/oscillator/variable_shape_oscillator.h ****           this_sample += triangle_step * stmlib::ThisIntegratedBlepSample(t);
 1525              		.loc 3 203 23 discriminator 1 view .LVU410
 1526 036e E4EEC77A 		vfms.f32	s15, s9, s14
 1527              	.LVL101:
 203:../eurorack/plaits/dsp/oscillator/variable_shape_oscillator.h ****           this_sample += triangle_step * stmlib::ThisIntegratedBlepSample(t);
 1528              		.loc 3 203 23 discriminator 1 view .LVU411
 1529 0372 CDED057A 		vstr.32	s15, [sp, #20]	@ int
ARM GAS  /var/folders/y7/g6pkzsp12sx54x3s3mvyn15r0000gn/T//ccyV2DV7.s 			page 45


 1530              	.LVL102:
 1531              	.LBB414:
 1532              	.LBI414:
  53:../eurorack/stmlib/dsp/polyblep.h ****   return NextIntegratedBlepSample(1.0f - t);
 1533              		.loc 6 53 14 is_stmt 1 view .LVU412
 1534              	.LBB415:
 1535              		.loc 6 54 3 view .LVU413
 1536              		.loc 6 54 34 is_stmt 0 view .LVU414
 1537 0376 FFF7FEFF 		bl	_ZN6stmlib24NextIntegratedBlepSampleEf
 1538              	.LVL103:
 1539              		.loc 6 54 34 view .LVU415
 1540              	.LBE415:
 1541              	.LBE414:
 204:../eurorack/plaits/dsp/oscillator/variable_shape_oscillator.h ****           next_sample += triangle_step * stmlib::NextIntegratedBlepSample(t);
 1542              		.loc 3 204 23 discriminator 1 view .LVU416
 1543 037a ADEE00AA 		vfma.f32	s20, s26, s0
 1544              	.LVL104:
 205:../eurorack/plaits/dsp/oscillator/variable_shape_oscillator.h ****           high_ = false;
 1545              		.loc 3 205 74 view .LVU417
 1546 037e B0EE4F0A 		vmov.f32	s0, s30
 1547 0382 FFF7FEFF 		bl	_ZN6stmlib24NextIntegratedBlepSampleEf
 1548              	.LVL105:
 205:../eurorack/plaits/dsp/oscillator/variable_shape_oscillator.h ****           high_ = false;
 1549              		.loc 3 205 23 discriminator 1 view .LVU418
 1550 0386 DDED057A 		vldr.32	s15, [sp, #20]	@ int
 206:../eurorack/plaits/dsp/oscillator/variable_shape_oscillator.h ****         }
 1551              		.loc 3 206 17 view .LVU419
 1552 038a 0023     		movs	r3, #0
 1553 038c 9DED065A 		vldr.32	s10, [sp, #24]	@ int
 205:../eurorack/plaits/dsp/oscillator/variable_shape_oscillator.h ****           high_ = false;
 1554              		.loc 3 205 23 discriminator 1 view .LVU420
 1555 0390 E0EE0D7A 		vfma.f32	s15, s0, s26
 1556              	.LVL106:
 206:../eurorack/plaits/dsp/oscillator/variable_shape_oscillator.h ****         }
 1557              		.loc 3 206 17 view .LVU421
 1558 0394 2374     		strb	r3, [r4, #16]
 1559              	.LBE416:
 1560 0396 24E7     		b	.L26
 1561              	.L54:
 1562              		.align	2
 1563              	.L53:
 1564 0398 00000000 		.word	0
 1565              	.LBE445:
 1566              	.LBE346:
 1567              		.cfi_endproc
 1568              	.LFE1339:
 1570              		.section	.text._ZN6plaits23VariableShapeOscillator6RenderILb0ELb1EEEvfffffPfj,"axG",%progbits,_ZN6
 1571              		.align	1
 1572              		.weak	_ZN6plaits23VariableShapeOscillator6RenderILb0ELb1EEEvfffffPfj
 1573              		.syntax unified
 1574              		.thumb
 1575              		.thumb_func
 1577              	_ZN6plaits23VariableShapeOscillator6RenderILb0ELb1EEEvfffffPfj:
 1578              	.LVL107:
 1579              	.LFB1340:
  92:../eurorack/plaits/dsp/oscillator/variable_shape_oscillator.h ****       float master_frequency,
 1580              		.loc 3 92 8 is_stmt 1 view -0
ARM GAS  /var/folders/y7/g6pkzsp12sx54x3s3mvyn15r0000gn/T//ccyV2DV7.s 			page 46


 1581              		.cfi_startproc
 1582              		@ args = 0, pretend = 0, frame = 24
 1583              		@ frame_needed = 0, uses_anonymous_args = 0
  92:../eurorack/plaits/dsp/oscillator/variable_shape_oscillator.h ****       float master_frequency,
 1584              		.loc 3 92 8 is_stmt 0 view .LVU423
 1585 0000 F5EE007A 		vmov.f32	s15, #2.5e-1
 1586 0004 70B5     		push	{r4, r5, r6, lr}
 1587              		.cfi_def_cfa_offset 16
 1588              		.cfi_offset 4, -16
 1589              		.cfi_offset 5, -12
 1590              		.cfi_offset 6, -8
 1591              		.cfi_offset 14, -4
 1592 0006 B4EEE70A 		vcmpe.f32	s0, s15
 1593 000a 0446     		mov	r4, r0
 1594 000c 0E46     		mov	r6, r1
 1595 000e 1546     		mov	r5, r2
 1596 0010 F1EE10FA 		vmrs	APSR_nzcv, FPSCR
 103:../eurorack/plaits/dsp/oscillator/variable_shape_oscillator.h ****       frequency = kMaxFrequency;
 1597              		.loc 3 103 5 view .LVU424
 1598 0014 F4EEE70A 		vcmpe.f32	s1, s15
 1599 0018 27FE800A 		vselge.f32	s0, s15, s0
 1600              	.LVL108:
  92:../eurorack/plaits/dsp/oscillator/variable_shape_oscillator.h ****       float master_frequency,
 1601              		.loc 3 92 8 view .LVU425
 1602 001c 2DED108B 		vpush.64	{d8, d9, d10, d11, d12, d13, d14, d15}
 1603              		.cfi_def_cfa_offset 80
 1604              		.cfi_offset 80, -80
 1605              		.cfi_offset 81, -76
 1606              		.cfi_offset 82, -72
 1607              		.cfi_offset 83, -68
 1608              		.cfi_offset 84, -64
 1609              		.cfi_offset 85, -60
 1610              		.cfi_offset 86, -56
 1611              		.cfi_offset 87, -52
 1612              		.cfi_offset 88, -48
 1613              		.cfi_offset 89, -44
 1614              		.cfi_offset 90, -40
 1615              		.cfi_offset 91, -36
 1616              		.cfi_offset 92, -32
 1617              		.cfi_offset 93, -28
 1618              		.cfi_offset 94, -24
 1619              		.cfi_offset 95, -20
 103:../eurorack/plaits/dsp/oscillator/variable_shape_oscillator.h ****       frequency = kMaxFrequency;
 1620              		.loc 3 103 5 view .LVU426
 1621 0020 F1EE10FA 		vmrs	APSR_nzcv, FPSCR
  92:../eurorack/plaits/dsp/oscillator/variable_shape_oscillator.h ****       float master_frequency,
 1622              		.loc 3 92 8 view .LVU427
 1623 0024 86B0     		sub	sp, sp, #24
 1624              		.cfi_def_cfa_offset 104
 103:../eurorack/plaits/dsp/oscillator/variable_shape_oscillator.h ****       frequency = kMaxFrequency;
 1625              		.loc 3 103 5 view .LVU428
 1626 0026 4FDA     		bge	.L70
 110:../eurorack/plaits/dsp/oscillator/variable_shape_oscillator.h ****     }
 1627              		.loc 3 110 7 view .LVU429
 1628 0028 70EEA07A 		vadd.f32	s15, s1, s1
 1629 002c F4EEC17A 		vcmpe.f32	s15, s2
 1630 0030 F1EE10FA 		vmrs	APSR_nzcv, FPSCR
ARM GAS  /var/folders/y7/g6pkzsp12sx54x3s3mvyn15r0000gn/T//ccyV2DV7.s 			page 47


 1631 0034 0ADC     		bgt	.L56
 110:../eurorack/plaits/dsp/oscillator/variable_shape_oscillator.h ****     }
 1632              		.loc 3 110 7 discriminator 2 view .LVU430
 1633 0036 B7EE007A 		vmov.f32	s14, #1.0e+0
 1634 003a 77EE677A 		vsub.f32	s15, s14, s15
 1635 003e F4EEC17A 		vcmpe.f32	s15, s2
 1636 0042 F1EE10FA 		vmrs	APSR_nzcv, FPSCR
 1637 0046 58BF     		it	pl
 1638 0048 F0EE417A 		vmovpl.f32	s15, s2
 1639              	.LVL109:
 1640              	.L56:
 1641              	.LBB503:
 1642              	.LBI503:
  39:../eurorack/stmlib/dsp/parameter_interpolator.h ****     Init(state, new_value, size);
 1643              		.loc 9 39 3 is_stmt 1 view .LVU431
 1644              	.LBB504:
 1645              	.LBI504:
  53:../eurorack/stmlib/dsp/parameter_interpolator.h ****     state_ = state;
 1646              		.loc 9 53 15 view .LVU432
 1647              	.LBB505:
  54:../eurorack/stmlib/dsp/parameter_interpolator.h ****     value_ = *state;
 1648              		.loc 9 54 5 view .LVU433
  55:../eurorack/stmlib/dsp/parameter_interpolator.h ****     increment_ = (new_value - *state) / static_cast<float>(size);
 1649              		.loc 9 55 5 view .LVU434
  55:../eurorack/stmlib/dsp/parameter_interpolator.h ****     increment_ = (new_value - *state) / static_cast<float>(size);
 1650              		.loc 9 55 14 is_stmt 0 view .LVU435
 1651 004c 94ED05EA 		vldr.32	s28, [r4, #20]
 1652              	.LVL110:
  56:../eurorack/stmlib/dsp/parameter_interpolator.h ****   }
 1653              		.loc 9 56 5 is_stmt 1 view .LVU436
  56:../eurorack/stmlib/dsp/parameter_interpolator.h ****   }
 1654              		.loc 9 56 39 is_stmt 0 view .LVU437
 1655 0050 07EE105A 		vmov	s14, r5	@ int
 1656              	.LBE505:
 1657              	.LBE504:
 1658              	.LBE503:
 1659              	.LBB514:
 1660              	.LBB515:
 1661              	.LBB516:
  55:../eurorack/stmlib/dsp/parameter_interpolator.h ****     increment_ = (new_value - *state) / static_cast<float>(size);
 1662              		.loc 9 55 14 view .LVU438
 1663 0054 D4ED078A 		vldr.32	s17, [r4, #28]
 1664              	.LBE516:
 1665              	.LBE515:
 1666              	.LBE514:
 1667              	.LBB525:
 1668              	.LBB510:
 1669              	.LBB506:
  56:../eurorack/stmlib/dsp/parameter_interpolator.h ****   }
 1670              		.loc 9 56 39 view .LVU439
 1671 0058 B8EE477A 		vcvt.f32.u32	s14, s14
 1672              	.LBE506:
 1673              	.LBE510:
 1674              	.LBE525:
 1675              	.LBB526:
 1676              	.LBB527:
 1677              	.LBB528:
ARM GAS  /var/folders/y7/g6pkzsp12sx54x3s3mvyn15r0000gn/T//ccyV2DV7.s 			page 48


  55:../eurorack/stmlib/dsp/parameter_interpolator.h ****     increment_ = (new_value - *state) / static_cast<float>(size);
 1678              		.loc 9 55 14 view .LVU440
 1679 005c 94ED06AA 		vldr.32	s20, [r4, #24]
 1680              	.LBE528:
 1681              	.LBE527:
 1682              	.LBE526:
 1683              	.LBB535:
 1684              	.LBB511:
 1685              	.LBB507:
  56:../eurorack/stmlib/dsp/parameter_interpolator.h ****   }
 1686              		.loc 9 56 29 view .LVU441
 1687 0060 30EE4E0A 		vsub.f32	s0, s0, s28
 1688              	.LVL111:
  56:../eurorack/stmlib/dsp/parameter_interpolator.h ****   }
 1689              		.loc 9 56 29 view .LVU442
 1690              	.LBE507:
 1691              	.LBE511:
 1692              	.LBE535:
 1693              	.LBB536:
 1694              	.LBB537:
 1695              	.LBB538:
  55:../eurorack/stmlib/dsp/parameter_interpolator.h ****     increment_ = (new_value - *state) / static_cast<float>(size);
 1696              		.loc 9 55 14 view .LVU443
 1697 0064 D4ED08EA 		vldr.32	s29, [r4, #32]
 1698              	.LBE538:
 1699              	.LBE537:
 1700              	.LBE536:
 1701              	.LBB545:
 1702              	.LBB521:
 1703              	.LBB517:
  56:../eurorack/stmlib/dsp/parameter_interpolator.h ****   }
 1704              		.loc 9 56 29 view .LVU444
 1705 0068 77EEE87A 		vsub.f32	s15, s15, s17
 1706              	.LVL112:
  56:../eurorack/stmlib/dsp/parameter_interpolator.h ****   }
 1707              		.loc 9 56 29 view .LVU445
 1708              	.LBE517:
 1709              	.LBE521:
 1710              	.LBE545:
 1711              	.LBB546:
 1712              	.LBB547:
 1713              	.LBB548:
  55:../eurorack/stmlib/dsp/parameter_interpolator.h ****     increment_ = (new_value - *state) / static_cast<float>(size);
 1714              		.loc 9 55 14 view .LVU446
 1715 006c 94ED09FA 		vldr.32	s30, [r4, #36]
 1716              	.LBE548:
 1717              	.LBE547:
 1718              	.LBE546:
 1719              	.LBB553:
 1720              	.LBB532:
 1721              	.LBB529:
  56:../eurorack/stmlib/dsp/parameter_interpolator.h ****   }
 1722              		.loc 9 56 29 view .LVU447
 1723 0070 70EECA0A 		vsub.f32	s1, s1, s20
 1724              	.LBE529:
 1725              	.LBE532:
 1726              	.LBE553:
ARM GAS  /var/folders/y7/g6pkzsp12sx54x3s3mvyn15r0000gn/T//ccyV2DV7.s 			page 49


 122:../eurorack/plaits/dsp/oscillator/variable_shape_oscillator.h ****     
 1727              		.loc 3 122 11 view .LVU448
 1728 0074 D4ED029A 		vldr.32	s19, [r4, #8]
 1729              	.LBB554:
 1730              	.LBB512:
 1731              	.LBB508:
  56:../eurorack/stmlib/dsp/parameter_interpolator.h ****   }
 1732              		.loc 9 56 39 view .LVU449
 1733 0078 C0EE076A 		vdiv.f32	s13, s0, s14
 1734              	.LBE508:
 1735              	.LBE512:
 1736              	.LBE554:
 1737              	.LBB555:
 1738              	.LBB522:
 1739              	.LBB518:
 1740 007c C7EE877A 		vdiv.f32	s15, s15, s14
 1741              	.LBE518:
 1742              	.LBE522:
 1743              	.LBE555:
 1744              	.LBB556:
 1745              	.LBB542:
 1746              	.LBB539:
  56:../eurorack/stmlib/dsp/parameter_interpolator.h ****   }
 1747              		.loc 9 56 29 view .LVU450
 1748 0080 71EEEE1A 		vsub.f32	s3, s3, s29
 1749              	.LVL113:
  56:../eurorack/stmlib/dsp/parameter_interpolator.h ****   }
 1750              		.loc 9 56 29 view .LVU451
 1751              	.LBE539:
 1752              	.LBE542:
 1753              	.LBE556:
 1754              	.LBB557:
 1755              	.LBB551:
 1756              	.LBB549:
 1757 0084 32EE4F2A 		vsub.f32	s4, s4, s30
 1758              	.LVL114:
  56:../eurorack/stmlib/dsp/parameter_interpolator.h ****   }
 1759              		.loc 9 56 39 view .LVU452
 1760 0088 82EE07DA 		vdiv.f32	s26, s4, s14
 1761              	.LBE549:
 1762              	.LBE551:
 1763              	.LBE557:
 1764              	.LBB558:
 1765              	.LBB513:
 1766              	.LBB509:
 1767 008c CDED036A 		vstr.32	s13, [sp, #12]
 1768              	.LVL115:
  56:../eurorack/stmlib/dsp/parameter_interpolator.h ****   }
 1769              		.loc 9 56 39 view .LVU453
 1770              	.LBE509:
 1771              	.LBE513:
 1772              	.LBE558:
 1773              	.LBB559:
 1774              	.LBI526:
  39:../eurorack/stmlib/dsp/parameter_interpolator.h ****     Init(state, new_value, size);
 1775              		.loc 9 39 3 is_stmt 1 view .LVU454
 1776              	.LBB533:
ARM GAS  /var/folders/y7/g6pkzsp12sx54x3s3mvyn15r0000gn/T//ccyV2DV7.s 			page 50


 1777              	.LBI527:
  53:../eurorack/stmlib/dsp/parameter_interpolator.h ****     state_ = state;
 1778              		.loc 9 53 15 view .LVU455
 1779              	.LBB530:
  54:../eurorack/stmlib/dsp/parameter_interpolator.h ****     value_ = *state;
 1780              		.loc 9 54 5 view .LVU456
  55:../eurorack/stmlib/dsp/parameter_interpolator.h ****     increment_ = (new_value - *state) / static_cast<float>(size);
 1781              		.loc 9 55 5 view .LVU457
  56:../eurorack/stmlib/dsp/parameter_interpolator.h ****   }
 1782              		.loc 9 56 5 view .LVU458
  56:../eurorack/stmlib/dsp/parameter_interpolator.h ****   }
 1783              		.loc 9 56 39 is_stmt 0 view .LVU459
 1784 0090 C0EE876A 		vdiv.f32	s13, s1, s14
 1785              	.LVL116:
  56:../eurorack/stmlib/dsp/parameter_interpolator.h ****   }
 1786              		.loc 9 56 39 view .LVU460
 1787              	.LBE530:
 1788              	.LBE533:
 1789              	.LBE559:
 1790              	.LBB560:
 1791              	.LBB523:
 1792              	.LBB519:
 1793 0094 CDED017A 		vstr.32	s15, [sp, #4]
 1794              	.LBE519:
 1795              	.LBE523:
 1796              	.LBE560:
 1797              	.LBB561:
 1798              	.LBB543:
 1799              	.LBB540:
 1800 0098 C1EE877A 		vdiv.f32	s15, s3, s14
 1801              	.LBE540:
 1802              	.LBE543:
 1803              	.LBE561:
 1804              	.LBB562:
 1805              	.LBB534:
 1806              	.LBB531:
 1807 009c CDED026A 		vstr.32	s13, [sp, #8]
 1808              	.LVL117:
  56:../eurorack/stmlib/dsp/parameter_interpolator.h ****   }
 1809              		.loc 9 56 39 view .LVU461
 1810              	.LBE531:
 1811              	.LBE534:
 1812              	.LBE562:
 1813              	.LBB563:
 1814              	.LBI514:
  39:../eurorack/stmlib/dsp/parameter_interpolator.h ****     Init(state, new_value, size);
 1815              		.loc 9 39 3 is_stmt 1 view .LVU462
 1816              	.LBB524:
 1817              	.LBI515:
  53:../eurorack/stmlib/dsp/parameter_interpolator.h ****     state_ = state;
 1818              		.loc 9 53 15 view .LVU463
 1819              	.LBB520:
  54:../eurorack/stmlib/dsp/parameter_interpolator.h ****     value_ = *state;
 1820              		.loc 9 54 5 view .LVU464
  55:../eurorack/stmlib/dsp/parameter_interpolator.h ****     increment_ = (new_value - *state) / static_cast<float>(size);
 1821              		.loc 9 55 5 view .LVU465
  56:../eurorack/stmlib/dsp/parameter_interpolator.h ****   }
ARM GAS  /var/folders/y7/g6pkzsp12sx54x3s3mvyn15r0000gn/T//ccyV2DV7.s 			page 51


 1822              		.loc 9 56 5 view .LVU466
  56:../eurorack/stmlib/dsp/parameter_interpolator.h ****   }
 1823              		.loc 9 56 5 is_stmt 0 view .LVU467
 1824              	.LBE520:
 1825              	.LBE524:
 1826              	.LBE563:
 1827              	.LBB564:
 1828              	.LBI536:
  39:../eurorack/stmlib/dsp/parameter_interpolator.h ****     Init(state, new_value, size);
 1829              		.loc 9 39 3 is_stmt 1 view .LVU468
 1830              	.LBB544:
 1831              	.LBI537:
  53:../eurorack/stmlib/dsp/parameter_interpolator.h ****     state_ = state;
 1832              		.loc 9 53 15 view .LVU469
 1833              	.LBB541:
  54:../eurorack/stmlib/dsp/parameter_interpolator.h ****     value_ = *state;
 1834              		.loc 9 54 5 view .LVU470
  55:../eurorack/stmlib/dsp/parameter_interpolator.h ****     increment_ = (new_value - *state) / static_cast<float>(size);
 1835              		.loc 9 55 5 view .LVU471
  56:../eurorack/stmlib/dsp/parameter_interpolator.h ****   }
 1836              		.loc 9 56 5 view .LVU472
  56:../eurorack/stmlib/dsp/parameter_interpolator.h ****   }
 1837              		.loc 9 56 39 is_stmt 0 view .LVU473
 1838 00a0 CDED007A 		vstr.32	s15, [sp]
 1839              	.LVL118:
  56:../eurorack/stmlib/dsp/parameter_interpolator.h ****   }
 1840              		.loc 9 56 39 view .LVU474
 1841              	.LBE541:
 1842              	.LBE544:
 1843              	.LBE564:
 1844              	.LBB565:
 1845              	.LBI546:
  39:../eurorack/stmlib/dsp/parameter_interpolator.h ****     Init(state, new_value, size);
 1846              		.loc 9 39 3 is_stmt 1 view .LVU475
 1847              	.LBB552:
 1848              	.LBI547:
  53:../eurorack/stmlib/dsp/parameter_interpolator.h ****     state_ = state;
 1849              		.loc 9 53 15 view .LVU476
 1850              	.LBB550:
  54:../eurorack/stmlib/dsp/parameter_interpolator.h ****     value_ = *state;
 1851              		.loc 9 54 5 view .LVU477
  55:../eurorack/stmlib/dsp/parameter_interpolator.h ****     increment_ = (new_value - *state) / static_cast<float>(size);
 1852              		.loc 9 55 5 view .LVU478
  56:../eurorack/stmlib/dsp/parameter_interpolator.h ****   }
 1853              		.loc 9 56 5 view .LVU479
 1854              	.L57:
  56:../eurorack/stmlib/dsp/parameter_interpolator.h ****   }
 1855              		.loc 9 56 5 is_stmt 0 view .LVU480
 1856              	.LBE550:
 1857              	.LBE552:
 1858              	.LBE565:
 124:../eurorack/plaits/dsp/oscillator/variable_shape_oscillator.h ****       bool reset = false;
 1859              		.loc 3 124 5 is_stmt 1 view .LVU481
 1860 00a4 013D     		subs	r5, r5, #1
 1861              	.LVL119:
 124:../eurorack/plaits/dsp/oscillator/variable_shape_oscillator.h ****       bool reset = false;
 1862              		.loc 3 124 5 is_stmt 0 view .LVU482
ARM GAS  /var/folders/y7/g6pkzsp12sx54x3s3mvyn15r0000gn/T//ccyV2DV7.s 			page 52


 1863 00a6 14D2     		bcs	.L67
 241:../eurorack/plaits/dsp/oscillator/variable_shape_oscillator.h ****   }
 1864              		.loc 3 241 18 view .LVU483
 1865 00a8 C4ED029A 		vstr.32	s19, [r4, #8]
 1866              	.LVL120:
 1867              	.LBB566:
 1868              	.LBI566:
  49:../eurorack/stmlib/dsp/parameter_interpolator.h ****     *state_ = value_;
 1869              		.loc 9 49 3 is_stmt 1 view .LVU484
 1870              	.LBB567:
  50:../eurorack/stmlib/dsp/parameter_interpolator.h ****   }
 1871              		.loc 9 50 5 view .LVU485
  50:../eurorack/stmlib/dsp/parameter_interpolator.h ****   }
 1872              		.loc 9 50 13 is_stmt 0 view .LVU486
 1873 00ac 84ED09FA 		vstr.32	s30, [r4, #36]
 1874              	.LVL121:
  50:../eurorack/stmlib/dsp/parameter_interpolator.h ****   }
 1875              		.loc 9 50 13 view .LVU487
 1876              	.LBE567:
 1877              	.LBE566:
 1878              	.LBB568:
 1879              	.LBI568:
  49:../eurorack/stmlib/dsp/parameter_interpolator.h ****     *state_ = value_;
 1880              		.loc 9 49 3 is_stmt 1 view .LVU488
 1881              	.LBB569:
  50:../eurorack/stmlib/dsp/parameter_interpolator.h ****   }
 1882              		.loc 9 50 5 view .LVU489
  50:../eurorack/stmlib/dsp/parameter_interpolator.h ****   }
 1883              		.loc 9 50 13 is_stmt 0 view .LVU490
 1884 00b0 C4ED08EA 		vstr.32	s29, [r4, #32]
 1885              	.LVL122:
  50:../eurorack/stmlib/dsp/parameter_interpolator.h ****   }
 1886              		.loc 9 50 13 view .LVU491
 1887              	.LBE569:
 1888              	.LBE568:
 1889              	.LBB570:
 1890              	.LBI570:
  49:../eurorack/stmlib/dsp/parameter_interpolator.h ****     *state_ = value_;
 1891              		.loc 9 49 3 is_stmt 1 view .LVU492
 1892              	.LBB571:
  50:../eurorack/stmlib/dsp/parameter_interpolator.h ****   }
 1893              		.loc 9 50 5 view .LVU493
  50:../eurorack/stmlib/dsp/parameter_interpolator.h ****   }
 1894              		.loc 9 50 13 is_stmt 0 view .LVU494
 1895 00b4 C4ED078A 		vstr.32	s17, [r4, #28]
 1896              	.LVL123:
  50:../eurorack/stmlib/dsp/parameter_interpolator.h ****   }
 1897              		.loc 9 50 13 view .LVU495
 1898              	.LBE571:
 1899              	.LBE570:
 1900              	.LBB572:
 1901              	.LBI572:
  49:../eurorack/stmlib/dsp/parameter_interpolator.h ****     *state_ = value_;
 1902              		.loc 9 49 3 is_stmt 1 view .LVU496
 1903              	.LBB573:
  50:../eurorack/stmlib/dsp/parameter_interpolator.h ****   }
 1904              		.loc 9 50 5 view .LVU497
ARM GAS  /var/folders/y7/g6pkzsp12sx54x3s3mvyn15r0000gn/T//ccyV2DV7.s 			page 53


  50:../eurorack/stmlib/dsp/parameter_interpolator.h ****   }
 1905              		.loc 9 50 13 is_stmt 0 view .LVU498
 1906 00b8 84ED06AA 		vstr.32	s20, [r4, #24]
 1907              	.LVL124:
  50:../eurorack/stmlib/dsp/parameter_interpolator.h ****   }
 1908              		.loc 9 50 13 view .LVU499
 1909              	.LBE573:
 1910              	.LBE572:
 1911              	.LBB574:
 1912              	.LBI574:
  49:../eurorack/stmlib/dsp/parameter_interpolator.h ****     *state_ = value_;
 1913              		.loc 9 49 3 is_stmt 1 view .LVU500
 1914              	.LBB575:
  50:../eurorack/stmlib/dsp/parameter_interpolator.h ****   }
 1915              		.loc 9 50 5 view .LVU501
  50:../eurorack/stmlib/dsp/parameter_interpolator.h ****   }
 1916              		.loc 9 50 13 is_stmt 0 view .LVU502
 1917 00bc 84ED05EA 		vstr.32	s28, [r4, #20]
 1918              	.LVL125:
  50:../eurorack/stmlib/dsp/parameter_interpolator.h ****   }
 1919              		.loc 9 50 13 view .LVU503
 1920              	.LBE575:
 1921              	.LBE574:
 242:../eurorack/plaits/dsp/oscillator/variable_shape_oscillator.h ****   
 1922              		.loc 3 242 3 view .LVU504
 1923 00c0 06B0     		add	sp, sp, #24
 1924              		.cfi_remember_state
 1925              		.cfi_def_cfa_offset 80
 1926              	.LVL126:
 242:../eurorack/plaits/dsp/oscillator/variable_shape_oscillator.h ****   
 1927              		.loc 3 242 3 view .LVU505
 1928              		@ sp needed
 1929 00c2 BDEC108B 		vldm	sp!, {d8-d15}
 1930              		.cfi_restore 94
 1931              		.cfi_restore 95
 1932              		.cfi_restore 92
 1933              		.cfi_restore 93
 1934              		.cfi_restore 90
 1935              		.cfi_restore 91
 1936              		.cfi_restore 88
 1937              		.cfi_restore 89
 1938              		.cfi_restore 86
 1939              		.cfi_restore 87
 1940              		.cfi_restore 84
 1941              		.cfi_restore 85
 1942              		.cfi_restore 82
 1943              		.cfi_restore 83
 1944              		.cfi_restore 80
 1945              		.cfi_restore 81
 1946              		.cfi_def_cfa_offset 16
 1947              	.LVL127:
 242:../eurorack/plaits/dsp/oscillator/variable_shape_oscillator.h ****   
 1948              		.loc 3 242 3 view .LVU506
 1949 00c6 70BD     		pop	{r4, r5, r6, pc}
 1950              	.LVL128:
 1951              	.L70:
 1952              		.cfi_restore_state
ARM GAS  /var/folders/y7/g6pkzsp12sx54x3s3mvyn15r0000gn/T//ccyV2DV7.s 			page 54


 104:../eurorack/plaits/dsp/oscillator/variable_shape_oscillator.h ****     }
 1953              		.loc 3 104 17 view .LVU507
 1954 00c8 F0EE670A 		vmov.f32	s1, s15
 1955              	.LVL129:
 108:../eurorack/plaits/dsp/oscillator/variable_shape_oscillator.h ****     } else {
 1956              		.loc 3 108 10 view .LVU508
 1957 00cc F6EE007A 		vmov.f32	s15, #5.0e-1
 1958 00d0 BCE7     		b	.L56
 1959              	.LVL130:
 1960              	.L67:
 1961              	.LBB576:
 1962              	.LBB577:
 1963              	.LBI577:
  59:../eurorack/stmlib/dsp/parameter_interpolator.h ****     value_ += increment_;
 1964              		.loc 9 59 16 is_stmt 1 view .LVU509
 1965              	.LBB578:
  60:../eurorack/stmlib/dsp/parameter_interpolator.h ****     return value_;
 1966              		.loc 9 60 5 view .LVU510
  60:../eurorack/stmlib/dsp/parameter_interpolator.h ****     return value_;
 1967              		.loc 9 60 12 is_stmt 0 view .LVU511
 1968 00d2 DDED037A 		vldr.32	s15, [sp, #12]
 1969              	.LBE578:
 1970              	.LBE577:
 137:../eurorack/plaits/dsp/oscillator/variable_shape_oscillator.h ****       const float triangle_amount = std::max(1.0f - waveshape * 2.0f, 0.0f);
 1971              		.loc 3 137 54 view .LVU512
 1972 00d6 F6EE00CA 		vmov.f32	s25, #5.0e-1
 137:../eurorack/plaits/dsp/oscillator/variable_shape_oscillator.h ****       const float triangle_amount = std::max(1.0f - waveshape * 2.0f, 0.0f);
 1973              		.loc 3 137 19 discriminator 1 view .LVU513
 1974 00da DFED6F6A 		vldr.32	s13, .L77
 138:../eurorack/plaits/dsp/oscillator/variable_shape_oscillator.h ****       
 1975              		.loc 3 138 51 view .LVU514
 1976 00de B7EE009A 		vmov.f32	s18, #1.0e+0
 1977              	.LBB580:
 1978              	.LBB579:
  60:../eurorack/stmlib/dsp/parameter_interpolator.h ****     return value_;
 1979              		.loc 9 60 12 view .LVU515
 1980 00e2 3EEE27EA 		vadd.f32	s28, s28, s15
 1981              	.LVL131:
 1982              		.loc 9 61 5 is_stmt 1 view .LVU516
 1983              		.loc 9 61 5 is_stmt 0 view .LVU517
 1984              	.LBE579:
 1985              	.LBE580:
 1986              	.LBB581:
 1987              	.LBI581:
  59:../eurorack/stmlib/dsp/parameter_interpolator.h ****     value_ += increment_;
 1988              		.loc 9 59 16 is_stmt 1 view .LVU518
 1989              	.LBB582:
  60:../eurorack/stmlib/dsp/parameter_interpolator.h ****     return value_;
 1990              		.loc 9 60 5 view .LVU519
  60:../eurorack/stmlib/dsp/parameter_interpolator.h ****     return value_;
 1991              		.loc 9 60 12 is_stmt 0 view .LVU520
 1992 00e6 DDED027A 		vldr.32	s15, [sp, #8]
 1993              	.LBE582:
 1994              	.LBE581:
 138:../eurorack/plaits/dsp/oscillator/variable_shape_oscillator.h ****       
 1995              		.loc 3 138 51 view .LVU521
 1996 00ea B0EE007A 		vmov.f32	s14, #2.0e+0
ARM GAS  /var/folders/y7/g6pkzsp12sx54x3s3mvyn15r0000gn/T//ccyV2DV7.s 			page 55


 1997              	.LBB584:
 170:../eurorack/plaits/dsp/oscillator/variable_shape_oscillator.h ****         if (master_phase_ >= 1.0f) {
 1998              		.loc 3 170 23 view .LVU522
 1999 00ee D4ED00FA 		vldr.32	s31, [r4]
 2000              	.LBE584:
 2001              	.LBB585:
 2002              	.LBB583:
  60:../eurorack/stmlib/dsp/parameter_interpolator.h ****     return value_;
 2003              		.loc 9 60 12 view .LVU523
 2004 00f2 3AEE27AA 		vadd.f32	s20, s20, s15
 2005              	.LVL132:
 2006              		.loc 9 61 5 is_stmt 1 view .LVU524
 2007              		.loc 9 61 5 is_stmt 0 view .LVU525
 2008              	.LBE583:
 2009              	.LBE585:
 2010              	.LBB586:
 2011              	.LBI586:
  59:../eurorack/stmlib/dsp/parameter_interpolator.h ****     value_ += increment_;
 2012              		.loc 9 59 16 is_stmt 1 view .LVU526
 2013              	.LBB587:
  60:../eurorack/stmlib/dsp/parameter_interpolator.h ****     return value_;
 2014              		.loc 9 60 5 view .LVU527
  60:../eurorack/stmlib/dsp/parameter_interpolator.h ****     return value_;
 2015              		.loc 9 60 12 is_stmt 0 view .LVU528
 2016 00f6 DDED017A 		vldr.32	s15, [sp, #4]
 2017              	.LBE587:
 2018              	.LBE586:
 2019              	.LBB589:
 170:../eurorack/plaits/dsp/oscillator/variable_shape_oscillator.h ****         if (master_phase_ >= 1.0f) {
 2020              		.loc 3 170 23 view .LVU529
 2021 00fa 7EEE2FFA 		vadd.f32	s31, s28, s31
 2022              	.LBE589:
 176:../eurorack/plaits/dsp/oscillator/variable_shape_oscillator.h ****       while (transition_during_reset || !reset) {
 2023              		.loc 3 176 20 view .LVU530
 2024 00fe 94ED018A 		vldr.32	s16, [r4, #4]
 2025              	.LBB590:
 2026              	.LBB588:
  60:../eurorack/stmlib/dsp/parameter_interpolator.h ****     return value_;
 2027              		.loc 9 60 12 view .LVU531
 2028 0102 78EEA78A 		vadd.f32	s17, s17, s15
 2029              	.LVL133:
 2030              		.loc 9 61 5 is_stmt 1 view .LVU532
 2031              		.loc 9 61 5 is_stmt 0 view .LVU533
 2032              	.LBE588:
 2033              	.LBE590:
 2034              	.LBB591:
 2035              	.LBI591:
  59:../eurorack/stmlib/dsp/parameter_interpolator.h ****     value_ += increment_;
 2036              		.loc 9 59 16 is_stmt 1 view .LVU534
 2037              	.LBB592:
  60:../eurorack/stmlib/dsp/parameter_interpolator.h ****     return value_;
 2038              		.loc 9 60 5 view .LVU535
  60:../eurorack/stmlib/dsp/parameter_interpolator.h ****     return value_;
 2039              		.loc 9 60 12 is_stmt 0 view .LVU536
 2040 0106 DDED007A 		vldr.32	s15, [sp]
 2041              	.LBE592:
 2042              	.LBE591:
ARM GAS  /var/folders/y7/g6pkzsp12sx54x3s3mvyn15r0000gn/T//ccyV2DV7.s 			page 56


 176:../eurorack/plaits/dsp/oscillator/variable_shape_oscillator.h ****       while (transition_during_reset || !reset) {
 2043              		.loc 3 176 20 view .LVU537
 2044 010a 3AEE088A 		vadd.f32	s16, s20, s16
 2045              	.LBB594:
 2046              	.LBB593:
  60:../eurorack/stmlib/dsp/parameter_interpolator.h ****     return value_;
 2047              		.loc 9 60 12 view .LVU538
 2048 010e 7EEEA7EA 		vadd.f32	s29, s29, s15
 2049              	.LVL134:
 2050              		.loc 9 61 5 is_stmt 1 view .LVU539
 2051              		.loc 9 61 5 is_stmt 0 view .LVU540
 2052              	.LBE593:
 2053              	.LBE594:
 140:../eurorack/plaits/dsp/oscillator/variable_shape_oscillator.h ****       const float slope_down = 1.0f / (1.0f - pw);
 2054              		.loc 3 140 19 view .LVU541
 2055 0112 C9EE28AA 		vdiv.f32	s21, s18, s17
 176:../eurorack/plaits/dsp/oscillator/variable_shape_oscillator.h ****       while (transition_during_reset || !reset) {
 2056              		.loc 3 176 20 view .LVU542
 2057 0116 84ED018A 		vstr.32	s16, [r4, #4]
 137:../eurorack/plaits/dsp/oscillator/variable_shape_oscillator.h ****       const float triangle_amount = std::max(1.0f - waveshape * 2.0f, 0.0f);
 2058              		.loc 3 137 54 view .LVU543
 2059 011a 7EEEEC7A 		vsub.f32	s15, s29, s25
 137:../eurorack/plaits/dsp/oscillator/variable_shape_oscillator.h ****       const float triangle_amount = std::max(1.0f - waveshape * 2.0f, 0.0f);
 2060              		.loc 3 137 19 discriminator 1 view .LVU544
 2061 011e F4EEE67A 		vcmpe.f32	s15, s13
 2062 0122 F1EE10FA 		vmrs	APSR_nzcv, FPSCR
 2063 0126 48BF     		it	mi
 2064 0128 F0EE667A 		vmovmi.f32	s15, s13
 2065 012c 37EEA7BA 		vadd.f32	s22, s15, s15
 2066              	.LVL135:
 138:../eurorack/plaits/dsp/oscillator/variable_shape_oscillator.h ****       
 2067              		.loc 3 138 51 view .LVU545
 2068 0130 F0EE497A 		vmov.f32	s15, s18
 2069 0134 EEEEC77A 		vfms.f32	s15, s29, s14
 130:../eurorack/plaits/dsp/oscillator/variable_shape_oscillator.h ****     
 2070              		.loc 3 130 19 view .LVU546
 2071 0138 9FED577A 		vldr.32	s14, .L77
 2072 013c F4EEE67A 		vcmpe.f32	s15, s13
 2073 0140 F1EE10FA 		vmrs	APSR_nzcv, FPSCR
 2074              	.LBB595:
 171:../eurorack/plaits/dsp/oscillator/variable_shape_oscillator.h ****           master_phase_ -= 1.0f;
 2075              		.loc 3 171 9 view .LVU547
 2076 0144 F4EEC9FA 		vcmpe.f32	s31, s18
 2077 0148 54BF     		ite	pl
 2078 014a B0EE67CA 		vmovpl.f32	s24, s15
 2079 014e B0EE66CA 		vmovmi.f32	s24, s13
 2080              	.LVL136:
 171:../eurorack/plaits/dsp/oscillator/variable_shape_oscillator.h ****           master_phase_ -= 1.0f;
 2081              		.loc 3 171 9 view .LVU548
 2082              	.LBE595:
 141:../eurorack/plaits/dsp/oscillator/variable_shape_oscillator.h **** 
 2083              		.loc 3 141 45 view .LVU549
 2084 0152 79EE687A 		vsub.f32	s15, s18, s17
 2085              	.LBB596:
 171:../eurorack/plaits/dsp/oscillator/variable_shape_oscillator.h ****           master_phase_ -= 1.0f;
 2086              		.loc 3 171 9 view .LVU550
 2087 0156 F1EE10FA 		vmrs	APSR_nzcv, FPSCR
ARM GAS  /var/folders/y7/g6pkzsp12sx54x3s3mvyn15r0000gn/T//ccyV2DV7.s 			page 57


 2088              	.LBE596:
 141:../eurorack/plaits/dsp/oscillator/variable_shape_oscillator.h **** 
 2089              		.loc 3 141 19 view .LVU551
 2090 015a C9EE27BA 		vdiv.f32	s23, s18, s15
 2091              	.LVL137:
 2092              	.LBB597:
 172:../eurorack/plaits/dsp/oscillator/variable_shape_oscillator.h ****         }
 2093              		.loc 3 172 25 view .LVU552
 2094 015e A8BF     		it	ge
 2095 0160 7FEEC9FA 		vsubge.f32	s31, s31, s18
 2096 0164 C4ED00FA 		vstr.32	s31, [r4]
 2097              	.LVL138:
 2098              	.L60:
 172:../eurorack/plaits/dsp/oscillator/variable_shape_oscillator.h ****         }
 2099              		.loc 3 172 25 view .LVU553
 2100              	.LBE597:
 177:../eurorack/plaits/dsp/oscillator/variable_shape_oscillator.h ****         if (!high_) {
 2101              		.loc 3 177 38 is_stmt 1 view .LVU554
 2102              	.LBB598:
 178:../eurorack/plaits/dsp/oscillator/variable_shape_oscillator.h ****           if (slave_phase_ < pw) {
 2103              		.loc 3 178 9 is_stmt 0 view .LVU555
 2104 0168 237C     		ldrb	r3, [r4, #16]	@ zero_extendqisi2
 2105 016a C3BB     		cbnz	r3, .L62
 2106              	.LBB599:
 179:../eurorack/plaits/dsp/oscillator/variable_shape_oscillator.h ****             break;
 2107              		.loc 3 179 11 view .LVU556
 2108 016c F4EEC88A 		vcmpe.f32	s17, s16
 2109 0170 F1EE10FA 		vmrs	APSR_nzcv, FPSCR
 2110 0174 3DDC     		bgt	.L61
 182:../eurorack/plaits/dsp/oscillator/variable_shape_oscillator.h ****           float triangle_step = (slope_up + slope_down) * slave_frequency;
 2111              		.loc 3 182 57 view .LVU557
 2112 0176 D4ED037A 		vldr.32	s15, [r4, #12]
 182:../eurorack/plaits/dsp/oscillator/variable_shape_oscillator.h ****           float triangle_step = (slope_up + slope_down) * slave_frequency;
 2113              		.loc 3 182 35 view .LVU558
 2114 017a 38EE684A 		vsub.f32	s8, s16, s17
 183:../eurorack/plaits/dsp/oscillator/variable_shape_oscillator.h ****           triangle_step *= triangle_amount;
 2115              		.loc 3 183 43 view .LVU559
 2116 017e 7AEEABDA 		vadd.f32	s27, s21, s23
 182:../eurorack/plaits/dsp/oscillator/variable_shape_oscillator.h ****           float triangle_step = (slope_up + slope_down) * slave_frequency;
 2117              		.loc 3 182 57 view .LVU560
 2118 0182 77EEE87A 		vsub.f32	s15, s15, s17
 183:../eurorack/plaits/dsp/oscillator/variable_shape_oscillator.h ****           triangle_step *= triangle_amount;
 2119              		.loc 3 183 17 view .LVU561
 2120 0186 6DEE8ADA 		vmul.f32	s27, s27, s20
 182:../eurorack/plaits/dsp/oscillator/variable_shape_oscillator.h ****           float triangle_step = (slope_up + slope_down) * slave_frequency;
 2121              		.loc 3 182 62 view .LVU562
 2122 018a 77EE8A7A 		vadd.f32	s15, s15, s20
 184:../eurorack/plaits/dsp/oscillator/variable_shape_oscillator.h ****           
 2123              		.loc 3 184 25 view .LVU563
 2124 018e 6DEE8CDA 		vmul.f32	s27, s27, s24
 182:../eurorack/plaits/dsp/oscillator/variable_shape_oscillator.h ****           float triangle_step = (slope_up + slope_down) * slave_frequency;
 2125              		.loc 3 182 17 view .LVU564
 2126 0192 C4EE274A 		vdiv.f32	s9, s8, s15
 2127              	.LVL139:
 2128              	.LBB600:
 2129              	.LBI600:
  37:../eurorack/stmlib/dsp/polyblep.h ****   return 0.5f * t * t;
ARM GAS  /var/folders/y7/g6pkzsp12sx54x3s3mvyn15r0000gn/T//ccyV2DV7.s 			page 58


 2130              		.loc 6 37 14 is_stmt 1 view .LVU565
 2131              	.LBB601:
  38:../eurorack/stmlib/dsp/polyblep.h **** }
 2132              		.loc 6 38 3 view .LVU566
  38:../eurorack/stmlib/dsp/polyblep.h **** }
 2133              		.loc 6 38 15 is_stmt 0 view .LVU567
 2134 0196 64EEAC7A 		vmul.f32	s15, s9, s25
 2135              	.LBE601:
 2136              	.LBE600:
 2137              	.LBB603:
 2138              	.LBB604:
  42:../eurorack/stmlib/dsp/polyblep.h ****   return -0.5f * t * t;
 2139              		.loc 6 42 5 view .LVU568
 2140 019a CDED054A 		vstr.32	s9, [sp, #20]	@ int
 2141 019e 39EE640A 		vsub.f32	s0, s18, s9
 2142              	.LBE604:
 2143              	.LBE603:
 2144              	.LBB606:
 2145              	.LBB602:
  38:../eurorack/stmlib/dsp/polyblep.h **** }
 2146              		.loc 6 38 21 view .LVU569
 2147 01a2 67EEA47A 		vmul.f32	s15, s15, s9
 2148              	.LBE602:
 2149              	.LBE606:
 186:../eurorack/plaits/dsp/oscillator/variable_shape_oscillator.h ****           next_sample += square_amount * stmlib::NextBlepSample(t);
 2150              		.loc 3 186 23 discriminator 1 view .LVU570
 2151 01a6 EBEE279A 		vfma.f32	s19, s22, s15
 2152              	.LVL140:
 2153              	.LBB607:
 2154              	.LBI603:
  41:../eurorack/stmlib/dsp/polyblep.h ****   t = 1.0f - t;
 2155              		.loc 6 41 14 is_stmt 1 view .LVU571
 2156              	.LBB605:
  42:../eurorack/stmlib/dsp/polyblep.h ****   return -0.5f * t * t;
 2157              		.loc 6 42 3 view .LVU572
  43:../eurorack/stmlib/dsp/polyblep.h **** }
 2158              		.loc 6 43 3 view .LVU573
  43:../eurorack/stmlib/dsp/polyblep.h **** }
 2159              		.loc 6 43 16 is_stmt 0 view .LVU574
 2160 01aa FEEE007A 		vmov.f32	s15, #-5.0e-1
 2161 01ae 60EE277A 		vmul.f32	s15, s0, s15
  43:../eurorack/stmlib/dsp/polyblep.h **** }
 2162              		.loc 6 43 22 view .LVU575
 2163 01b2 67EE807A 		vmul.f32	s15, s15, s0
 2164              	.LBE605:
 2165              	.LBE607:
 187:../eurorack/plaits/dsp/oscillator/variable_shape_oscillator.h ****           this_sample -= triangle_step * stmlib::ThisIntegratedBlepSample(t);
 2166              		.loc 3 187 23 discriminator 1 view .LVU576
 2167 01b6 ABEE277A 		vfma.f32	s14, s22, s15
 2168              	.LVL141:
 187:../eurorack/plaits/dsp/oscillator/variable_shape_oscillator.h ****           this_sample -= triangle_step * stmlib::ThisIntegratedBlepSample(t);
 2169              		.loc 3 187 23 discriminator 1 view .LVU577
 2170 01ba 8DED047A 		vstr.32	s14, [sp, #16]	@ int
 2171              	.LVL142:
 2172              	.LBB608:
 2173              	.LBI608:
  53:../eurorack/stmlib/dsp/polyblep.h ****   return NextIntegratedBlepSample(1.0f - t);
ARM GAS  /var/folders/y7/g6pkzsp12sx54x3s3mvyn15r0000gn/T//ccyV2DV7.s 			page 59


 2174              		.loc 6 53 14 is_stmt 1 view .LVU578
 2175              	.LBB609:
 2176              		.loc 6 54 3 view .LVU579
 2177              		.loc 6 54 34 is_stmt 0 view .LVU580
 2178 01be FFF7FEFF 		bl	_ZN6stmlib24NextIntegratedBlepSampleEf
 2179              	.LVL143:
 2180              		.loc 6 54 34 view .LVU581
 2181              	.LBE609:
 2182              	.LBE608:
 189:../eurorack/plaits/dsp/oscillator/variable_shape_oscillator.h ****           high_ = true;
 2183              		.loc 3 189 74 view .LVU582
 2184 01c2 DDED054A 		vldr.32	s9, [sp, #20]	@ int
 188:../eurorack/plaits/dsp/oscillator/variable_shape_oscillator.h ****           next_sample -= triangle_step * stmlib::NextIntegratedBlepSample(t);
 2185              		.loc 3 188 23 discriminator 1 view .LVU583
 2186 01c6 EDEEC09A 		vfms.f32	s19, s27, s0
 2187              	.LVL144:
 189:../eurorack/plaits/dsp/oscillator/variable_shape_oscillator.h ****           high_ = true;
 2188              		.loc 3 189 74 view .LVU584
 2189 01ca B0EE640A 		vmov.f32	s0, s9
 2190 01ce FFF7FEFF 		bl	_ZN6stmlib24NextIntegratedBlepSampleEf
 2191              	.LVL145:
 189:../eurorack/plaits/dsp/oscillator/variable_shape_oscillator.h ****           high_ = true;
 2192              		.loc 3 189 23 discriminator 1 view .LVU585
 2193 01d2 9DED047A 		vldr.32	s14, [sp, #16]	@ int
 190:../eurorack/plaits/dsp/oscillator/variable_shape_oscillator.h ****         }
 2194              		.loc 3 190 17 view .LVU586
 2195 01d6 0123     		movs	r3, #1
 189:../eurorack/plaits/dsp/oscillator/variable_shape_oscillator.h ****           high_ = true;
 2196              		.loc 3 189 23 discriminator 1 view .LVU587
 2197 01d8 A0EE6D7A 		vfms.f32	s14, s0, s27
 2198              	.LVL146:
 190:../eurorack/plaits/dsp/oscillator/variable_shape_oscillator.h ****         }
 2199              		.loc 3 190 17 view .LVU588
 2200 01dc 2374     		strb	r3, [r4, #16]
 2201              	.LVL147:
 2202              	.L62:
 190:../eurorack/plaits/dsp/oscillator/variable_shape_oscillator.h ****         }
 2203              		.loc 3 190 17 view .LVU589
 2204              	.LBE599:
 2205              	.LBE598:
 2206              	.LBB610:
 2207              	.LBB611:
 194:../eurorack/plaits/dsp/oscillator/variable_shape_oscillator.h ****             break;
 2208              		.loc 3 194 11 view .LVU590
 2209 01de B4EEC98A 		vcmpe.f32	s16, s18
 2210 01e2 F1EE10FA 		vmrs	APSR_nzcv, FPSCR
 2211 01e6 1BD5     		bpl	.L76
 2212              	.LVL148:
 194:../eurorack/plaits/dsp/oscillator/variable_shape_oscillator.h ****             break;
 2213              		.loc 3 194 11 view .LVU591
 2214              	.LBE611:
 2215              	.LBE610:
 2216              	.LBB623:
 2217              	.LBI623:
 249:../eurorack/plaits/dsp/oscillator/variable_shape_oscillator.h ****       float phase,
 2218              		.loc 3 249 16 is_stmt 1 view .LVU592
 2219              	.LBB624:
ARM GAS  /var/folders/y7/g6pkzsp12sx54x3s3mvyn15r0000gn/T//ccyV2DV7.s 			page 60


 256:../eurorack/plaits/dsp/oscillator/variable_shape_oscillator.h ****     float square = phase < pw ? 0.0f : 1.0f;
 2220              		.loc 3 256 5 view .LVU593
 257:../eurorack/plaits/dsp/oscillator/variable_shape_oscillator.h ****     float triangle = phase < pw
 2221              		.loc 3 257 5 view .LVU594
 257:../eurorack/plaits/dsp/oscillator/variable_shape_oscillator.h ****     float triangle = phase < pw
 2222              		.loc 3 257 31 is_stmt 0 view .LVU595
 2223 01e8 F4EEC88A 		vcmpe.f32	s17, s16
 2224 01ec F1EE10FA 		vmrs	APSR_nzcv, FPSCR
 2225 01f0 49DD     		ble	.L74
 2226              	.LVL149:
 2227              	.L61:
 258:../eurorack/plaits/dsp/oscillator/variable_shape_oscillator.h ****         ? phase * slope_up
 2228              		.loc 3 258 5 is_stmt 1 view .LVU596
 259:../eurorack/plaits/dsp/oscillator/variable_shape_oscillator.h ****         : 1.0f - (phase - pw) * slope_down;
 2229              		.loc 3 259 9 is_stmt 0 discriminator 1 view .LVU597
 2230 01f2 6AEE88AA 		vmul.f32	s21, s21, s16
 2231              	.LVL150:
 257:../eurorack/plaits/dsp/oscillator/variable_shape_oscillator.h ****     float triangle = phase < pw
 2232              		.loc 3 257 31 discriminator 1 view .LVU598
 2233 01f6 DFED287A 		vldr.32	s15, .L77
 2234              	.LVL151:
 2235              	.L66:
 261:../eurorack/plaits/dsp/oscillator/variable_shape_oscillator.h ****     saw += (triangle - saw) * triangle_amount;
 2236              		.loc 3 261 5 is_stmt 1 view .LVU599
 261:../eurorack/plaits/dsp/oscillator/variable_shape_oscillator.h ****     saw += (triangle - saw) * triangle_amount;
 2237              		.loc 3 261 20 is_stmt 0 view .LVU600
 2238 01fa 77EEC87A 		vsub.f32	s15, s15, s16
 2239              	.LBE624:
 2240              	.LBE623:
 222:../eurorack/plaits/dsp/oscillator/variable_shape_oscillator.h ****       
 2241              		.loc 3 222 20 view .LVU601
 2242 01fe C4ED038A 		vstr.32	s17, [r4, #12]
 2243              	.LBB629:
 2244              	.LBB630:
 2245              	.LBB631:
 2246              	.LBB632:
  60:../eurorack/stmlib/dsp/parameter_interpolator.h ****     return value_;
 2247              		.loc 9 60 12 view .LVU602
 2248 0202 3FEE0DFA 		vadd.f32	s30, s30, s26
 2249              	.LVL152:
  60:../eurorack/stmlib/dsp/parameter_interpolator.h ****     return value_;
 2250              		.loc 9 60 12 view .LVU603
 2251              	.LBE632:
 2252              	.LBE631:
 2253              	.LBE630:
 2254              	.LBE629:
 2255              	.LBB638:
 2256              	.LBB625:
 261:../eurorack/plaits/dsp/oscillator/variable_shape_oscillator.h ****     saw += (triangle - saw) * triangle_amount;
 2257              		.loc 3 261 9 view .LVU604
 2258 0206 ABEE278A 		vfma.f32	s16, s22, s15
 2259              	.LVL153:
 262:../eurorack/plaits/dsp/oscillator/variable_shape_oscillator.h ****     return saw;
 2260              		.loc 3 262 5 is_stmt 1 view .LVU605
 2261              	.LBE625:
 2262              	.LBE638:
 2263              	.LBB639:
ARM GAS  /var/folders/y7/g6pkzsp12sx54x3s3mvyn15r0000gn/T//ccyV2DV7.s 			page 61


 2264              	.LBB635:
 235:../eurorack/plaits/dsp/oscillator/variable_shape_oscillator.h ****       } else {
 2265              		.loc 3 235 25 is_stmt 0 discriminator 1 view .LVU606
 2266 020a E9EE8FFA 		vfma.f32	s31, s19, s30
 2267              	.LBE635:
 2268              	.LBE639:
 2269              	.LBB640:
 2270              	.LBB626:
 262:../eurorack/plaits/dsp/oscillator/variable_shape_oscillator.h ****     return saw;
 2271              		.loc 3 262 22 view .LVU607
 2272 020e 7AEEC8AA 		vsub.f32	s21, s21, s16
 2273              	.LVL154:
 262:../eurorack/plaits/dsp/oscillator/variable_shape_oscillator.h ****     return saw;
 2274              		.loc 3 262 22 view .LVU608
 2275              	.LBE626:
 2276              	.LBE640:
 2277              	.LBB641:
 2278              	.LBB636:
 235:../eurorack/plaits/dsp/oscillator/variable_shape_oscillator.h ****       } else {
 2279              		.loc 3 235 16 discriminator 1 view .LVU609
 2280 0212 E6EC01FA 		vstmia.32	r6!, {s31}
 2281              	.LVL155:
 235:../eurorack/plaits/dsp/oscillator/variable_shape_oscillator.h ****       } else {
 2282              		.loc 3 235 16 discriminator 1 view .LVU610
 2283              	.LBE636:
 2284              	.LBE641:
 2285              	.LBB642:
 2286              	.LBB627:
 262:../eurorack/plaits/dsp/oscillator/variable_shape_oscillator.h ****     return saw;
 2287              		.loc 3 262 9 view .LVU611
 2288 0216 ACEE2A8A 		vfma.f32	s16, s24, s21
 2289              	.LVL156:
 2290              		.loc 3 263 5 is_stmt 1 view .LVU612
 2291              		.loc 3 263 5 is_stmt 0 view .LVU613
 2292              	.LBE627:
 2293              	.LBE642:
 2294              	.LBB643:
 2295              	.LBB637:
 2296              	.LBB634:
 2297              	.LBI631:
  59:../eurorack/stmlib/dsp/parameter_interpolator.h ****     value_ += increment_;
 2298              		.loc 9 59 16 is_stmt 1 view .LVU614
 2299              	.LBB633:
  60:../eurorack/stmlib/dsp/parameter_interpolator.h ****     return value_;
 2300              		.loc 9 60 5 view .LVU615
 2301              		.loc 9 61 5 view .LVU616
 2302              		.loc 9 61 5 is_stmt 0 view .LVU617
 2303              	.LBE633:
 2304              	.LBE634:
 2305              	.LBE637:
 2306              	.LBE643:
 215:../eurorack/plaits/dsp/oscillator/variable_shape_oscillator.h ****           slave_phase_,
 2307              		.loc 3 215 19 discriminator 1 view .LVU618
 2308 021a 77EE089A 		vadd.f32	s19, s14, s16
 2309              	.LVL157:
 2310              	.LBB644:
 215:../eurorack/plaits/dsp/oscillator/variable_shape_oscillator.h ****           slave_phase_,
ARM GAS  /var/folders/y7/g6pkzsp12sx54x3s3mvyn15r0000gn/T//ccyV2DV7.s 			page 62


 2311              		.loc 3 215 19 discriminator 1 view .LVU619
 2312 021e 41E7     		b	.L57
 2313              	.LVL158:
 2314              	.L76:
 215:../eurorack/plaits/dsp/oscillator/variable_shape_oscillator.h ****           slave_phase_,
 2315              		.loc 3 215 19 discriminator 1 view .LVU620
 2316              	.LBE644:
 2317              	.LBB645:
 2318              	.LBB622:
 197:../eurorack/plaits/dsp/oscillator/variable_shape_oscillator.h ****           float t = slave_phase_ / slave_frequency;
 2319              		.loc 3 197 24 view .LVU621
 2320 0220 38EE498A 		vsub.f32	s16, s16, s18
 202:../eurorack/plaits/dsp/oscillator/variable_shape_oscillator.h ****           next_sample -= (1.0f - triangle_amount) * stmlib::NextBlepSample(t);
 2321              		.loc 3 202 32 view .LVU622
 2322 0224 39EE4C4A 		vsub.f32	s8, s18, s24
 199:../eurorack/plaits/dsp/oscillator/variable_shape_oscillator.h ****           triangle_step *= triangle_amount;
 2323              		.loc 3 199 43 view .LVU623
 2324 0228 7AEEABDA 		vadd.f32	s27, s21, s23
 198:../eurorack/plaits/dsp/oscillator/variable_shape_oscillator.h ****           float triangle_step = (slope_up + slope_down) * slave_frequency;
 2325              		.loc 3 198 17 view .LVU624
 2326 022c C8EE0A4A 		vdiv.f32	s9, s16, s20
 2327              	.LVL159:
 197:../eurorack/plaits/dsp/oscillator/variable_shape_oscillator.h ****           float t = slave_phase_ / slave_frequency;
 2328              		.loc 3 197 24 view .LVU625
 2329 0230 84ED018A 		vstr.32	s16, [r4, #4]
 199:../eurorack/plaits/dsp/oscillator/variable_shape_oscillator.h ****           triangle_step *= triangle_amount;
 2330              		.loc 3 199 17 view .LVU626
 2331 0234 6DEE8ADA 		vmul.f32	s27, s27, s20
 2332              	.LVL160:
 200:../eurorack/plaits/dsp/oscillator/variable_shape_oscillator.h **** 
 2333              		.loc 3 200 25 view .LVU627
 2334 0238 6DEE8CDA 		vmul.f32	s27, s27, s24
 2335              	.LVL161:
 2336              	.LBB612:
 2337              	.LBI612:
  37:../eurorack/stmlib/dsp/polyblep.h ****   return 0.5f * t * t;
 2338              		.loc 6 37 14 is_stmt 1 view .LVU628
 2339              	.LBB613:
  38:../eurorack/stmlib/dsp/polyblep.h **** }
 2340              		.loc 6 38 3 view .LVU629
  38:../eurorack/stmlib/dsp/polyblep.h **** }
 2341              		.loc 6 38 15 is_stmt 0 view .LVU630
 2342 023c 64EEAC7A 		vmul.f32	s15, s9, s25
 2343              	.LBE613:
 2344              	.LBE612:
 2345              	.LBB615:
 2346              	.LBB616:
  42:../eurorack/stmlib/dsp/polyblep.h ****   return -0.5f * t * t;
 2347              		.loc 6 42 5 view .LVU631
 2348 0240 CDED054A 		vstr.32	s9, [sp, #20]	@ int
 2349 0244 39EE640A 		vsub.f32	s0, s18, s9
 2350              	.LBE616:
 2351              	.LBE615:
 2352              	.LBB618:
 2353              	.LBB614:
  38:../eurorack/stmlib/dsp/polyblep.h **** }
 2354              		.loc 6 38 21 view .LVU632
ARM GAS  /var/folders/y7/g6pkzsp12sx54x3s3mvyn15r0000gn/T//ccyV2DV7.s 			page 63


 2355 0248 67EEA47A 		vmul.f32	s15, s15, s9
 2356              	.LBE614:
 2357              	.LBE618:
 202:../eurorack/plaits/dsp/oscillator/variable_shape_oscillator.h ****           next_sample -= (1.0f - triangle_amount) * stmlib::NextBlepSample(t);
 2358              		.loc 3 202 23 discriminator 1 view .LVU633
 2359 024c E4EE679A 		vfms.f32	s19, s8, s15
 2360              	.LVL162:
 2361              	.LBB619:
 2362              	.LBI615:
  41:../eurorack/stmlib/dsp/polyblep.h ****   t = 1.0f - t;
 2363              		.loc 6 41 14 is_stmt 1 view .LVU634
 2364              	.LBB617:
  42:../eurorack/stmlib/dsp/polyblep.h ****   return -0.5f * t * t;
 2365              		.loc 6 42 3 view .LVU635
  43:../eurorack/stmlib/dsp/polyblep.h **** }
 2366              		.loc 6 43 3 view .LVU636
  43:../eurorack/stmlib/dsp/polyblep.h **** }
 2367              		.loc 6 43 16 is_stmt 0 view .LVU637
 2368 0250 FEEE007A 		vmov.f32	s15, #-5.0e-1
 2369 0254 60EE277A 		vmul.f32	s15, s0, s15
  43:../eurorack/stmlib/dsp/polyblep.h **** }
 2370              		.loc 6 43 22 view .LVU638
 2371 0258 67EE807A 		vmul.f32	s15, s15, s0
 2372              	.LBE617:
 2373              	.LBE619:
 203:../eurorack/plaits/dsp/oscillator/variable_shape_oscillator.h ****           this_sample += triangle_step * stmlib::ThisIntegratedBlepSample(t);
 2374              		.loc 3 203 23 discriminator 1 view .LVU639
 2375 025c A4EE677A 		vfms.f32	s14, s8, s15
 2376              	.LVL163:
 203:../eurorack/plaits/dsp/oscillator/variable_shape_oscillator.h ****           this_sample += triangle_step * stmlib::ThisIntegratedBlepSample(t);
 2377              		.loc 3 203 23 discriminator 1 view .LVU640
 2378 0260 8DED047A 		vstr.32	s14, [sp, #16]	@ int
 2379              	.LVL164:
 2380              	.LBB620:
 2381              	.LBI620:
  53:../eurorack/stmlib/dsp/polyblep.h ****   return NextIntegratedBlepSample(1.0f - t);
 2382              		.loc 6 53 14 is_stmt 1 view .LVU641
 2383              	.LBB621:
 2384              		.loc 6 54 3 view .LVU642
 2385              		.loc 6 54 34 is_stmt 0 view .LVU643
 2386 0264 FFF7FEFF 		bl	_ZN6stmlib24NextIntegratedBlepSampleEf
 2387              	.LVL165:
 2388              		.loc 6 54 34 view .LVU644
 2389              	.LBE621:
 2390              	.LBE620:
 205:../eurorack/plaits/dsp/oscillator/variable_shape_oscillator.h ****           high_ = false;
 2391              		.loc 3 205 74 view .LVU645
 2392 0268 DDED054A 		vldr.32	s9, [sp, #20]	@ int
 204:../eurorack/plaits/dsp/oscillator/variable_shape_oscillator.h ****           next_sample += triangle_step * stmlib::NextIntegratedBlepSample(t);
 2393              		.loc 3 204 23 discriminator 1 view .LVU646
 2394 026c EDEE809A 		vfma.f32	s19, s27, s0
 2395              	.LVL166:
 205:../eurorack/plaits/dsp/oscillator/variable_shape_oscillator.h ****           high_ = false;
 2396              		.loc 3 205 74 view .LVU647
 2397 0270 B0EE640A 		vmov.f32	s0, s9
 2398 0274 FFF7FEFF 		bl	_ZN6stmlib24NextIntegratedBlepSampleEf
 2399              	.LVL167:
ARM GAS  /var/folders/y7/g6pkzsp12sx54x3s3mvyn15r0000gn/T//ccyV2DV7.s 			page 64


 205:../eurorack/plaits/dsp/oscillator/variable_shape_oscillator.h ****           high_ = false;
 2400              		.loc 3 205 23 discriminator 1 view .LVU648
 2401 0278 9DED047A 		vldr.32	s14, [sp, #16]	@ int
 206:../eurorack/plaits/dsp/oscillator/variable_shape_oscillator.h ****         }
 2402              		.loc 3 206 17 view .LVU649
 2403 027c 0023     		movs	r3, #0
 205:../eurorack/plaits/dsp/oscillator/variable_shape_oscillator.h ****           high_ = false;
 2404              		.loc 3 205 23 discriminator 1 view .LVU650
 2405 027e A0EE2D7A 		vfma.f32	s14, s0, s27
 2406              	.LVL168:
 206:../eurorack/plaits/dsp/oscillator/variable_shape_oscillator.h ****         }
 2407              		.loc 3 206 17 view .LVU651
 2408 0282 2374     		strb	r3, [r4, #16]
 2409              	.LBE622:
 2410 0284 70E7     		b	.L60
 2411              	.LVL169:
 2412              	.L74:
 206:../eurorack/plaits/dsp/oscillator/variable_shape_oscillator.h ****         }
 2413              		.loc 3 206 17 view .LVU652
 2414              	.LBE645:
 2415              	.LBB646:
 2416              	.LBB628:
 258:../eurorack/plaits/dsp/oscillator/variable_shape_oscillator.h ****         ? phase * slope_up
 2417              		.loc 3 258 5 is_stmt 1 view .LVU653
 260:../eurorack/plaits/dsp/oscillator/variable_shape_oscillator.h ****     saw += (square - saw) * square_amount;
 2418              		.loc 3 260 25 is_stmt 0 view .LVU654
 2419 0286 78EE687A 		vsub.f32	s15, s16, s17
 259:../eurorack/plaits/dsp/oscillator/variable_shape_oscillator.h ****         : 1.0f - (phase - pw) * slope_down;
 2420              		.loc 3 259 9 discriminator 2 view .LVU655
 2421 028a ABEEE79A 		vfms.f32	s18, s23, s15
 257:../eurorack/plaits/dsp/oscillator/variable_shape_oscillator.h ****     float triangle = phase < pw
 2422              		.loc 3 257 31 discriminator 2 view .LVU656
 2423 028e F7EE007A 		vmov.f32	s15, #1.0e+0
 259:../eurorack/plaits/dsp/oscillator/variable_shape_oscillator.h ****         : 1.0f - (phase - pw) * slope_down;
 2424              		.loc 3 259 9 discriminator 2 view .LVU657
 2425 0292 F0EE49AA 		vmov.f32	s21, s18
 2426              	.LVL170:
 259:../eurorack/plaits/dsp/oscillator/variable_shape_oscillator.h ****         : 1.0f - (phase - pw) * slope_down;
 2427              		.loc 3 259 9 discriminator 2 view .LVU658
 2428 0296 B0E7     		b	.L66
 2429              	.L78:
 2430              		.align	2
 2431              	.L77:
 2432 0298 00000000 		.word	0
 2433              	.LBE628:
 2434              	.LBE646:
 2435              	.LBE576:
 2436              		.cfi_endproc
 2437              	.LFE1340:
 2439              		.section	.text._ZN6plaits21PhaseDistortionEngine6RenderERKNS_16EngineParametersEPfS4_jPb,"ax",%pro
 2440              		.align	1
 2441              		.global	_ZN6plaits21PhaseDistortionEngine6RenderERKNS_16EngineParametersEPfS4_jPb
 2442              		.syntax unified
 2443              		.thumb
 2444              		.thumb_func
 2446              	_ZN6plaits21PhaseDistortionEngine6RenderERKNS_16EngineParametersEPfS4_jPb:
 2447              	.LVL171:
ARM GAS  /var/folders/y7/g6pkzsp12sx54x3s3mvyn15r0000gn/T//ccyV2DV7.s 			page 65


 2448              	.LFB1327:
  53:../eurorack/plaits/dsp/engine2/phase_distortion_engine.cc **** 
  54:../eurorack/plaits/dsp/engine2/phase_distortion_engine.cc **** void PhaseDistortionEngine::Render(
  55:../eurorack/plaits/dsp/engine2/phase_distortion_engine.cc ****     const EngineParameters& parameters,
  56:../eurorack/plaits/dsp/engine2/phase_distortion_engine.cc ****     float* out,
  57:../eurorack/plaits/dsp/engine2/phase_distortion_engine.cc ****     float* aux,
  58:../eurorack/plaits/dsp/engine2/phase_distortion_engine.cc ****     size_t size,
  59:../eurorack/plaits/dsp/engine2/phase_distortion_engine.cc ****     bool* already_enveloped) {
 2449              		.loc 1 59 30 is_stmt 1 view -0
 2450              		.cfi_startproc
 2451              		@ args = 8, pretend = 0, frame = 0
 2452              		@ frame_needed = 0, uses_anonymous_args = 0
  60:../eurorack/plaits/dsp/engine2/phase_distortion_engine.cc ****   const float f0 = 0.5f * NoteToFrequency(parameters.note);
 2453              		.loc 1 60 3 view .LVU660
 2454              	.LBB652:
 2455              	.LBI652:
 2456              		.file 10 "../eurorack/plaits/dsp/engine/engine.h"
   1:../eurorack/plaits/dsp/engine/engine.h **** // Copyright 2016 Emilie Gillet.
   2:../eurorack/plaits/dsp/engine/engine.h **** //
   3:../eurorack/plaits/dsp/engine/engine.h **** // Author: Emilie Gillet (emilie.o.gillet@gmail.com)
   4:../eurorack/plaits/dsp/engine/engine.h **** //
   5:../eurorack/plaits/dsp/engine/engine.h **** // Permission is hereby granted, free of charge, to any person obtaining a copy
   6:../eurorack/plaits/dsp/engine/engine.h **** // of this software and associated documentation files (the "Software"), to deal
   7:../eurorack/plaits/dsp/engine/engine.h **** // in the Software without restriction, including without limitation the rights
   8:../eurorack/plaits/dsp/engine/engine.h **** // to use, copy, modify, merge, publish, distribute, sublicense, and/or sell
   9:../eurorack/plaits/dsp/engine/engine.h **** // copies of the Software, and to permit persons to whom the Software is
  10:../eurorack/plaits/dsp/engine/engine.h **** // furnished to do so, subject to the following conditions:
  11:../eurorack/plaits/dsp/engine/engine.h **** // 
  12:../eurorack/plaits/dsp/engine/engine.h **** // The above copyright notice and this permission notice shall be included in
  13:../eurorack/plaits/dsp/engine/engine.h **** // all copies or substantial portions of the Software.
  14:../eurorack/plaits/dsp/engine/engine.h **** // 
  15:../eurorack/plaits/dsp/engine/engine.h **** // THE SOFTWARE IS PROVIDED "AS IS", WITHOUT WARRANTY OF ANY KIND, EXPRESS OR
  16:../eurorack/plaits/dsp/engine/engine.h **** // IMPLIED, INCLUDING BUT NOT LIMITED TO THE WARRANTIES OF MERCHANTABILITY,
  17:../eurorack/plaits/dsp/engine/engine.h **** // FITNESS FOR A PARTICULAR PURPOSE AND NONINFRINGEMENT. IN NO EVENT SHALL THE
  18:../eurorack/plaits/dsp/engine/engine.h **** // AUTHORS OR COPYRIGHT HOLDERS BE LIABLE FOR ANY CLAIM, DAMAGES OR OTHER
  19:../eurorack/plaits/dsp/engine/engine.h **** // LIABILITY, WHETHER IN AN ACTION OF CONTRACT, TORT OR OTHERWISE, ARISING FROM,
  20:../eurorack/plaits/dsp/engine/engine.h **** // OUT OF OR IN CONNECTION WITH THE SOFTWARE OR THE USE OR OTHER DEALINGS IN
  21:../eurorack/plaits/dsp/engine/engine.h **** // THE SOFTWARE.
  22:../eurorack/plaits/dsp/engine/engine.h **** // 
  23:../eurorack/plaits/dsp/engine/engine.h **** // See http://creativecommons.org/licenses/MIT/ for more information.
  24:../eurorack/plaits/dsp/engine/engine.h **** //
  25:../eurorack/plaits/dsp/engine/engine.h **** // -----------------------------------------------------------------------------
  26:../eurorack/plaits/dsp/engine/engine.h **** //
  27:../eurorack/plaits/dsp/engine/engine.h **** // Base class for all engines.
  28:../eurorack/plaits/dsp/engine/engine.h **** 
  29:../eurorack/plaits/dsp/engine/engine.h **** #ifndef PLAITS_DSP_ENGINE_ENGINE_H_
  30:../eurorack/plaits/dsp/engine/engine.h **** #define PLAITS_DSP_ENGINE_ENGINE_H_
  31:../eurorack/plaits/dsp/engine/engine.h **** 
  32:../eurorack/plaits/dsp/engine/engine.h **** #include "plaits/dsp/dsp.h"
  33:../eurorack/plaits/dsp/engine/engine.h **** 
  34:../eurorack/plaits/dsp/engine/engine.h **** #include "stmlib/dsp/units.h"
  35:../eurorack/plaits/dsp/engine/engine.h **** #include "stmlib/utils/buffer_allocator.h"
  36:../eurorack/plaits/dsp/engine/engine.h **** 
  37:../eurorack/plaits/dsp/engine/engine.h **** namespace plaits {
  38:../eurorack/plaits/dsp/engine/engine.h **** 
  39:../eurorack/plaits/dsp/engine/engine.h **** inline float NoteToFrequency(float midi_note) {
 2457              		.loc 10 39 14 view .LVU661
ARM GAS  /var/folders/y7/g6pkzsp12sx54x3s3mvyn15r0000gn/T//ccyV2DV7.s 			page 66


 2458              	.LBB653:
  40:../eurorack/plaits/dsp/engine/engine.h ****   midi_note -= 9.0f;
 2459              		.loc 10 40 3 view .LVU662
 2460              		.loc 10 40 13 is_stmt 0 view .LVU663
 2461 0000 B2EE027A 		vmov.f32	s14, #9.0e+0
 2462 0004 D1ED017A 		vldr.32	s15, [r1, #4]
  41:../eurorack/plaits/dsp/engine/engine.h ****   CONSTRAIN(midi_note, -128.0f, 127.0f);
 2463              		.loc 10 41 3 view .LVU664
 2464 0008 9FED5E0A 		vldr.32	s0, .L84
  40:../eurorack/plaits/dsp/engine/engine.h ****   midi_note -= 9.0f;
 2465              		.loc 10 40 13 view .LVU665
 2466 000c 77EEC77A 		vsub.f32	s15, s15, s14
 2467              	.LVL172:
 2468              		.loc 10 41 3 is_stmt 1 view .LVU666
 2469              	.LBE653:
 2470              	.LBE652:
  59:../eurorack/plaits/dsp/engine2/phase_distortion_engine.cc ****   const float f0 = 0.5f * NoteToFrequency(parameters.note);
 2471              		.loc 1 59 30 is_stmt 0 view .LVU667
 2472 0010 2DE9F047 		push	{r4, r5, r6, r7, r8, r9, r10, lr}
 2473              		.cfi_def_cfa_offset 32
 2474              		.cfi_offset 4, -32
 2475              		.cfi_offset 5, -28
 2476              		.cfi_offset 6, -24
 2477              		.cfi_offset 7, -20
 2478              		.cfi_offset 8, -16
 2479              		.cfi_offset 9, -12
 2480              		.cfi_offset 10, -8
 2481              		.cfi_offset 14, -4
 2482              	.LBB658:
 2483              	.LBB654:
 2484              		.loc 10 41 3 view .LVU668
 2485 0014 F4EEC07A 		vcmpe.f32	s15, s0
 2486              	.LBE654:
 2487              	.LBE658:
  59:../eurorack/plaits/dsp/engine2/phase_distortion_engine.cc ****   const float f0 = 0.5f * NoteToFrequency(parameters.note);
 2488              		.loc 1 59 30 view .LVU669
 2489 0018 8146     		mov	r9, r0
 2490 001a 0C46     		mov	r4, r1
 2491 001c 1546     		mov	r5, r2
 2492 001e 9846     		mov	r8, r3
 2493              	.LBB659:
 2494              	.LBB655:
 2495              		.loc 10 41 3 view .LVU670
 2496 0020 F1EE10FA 		vmrs	APSR_nzcv, FPSCR
 2497              	.LBE655:
 2498              	.LBE659:
  59:../eurorack/plaits/dsp/engine2/phase_distortion_engine.cc ****   const float f0 = 0.5f * NoteToFrequency(parameters.note);
 2499              		.loc 1 59 30 view .LVU671
 2500 0024 2DED068B 		vpush.64	{d8, d9, d10}
 2501              		.cfi_def_cfa_offset 56
 2502              		.cfi_offset 80, -56
 2503              		.cfi_offset 81, -52
 2504              		.cfi_offset 82, -48
 2505              		.cfi_offset 83, -44
 2506              		.cfi_offset 84, -40
 2507              		.cfi_offset 85, -36
  59:../eurorack/plaits/dsp/engine2/phase_distortion_engine.cc ****   const float f0 = 0.5f * NoteToFrequency(parameters.note);
ARM GAS  /var/folders/y7/g6pkzsp12sx54x3s3mvyn15r0000gn/T//ccyV2DV7.s 			page 67


 2508              		.loc 1 59 30 view .LVU672
 2509 0028 0E9F     		ldr	r7, [sp, #56]
 2510              	.LBB660:
 2511              	.LBB656:
 2512              		.loc 10 41 3 view .LVU673
 2513 002a 07D4     		bmi	.L80
 2514              		.loc 10 41 3 is_stmt 1 discriminator 2 view .LVU674
 2515 002c 9FED560A 		vldr.32	s0, .L84+4
 2516 0030 F4EEC07A 		vcmpe.f32	s15, s0
 2517 0034 F1EE10FA 		vmrs	APSR_nzcv, FPSCR
 2518 0038 30FE270A 		vselgt.f32	s0, s0, s15
 2519              	.L80:
 2520              	.LVL173:
 2521              		.loc 10 41 40 discriminator 6 view .LVU675
  42:../eurorack/plaits/dsp/engine/engine.h ****   return a0 * 0.25f * stmlib::SemitonesToRatio(midi_note);
 2522              		.loc 10 42 3 view .LVU676
 2523              		.loc 10 42 47 is_stmt 0 view .LVU677
 2524 003c FFF7FEFF 		bl	_ZN6stmlib16SemitonesToRatioEf
 2525              	.LVL174:
 2526              		.loc 10 42 57 discriminator 1 view .LVU678
 2527 0040 DFED527A 		vldr.32	s15, .L84+8
 2528              	.LBE656:
 2529              	.LBE660:
 2530              	.LBB661:
 2531              	.LBB662:
  44:../eurorack/stmlib/dsp/dsp.h ****   MAKE_INTEGRAL_FRACTIONAL(index)
 2532              		.loc 8 44 9 view .LVU679
 2533 0044 9FED527A 		vldr.32	s14, .L84+12
 2534              	.LBE662:
 2535              	.LBE661:
 2536              		.loc 1 60 58 discriminator 1 view .LVU680
 2537 0048 F6EE009A 		vmov.f32	s19, #5.0e-1
 2538              	.LBB667:
 2539              	.LBB657:
 2540              		.loc 10 42 57 discriminator 1 view .LVU681
 2541 004c 20EE279A 		vmul.f32	s18, s0, s15
 2542              	.LBE657:
 2543              	.LBE667:
 2544              	.LBB668:
 2545              	.LBB663:
  44:../eurorack/stmlib/dsp/dsp.h ****   MAKE_INTEGRAL_FRACTIONAL(index)
 2546              		.loc 8 44 9 view .LVU682
 2547 0050 D4ED047A 		vldr.32	s15, [r4, #16]
  46:../eurorack/stmlib/dsp/dsp.h ****   float b = table[index_integral + 1];
 2548              		.loc 8 46 9 view .LVU683
 2549 0054 4F4B     		ldr	r3, .L84+16
 2550 0056 B5EE00AA 		vmov.f32	s20, #2.5e-1
  44:../eurorack/stmlib/dsp/dsp.h ****   MAKE_INTEGRAL_FRACTIONAL(index)
 2551              		.loc 8 44 9 view .LVU684
 2552 005a 67EE877A 		vmul.f32	s15, s15, s14
 2553              	.LBE663:
 2554              	.LBE668:
  61:../eurorack/plaits/dsp/engine2/phase_distortion_engine.cc ****   const float modulator_f = min(0.25f, f0 * SemitonesToRatio(Interpolate(
  62:../eurorack/plaits/dsp/engine2/phase_distortion_engine.cc ****       lut_fm_frequency_quantizer,
  63:../eurorack/plaits/dsp/engine2/phase_distortion_engine.cc ****       parameters.harmonics,
  64:../eurorack/plaits/dsp/engine2/phase_distortion_engine.cc ****       128.0f)));
  65:../eurorack/plaits/dsp/engine2/phase_distortion_engine.cc ****   const float pw = 0.5f + parameters.morph * 0.49f;
ARM GAS  /var/folders/y7/g6pkzsp12sx54x3s3mvyn15r0000gn/T//ccyV2DV7.s 			page 68


  66:../eurorack/plaits/dsp/engine2/phase_distortion_engine.cc ****   const float amount = 8.0f * parameters.timbre * parameters.timbre * \
  67:../eurorack/plaits/dsp/engine2/phase_distortion_engine.cc ****       (1.0f - modulator_f * 3.8f);
  68:../eurorack/plaits/dsp/engine2/phase_distortion_engine.cc ****   
  69:../eurorack/plaits/dsp/engine2/phase_distortion_engine.cc ****   // Upsample by 2x
  70:../eurorack/plaits/dsp/engine2/phase_distortion_engine.cc ****   float* synced = &temp_buffer_[0];
  71:../eurorack/plaits/dsp/engine2/phase_distortion_engine.cc ****   float* free_running = &temp_buffer_[2 * size];
  72:../eurorack/plaits/dsp/engine2/phase_distortion_engine.cc ****   shaper_.Render<true, true>(
 2555              		.loc 1 72 29 view .LVU685
 2556 005e 4FEA470A 		lsl	r10, r7, #1
  60:../eurorack/plaits/dsp/engine2/phase_distortion_engine.cc ****   const float modulator_f = min(0.25f, f0 * SemitonesToRatio(Interpolate(
 2557              		.loc 1 60 58 discriminator 1 view .LVU686
 2558 0062 29EE299A 		vmul.f32	s18, s18, s19
 2559              	.LVL175:
  61:../eurorack/plaits/dsp/engine2/phase_distortion_engine.cc ****   const float modulator_f = min(0.25f, f0 * SemitonesToRatio(Interpolate(
 2560              		.loc 1 61 3 is_stmt 1 view .LVU687
 2561              	.LBB669:
 2562              	.LBI661:
  43:../eurorack/stmlib/dsp/dsp.h ****   index *= size;
 2563              		.loc 8 43 14 view .LVU688
 2564              	.LBB664:
  44:../eurorack/stmlib/dsp/dsp.h ****   MAKE_INTEGRAL_FRACTIONAL(index)
 2565              		.loc 8 44 3 view .LVU689
  45:../eurorack/stmlib/dsp/dsp.h ****   float a = table[index_integral];
 2566              		.loc 8 45 3 view .LVU690
 2567              	.LBE664:
 2568              	.LBE669:
  65:../eurorack/plaits/dsp/engine2/phase_distortion_engine.cc ****   const float amount = 8.0f * parameters.timbre * parameters.timbre * \
 2569              		.loc 1 65 15 is_stmt 0 view .LVU691
 2570 0066 F0EE69AA 		vmov.f32	s21, s19
 2571              	.LBB670:
 2572              	.LBB665:
  45:../eurorack/stmlib/dsp/dsp.h ****   float a = table[index_integral];
 2573              		.loc 8 45 3 view .LVU692
 2574 006a BDEEE77A 		vcvt.s32.f32	s14, s15
 2575              	.LBE665:
 2576              	.LBE670:
  66:../eurorack/plaits/dsp/engine2/phase_distortion_engine.cc ****       (1.0f - modulator_f * 3.8f);
 2577              		.loc 1 66 29 view .LVU693
 2578 006e F2EE008A 		vmov.f32	s17, #8.0e+0
 2579              	.LBB671:
 2580              	.LBB666:
  45:../eurorack/stmlib/dsp/dsp.h ****   float a = table[index_integral];
 2581              		.loc 8 45 3 view .LVU694
 2582 0072 17EE102A 		vmov	r2, s14	@ int
 2583              	.LVL176:
  45:../eurorack/stmlib/dsp/dsp.h ****   float a = table[index_integral];
 2584              		.loc 8 45 3 is_stmt 1 view .LVU695
  46:../eurorack/stmlib/dsp/dsp.h ****   float b = table[index_integral + 1];
 2585              		.loc 8 46 3 view .LVU696
  45:../eurorack/stmlib/dsp/dsp.h ****   float a = table[index_integral];
 2586              		.loc 8 45 3 is_stmt 0 view .LVU697
 2587 0076 B8EEC77A 		vcvt.f32.s32	s14, s14
  46:../eurorack/stmlib/dsp/dsp.h ****   float b = table[index_integral + 1];
 2588              		.loc 8 46 9 view .LVU698
 2589 007a 03EB8201 		add	r1, r3, r2, lsl #2
  45:../eurorack/stmlib/dsp/dsp.h ****   float a = table[index_integral];
 2590              		.loc 8 45 3 view .LVU699
ARM GAS  /var/folders/y7/g6pkzsp12sx54x3s3mvyn15r0000gn/T//ccyV2DV7.s 			page 69


 2591 007e 77EEC77A 		vsub.f32	s15, s15, s14
 2592              	.LVL177:
  46:../eurorack/stmlib/dsp/dsp.h ****   float b = table[index_integral + 1];
 2593              		.loc 8 46 9 view .LVU700
 2594 0082 91ED000A 		vldr.32	s0, [r1]
 2595              	.LVL178:
  47:../eurorack/stmlib/dsp/dsp.h ****   return a + (b - a) * index_fractional;
 2596              		.loc 8 47 3 is_stmt 1 view .LVU701
  48:../eurorack/stmlib/dsp/dsp.h **** }
 2597              		.loc 8 48 3 view .LVU702
  48:../eurorack/stmlib/dsp/dsp.h **** }
 2598              		.loc 8 48 17 is_stmt 0 view .LVU703
 2599 0086 91ED017A 		vldr.32	s14, [r1, #4]
 2600 008a 37EE407A 		vsub.f32	s14, s14, s0
 2601              	.LBE666:
 2602              	.LBE671:
  61:../eurorack/plaits/dsp/engine2/phase_distortion_engine.cc ****       lut_fm_frequency_quantizer,
 2603              		.loc 1 61 61 discriminator 1 view .LVU704
 2604 008e A7EE870A 		vfma.f32	s0, s15, s14
 2605 0092 FFF7FEFF 		bl	_ZN6stmlib16SemitonesToRatioEf
 2606              	.LVL179:
  61:../eurorack/plaits/dsp/engine2/phase_distortion_engine.cc ****       lut_fm_frequency_quantizer,
 2607              		.loc 1 61 43 discriminator 2 view .LVU705
 2608 0096 20EE098A 		vmul.f32	s16, s0, s18
  65:../eurorack/plaits/dsp/engine2/phase_distortion_engine.cc ****   const float amount = 8.0f * parameters.timbre * parameters.timbre * \
 2609              		.loc 1 65 15 view .LVU706
 2610 009a 94ED037A 		vldr.32	s14, [r4, #12]
 2611              		.loc 1 72 29 view .LVU707
 2612 009e B0EE490A 		vmov.f32	s0, s18
  65:../eurorack/plaits/dsp/engine2/phase_distortion_engine.cc ****   const float amount = 8.0f * parameters.timbre * parameters.timbre * \
 2613              		.loc 1 65 15 view .LVU708
 2614 00a2 DFED3D7A 		vldr.32	s15, .L84+20
 2615              		.loc 1 72 29 view .LVU709
 2616 00a6 5246     		mov	r2, r10
 2617 00a8 B4EECA8A 		vcmpe.f32	s16, s20
 2618 00ac DFED3B1A 		vldr.32	s3, .L84+24
  65:../eurorack/plaits/dsp/engine2/phase_distortion_engine.cc ****   const float amount = 8.0f * parameters.timbre * parameters.timbre * \
 2619              		.loc 1 65 15 view .LVU710
 2620 00b0 E7EE27AA 		vfma.f32	s21, s14, s15
  66:../eurorack/plaits/dsp/engine2/phase_distortion_engine.cc ****       (1.0f - modulator_f * 3.8f);
 2621              		.loc 1 66 42 view .LVU711
 2622 00b4 D4ED027A 		vldr.32	s15, [r4, #8]
  67:../eurorack/plaits/dsp/engine2/phase_distortion_engine.cc ****   
 2623              		.loc 1 67 13 view .LVU712
 2624 00b8 9FED397A 		vldr.32	s14, .L84+28
 2625              		.loc 1 72 29 view .LVU713
 2626 00bc 09F11000 		add	r0, r9, #16
 2627 00c0 F1EE10FA 		vmrs	APSR_nzcv, FPSCR
  70:../eurorack/plaits/dsp/engine2/phase_distortion_engine.cc ****   float* free_running = &temp_buffer_[2 * size];
 2628              		.loc 1 70 10 view .LVU714
 2629 00c4 D9F86040 		ldr	r4, [r9, #96]
 2630              	.LVL180:
  66:../eurorack/plaits/dsp/engine2/phase_distortion_engine.cc ****       (1.0f - modulator_f * 3.8f);
 2631              		.loc 1 66 29 view .LVU715
 2632 00c8 67EEA88A 		vmul.f32	s17, s15, s17
  71:../eurorack/plaits/dsp/engine2/phase_distortion_engine.cc ****   shaper_.Render<true, true>(
 2633              		.loc 1 71 10 view .LVU716
ARM GAS  /var/folders/y7/g6pkzsp12sx54x3s3mvyn15r0000gn/T//ccyV2DV7.s 			page 70


 2634 00cc 04EBC706 		add	r6, r4, r7, lsl #3
 2635              		.loc 1 72 29 view .LVU717
 2636 00d0 2146     		mov	r1, r4
 2637 00d2 58BF     		it	pl
 2638 00d4 B0EE4A8A 		vmovpl.f32	s16, s20
  65:../eurorack/plaits/dsp/engine2/phase_distortion_engine.cc ****   const float amount = 8.0f * parameters.timbre * parameters.timbre * \
 2639              		.loc 1 65 3 is_stmt 1 view .LVU718
 2640              	.LVL181:
  66:../eurorack/plaits/dsp/engine2/phase_distortion_engine.cc ****       (1.0f - modulator_f * 3.8f);
 2641              		.loc 1 66 3 view .LVU719
 2642 00d8 05EB8707 		add	r7, r5, r7, lsl #2
  66:../eurorack/plaits/dsp/engine2/phase_distortion_engine.cc ****       (1.0f - modulator_f * 3.8f);
 2643              		.loc 1 66 49 is_stmt 0 view .LVU720
 2644 00dc 68EEA78A 		vmul.f32	s17, s17, s15
  67:../eurorack/plaits/dsp/engine2/phase_distortion_engine.cc ****   
 2645              		.loc 1 67 13 view .LVU721
 2646 00e0 F7EE007A 		vmov.f32	s15, #1.0e+0
 2647              		.loc 1 72 29 view .LVU722
 2648 00e4 B0EE6A1A 		vmov.f32	s2, s21
 2649 00e8 F0EE480A 		vmov.f32	s1, s16
  67:../eurorack/plaits/dsp/engine2/phase_distortion_engine.cc ****   
 2650              		.loc 1 67 13 view .LVU723
 2651 00ec E8EE477A 		vfms.f32	s15, s16, s14
  66:../eurorack/plaits/dsp/engine2/phase_distortion_engine.cc ****       (1.0f - modulator_f * 3.8f);
 2652              		.loc 1 66 15 view .LVU724
 2653 00f0 68EEA78A 		vmul.f32	s17, s17, s15
 2654              	.LVL182:
  70:../eurorack/plaits/dsp/engine2/phase_distortion_engine.cc ****   float* free_running = &temp_buffer_[2 * size];
 2655              		.loc 1 70 3 is_stmt 1 view .LVU725
  71:../eurorack/plaits/dsp/engine2/phase_distortion_engine.cc ****   shaper_.Render<true, true>(
 2656              		.loc 1 71 3 view .LVU726
 2657              		.loc 1 72 3 view .LVU727
 2658              		.loc 1 72 29 is_stmt 0 view .LVU728
 2659 00f4 B0EE682A 		vmov.f32	s4, s17
 2660 00f8 FFF7FEFF 		bl	_ZN6plaits23VariableShapeOscillator6RenderILb1ELb1EEEvfffffPfj
 2661              	.LVL183:
  73:../eurorack/plaits/dsp/engine2/phase_distortion_engine.cc ****       f0, modulator_f, pw, 0.0f, amount, synced, 2 * size);
  74:../eurorack/plaits/dsp/engine2/phase_distortion_engine.cc ****   modulator_.Render<false, true>(
 2662              		.loc 1 74 3 is_stmt 1 view .LVU729
 2663              		.loc 1 74 33 is_stmt 0 view .LVU730
 2664 00fc B0EE682A 		vmov.f32	s4, s17
 2665 0100 B0EE6A1A 		vmov.f32	s2, s21
 2666 0104 5246     		mov	r2, r10
 2667 0106 F0EE480A 		vmov.f32	s1, s16
 2668 010a 3146     		mov	r1, r6
 2669 010c B0EE490A 		vmov.f32	s0, s18
 2670 0110 DFED221A 		vldr.32	s3, .L84+24
 2671 0114 09F13800 		add	r0, r9, #56
 2672 0118 FFF7FEFF 		bl	_ZN6plaits23VariableShapeOscillator6RenderILb0ELb1EEEvfffffPfj
 2673              	.LVL184:
  75:../eurorack/plaits/dsp/engine2/phase_distortion_engine.cc ****       f0, modulator_f, pw, 0.0f, amount, free_running, 2 * size);
  76:../eurorack/plaits/dsp/engine2/phase_distortion_engine.cc ****   
  77:../eurorack/plaits/dsp/engine2/phase_distortion_engine.cc ****   for (size_t i = 0; i < size; ++i) {
 2674              		.loc 1 77 3 is_stmt 1 view .LVU731
 2675              	.L81:
 2676              	.LBB672:
 2677              		.loc 1 77 24 discriminator 1 view .LVU732
ARM GAS  /var/folders/y7/g6pkzsp12sx54x3s3mvyn15r0000gn/T//ccyV2DV7.s 			page 71


 2678 011c BD42     		cmp	r5, r7
 2679 011e 04F10804 		add	r4, r4, #8
 2680              	.LVL185:
 2681              		.loc 1 77 24 is_stmt 0 discriminator 1 view .LVU733
 2682 0122 06F10806 		add	r6, r6, #8
 2683 0126 03D1     		bne	.L82
 2684              	.LBE672:
  78:../eurorack/plaits/dsp/engine2/phase_distortion_engine.cc ****     // Naive 0.5x downsampling.
  79:../eurorack/plaits/dsp/engine2/phase_distortion_engine.cc ****     out[i] = 0.5f * Sine(*synced++ + 0.25f);
  80:../eurorack/plaits/dsp/engine2/phase_distortion_engine.cc ****     out[i] += 0.5f * Sine(*synced++ + 0.25f);
  81:../eurorack/plaits/dsp/engine2/phase_distortion_engine.cc ****     
  82:../eurorack/plaits/dsp/engine2/phase_distortion_engine.cc ****     aux[i] = 0.5f * Sine(*free_running++ + 0.25f);
  83:../eurorack/plaits/dsp/engine2/phase_distortion_engine.cc ****     aux[i] += 0.5f * Sine(*free_running++ + 0.25f);
  84:../eurorack/plaits/dsp/engine2/phase_distortion_engine.cc ****   }
  85:../eurorack/plaits/dsp/engine2/phase_distortion_engine.cc **** }
 2685              		.loc 1 85 1 view .LVU734
 2686 0128 BDEC068B 		vldm	sp!, {d8-d10}
 2687              		.cfi_remember_state
 2688              		.cfi_restore 84
 2689              		.cfi_restore 85
 2690              		.cfi_restore 82
 2691              		.cfi_restore 83
 2692              		.cfi_restore 80
 2693              		.cfi_restore 81
 2694              		.cfi_def_cfa_offset 32
 2695              	.LVL186:
 2696              		.loc 1 85 1 view .LVU735
 2697 012c BDE8F087 		pop	{r4, r5, r6, r7, r8, r9, r10, pc}
 2698              	.LVL187:
 2699              	.L82:
 2700              		.cfi_restore_state
 2701              	.LBB673:
  79:../eurorack/plaits/dsp/engine2/phase_distortion_engine.cc ****     out[i] += 0.5f * Sine(*synced++ + 0.25f);
 2702              		.loc 1 79 5 is_stmt 1 view .LVU736
  79:../eurorack/plaits/dsp/engine2/phase_distortion_engine.cc ****     out[i] += 0.5f * Sine(*synced++ + 0.25f);
 2703              		.loc 1 79 25 is_stmt 0 view .LVU737
 2704 0130 14ED020A 		vldr.32	s0, [r4, #-8]
 2705 0134 30EE0A0A 		vadd.f32	s0, s0, s20
 2706 0138 FFF7FEFF 		bl	_ZN6plaits4SineEf
 2707              	.LVL188:
  79:../eurorack/plaits/dsp/engine2/phase_distortion_engine.cc ****     out[i] += 0.5f * Sine(*synced++ + 0.25f);
 2708              		.loc 1 79 19 discriminator 1 view .LVU738
 2709 013c 20EE298A 		vmul.f32	s16, s0, s19
  79:../eurorack/plaits/dsp/engine2/phase_distortion_engine.cc ****     out[i] += 0.5f * Sine(*synced++ + 0.25f);
 2710              		.loc 1 79 12 discriminator 1 view .LVU739
 2711 0140 85ED008A 		vstr.32	s16, [r5]
  80:../eurorack/plaits/dsp/engine2/phase_distortion_engine.cc ****     
 2712              		.loc 1 80 5 is_stmt 1 view .LVU740
 2713              	.LVL189:
  80:../eurorack/plaits/dsp/engine2/phase_distortion_engine.cc ****     
 2714              		.loc 1 80 26 is_stmt 0 view .LVU741
 2715 0144 14ED010A 		vldr.32	s0, [r4, #-4]
 2716 0148 30EE0A0A 		vadd.f32	s0, s0, s20
 2717 014c FFF7FEFF 		bl	_ZN6plaits4SineEf
 2718              	.LVL190:
  80:../eurorack/plaits/dsp/engine2/phase_distortion_engine.cc ****     
 2719              		.loc 1 80 12 discriminator 1 view .LVU742
ARM GAS  /var/folders/y7/g6pkzsp12sx54x3s3mvyn15r0000gn/T//ccyV2DV7.s 			page 72


 2720 0150 A0EE298A 		vfma.f32	s16, s0, s19
 2721 0154 A5EC018A 		vstmia.32	r5!, {s16}
  82:../eurorack/plaits/dsp/engine2/phase_distortion_engine.cc ****     aux[i] += 0.5f * Sine(*free_running++ + 0.25f);
 2722              		.loc 1 82 5 is_stmt 1 view .LVU743
  82:../eurorack/plaits/dsp/engine2/phase_distortion_engine.cc ****     aux[i] += 0.5f * Sine(*free_running++ + 0.25f);
 2723              		.loc 1 82 25 is_stmt 0 view .LVU744
 2724 0158 16ED020A 		vldr.32	s0, [r6, #-8]
 2725 015c 30EE0A0A 		vadd.f32	s0, s0, s20
 2726 0160 FFF7FEFF 		bl	_ZN6plaits4SineEf
 2727              	.LVL191:
  82:../eurorack/plaits/dsp/engine2/phase_distortion_engine.cc ****     aux[i] += 0.5f * Sine(*free_running++ + 0.25f);
 2728              		.loc 1 82 19 discriminator 1 view .LVU745
 2729 0164 20EE298A 		vmul.f32	s16, s0, s19
  82:../eurorack/plaits/dsp/engine2/phase_distortion_engine.cc ****     aux[i] += 0.5f * Sine(*free_running++ + 0.25f);
 2730              		.loc 1 82 12 discriminator 1 view .LVU746
 2731 0168 88ED008A 		vstr.32	s16, [r8]
  83:../eurorack/plaits/dsp/engine2/phase_distortion_engine.cc ****   }
 2732              		.loc 1 83 5 is_stmt 1 view .LVU747
  83:../eurorack/plaits/dsp/engine2/phase_distortion_engine.cc ****   }
 2733              		.loc 1 83 26 is_stmt 0 view .LVU748
 2734 016c 16ED010A 		vldr.32	s0, [r6, #-4]
 2735 0170 30EE0A0A 		vadd.f32	s0, s0, s20
 2736 0174 FFF7FEFF 		bl	_ZN6plaits4SineEf
 2737              	.LVL192:
  83:../eurorack/plaits/dsp/engine2/phase_distortion_engine.cc ****   }
 2738              		.loc 1 83 12 discriminator 1 view .LVU749
 2739 0178 A0EE298A 		vfma.f32	s16, s0, s19
 2740 017c A8EC018A 		vstmia.32	r8!, {s16}
  77:../eurorack/plaits/dsp/engine2/phase_distortion_engine.cc ****     // Naive 0.5x downsampling.
 2741              		.loc 1 77 3 is_stmt 1 discriminator 3 view .LVU750
 2742 0180 CCE7     		b	.L81
 2743              	.L85:
 2744 0182 00BF     		.align	2
 2745              	.L84:
 2746 0184 000000C3 		.word	-1023410176
 2747 0188 0000FE42 		.word	1123942400
 2748 018c 51969639 		.word	966170193
 2749 0190 00000043 		.word	1124073472
 2750 0194 00000000 		.word	_ZN6plaits26lut_fm_frequency_quantizerE
 2751 0198 48E1FA3E 		.word	1056629064
 2752 019c 00000000 		.word	0
 2753 01a0 33337340 		.word	1081291571
 2754              	.LBE673:
 2755              		.cfi_endproc
 2756              	.LFE1327:
 2758              		.global	_ZTVN6plaits21PhaseDistortionEngineE
 2759              		.section	.rodata._ZTVN6plaits21PhaseDistortionEngineE,"a"
 2760              		.align	2
 2763              	_ZTVN6plaits21PhaseDistortionEngineE:
 2764 0000 00000000 		.word	0
 2765 0004 00000000 		.word	0
 2766 0008 00000000 		.word	_ZN6plaits21PhaseDistortionEngine4InitEPN6stmlib15BufferAllocatorE
 2767 000c 00000000 		.word	_ZN6plaits21PhaseDistortionEngine5ResetEv
 2768 0010 00000000 		.word	_ZN6plaits21PhaseDistortionEngine12LoadUserDataEPKh
 2769 0014 00000000 		.word	_ZN6plaits21PhaseDistortionEngine6RenderERKNS_16EngineParametersEPfS4_jPb
 2770              		.text
 2771              	.Letext0:
ARM GAS  /var/folders/y7/g6pkzsp12sx54x3s3mvyn15r0000gn/T//ccyV2DV7.s 			page 73


 2772              		.file 11 "/Applications/ArmGNUToolchain/14.2.rel1/arm-none-eabi/arm-none-eabi/include/machine/_def
 2773              		.file 12 "/Applications/ArmGNUToolchain/14.2.rel1/arm-none-eabi/arm-none-eabi/include/sys/_stdint.
 2774              		.file 13 "/Applications/ArmGNUToolchain/14.2.rel1/arm-none-eabi/lib/gcc/arm-none-eabi/14.2.1/inclu
 2775              		.file 14 "/Applications/ArmGNUToolchain/14.2.rel1/arm-none-eabi/arm-none-eabi/include/c++/14.2.1/c
 2776              		.file 15 "/Applications/ArmGNUToolchain/14.2.rel1/arm-none-eabi/arm-none-eabi/include/c++/14.2.1/b
 2777              		.file 16 "/Applications/ArmGNUToolchain/14.2.rel1/arm-none-eabi/arm-none-eabi/include/c++/14.2.1/t
 2778              		.file 17 "/Applications/ArmGNUToolchain/14.2.rel1/arm-none-eabi/arm-none-eabi/include/c++/14.2.1/d
 2779              		.file 18 "/Applications/ArmGNUToolchain/14.2.rel1/arm-none-eabi/arm-none-eabi/include/c++/14.2.1/c
 2780              		.file 19 "/Applications/ArmGNUToolchain/14.2.rel1/arm-none-eabi/arm-none-eabi/include/c++/14.2.1/b
 2781              		.file 20 "/Applications/ArmGNUToolchain/14.2.rel1/arm-none-eabi/arm-none-eabi/include/c++/14.2.1/b
 2782              		.file 21 "/Applications/ArmGNUToolchain/14.2.rel1/arm-none-eabi/arm-none-eabi/include/math.h"
 2783              		.file 22 "/Applications/ArmGNUToolchain/14.2.rel1/arm-none-eabi/arm-none-eabi/include/stdlib.h"
 2784              		.file 23 "/Applications/ArmGNUToolchain/14.2.rel1/arm-none-eabi/arm-none-eabi/include/c++/14.2.1/m
 2785              		.file 24 "../eurorack/stmlib/stmlib.h"
 2786              		.file 25 "/Applications/ArmGNUToolchain/14.2.rel1/arm-none-eabi/arm-none-eabi/include/c++/14.2.1/a
 2787              		.file 26 "/Applications/ArmGNUToolchain/14.2.rel1/arm-none-eabi/arm-none-eabi/include/c++/14.2.1/b
 2788              		.file 27 "../eurorack/plaits/dsp/dsp.h"
 2789              		.file 28 "../eurorack/plaits/dsp/oscillator/oscillator.h"
 2790              		.file 29 "../eurorack/plaits/resources.h"
ARM GAS  /var/folders/y7/g6pkzsp12sx54x3s3mvyn15r0000gn/T//ccyV2DV7.s 			page 74

