ARM GAS  /var/folders/y7/g6pkzsp12sx54x3s3mvyn15r0000gn/T//cc4mEVA6.s 			page 1


   1              		.cpu cortex-m7
   2              		.arch armv7e-m
   3              		.fpu fpv5-d16
   4              		.eabi_attribute 28, 1
   5              		.eabi_attribute 20, 1
   6              		.eabi_attribute 21, 1
   7              		.eabi_attribute 23, 3
   8              		.eabi_attribute 24, 1
   9              		.eabi_attribute 25, 1
  10              		.eabi_attribute 26, 1
  11              		.eabi_attribute 30, 4
  12              		.eabi_attribute 34, 1
  13              		.eabi_attribute 18, 4
  14              		.file	"resonator.cc"
  15              		.text
  16              	.Ltext0:
  17              		.cfi_sections	.debug_frame
  18              		.file 1 "../eurorack/plaits/dsp/physical_modelling/resonator.cc"
  19              		.section	.text._ZN6plaits9Resonator4InitEfi,"ax",%progbits
  20              		.align	1
  21              		.global	_ZN6plaits9Resonator4InitEfi
  22              		.syntax unified
  23              		.thumb
  24              		.thumb_func
  26              	_ZN6plaits9Resonator4InitEfi:
  27              	.LVL0:
  28              	.LFB1319:
   1:../eurorack/plaits/dsp/physical_modelling/resonator.cc **** // Copyright 2016 Emilie Gillet.
   2:../eurorack/plaits/dsp/physical_modelling/resonator.cc **** //
   3:../eurorack/plaits/dsp/physical_modelling/resonator.cc **** // Author: Emilie Gillet (emilie.o.gillet@gmail.com)
   4:../eurorack/plaits/dsp/physical_modelling/resonator.cc **** //
   5:../eurorack/plaits/dsp/physical_modelling/resonator.cc **** // Permission is hereby granted, free of charge, to any person obtaining a copy
   6:../eurorack/plaits/dsp/physical_modelling/resonator.cc **** // of this software and associated documentation files (the "Software"), to deal
   7:../eurorack/plaits/dsp/physical_modelling/resonator.cc **** // in the Software without restriction, including without limitation the rights
   8:../eurorack/plaits/dsp/physical_modelling/resonator.cc **** // to use, copy, modify, merge, publish, distribute, sublicense, and/or sell
   9:../eurorack/plaits/dsp/physical_modelling/resonator.cc **** // copies of the Software, and to permit persons to whom the Software is
  10:../eurorack/plaits/dsp/physical_modelling/resonator.cc **** // furnished to do so, subject to the following conditions:
  11:../eurorack/plaits/dsp/physical_modelling/resonator.cc **** // 
  12:../eurorack/plaits/dsp/physical_modelling/resonator.cc **** // The above copyright notice and this permission notice shall be included in
  13:../eurorack/plaits/dsp/physical_modelling/resonator.cc **** // all copies or substantial portions of the Software.
  14:../eurorack/plaits/dsp/physical_modelling/resonator.cc **** // 
  15:../eurorack/plaits/dsp/physical_modelling/resonator.cc **** // THE SOFTWARE IS PROVIDED "AS IS", WITHOUT WARRANTY OF ANY KIND, EXPRESS OR
  16:../eurorack/plaits/dsp/physical_modelling/resonator.cc **** // IMPLIED, INCLUDING BUT NOT LIMITED TO THE WARRANTIES OF MERCHANTABILITY,
  17:../eurorack/plaits/dsp/physical_modelling/resonator.cc **** // FITNESS FOR A PARTICULAR PURPOSE AND NONINFRINGEMENT. IN NO EVENT SHALL THE
  18:../eurorack/plaits/dsp/physical_modelling/resonator.cc **** // AUTHORS OR COPYRIGHT HOLDERS BE LIABLE FOR ANY CLAIM, DAMAGES OR OTHER
  19:../eurorack/plaits/dsp/physical_modelling/resonator.cc **** // LIABILITY, WHETHER IN AN ACTION OF CONTRACT, TORT OR OTHERWISE, ARISING FROM,
  20:../eurorack/plaits/dsp/physical_modelling/resonator.cc **** // OUT OF OR IN CONNECTION WITH THE SOFTWARE OR THE USE OR OTHER DEALINGS IN
  21:../eurorack/plaits/dsp/physical_modelling/resonator.cc **** // THE SOFTWARE.
  22:../eurorack/plaits/dsp/physical_modelling/resonator.cc **** // 
  23:../eurorack/plaits/dsp/physical_modelling/resonator.cc **** // See http://creativecommons.org/licenses/MIT/ for more information.
  24:../eurorack/plaits/dsp/physical_modelling/resonator.cc **** //
  25:../eurorack/plaits/dsp/physical_modelling/resonator.cc **** // -----------------------------------------------------------------------------
  26:../eurorack/plaits/dsp/physical_modelling/resonator.cc **** //
  27:../eurorack/plaits/dsp/physical_modelling/resonator.cc **** // Resonator, taken from Rings' code but with fixed position.
  28:../eurorack/plaits/dsp/physical_modelling/resonator.cc **** 
  29:../eurorack/plaits/dsp/physical_modelling/resonator.cc **** #include "plaits/dsp/physical_modelling/resonator.h"
  30:../eurorack/plaits/dsp/physical_modelling/resonator.cc **** 
ARM GAS  /var/folders/y7/g6pkzsp12sx54x3s3mvyn15r0000gn/T//cc4mEVA6.s 			page 2


  31:../eurorack/plaits/dsp/physical_modelling/resonator.cc **** #include <algorithm>
  32:../eurorack/plaits/dsp/physical_modelling/resonator.cc **** 
  33:../eurorack/plaits/dsp/physical_modelling/resonator.cc **** #include "stmlib/dsp/cosine_oscillator.h"
  34:../eurorack/plaits/dsp/physical_modelling/resonator.cc **** #include "stmlib/dsp/dsp.h"
  35:../eurorack/plaits/dsp/physical_modelling/resonator.cc **** #include "stmlib/dsp/units.h"
  36:../eurorack/plaits/dsp/physical_modelling/resonator.cc **** 
  37:../eurorack/plaits/dsp/physical_modelling/resonator.cc **** #include "plaits/resources.h"
  38:../eurorack/plaits/dsp/physical_modelling/resonator.cc **** 
  39:../eurorack/plaits/dsp/physical_modelling/resonator.cc **** namespace plaits {
  40:../eurorack/plaits/dsp/physical_modelling/resonator.cc **** 
  41:../eurorack/plaits/dsp/physical_modelling/resonator.cc **** using namespace std;
  42:../eurorack/plaits/dsp/physical_modelling/resonator.cc **** using namespace stmlib;
  43:../eurorack/plaits/dsp/physical_modelling/resonator.cc **** 
  44:../eurorack/plaits/dsp/physical_modelling/resonator.cc **** void Resonator::Init(float position, int resolution) {
  29              		.loc 1 44 54 view -0
  30              		.cfi_startproc
  31              		@ args = 0, pretend = 0, frame = 0
  32              		@ frame_needed = 0, uses_anonymous_args = 0
  33              		@ link register save eliminated.
  45:../eurorack/plaits/dsp/physical_modelling/resonator.cc ****   resolution_ = min(resolution, kMaxNumModes);
  34              		.loc 1 45 3 view .LVU1
  35              	.LBB32:
  36              	.LBI32:
  37              		.file 2 "/Applications/ArmGNUToolchain/14.2.rel1/arm-none-eabi/arm-none-eabi/include/c++/14.2.1/bi
   1:/Applications/ArmGNUToolchain/14.2.rel1/arm-none-eabi/arm-none-eabi/include/c++/14.2.1/bits/stl_algobase.h **** // Core algorithmic facilities -*- C++ -*-
   2:/Applications/ArmGNUToolchain/14.2.rel1/arm-none-eabi/arm-none-eabi/include/c++/14.2.1/bits/stl_algobase.h **** 
   3:/Applications/ArmGNUToolchain/14.2.rel1/arm-none-eabi/arm-none-eabi/include/c++/14.2.1/bits/stl_algobase.h **** // Copyright (C) 2001-2024 Free Software Foundation, Inc.
   4:/Applications/ArmGNUToolchain/14.2.rel1/arm-none-eabi/arm-none-eabi/include/c++/14.2.1/bits/stl_algobase.h **** //
   5:/Applications/ArmGNUToolchain/14.2.rel1/arm-none-eabi/arm-none-eabi/include/c++/14.2.1/bits/stl_algobase.h **** // This file is part of the GNU ISO C++ Library.  This library is free
   6:/Applications/ArmGNUToolchain/14.2.rel1/arm-none-eabi/arm-none-eabi/include/c++/14.2.1/bits/stl_algobase.h **** // software; you can redistribute it and/or modify it under the
   7:/Applications/ArmGNUToolchain/14.2.rel1/arm-none-eabi/arm-none-eabi/include/c++/14.2.1/bits/stl_algobase.h **** // terms of the GNU General Public License as published by the
   8:/Applications/ArmGNUToolchain/14.2.rel1/arm-none-eabi/arm-none-eabi/include/c++/14.2.1/bits/stl_algobase.h **** // Free Software Foundation; either version 3, or (at your option)
   9:/Applications/ArmGNUToolchain/14.2.rel1/arm-none-eabi/arm-none-eabi/include/c++/14.2.1/bits/stl_algobase.h **** // any later version.
  10:/Applications/ArmGNUToolchain/14.2.rel1/arm-none-eabi/arm-none-eabi/include/c++/14.2.1/bits/stl_algobase.h **** 
  11:/Applications/ArmGNUToolchain/14.2.rel1/arm-none-eabi/arm-none-eabi/include/c++/14.2.1/bits/stl_algobase.h **** // This library is distributed in the hope that it will be useful,
  12:/Applications/ArmGNUToolchain/14.2.rel1/arm-none-eabi/arm-none-eabi/include/c++/14.2.1/bits/stl_algobase.h **** // but WITHOUT ANY WARRANTY; without even the implied warranty of
  13:/Applications/ArmGNUToolchain/14.2.rel1/arm-none-eabi/arm-none-eabi/include/c++/14.2.1/bits/stl_algobase.h **** // MERCHANTABILITY or FITNESS FOR A PARTICULAR PURPOSE.  See the
  14:/Applications/ArmGNUToolchain/14.2.rel1/arm-none-eabi/arm-none-eabi/include/c++/14.2.1/bits/stl_algobase.h **** // GNU General Public License for more details.
  15:/Applications/ArmGNUToolchain/14.2.rel1/arm-none-eabi/arm-none-eabi/include/c++/14.2.1/bits/stl_algobase.h **** 
  16:/Applications/ArmGNUToolchain/14.2.rel1/arm-none-eabi/arm-none-eabi/include/c++/14.2.1/bits/stl_algobase.h **** // Under Section 7 of GPL version 3, you are granted additional
  17:/Applications/ArmGNUToolchain/14.2.rel1/arm-none-eabi/arm-none-eabi/include/c++/14.2.1/bits/stl_algobase.h **** // permissions described in the GCC Runtime Library Exception, version
  18:/Applications/ArmGNUToolchain/14.2.rel1/arm-none-eabi/arm-none-eabi/include/c++/14.2.1/bits/stl_algobase.h **** // 3.1, as published by the Free Software Foundation.
  19:/Applications/ArmGNUToolchain/14.2.rel1/arm-none-eabi/arm-none-eabi/include/c++/14.2.1/bits/stl_algobase.h **** 
  20:/Applications/ArmGNUToolchain/14.2.rel1/arm-none-eabi/arm-none-eabi/include/c++/14.2.1/bits/stl_algobase.h **** // You should have received a copy of the GNU General Public License and
  21:/Applications/ArmGNUToolchain/14.2.rel1/arm-none-eabi/arm-none-eabi/include/c++/14.2.1/bits/stl_algobase.h **** // a copy of the GCC Runtime Library Exception along with this program;
  22:/Applications/ArmGNUToolchain/14.2.rel1/arm-none-eabi/arm-none-eabi/include/c++/14.2.1/bits/stl_algobase.h **** // see the files COPYING3 and COPYING.RUNTIME respectively.  If not, see
  23:/Applications/ArmGNUToolchain/14.2.rel1/arm-none-eabi/arm-none-eabi/include/c++/14.2.1/bits/stl_algobase.h **** // <http://www.gnu.org/licenses/>.
  24:/Applications/ArmGNUToolchain/14.2.rel1/arm-none-eabi/arm-none-eabi/include/c++/14.2.1/bits/stl_algobase.h **** 
  25:/Applications/ArmGNUToolchain/14.2.rel1/arm-none-eabi/arm-none-eabi/include/c++/14.2.1/bits/stl_algobase.h **** /*
  26:/Applications/ArmGNUToolchain/14.2.rel1/arm-none-eabi/arm-none-eabi/include/c++/14.2.1/bits/stl_algobase.h ****  *
  27:/Applications/ArmGNUToolchain/14.2.rel1/arm-none-eabi/arm-none-eabi/include/c++/14.2.1/bits/stl_algobase.h ****  * Copyright (c) 1994
  28:/Applications/ArmGNUToolchain/14.2.rel1/arm-none-eabi/arm-none-eabi/include/c++/14.2.1/bits/stl_algobase.h ****  * Hewlett-Packard Company
  29:/Applications/ArmGNUToolchain/14.2.rel1/arm-none-eabi/arm-none-eabi/include/c++/14.2.1/bits/stl_algobase.h ****  *
  30:/Applications/ArmGNUToolchain/14.2.rel1/arm-none-eabi/arm-none-eabi/include/c++/14.2.1/bits/stl_algobase.h ****  * Permission to use, copy, modify, distribute and sell this software
  31:/Applications/ArmGNUToolchain/14.2.rel1/arm-none-eabi/arm-none-eabi/include/c++/14.2.1/bits/stl_algobase.h ****  * and its documentation for any purpose is hereby granted without fee,
  32:/Applications/ArmGNUToolchain/14.2.rel1/arm-none-eabi/arm-none-eabi/include/c++/14.2.1/bits/stl_algobase.h ****  * provided that the above copyright notice appear in all copies and
  33:/Applications/ArmGNUToolchain/14.2.rel1/arm-none-eabi/arm-none-eabi/include/c++/14.2.1/bits/stl_algobase.h ****  * that both that copyright notice and this permission notice appear
ARM GAS  /var/folders/y7/g6pkzsp12sx54x3s3mvyn15r0000gn/T//cc4mEVA6.s 			page 3


  34:/Applications/ArmGNUToolchain/14.2.rel1/arm-none-eabi/arm-none-eabi/include/c++/14.2.1/bits/stl_algobase.h ****  * in supporting documentation.  Hewlett-Packard Company makes no
  35:/Applications/ArmGNUToolchain/14.2.rel1/arm-none-eabi/arm-none-eabi/include/c++/14.2.1/bits/stl_algobase.h ****  * representations about the suitability of this software for any
  36:/Applications/ArmGNUToolchain/14.2.rel1/arm-none-eabi/arm-none-eabi/include/c++/14.2.1/bits/stl_algobase.h ****  * purpose.  It is provided "as is" without express or implied warranty.
  37:/Applications/ArmGNUToolchain/14.2.rel1/arm-none-eabi/arm-none-eabi/include/c++/14.2.1/bits/stl_algobase.h ****  *
  38:/Applications/ArmGNUToolchain/14.2.rel1/arm-none-eabi/arm-none-eabi/include/c++/14.2.1/bits/stl_algobase.h ****  *
  39:/Applications/ArmGNUToolchain/14.2.rel1/arm-none-eabi/arm-none-eabi/include/c++/14.2.1/bits/stl_algobase.h ****  * Copyright (c) 1996-1998
  40:/Applications/ArmGNUToolchain/14.2.rel1/arm-none-eabi/arm-none-eabi/include/c++/14.2.1/bits/stl_algobase.h ****  * Silicon Graphics Computer Systems, Inc.
  41:/Applications/ArmGNUToolchain/14.2.rel1/arm-none-eabi/arm-none-eabi/include/c++/14.2.1/bits/stl_algobase.h ****  *
  42:/Applications/ArmGNUToolchain/14.2.rel1/arm-none-eabi/arm-none-eabi/include/c++/14.2.1/bits/stl_algobase.h ****  * Permission to use, copy, modify, distribute and sell this software
  43:/Applications/ArmGNUToolchain/14.2.rel1/arm-none-eabi/arm-none-eabi/include/c++/14.2.1/bits/stl_algobase.h ****  * and its documentation for any purpose is hereby granted without fee,
  44:/Applications/ArmGNUToolchain/14.2.rel1/arm-none-eabi/arm-none-eabi/include/c++/14.2.1/bits/stl_algobase.h ****  * provided that the above copyright notice appear in all copies and
  45:/Applications/ArmGNUToolchain/14.2.rel1/arm-none-eabi/arm-none-eabi/include/c++/14.2.1/bits/stl_algobase.h ****  * that both that copyright notice and this permission notice appear
  46:/Applications/ArmGNUToolchain/14.2.rel1/arm-none-eabi/arm-none-eabi/include/c++/14.2.1/bits/stl_algobase.h ****  * in supporting documentation.  Silicon Graphics makes no
  47:/Applications/ArmGNUToolchain/14.2.rel1/arm-none-eabi/arm-none-eabi/include/c++/14.2.1/bits/stl_algobase.h ****  * representations about the suitability of this software for any
  48:/Applications/ArmGNUToolchain/14.2.rel1/arm-none-eabi/arm-none-eabi/include/c++/14.2.1/bits/stl_algobase.h ****  * purpose.  It is provided "as is" without express or implied warranty.
  49:/Applications/ArmGNUToolchain/14.2.rel1/arm-none-eabi/arm-none-eabi/include/c++/14.2.1/bits/stl_algobase.h ****  */
  50:/Applications/ArmGNUToolchain/14.2.rel1/arm-none-eabi/arm-none-eabi/include/c++/14.2.1/bits/stl_algobase.h **** 
  51:/Applications/ArmGNUToolchain/14.2.rel1/arm-none-eabi/arm-none-eabi/include/c++/14.2.1/bits/stl_algobase.h **** /** @file bits/stl_algobase.h
  52:/Applications/ArmGNUToolchain/14.2.rel1/arm-none-eabi/arm-none-eabi/include/c++/14.2.1/bits/stl_algobase.h ****  *  This is an internal header file, included by other library headers.
  53:/Applications/ArmGNUToolchain/14.2.rel1/arm-none-eabi/arm-none-eabi/include/c++/14.2.1/bits/stl_algobase.h ****  *  Do not attempt to use it directly. @headername{algorithm}
  54:/Applications/ArmGNUToolchain/14.2.rel1/arm-none-eabi/arm-none-eabi/include/c++/14.2.1/bits/stl_algobase.h ****  */
  55:/Applications/ArmGNUToolchain/14.2.rel1/arm-none-eabi/arm-none-eabi/include/c++/14.2.1/bits/stl_algobase.h **** 
  56:/Applications/ArmGNUToolchain/14.2.rel1/arm-none-eabi/arm-none-eabi/include/c++/14.2.1/bits/stl_algobase.h **** #ifndef _STL_ALGOBASE_H
  57:/Applications/ArmGNUToolchain/14.2.rel1/arm-none-eabi/arm-none-eabi/include/c++/14.2.1/bits/stl_algobase.h **** #define _STL_ALGOBASE_H 1
  58:/Applications/ArmGNUToolchain/14.2.rel1/arm-none-eabi/arm-none-eabi/include/c++/14.2.1/bits/stl_algobase.h **** 
  59:/Applications/ArmGNUToolchain/14.2.rel1/arm-none-eabi/arm-none-eabi/include/c++/14.2.1/bits/stl_algobase.h **** #include <bits/c++config.h>
  60:/Applications/ArmGNUToolchain/14.2.rel1/arm-none-eabi/arm-none-eabi/include/c++/14.2.1/bits/stl_algobase.h **** #include <bits/functexcept.h>
  61:/Applications/ArmGNUToolchain/14.2.rel1/arm-none-eabi/arm-none-eabi/include/c++/14.2.1/bits/stl_algobase.h **** #include <bits/cpp_type_traits.h>
  62:/Applications/ArmGNUToolchain/14.2.rel1/arm-none-eabi/arm-none-eabi/include/c++/14.2.1/bits/stl_algobase.h **** #include <ext/type_traits.h>
  63:/Applications/ArmGNUToolchain/14.2.rel1/arm-none-eabi/arm-none-eabi/include/c++/14.2.1/bits/stl_algobase.h **** #include <ext/numeric_traits.h>
  64:/Applications/ArmGNUToolchain/14.2.rel1/arm-none-eabi/arm-none-eabi/include/c++/14.2.1/bits/stl_algobase.h **** #include <bits/stl_pair.h>
  65:/Applications/ArmGNUToolchain/14.2.rel1/arm-none-eabi/arm-none-eabi/include/c++/14.2.1/bits/stl_algobase.h **** #include <bits/stl_iterator_base_types.h>
  66:/Applications/ArmGNUToolchain/14.2.rel1/arm-none-eabi/arm-none-eabi/include/c++/14.2.1/bits/stl_algobase.h **** #include <bits/stl_iterator_base_funcs.h>
  67:/Applications/ArmGNUToolchain/14.2.rel1/arm-none-eabi/arm-none-eabi/include/c++/14.2.1/bits/stl_algobase.h **** #include <bits/stl_iterator.h>
  68:/Applications/ArmGNUToolchain/14.2.rel1/arm-none-eabi/arm-none-eabi/include/c++/14.2.1/bits/stl_algobase.h **** #include <bits/concept_check.h>
  69:/Applications/ArmGNUToolchain/14.2.rel1/arm-none-eabi/arm-none-eabi/include/c++/14.2.1/bits/stl_algobase.h **** #include <debug/debug.h>
  70:/Applications/ArmGNUToolchain/14.2.rel1/arm-none-eabi/arm-none-eabi/include/c++/14.2.1/bits/stl_algobase.h **** #include <bits/move.h> // For std::swap
  71:/Applications/ArmGNUToolchain/14.2.rel1/arm-none-eabi/arm-none-eabi/include/c++/14.2.1/bits/stl_algobase.h **** #include <bits/predefined_ops.h>
  72:/Applications/ArmGNUToolchain/14.2.rel1/arm-none-eabi/arm-none-eabi/include/c++/14.2.1/bits/stl_algobase.h **** #if __cplusplus >= 201103L
  73:/Applications/ArmGNUToolchain/14.2.rel1/arm-none-eabi/arm-none-eabi/include/c++/14.2.1/bits/stl_algobase.h **** # include <type_traits>
  74:/Applications/ArmGNUToolchain/14.2.rel1/arm-none-eabi/arm-none-eabi/include/c++/14.2.1/bits/stl_algobase.h **** #endif
  75:/Applications/ArmGNUToolchain/14.2.rel1/arm-none-eabi/arm-none-eabi/include/c++/14.2.1/bits/stl_algobase.h **** #if __cplusplus >= 201402L
  76:/Applications/ArmGNUToolchain/14.2.rel1/arm-none-eabi/arm-none-eabi/include/c++/14.2.1/bits/stl_algobase.h **** # include <bit> // std::__bit_width
  77:/Applications/ArmGNUToolchain/14.2.rel1/arm-none-eabi/arm-none-eabi/include/c++/14.2.1/bits/stl_algobase.h **** #endif
  78:/Applications/ArmGNUToolchain/14.2.rel1/arm-none-eabi/arm-none-eabi/include/c++/14.2.1/bits/stl_algobase.h **** #if __cplusplus >= 202002L
  79:/Applications/ArmGNUToolchain/14.2.rel1/arm-none-eabi/arm-none-eabi/include/c++/14.2.1/bits/stl_algobase.h **** # include <compare>
  80:/Applications/ArmGNUToolchain/14.2.rel1/arm-none-eabi/arm-none-eabi/include/c++/14.2.1/bits/stl_algobase.h **** #endif
  81:/Applications/ArmGNUToolchain/14.2.rel1/arm-none-eabi/arm-none-eabi/include/c++/14.2.1/bits/stl_algobase.h **** 
  82:/Applications/ArmGNUToolchain/14.2.rel1/arm-none-eabi/arm-none-eabi/include/c++/14.2.1/bits/stl_algobase.h **** namespace std _GLIBCXX_VISIBILITY(default)
  83:/Applications/ArmGNUToolchain/14.2.rel1/arm-none-eabi/arm-none-eabi/include/c++/14.2.1/bits/stl_algobase.h **** {
  84:/Applications/ArmGNUToolchain/14.2.rel1/arm-none-eabi/arm-none-eabi/include/c++/14.2.1/bits/stl_algobase.h **** _GLIBCXX_BEGIN_NAMESPACE_VERSION
  85:/Applications/ArmGNUToolchain/14.2.rel1/arm-none-eabi/arm-none-eabi/include/c++/14.2.1/bits/stl_algobase.h **** 
  86:/Applications/ArmGNUToolchain/14.2.rel1/arm-none-eabi/arm-none-eabi/include/c++/14.2.1/bits/stl_algobase.h ****   /*
  87:/Applications/ArmGNUToolchain/14.2.rel1/arm-none-eabi/arm-none-eabi/include/c++/14.2.1/bits/stl_algobase.h ****    * A constexpr wrapper for __builtin_memcmp.
  88:/Applications/ArmGNUToolchain/14.2.rel1/arm-none-eabi/arm-none-eabi/include/c++/14.2.1/bits/stl_algobase.h ****    * @param __num The number of elements of type _Tp (not bytes).
  89:/Applications/ArmGNUToolchain/14.2.rel1/arm-none-eabi/arm-none-eabi/include/c++/14.2.1/bits/stl_algobase.h ****    */
  90:/Applications/ArmGNUToolchain/14.2.rel1/arm-none-eabi/arm-none-eabi/include/c++/14.2.1/bits/stl_algobase.h ****   template<typename _Tp, typename _Up>
ARM GAS  /var/folders/y7/g6pkzsp12sx54x3s3mvyn15r0000gn/T//cc4mEVA6.s 			page 4


  91:/Applications/ArmGNUToolchain/14.2.rel1/arm-none-eabi/arm-none-eabi/include/c++/14.2.1/bits/stl_algobase.h ****     _GLIBCXX14_CONSTEXPR
  92:/Applications/ArmGNUToolchain/14.2.rel1/arm-none-eabi/arm-none-eabi/include/c++/14.2.1/bits/stl_algobase.h ****     inline int
  93:/Applications/ArmGNUToolchain/14.2.rel1/arm-none-eabi/arm-none-eabi/include/c++/14.2.1/bits/stl_algobase.h ****     __memcmp(const _Tp* __first1, const _Up* __first2, size_t __num)
  94:/Applications/ArmGNUToolchain/14.2.rel1/arm-none-eabi/arm-none-eabi/include/c++/14.2.1/bits/stl_algobase.h ****     {
  95:/Applications/ArmGNUToolchain/14.2.rel1/arm-none-eabi/arm-none-eabi/include/c++/14.2.1/bits/stl_algobase.h **** #if __cplusplus >= 201103L
  96:/Applications/ArmGNUToolchain/14.2.rel1/arm-none-eabi/arm-none-eabi/include/c++/14.2.1/bits/stl_algobase.h ****       static_assert(sizeof(_Tp) == sizeof(_Up), "can be compared with memcmp");
  97:/Applications/ArmGNUToolchain/14.2.rel1/arm-none-eabi/arm-none-eabi/include/c++/14.2.1/bits/stl_algobase.h **** #endif
  98:/Applications/ArmGNUToolchain/14.2.rel1/arm-none-eabi/arm-none-eabi/include/c++/14.2.1/bits/stl_algobase.h **** #ifdef __cpp_lib_is_constant_evaluated
  99:/Applications/ArmGNUToolchain/14.2.rel1/arm-none-eabi/arm-none-eabi/include/c++/14.2.1/bits/stl_algobase.h ****       if (std::is_constant_evaluated())
 100:/Applications/ArmGNUToolchain/14.2.rel1/arm-none-eabi/arm-none-eabi/include/c++/14.2.1/bits/stl_algobase.h **** 	{
 101:/Applications/ArmGNUToolchain/14.2.rel1/arm-none-eabi/arm-none-eabi/include/c++/14.2.1/bits/stl_algobase.h **** 	  for(; __num > 0; ++__first1, ++__first2, --__num)
 102:/Applications/ArmGNUToolchain/14.2.rel1/arm-none-eabi/arm-none-eabi/include/c++/14.2.1/bits/stl_algobase.h **** 	    if (*__first1 != *__first2)
 103:/Applications/ArmGNUToolchain/14.2.rel1/arm-none-eabi/arm-none-eabi/include/c++/14.2.1/bits/stl_algobase.h **** 	      return *__first1 < *__first2 ? -1 : 1;
 104:/Applications/ArmGNUToolchain/14.2.rel1/arm-none-eabi/arm-none-eabi/include/c++/14.2.1/bits/stl_algobase.h **** 	  return 0;
 105:/Applications/ArmGNUToolchain/14.2.rel1/arm-none-eabi/arm-none-eabi/include/c++/14.2.1/bits/stl_algobase.h **** 	}
 106:/Applications/ArmGNUToolchain/14.2.rel1/arm-none-eabi/arm-none-eabi/include/c++/14.2.1/bits/stl_algobase.h ****       else
 107:/Applications/ArmGNUToolchain/14.2.rel1/arm-none-eabi/arm-none-eabi/include/c++/14.2.1/bits/stl_algobase.h **** #endif
 108:/Applications/ArmGNUToolchain/14.2.rel1/arm-none-eabi/arm-none-eabi/include/c++/14.2.1/bits/stl_algobase.h **** 	return __builtin_memcmp(__first1, __first2, sizeof(_Tp) * __num);
 109:/Applications/ArmGNUToolchain/14.2.rel1/arm-none-eabi/arm-none-eabi/include/c++/14.2.1/bits/stl_algobase.h ****     }
 110:/Applications/ArmGNUToolchain/14.2.rel1/arm-none-eabi/arm-none-eabi/include/c++/14.2.1/bits/stl_algobase.h **** 
 111:/Applications/ArmGNUToolchain/14.2.rel1/arm-none-eabi/arm-none-eabi/include/c++/14.2.1/bits/stl_algobase.h **** #if __cplusplus < 201103L
 112:/Applications/ArmGNUToolchain/14.2.rel1/arm-none-eabi/arm-none-eabi/include/c++/14.2.1/bits/stl_algobase.h ****   // See http://gcc.gnu.org/ml/libstdc++/2004-08/msg00167.html: in a
 113:/Applications/ArmGNUToolchain/14.2.rel1/arm-none-eabi/arm-none-eabi/include/c++/14.2.1/bits/stl_algobase.h ****   // nutshell, we are partially implementing the resolution of DR 187,
 114:/Applications/ArmGNUToolchain/14.2.rel1/arm-none-eabi/arm-none-eabi/include/c++/14.2.1/bits/stl_algobase.h ****   // when it's safe, i.e., the value_types are equal.
 115:/Applications/ArmGNUToolchain/14.2.rel1/arm-none-eabi/arm-none-eabi/include/c++/14.2.1/bits/stl_algobase.h ****   template<bool _BoolType>
 116:/Applications/ArmGNUToolchain/14.2.rel1/arm-none-eabi/arm-none-eabi/include/c++/14.2.1/bits/stl_algobase.h ****     struct __iter_swap
 117:/Applications/ArmGNUToolchain/14.2.rel1/arm-none-eabi/arm-none-eabi/include/c++/14.2.1/bits/stl_algobase.h ****     {
 118:/Applications/ArmGNUToolchain/14.2.rel1/arm-none-eabi/arm-none-eabi/include/c++/14.2.1/bits/stl_algobase.h ****       template<typename _ForwardIterator1, typename _ForwardIterator2>
 119:/Applications/ArmGNUToolchain/14.2.rel1/arm-none-eabi/arm-none-eabi/include/c++/14.2.1/bits/stl_algobase.h **** 	static void
 120:/Applications/ArmGNUToolchain/14.2.rel1/arm-none-eabi/arm-none-eabi/include/c++/14.2.1/bits/stl_algobase.h **** 	iter_swap(_ForwardIterator1 __a, _ForwardIterator2 __b)
 121:/Applications/ArmGNUToolchain/14.2.rel1/arm-none-eabi/arm-none-eabi/include/c++/14.2.1/bits/stl_algobase.h **** 	{
 122:/Applications/ArmGNUToolchain/14.2.rel1/arm-none-eabi/arm-none-eabi/include/c++/14.2.1/bits/stl_algobase.h **** 	  typedef typename iterator_traits<_ForwardIterator1>::value_type
 123:/Applications/ArmGNUToolchain/14.2.rel1/arm-none-eabi/arm-none-eabi/include/c++/14.2.1/bits/stl_algobase.h **** 	    _ValueType1;
 124:/Applications/ArmGNUToolchain/14.2.rel1/arm-none-eabi/arm-none-eabi/include/c++/14.2.1/bits/stl_algobase.h **** 	  _ValueType1 __tmp = *__a;
 125:/Applications/ArmGNUToolchain/14.2.rel1/arm-none-eabi/arm-none-eabi/include/c++/14.2.1/bits/stl_algobase.h **** 	  *__a = *__b;
 126:/Applications/ArmGNUToolchain/14.2.rel1/arm-none-eabi/arm-none-eabi/include/c++/14.2.1/bits/stl_algobase.h **** 	  *__b = __tmp;
 127:/Applications/ArmGNUToolchain/14.2.rel1/arm-none-eabi/arm-none-eabi/include/c++/14.2.1/bits/stl_algobase.h **** 	}
 128:/Applications/ArmGNUToolchain/14.2.rel1/arm-none-eabi/arm-none-eabi/include/c++/14.2.1/bits/stl_algobase.h ****     };
 129:/Applications/ArmGNUToolchain/14.2.rel1/arm-none-eabi/arm-none-eabi/include/c++/14.2.1/bits/stl_algobase.h **** 
 130:/Applications/ArmGNUToolchain/14.2.rel1/arm-none-eabi/arm-none-eabi/include/c++/14.2.1/bits/stl_algobase.h ****   template<>
 131:/Applications/ArmGNUToolchain/14.2.rel1/arm-none-eabi/arm-none-eabi/include/c++/14.2.1/bits/stl_algobase.h ****     struct __iter_swap<true>
 132:/Applications/ArmGNUToolchain/14.2.rel1/arm-none-eabi/arm-none-eabi/include/c++/14.2.1/bits/stl_algobase.h ****     {
 133:/Applications/ArmGNUToolchain/14.2.rel1/arm-none-eabi/arm-none-eabi/include/c++/14.2.1/bits/stl_algobase.h ****       template<typename _ForwardIterator1, typename _ForwardIterator2>
 134:/Applications/ArmGNUToolchain/14.2.rel1/arm-none-eabi/arm-none-eabi/include/c++/14.2.1/bits/stl_algobase.h **** 	static void
 135:/Applications/ArmGNUToolchain/14.2.rel1/arm-none-eabi/arm-none-eabi/include/c++/14.2.1/bits/stl_algobase.h **** 	iter_swap(_ForwardIterator1 __a, _ForwardIterator2 __b)
 136:/Applications/ArmGNUToolchain/14.2.rel1/arm-none-eabi/arm-none-eabi/include/c++/14.2.1/bits/stl_algobase.h **** 	{
 137:/Applications/ArmGNUToolchain/14.2.rel1/arm-none-eabi/arm-none-eabi/include/c++/14.2.1/bits/stl_algobase.h **** 	  swap(*__a, *__b);
 138:/Applications/ArmGNUToolchain/14.2.rel1/arm-none-eabi/arm-none-eabi/include/c++/14.2.1/bits/stl_algobase.h **** 	}
 139:/Applications/ArmGNUToolchain/14.2.rel1/arm-none-eabi/arm-none-eabi/include/c++/14.2.1/bits/stl_algobase.h ****     };
 140:/Applications/ArmGNUToolchain/14.2.rel1/arm-none-eabi/arm-none-eabi/include/c++/14.2.1/bits/stl_algobase.h **** #endif // C++03
 141:/Applications/ArmGNUToolchain/14.2.rel1/arm-none-eabi/arm-none-eabi/include/c++/14.2.1/bits/stl_algobase.h **** 
 142:/Applications/ArmGNUToolchain/14.2.rel1/arm-none-eabi/arm-none-eabi/include/c++/14.2.1/bits/stl_algobase.h ****   /**
 143:/Applications/ArmGNUToolchain/14.2.rel1/arm-none-eabi/arm-none-eabi/include/c++/14.2.1/bits/stl_algobase.h ****    *  @brief Swaps the contents of two iterators.
 144:/Applications/ArmGNUToolchain/14.2.rel1/arm-none-eabi/arm-none-eabi/include/c++/14.2.1/bits/stl_algobase.h ****    *  @ingroup mutating_algorithms
 145:/Applications/ArmGNUToolchain/14.2.rel1/arm-none-eabi/arm-none-eabi/include/c++/14.2.1/bits/stl_algobase.h ****    *  @param  __a  An iterator.
 146:/Applications/ArmGNUToolchain/14.2.rel1/arm-none-eabi/arm-none-eabi/include/c++/14.2.1/bits/stl_algobase.h ****    *  @param  __b  Another iterator.
 147:/Applications/ArmGNUToolchain/14.2.rel1/arm-none-eabi/arm-none-eabi/include/c++/14.2.1/bits/stl_algobase.h ****    *  @return   Nothing.
ARM GAS  /var/folders/y7/g6pkzsp12sx54x3s3mvyn15r0000gn/T//cc4mEVA6.s 			page 5


 148:/Applications/ArmGNUToolchain/14.2.rel1/arm-none-eabi/arm-none-eabi/include/c++/14.2.1/bits/stl_algobase.h ****    *
 149:/Applications/ArmGNUToolchain/14.2.rel1/arm-none-eabi/arm-none-eabi/include/c++/14.2.1/bits/stl_algobase.h ****    *  This function swaps the values pointed to by two iterators, not the
 150:/Applications/ArmGNUToolchain/14.2.rel1/arm-none-eabi/arm-none-eabi/include/c++/14.2.1/bits/stl_algobase.h ****    *  iterators themselves.
 151:/Applications/ArmGNUToolchain/14.2.rel1/arm-none-eabi/arm-none-eabi/include/c++/14.2.1/bits/stl_algobase.h ****   */
 152:/Applications/ArmGNUToolchain/14.2.rel1/arm-none-eabi/arm-none-eabi/include/c++/14.2.1/bits/stl_algobase.h ****   template<typename _ForwardIterator1, typename _ForwardIterator2>
 153:/Applications/ArmGNUToolchain/14.2.rel1/arm-none-eabi/arm-none-eabi/include/c++/14.2.1/bits/stl_algobase.h ****     _GLIBCXX20_CONSTEXPR
 154:/Applications/ArmGNUToolchain/14.2.rel1/arm-none-eabi/arm-none-eabi/include/c++/14.2.1/bits/stl_algobase.h ****     inline void
 155:/Applications/ArmGNUToolchain/14.2.rel1/arm-none-eabi/arm-none-eabi/include/c++/14.2.1/bits/stl_algobase.h ****     iter_swap(_ForwardIterator1 __a, _ForwardIterator2 __b)
 156:/Applications/ArmGNUToolchain/14.2.rel1/arm-none-eabi/arm-none-eabi/include/c++/14.2.1/bits/stl_algobase.h ****     {
 157:/Applications/ArmGNUToolchain/14.2.rel1/arm-none-eabi/arm-none-eabi/include/c++/14.2.1/bits/stl_algobase.h ****       // concept requirements
 158:/Applications/ArmGNUToolchain/14.2.rel1/arm-none-eabi/arm-none-eabi/include/c++/14.2.1/bits/stl_algobase.h ****       __glibcxx_function_requires(_Mutable_ForwardIteratorConcept<
 159:/Applications/ArmGNUToolchain/14.2.rel1/arm-none-eabi/arm-none-eabi/include/c++/14.2.1/bits/stl_algobase.h **** 				  _ForwardIterator1>)
 160:/Applications/ArmGNUToolchain/14.2.rel1/arm-none-eabi/arm-none-eabi/include/c++/14.2.1/bits/stl_algobase.h ****       __glibcxx_function_requires(_Mutable_ForwardIteratorConcept<
 161:/Applications/ArmGNUToolchain/14.2.rel1/arm-none-eabi/arm-none-eabi/include/c++/14.2.1/bits/stl_algobase.h **** 				  _ForwardIterator2>)
 162:/Applications/ArmGNUToolchain/14.2.rel1/arm-none-eabi/arm-none-eabi/include/c++/14.2.1/bits/stl_algobase.h **** 
 163:/Applications/ArmGNUToolchain/14.2.rel1/arm-none-eabi/arm-none-eabi/include/c++/14.2.1/bits/stl_algobase.h **** #if __cplusplus < 201103L
 164:/Applications/ArmGNUToolchain/14.2.rel1/arm-none-eabi/arm-none-eabi/include/c++/14.2.1/bits/stl_algobase.h ****       typedef typename iterator_traits<_ForwardIterator1>::value_type
 165:/Applications/ArmGNUToolchain/14.2.rel1/arm-none-eabi/arm-none-eabi/include/c++/14.2.1/bits/stl_algobase.h **** 	_ValueType1;
 166:/Applications/ArmGNUToolchain/14.2.rel1/arm-none-eabi/arm-none-eabi/include/c++/14.2.1/bits/stl_algobase.h ****       typedef typename iterator_traits<_ForwardIterator2>::value_type
 167:/Applications/ArmGNUToolchain/14.2.rel1/arm-none-eabi/arm-none-eabi/include/c++/14.2.1/bits/stl_algobase.h **** 	_ValueType2;
 168:/Applications/ArmGNUToolchain/14.2.rel1/arm-none-eabi/arm-none-eabi/include/c++/14.2.1/bits/stl_algobase.h **** 
 169:/Applications/ArmGNUToolchain/14.2.rel1/arm-none-eabi/arm-none-eabi/include/c++/14.2.1/bits/stl_algobase.h ****       __glibcxx_function_requires(_ConvertibleConcept<_ValueType1,
 170:/Applications/ArmGNUToolchain/14.2.rel1/arm-none-eabi/arm-none-eabi/include/c++/14.2.1/bits/stl_algobase.h **** 				  _ValueType2>)
 171:/Applications/ArmGNUToolchain/14.2.rel1/arm-none-eabi/arm-none-eabi/include/c++/14.2.1/bits/stl_algobase.h ****       __glibcxx_function_requires(_ConvertibleConcept<_ValueType2,
 172:/Applications/ArmGNUToolchain/14.2.rel1/arm-none-eabi/arm-none-eabi/include/c++/14.2.1/bits/stl_algobase.h **** 				  _ValueType1>)
 173:/Applications/ArmGNUToolchain/14.2.rel1/arm-none-eabi/arm-none-eabi/include/c++/14.2.1/bits/stl_algobase.h **** 
 174:/Applications/ArmGNUToolchain/14.2.rel1/arm-none-eabi/arm-none-eabi/include/c++/14.2.1/bits/stl_algobase.h ****       typedef typename iterator_traits<_ForwardIterator1>::reference
 175:/Applications/ArmGNUToolchain/14.2.rel1/arm-none-eabi/arm-none-eabi/include/c++/14.2.1/bits/stl_algobase.h **** 	_ReferenceType1;
 176:/Applications/ArmGNUToolchain/14.2.rel1/arm-none-eabi/arm-none-eabi/include/c++/14.2.1/bits/stl_algobase.h ****       typedef typename iterator_traits<_ForwardIterator2>::reference
 177:/Applications/ArmGNUToolchain/14.2.rel1/arm-none-eabi/arm-none-eabi/include/c++/14.2.1/bits/stl_algobase.h **** 	_ReferenceType2;
 178:/Applications/ArmGNUToolchain/14.2.rel1/arm-none-eabi/arm-none-eabi/include/c++/14.2.1/bits/stl_algobase.h ****       std::__iter_swap<__are_same<_ValueType1, _ValueType2>::__value
 179:/Applications/ArmGNUToolchain/14.2.rel1/arm-none-eabi/arm-none-eabi/include/c++/14.2.1/bits/stl_algobase.h **** 	&& __are_same<_ValueType1&, _ReferenceType1>::__value
 180:/Applications/ArmGNUToolchain/14.2.rel1/arm-none-eabi/arm-none-eabi/include/c++/14.2.1/bits/stl_algobase.h **** 	&& __are_same<_ValueType2&, _ReferenceType2>::__value>::
 181:/Applications/ArmGNUToolchain/14.2.rel1/arm-none-eabi/arm-none-eabi/include/c++/14.2.1/bits/stl_algobase.h **** 	iter_swap(__a, __b);
 182:/Applications/ArmGNUToolchain/14.2.rel1/arm-none-eabi/arm-none-eabi/include/c++/14.2.1/bits/stl_algobase.h **** #else
 183:/Applications/ArmGNUToolchain/14.2.rel1/arm-none-eabi/arm-none-eabi/include/c++/14.2.1/bits/stl_algobase.h ****       // _GLIBCXX_RESOLVE_LIB_DEFECTS
 184:/Applications/ArmGNUToolchain/14.2.rel1/arm-none-eabi/arm-none-eabi/include/c++/14.2.1/bits/stl_algobase.h ****       // 187. iter_swap underspecified
 185:/Applications/ArmGNUToolchain/14.2.rel1/arm-none-eabi/arm-none-eabi/include/c++/14.2.1/bits/stl_algobase.h ****       swap(*__a, *__b);
 186:/Applications/ArmGNUToolchain/14.2.rel1/arm-none-eabi/arm-none-eabi/include/c++/14.2.1/bits/stl_algobase.h **** #endif
 187:/Applications/ArmGNUToolchain/14.2.rel1/arm-none-eabi/arm-none-eabi/include/c++/14.2.1/bits/stl_algobase.h ****     }
 188:/Applications/ArmGNUToolchain/14.2.rel1/arm-none-eabi/arm-none-eabi/include/c++/14.2.1/bits/stl_algobase.h **** 
 189:/Applications/ArmGNUToolchain/14.2.rel1/arm-none-eabi/arm-none-eabi/include/c++/14.2.1/bits/stl_algobase.h ****   /**
 190:/Applications/ArmGNUToolchain/14.2.rel1/arm-none-eabi/arm-none-eabi/include/c++/14.2.1/bits/stl_algobase.h ****    *  @brief Swap the elements of two sequences.
 191:/Applications/ArmGNUToolchain/14.2.rel1/arm-none-eabi/arm-none-eabi/include/c++/14.2.1/bits/stl_algobase.h ****    *  @ingroup mutating_algorithms
 192:/Applications/ArmGNUToolchain/14.2.rel1/arm-none-eabi/arm-none-eabi/include/c++/14.2.1/bits/stl_algobase.h ****    *  @param  __first1  A forward iterator.
 193:/Applications/ArmGNUToolchain/14.2.rel1/arm-none-eabi/arm-none-eabi/include/c++/14.2.1/bits/stl_algobase.h ****    *  @param  __last1   A forward iterator.
 194:/Applications/ArmGNUToolchain/14.2.rel1/arm-none-eabi/arm-none-eabi/include/c++/14.2.1/bits/stl_algobase.h ****    *  @param  __first2  A forward iterator.
 195:/Applications/ArmGNUToolchain/14.2.rel1/arm-none-eabi/arm-none-eabi/include/c++/14.2.1/bits/stl_algobase.h ****    *  @return   An iterator equal to @p first2+(last1-first1).
 196:/Applications/ArmGNUToolchain/14.2.rel1/arm-none-eabi/arm-none-eabi/include/c++/14.2.1/bits/stl_algobase.h ****    *
 197:/Applications/ArmGNUToolchain/14.2.rel1/arm-none-eabi/arm-none-eabi/include/c++/14.2.1/bits/stl_algobase.h ****    *  Swaps each element in the range @p [first1,last1) with the
 198:/Applications/ArmGNUToolchain/14.2.rel1/arm-none-eabi/arm-none-eabi/include/c++/14.2.1/bits/stl_algobase.h ****    *  corresponding element in the range @p [first2,(last1-first1)).
 199:/Applications/ArmGNUToolchain/14.2.rel1/arm-none-eabi/arm-none-eabi/include/c++/14.2.1/bits/stl_algobase.h ****    *  The ranges must not overlap.
 200:/Applications/ArmGNUToolchain/14.2.rel1/arm-none-eabi/arm-none-eabi/include/c++/14.2.1/bits/stl_algobase.h ****   */
 201:/Applications/ArmGNUToolchain/14.2.rel1/arm-none-eabi/arm-none-eabi/include/c++/14.2.1/bits/stl_algobase.h ****   template<typename _ForwardIterator1, typename _ForwardIterator2>
 202:/Applications/ArmGNUToolchain/14.2.rel1/arm-none-eabi/arm-none-eabi/include/c++/14.2.1/bits/stl_algobase.h ****     _GLIBCXX20_CONSTEXPR
 203:/Applications/ArmGNUToolchain/14.2.rel1/arm-none-eabi/arm-none-eabi/include/c++/14.2.1/bits/stl_algobase.h ****     _ForwardIterator2
 204:/Applications/ArmGNUToolchain/14.2.rel1/arm-none-eabi/arm-none-eabi/include/c++/14.2.1/bits/stl_algobase.h ****     swap_ranges(_ForwardIterator1 __first1, _ForwardIterator1 __last1,
ARM GAS  /var/folders/y7/g6pkzsp12sx54x3s3mvyn15r0000gn/T//cc4mEVA6.s 			page 6


 205:/Applications/ArmGNUToolchain/14.2.rel1/arm-none-eabi/arm-none-eabi/include/c++/14.2.1/bits/stl_algobase.h **** 		_ForwardIterator2 __first2)
 206:/Applications/ArmGNUToolchain/14.2.rel1/arm-none-eabi/arm-none-eabi/include/c++/14.2.1/bits/stl_algobase.h ****     {
 207:/Applications/ArmGNUToolchain/14.2.rel1/arm-none-eabi/arm-none-eabi/include/c++/14.2.1/bits/stl_algobase.h ****       // concept requirements
 208:/Applications/ArmGNUToolchain/14.2.rel1/arm-none-eabi/arm-none-eabi/include/c++/14.2.1/bits/stl_algobase.h ****       __glibcxx_function_requires(_Mutable_ForwardIteratorConcept<
 209:/Applications/ArmGNUToolchain/14.2.rel1/arm-none-eabi/arm-none-eabi/include/c++/14.2.1/bits/stl_algobase.h **** 				  _ForwardIterator1>)
 210:/Applications/ArmGNUToolchain/14.2.rel1/arm-none-eabi/arm-none-eabi/include/c++/14.2.1/bits/stl_algobase.h ****       __glibcxx_function_requires(_Mutable_ForwardIteratorConcept<
 211:/Applications/ArmGNUToolchain/14.2.rel1/arm-none-eabi/arm-none-eabi/include/c++/14.2.1/bits/stl_algobase.h **** 				  _ForwardIterator2>)
 212:/Applications/ArmGNUToolchain/14.2.rel1/arm-none-eabi/arm-none-eabi/include/c++/14.2.1/bits/stl_algobase.h ****       __glibcxx_requires_valid_range(__first1, __last1);
 213:/Applications/ArmGNUToolchain/14.2.rel1/arm-none-eabi/arm-none-eabi/include/c++/14.2.1/bits/stl_algobase.h **** 
 214:/Applications/ArmGNUToolchain/14.2.rel1/arm-none-eabi/arm-none-eabi/include/c++/14.2.1/bits/stl_algobase.h ****       for (; __first1 != __last1; ++__first1, (void)++__first2)
 215:/Applications/ArmGNUToolchain/14.2.rel1/arm-none-eabi/arm-none-eabi/include/c++/14.2.1/bits/stl_algobase.h **** 	std::iter_swap(__first1, __first2);
 216:/Applications/ArmGNUToolchain/14.2.rel1/arm-none-eabi/arm-none-eabi/include/c++/14.2.1/bits/stl_algobase.h ****       return __first2;
 217:/Applications/ArmGNUToolchain/14.2.rel1/arm-none-eabi/arm-none-eabi/include/c++/14.2.1/bits/stl_algobase.h ****     }
 218:/Applications/ArmGNUToolchain/14.2.rel1/arm-none-eabi/arm-none-eabi/include/c++/14.2.1/bits/stl_algobase.h **** 
 219:/Applications/ArmGNUToolchain/14.2.rel1/arm-none-eabi/arm-none-eabi/include/c++/14.2.1/bits/stl_algobase.h ****   /**
 220:/Applications/ArmGNUToolchain/14.2.rel1/arm-none-eabi/arm-none-eabi/include/c++/14.2.1/bits/stl_algobase.h ****    *  @brief This does what you think it does.
 221:/Applications/ArmGNUToolchain/14.2.rel1/arm-none-eabi/arm-none-eabi/include/c++/14.2.1/bits/stl_algobase.h ****    *  @ingroup sorting_algorithms
 222:/Applications/ArmGNUToolchain/14.2.rel1/arm-none-eabi/arm-none-eabi/include/c++/14.2.1/bits/stl_algobase.h ****    *  @param  __a  A thing of arbitrary type.
 223:/Applications/ArmGNUToolchain/14.2.rel1/arm-none-eabi/arm-none-eabi/include/c++/14.2.1/bits/stl_algobase.h ****    *  @param  __b  Another thing of arbitrary type.
 224:/Applications/ArmGNUToolchain/14.2.rel1/arm-none-eabi/arm-none-eabi/include/c++/14.2.1/bits/stl_algobase.h ****    *  @return   The lesser of the parameters.
 225:/Applications/ArmGNUToolchain/14.2.rel1/arm-none-eabi/arm-none-eabi/include/c++/14.2.1/bits/stl_algobase.h ****    *
 226:/Applications/ArmGNUToolchain/14.2.rel1/arm-none-eabi/arm-none-eabi/include/c++/14.2.1/bits/stl_algobase.h ****    *  This is the simple classic generic implementation.  It will work on
 227:/Applications/ArmGNUToolchain/14.2.rel1/arm-none-eabi/arm-none-eabi/include/c++/14.2.1/bits/stl_algobase.h ****    *  temporary expressions, since they are only evaluated once, unlike a
 228:/Applications/ArmGNUToolchain/14.2.rel1/arm-none-eabi/arm-none-eabi/include/c++/14.2.1/bits/stl_algobase.h ****    *  preprocessor macro.
 229:/Applications/ArmGNUToolchain/14.2.rel1/arm-none-eabi/arm-none-eabi/include/c++/14.2.1/bits/stl_algobase.h ****   */
 230:/Applications/ArmGNUToolchain/14.2.rel1/arm-none-eabi/arm-none-eabi/include/c++/14.2.1/bits/stl_algobase.h ****   template<typename _Tp>
 231:/Applications/ArmGNUToolchain/14.2.rel1/arm-none-eabi/arm-none-eabi/include/c++/14.2.1/bits/stl_algobase.h ****     _GLIBCXX_NODISCARD _GLIBCXX14_CONSTEXPR
 232:/Applications/ArmGNUToolchain/14.2.rel1/arm-none-eabi/arm-none-eabi/include/c++/14.2.1/bits/stl_algobase.h ****     inline const _Tp&
 233:/Applications/ArmGNUToolchain/14.2.rel1/arm-none-eabi/arm-none-eabi/include/c++/14.2.1/bits/stl_algobase.h ****     min(const _Tp& __a, const _Tp& __b)
  38              		.loc 2 233 5 view .LVU2
  39              		.loc 2 233 5 is_stmt 0 view .LVU3
  40              	.LBE32:
  41              	.LBB34:
  42              	.LBB35:
  43              	.LBB36:
  44              	.LBB37:
  45              		.file 3 "../eurorack/stmlib/dsp/cosine_oscillator.h"
   1:../eurorack/stmlib/dsp/cosine_oscillator.h **** // Copyright 2014 Emilie Gillet.
   2:../eurorack/stmlib/dsp/cosine_oscillator.h **** //
   3:../eurorack/stmlib/dsp/cosine_oscillator.h **** // Author: Emilie Gillet (emilie.o.gillet@gmail.com)
   4:../eurorack/stmlib/dsp/cosine_oscillator.h **** //
   5:../eurorack/stmlib/dsp/cosine_oscillator.h **** // Permission is hereby granted, free of charge, to any person obtaining a copy
   6:../eurorack/stmlib/dsp/cosine_oscillator.h **** // of this software and associated documentation files (the "Software"), to deal
   7:../eurorack/stmlib/dsp/cosine_oscillator.h **** // in the Software without restriction, including without limitation the rights
   8:../eurorack/stmlib/dsp/cosine_oscillator.h **** // to use, copy, modify, merge, publish, distribute, sublicense, and/or sell
   9:../eurorack/stmlib/dsp/cosine_oscillator.h **** // copies of the Software, and to permit persons to whom the Software is
  10:../eurorack/stmlib/dsp/cosine_oscillator.h **** // furnished to do so, subject to the following conditions:
  11:../eurorack/stmlib/dsp/cosine_oscillator.h **** // 
  12:../eurorack/stmlib/dsp/cosine_oscillator.h **** // The above copyright notice and this permission notice shall be included in
  13:../eurorack/stmlib/dsp/cosine_oscillator.h **** // all copies or substantial portions of the Software.
  14:../eurorack/stmlib/dsp/cosine_oscillator.h **** // 
  15:../eurorack/stmlib/dsp/cosine_oscillator.h **** // THE SOFTWARE IS PROVIDED "AS IS", WITHOUT WARRANTY OF ANY KIND, EXPRESS OR
  16:../eurorack/stmlib/dsp/cosine_oscillator.h **** // IMPLIED, INCLUDING BUT NOT LIMITED TO THE WARRANTIES OF MERCHANTABILITY,
  17:../eurorack/stmlib/dsp/cosine_oscillator.h **** // FITNESS FOR A PARTICULAR PURPOSE AND NONINFRINGEMENT. IN NO EVENT SHALL THE
  18:../eurorack/stmlib/dsp/cosine_oscillator.h **** // AUTHORS OR COPYRIGHT HOLDERS BE LIABLE FOR ANY CLAIM, DAMAGES OR OTHER
  19:../eurorack/stmlib/dsp/cosine_oscillator.h **** // LIABILITY, WHETHER IN AN ACTION OF CONTRACT, TORT OR OTHERWISE, ARISING FROM,
  20:../eurorack/stmlib/dsp/cosine_oscillator.h **** // OUT OF OR IN CONNECTION WITH THE SOFTWARE OR THE USE OR OTHER DEALINGS IN
ARM GAS  /var/folders/y7/g6pkzsp12sx54x3s3mvyn15r0000gn/T//cc4mEVA6.s 			page 7


  21:../eurorack/stmlib/dsp/cosine_oscillator.h **** // THE SOFTWARE.
  22:../eurorack/stmlib/dsp/cosine_oscillator.h **** // 
  23:../eurorack/stmlib/dsp/cosine_oscillator.h **** // See http://creativecommons.org/licenses/MIT/ for more information.
  24:../eurorack/stmlib/dsp/cosine_oscillator.h **** //
  25:../eurorack/stmlib/dsp/cosine_oscillator.h **** // -----------------------------------------------------------------------------
  26:../eurorack/stmlib/dsp/cosine_oscillator.h **** //
  27:../eurorack/stmlib/dsp/cosine_oscillator.h **** // Cosine oscillator. Generates a cosine between 0.0 and 1.0 with minimal
  28:../eurorack/stmlib/dsp/cosine_oscillator.h **** // CPU use.
  29:../eurorack/stmlib/dsp/cosine_oscillator.h **** 
  30:../eurorack/stmlib/dsp/cosine_oscillator.h **** #ifndef STMLIB_DSP_COSINE_OSCILLATOR_H_
  31:../eurorack/stmlib/dsp/cosine_oscillator.h **** #define STMLIB_DSP_COSINE_OSCILLATOR_H_
  32:../eurorack/stmlib/dsp/cosine_oscillator.h **** 
  33:../eurorack/stmlib/dsp/cosine_oscillator.h **** #include "stmlib/stmlib.h"
  34:../eurorack/stmlib/dsp/cosine_oscillator.h **** 
  35:../eurorack/stmlib/dsp/cosine_oscillator.h **** #include <cmath>
  36:../eurorack/stmlib/dsp/cosine_oscillator.h **** 
  37:../eurorack/stmlib/dsp/cosine_oscillator.h **** namespace stmlib {
  38:../eurorack/stmlib/dsp/cosine_oscillator.h **** 
  39:../eurorack/stmlib/dsp/cosine_oscillator.h **** enum CosineOscillatorMode {
  40:../eurorack/stmlib/dsp/cosine_oscillator.h ****   COSINE_OSCILLATOR_APPROXIMATE,
  41:../eurorack/stmlib/dsp/cosine_oscillator.h ****   COSINE_OSCILLATOR_EXACT
  42:../eurorack/stmlib/dsp/cosine_oscillator.h **** };
  43:../eurorack/stmlib/dsp/cosine_oscillator.h **** 
  44:../eurorack/stmlib/dsp/cosine_oscillator.h **** class CosineOscillator {
  45:../eurorack/stmlib/dsp/cosine_oscillator.h ****  public:
  46:../eurorack/stmlib/dsp/cosine_oscillator.h ****   CosineOscillator() { }
  47:../eurorack/stmlib/dsp/cosine_oscillator.h ****   ~CosineOscillator() { }
  48:../eurorack/stmlib/dsp/cosine_oscillator.h **** 
  49:../eurorack/stmlib/dsp/cosine_oscillator.h ****   template<CosineOscillatorMode mode>
  50:../eurorack/stmlib/dsp/cosine_oscillator.h ****   inline void Init(float frequency) {
  51:../eurorack/stmlib/dsp/cosine_oscillator.h ****     if (mode == COSINE_OSCILLATOR_APPROXIMATE) {
  52:../eurorack/stmlib/dsp/cosine_oscillator.h ****       InitApproximate(frequency);
  53:../eurorack/stmlib/dsp/cosine_oscillator.h ****     } else {
  54:../eurorack/stmlib/dsp/cosine_oscillator.h ****       iir_coefficient_ = 2.0f * cosf(2.0f * float(M_PI) * frequency);
  55:../eurorack/stmlib/dsp/cosine_oscillator.h ****       initial_amplitude_ = iir_coefficient_ * 0.25f;
  56:../eurorack/stmlib/dsp/cosine_oscillator.h ****     }
  57:../eurorack/stmlib/dsp/cosine_oscillator.h ****     Start();
  58:../eurorack/stmlib/dsp/cosine_oscillator.h ****   }
  59:../eurorack/stmlib/dsp/cosine_oscillator.h ****   
  60:../eurorack/stmlib/dsp/cosine_oscillator.h ****   inline void InitApproximate(float frequency) {
  61:../eurorack/stmlib/dsp/cosine_oscillator.h ****     float sign = 16.0f;
  62:../eurorack/stmlib/dsp/cosine_oscillator.h ****     frequency -= 0.25f;
  46              		.loc 3 62 15 view .LVU4
  47 0000 F5EE006A 		vmov.f32	s13, #2.5e-1
  48              	.LBE37:
  49              	.LBE36:
  50              	.LBE35:
  51              	.LBE34:
  52              	.LBB56:
  53              	.LBB33:
 234:/Applications/ArmGNUToolchain/14.2.rel1/arm-none-eabi/arm-none-eabi/include/c++/14.2.1/bits/stl_algobase.h ****     {
 235:/Applications/ArmGNUToolchain/14.2.rel1/arm-none-eabi/arm-none-eabi/include/c++/14.2.1/bits/stl_algobase.h ****       // concept requirements
 236:/Applications/ArmGNUToolchain/14.2.rel1/arm-none-eabi/arm-none-eabi/include/c++/14.2.1/bits/stl_algobase.h ****       __glibcxx_function_requires(_LessThanComparableConcept<_Tp>)
 237:/Applications/ArmGNUToolchain/14.2.rel1/arm-none-eabi/arm-none-eabi/include/c++/14.2.1/bits/stl_algobase.h ****       //return __b < __a ? __b : __a;
 238:/Applications/ArmGNUToolchain/14.2.rel1/arm-none-eabi/arm-none-eabi/include/c++/14.2.1/bits/stl_algobase.h ****       if (__b < __a)
  54              		.loc 2 238 7 view .LVU5
  55 0004 1829     		cmp	r1, #24
ARM GAS  /var/folders/y7/g6pkzsp12sx54x3s3mvyn15r0000gn/T//cc4mEVA6.s 			page 8


  56 0006 0B46     		mov	r3, r1
  57 0008 B6EE006A 		vmov.f32	s12, #5.0e-1
  58 000c A8BF     		it	ge
  59 000e 1823     		movge	r3, #24
  60              	.LBE33:
  61              	.LBE56:
  62              	.LBB57:
  63              	.LBB52:
  64              	.LBB43:
  65              	.LBB38:
  66              		.loc 3 62 15 view .LVU6
  67 0010 30EE660A 		vsub.f32	s0, s0, s13
  68              	.LVL1:
  69              		.loc 3 62 15 view .LVU7
  70              	.LBE38:
  71              	.LBE43:
  72              	.LBE52:
  73              	.LBE57:
  74              		.loc 1 45 15 discriminator 1 view .LVU8
  75 0014 0360     		str	r3, [r0]
  46:../eurorack/plaits/dsp/physical_modelling/resonator.cc ****   
  47:../eurorack/plaits/dsp/physical_modelling/resonator.cc ****   CosineOscillator amplitudes;
  76              		.loc 1 47 3 is_stmt 1 view .LVU9
  77              	.LVL2:
  78              	.LBB58:
  79              	.LBI58:
  46:../eurorack/stmlib/dsp/cosine_oscillator.h ****   ~CosineOscillator() { }
  80              		.loc 3 46 3 view .LVU10
  46:../eurorack/stmlib/dsp/cosine_oscillator.h ****   ~CosineOscillator() { }
  81              		.loc 3 46 3 is_stmt 0 view .LVU11
  82              	.LBE58:
  48:../eurorack/plaits/dsp/physical_modelling/resonator.cc ****   amplitudes.Init<COSINE_OSCILLATOR_APPROXIMATE>(position);
  83              		.loc 1 48 3 is_stmt 1 view .LVU12
  84              	.LBB59:
  85              	.LBI34:
  50:../eurorack/stmlib/dsp/cosine_oscillator.h ****     if (mode == COSINE_OSCILLATOR_APPROXIMATE) {
  86              		.loc 3 50 15 view .LVU13
  87              	.LBB53:
  88              	.LBB44:
  89              	.LBI36:
  60:../eurorack/stmlib/dsp/cosine_oscillator.h ****     float sign = 16.0f;
  90              		.loc 3 60 15 view .LVU14
  91              	.LBB39:
  61:../eurorack/stmlib/dsp/cosine_oscillator.h ****     frequency -= 0.25f;
  92              		.loc 3 61 5 view .LVU15
  93              		.loc 3 62 5 view .LVU16
  63:../eurorack/stmlib/dsp/cosine_oscillator.h ****     if (frequency < 0.0f) {
  94              		.loc 3 63 5 view .LVU17
  95 0016 B5EEC00A 		vcmpe.f32	s0, #0
  96 001a F1EE10FA 		vmrs	APSR_nzcv, FPSCR
  97 001e 24D5     		bpl	.L13
  64:../eurorack/stmlib/dsp/cosine_oscillator.h ****       frequency = -frequency;
  98              		.loc 3 64 7 view .LVU18
  99              		.loc 3 64 17 is_stmt 0 view .LVU19
 100 0020 B1EE400A 		vneg.f32	s0, s0
 101              	.LVL3:
 102              	.L15:
ARM GAS  /var/folders/y7/g6pkzsp12sx54x3s3mvyn15r0000gn/T//cc4mEVA6.s 			page 9


  61:../eurorack/stmlib/dsp/cosine_oscillator.h ****     frequency -= 0.25f;
 103              		.loc 3 61 11 view .LVU20
 104 0024 F3EE007A 		vmov.f32	s15, #1.6e+1
 105              	.L4:
 106              	.LVL4:
  65:../eurorack/stmlib/dsp/cosine_oscillator.h ****     } else {
  66:../eurorack/stmlib/dsp/cosine_oscillator.h ****       if (frequency > 0.5f) {
  67:../eurorack/stmlib/dsp/cosine_oscillator.h ****         frequency -= 0.5f;
  68:../eurorack/stmlib/dsp/cosine_oscillator.h ****       } else {
  69:../eurorack/stmlib/dsp/cosine_oscillator.h ****         sign = -16.0f;
  70:../eurorack/stmlib/dsp/cosine_oscillator.h ****       }
  71:../eurorack/stmlib/dsp/cosine_oscillator.h ****     }
  72:../eurorack/stmlib/dsp/cosine_oscillator.h ****     iir_coefficient_ = sign * frequency * (1.0f - 2.0f * frequency);
 107              		.loc 3 72 5 is_stmt 1 view .LVU21
 108              		.loc 3 72 49 is_stmt 0 view .LVU22
 109 0028 F0EE005A 		vmov.f32	s11, #2.0e+0
 110 002c 021D     		adds	r2, r0, #4
 111 002e B7EE007A 		vmov.f32	s14, #1.0e+0
 112              	.LBE39:
 113              	.LBE44:
 114              	.LBE53:
 115              	.LBE59:
 116              	.LBB60:
  49:../eurorack/plaits/dsp/physical_modelling/resonator.cc ****   
  50:../eurorack/plaits/dsp/physical_modelling/resonator.cc ****   for (int i = 0; i < resolution; ++i) {
 117              		.loc 1 50 12 view .LVU23
 118 0032 0023     		movs	r3, #0
 119              	.LBE60:
 120              	.LBB67:
 121              	.LBB54:
 122              	.LBB45:
 123              	.LBB40:
 124              		.loc 3 72 29 view .LVU24
 125 0034 60EE277A 		vmul.f32	s15, s0, s15
 126              	.LVL5:
 127              		.loc 3 72 49 view .LVU25
 128 0038 A0EE657A 		vfms.f32	s14, s0, s11
 129              		.loc 3 72 41 view .LVU26
 130 003c 67EE877A 		vmul.f32	s15, s15, s14
  73:../eurorack/stmlib/dsp/cosine_oscillator.h ****     initial_amplitude_ = iir_coefficient_ * 0.25f;
 131              		.loc 3 73 5 is_stmt 1 view .LVU27
 132              	.LBE40:
 133              	.LBE45:
 134              	.LBB46:
 135              	.LBB47:
  74:../eurorack/stmlib/dsp/cosine_oscillator.h ****   }
  75:../eurorack/stmlib/dsp/cosine_oscillator.h ****   
  76:../eurorack/stmlib/dsp/cosine_oscillator.h ****   inline void Start() {
  77:../eurorack/stmlib/dsp/cosine_oscillator.h ****     y1_ = initial_amplitude_;
  78:../eurorack/stmlib/dsp/cosine_oscillator.h ****     y0_ = 0.5f;
 136              		.loc 3 78 9 is_stmt 0 view .LVU28
 137 0040 B6EE007A 		vmov.f32	s14, #5.0e-1
 138              	.LBE47:
 139              	.LBE46:
 140              	.LBB49:
 141              	.LBB41:
  73:../eurorack/stmlib/dsp/cosine_oscillator.h ****     initial_amplitude_ = iir_coefficient_ * 0.25f;
ARM GAS  /var/folders/y7/g6pkzsp12sx54x3s3mvyn15r0000gn/T//cc4mEVA6.s 			page 10


 142              		.loc 3 73 43 view .LVU29
 143 0044 67EEA65A 		vmul.f32	s11, s15, s13
 144              	.LVL6:
  73:../eurorack/stmlib/dsp/cosine_oscillator.h ****     initial_amplitude_ = iir_coefficient_ * 0.25f;
 145              		.loc 3 73 43 view .LVU30
 146              	.LBE41:
 147              	.LBE49:
 148              	.LBB50:
 149              	.LBI46:
  76:../eurorack/stmlib/dsp/cosine_oscillator.h ****     y1_ = initial_amplitude_;
 150              		.loc 3 76 15 is_stmt 1 view .LVU31
 151              	.LBB48:
  77:../eurorack/stmlib/dsp/cosine_oscillator.h ****     y0_ = 0.5f;
 152              		.loc 3 77 5 view .LVU32
 153              		.loc 3 78 5 view .LVU33
 154              		.loc 3 78 5 is_stmt 0 view .LVU34
 155              	.LBE48:
 156              	.LBE50:
 157              	.LBE54:
 158              	.LBE67:
 159              		.loc 1 50 3 is_stmt 1 view .LVU35
 160              	.L6:
 161              	.LBB68:
 162              		.loc 1 50 21 discriminator 1 view .LVU36
 163 0048 8B42     		cmp	r3, r1
 164 004a 19DB     		blt	.L7
 165              		.loc 1 50 21 is_stmt 0 discriminator 1 view .LVU37
 166 004c 00F1C002 		add	r2, r0, #192
 167              	.LVL7:
 168              	.L8:
 169              		.loc 1 50 21 discriminator 1 view .LVU38
 170              	.LBE68:
 171              	.LBB69:
  51:../eurorack/plaits/dsp/physical_modelling/resonator.cc ****     mode_amplitude_[i] = amplitudes.Next() * 0.25f;
  52:../eurorack/plaits/dsp/physical_modelling/resonator.cc ****   }
  53:../eurorack/plaits/dsp/physical_modelling/resonator.cc ****   
  54:../eurorack/plaits/dsp/physical_modelling/resonator.cc ****   for (int i = 0; i < kMaxNumModes / kModeBatchSize; ++i) {
  55:../eurorack/plaits/dsp/physical_modelling/resonator.cc ****     mode_filters_[i].Init();
 172              		.loc 1 55 5 is_stmt 1 view .LVU39
 173              	.LBB70:
 174              	.LBI70:
 175              		.file 4 "../eurorack/plaits/dsp/physical_modelling/resonator.h"
   1:../eurorack/plaits/dsp/physical_modelling/resonator.h **** // Copyright 2016 Emilie Gillet.
   2:../eurorack/plaits/dsp/physical_modelling/resonator.h **** //
   3:../eurorack/plaits/dsp/physical_modelling/resonator.h **** // Author: Emilie Gillet (emilie.o.gillet@gmail.com)
   4:../eurorack/plaits/dsp/physical_modelling/resonator.h **** //
   5:../eurorack/plaits/dsp/physical_modelling/resonator.h **** // Permission is hereby granted, free of charge, to any person obtaining a copy
   6:../eurorack/plaits/dsp/physical_modelling/resonator.h **** // of this software and associated documentation files (the "Software"), to deal
   7:../eurorack/plaits/dsp/physical_modelling/resonator.h **** // in the Software without restriction, including without limitation the rights
   8:../eurorack/plaits/dsp/physical_modelling/resonator.h **** // to use, copy, modify, merge, publish, distribute, sublicense, and/or sell
   9:../eurorack/plaits/dsp/physical_modelling/resonator.h **** // copies of the Software, and to permit persons to whom the Software is
  10:../eurorack/plaits/dsp/physical_modelling/resonator.h **** // furnished to do so, subject to the following conditions:
  11:../eurorack/plaits/dsp/physical_modelling/resonator.h **** // 
  12:../eurorack/plaits/dsp/physical_modelling/resonator.h **** // The above copyright notice and this permission notice shall be included in
  13:../eurorack/plaits/dsp/physical_modelling/resonator.h **** // all copies or substantial portions of the Software.
  14:../eurorack/plaits/dsp/physical_modelling/resonator.h **** // 
  15:../eurorack/plaits/dsp/physical_modelling/resonator.h **** // THE SOFTWARE IS PROVIDED "AS IS", WITHOUT WARRANTY OF ANY KIND, EXPRESS OR
ARM GAS  /var/folders/y7/g6pkzsp12sx54x3s3mvyn15r0000gn/T//cc4mEVA6.s 			page 11


  16:../eurorack/plaits/dsp/physical_modelling/resonator.h **** // IMPLIED, INCLUDING BUT NOT LIMITED TO THE WARRANTIES OF MERCHANTABILITY,
  17:../eurorack/plaits/dsp/physical_modelling/resonator.h **** // FITNESS FOR A PARTICULAR PURPOSE AND NONINFRINGEMENT. IN NO EVENT SHALL THE
  18:../eurorack/plaits/dsp/physical_modelling/resonator.h **** // AUTHORS OR COPYRIGHT HOLDERS BE LIABLE FOR ANY CLAIM, DAMAGES OR OTHER
  19:../eurorack/plaits/dsp/physical_modelling/resonator.h **** // LIABILITY, WHETHER IN AN ACTION OF CONTRACT, TORT OR OTHERWISE, ARISING FROM,
  20:../eurorack/plaits/dsp/physical_modelling/resonator.h **** // OUT OF OR IN CONNECTION WITH THE SOFTWARE OR THE USE OR OTHER DEALINGS IN
  21:../eurorack/plaits/dsp/physical_modelling/resonator.h **** // THE SOFTWARE.
  22:../eurorack/plaits/dsp/physical_modelling/resonator.h **** // 
  23:../eurorack/plaits/dsp/physical_modelling/resonator.h **** // See http://creativecommons.org/licenses/MIT/ for more information.
  24:../eurorack/plaits/dsp/physical_modelling/resonator.h **** //
  25:../eurorack/plaits/dsp/physical_modelling/resonator.h **** // -----------------------------------------------------------------------------
  26:../eurorack/plaits/dsp/physical_modelling/resonator.h **** //
  27:../eurorack/plaits/dsp/physical_modelling/resonator.h **** // Resonator, taken from Rings' code but with fixed position.
  28:../eurorack/plaits/dsp/physical_modelling/resonator.h **** 
  29:../eurorack/plaits/dsp/physical_modelling/resonator.h **** #ifndef PLAITS_DSP_PHYSICAL_MODELLING_RESONATOR_H_
  30:../eurorack/plaits/dsp/physical_modelling/resonator.h **** #define PLAITS_DSP_PHYSICAL_MODELLING_RESONATOR_H_
  31:../eurorack/plaits/dsp/physical_modelling/resonator.h **** 
  32:../eurorack/plaits/dsp/physical_modelling/resonator.h **** #include "stmlib/dsp/filter.h"
  33:../eurorack/plaits/dsp/physical_modelling/resonator.h **** 
  34:../eurorack/plaits/dsp/physical_modelling/resonator.h **** namespace plaits {
  35:../eurorack/plaits/dsp/physical_modelling/resonator.h **** 
  36:../eurorack/plaits/dsp/physical_modelling/resonator.h **** const int kMaxNumModes = 24;
  37:../eurorack/plaits/dsp/physical_modelling/resonator.h **** const int kModeBatchSize = 4;
  38:../eurorack/plaits/dsp/physical_modelling/resonator.h **** 
  39:../eurorack/plaits/dsp/physical_modelling/resonator.h **** // We render 4 modes simultaneously since there are enough registers to hold
  40:../eurorack/plaits/dsp/physical_modelling/resonator.h **** // all state variables.
  41:../eurorack/plaits/dsp/physical_modelling/resonator.h **** template<int batch_size>
  42:../eurorack/plaits/dsp/physical_modelling/resonator.h **** class ResonatorSvf {
  43:../eurorack/plaits/dsp/physical_modelling/resonator.h ****  public:
  44:../eurorack/plaits/dsp/physical_modelling/resonator.h ****   ResonatorSvf() { }
  45:../eurorack/plaits/dsp/physical_modelling/resonator.h ****   ~ResonatorSvf() { }
  46:../eurorack/plaits/dsp/physical_modelling/resonator.h ****   
  47:../eurorack/plaits/dsp/physical_modelling/resonator.h ****   void Init() {
 176              		.loc 4 47 8 view .LVU40
 177              	.LBB71:
  48:../eurorack/plaits/dsp/physical_modelling/resonator.h ****     for (int i = 0; i < batch_size; ++i) {
 178              		.loc 4 48 23 discriminator 1 view .LVU41
  49:../eurorack/plaits/dsp/physical_modelling/resonator.h ****       state_1_[i] = state_2_[i] = 0.0f;
 179              		.loc 4 49 33 is_stmt 0 view .LVU42
 180 0050 0023     		movs	r3, #0
 181              	.LBE71:
 182              	.LBE70:
  54:../eurorack/plaits/dsp/physical_modelling/resonator.cc ****     mode_filters_[i].Init();
 183              		.loc 1 54 21 discriminator 1 view .LVU43
 184 0052 2030     		adds	r0, r0, #32
 185              	.LBB73:
 186              	.LBB72:
 187              		.loc 4 49 33 view .LVU44
 188 0054 4365     		str	r3, [r0, #84]	@ float
 189              		.loc 4 49 19 view .LVU45
 190 0056 4364     		str	r3, [r0, #68]	@ float
  48:../eurorack/plaits/dsp/physical_modelling/resonator.h ****     for (int i = 0; i < batch_size; ++i) {
 191              		.loc 4 48 5 is_stmt 1 discriminator 3 view .LVU46
 192              	.LVL8:
  48:../eurorack/plaits/dsp/physical_modelling/resonator.h ****     for (int i = 0; i < batch_size; ++i) {
 193              		.loc 4 48 23 discriminator 1 view .LVU47
 194              		.loc 4 49 33 is_stmt 0 view .LVU48
 195 0058 8365     		str	r3, [r0, #88]	@ float
ARM GAS  /var/folders/y7/g6pkzsp12sx54x3s3mvyn15r0000gn/T//cc4mEVA6.s 			page 12


 196              		.loc 4 49 19 view .LVU49
 197 005a 8364     		str	r3, [r0, #72]	@ float
  48:../eurorack/plaits/dsp/physical_modelling/resonator.h ****     for (int i = 0; i < batch_size; ++i) {
 198              		.loc 4 48 5 is_stmt 1 discriminator 3 view .LVU50
 199              	.LVL9:
  48:../eurorack/plaits/dsp/physical_modelling/resonator.h ****     for (int i = 0; i < batch_size; ++i) {
 200              		.loc 4 48 23 discriminator 1 view .LVU51
 201              		.loc 4 49 33 is_stmt 0 view .LVU52
 202 005c C365     		str	r3, [r0, #92]	@ float
 203              		.loc 4 49 19 view .LVU53
 204 005e C364     		str	r3, [r0, #76]	@ float
  48:../eurorack/plaits/dsp/physical_modelling/resonator.h ****     for (int i = 0; i < batch_size; ++i) {
 205              		.loc 4 48 5 is_stmt 1 discriminator 3 view .LVU54
 206              	.LVL10:
  48:../eurorack/plaits/dsp/physical_modelling/resonator.h ****     for (int i = 0; i < batch_size; ++i) {
 207              		.loc 4 48 23 discriminator 1 view .LVU55
 208              		.loc 4 49 33 is_stmt 0 view .LVU56
 209 0060 0366     		str	r3, [r0, #96]	@ float
 210              		.loc 4 49 19 view .LVU57
 211 0062 0365     		str	r3, [r0, #80]	@ float
  48:../eurorack/plaits/dsp/physical_modelling/resonator.h ****     for (int i = 0; i < batch_size; ++i) {
 212              		.loc 4 48 5 is_stmt 1 discriminator 3 view .LVU58
 213              	.LVL11:
  48:../eurorack/plaits/dsp/physical_modelling/resonator.h ****     for (int i = 0; i < batch_size; ++i) {
 214              		.loc 4 48 23 discriminator 1 view .LVU59
  48:../eurorack/plaits/dsp/physical_modelling/resonator.h ****     for (int i = 0; i < batch_size; ++i) {
 215              		.loc 4 48 23 is_stmt 0 discriminator 1 view .LVU60
 216              	.LBE72:
 217              	.LBE73:
  54:../eurorack/plaits/dsp/physical_modelling/resonator.cc ****     mode_filters_[i].Init();
 218              		.loc 1 54 3 is_stmt 1 discriminator 3 view .LVU61
  54:../eurorack/plaits/dsp/physical_modelling/resonator.cc ****     mode_filters_[i].Init();
 219              		.loc 1 54 21 discriminator 1 view .LVU62
 220 0064 9042     		cmp	r0, r2
 221 0066 F3D1     		bne	.L8
 222              	.LBE69:
  56:../eurorack/plaits/dsp/physical_modelling/resonator.cc ****   }
  57:../eurorack/plaits/dsp/physical_modelling/resonator.cc **** }
 223              		.loc 1 57 1 is_stmt 0 view .LVU63
 224 0068 7047     		bx	lr
 225              	.LVL12:
 226              	.L13:
 227              	.LBB74:
 228              	.LBB55:
 229              	.LBB51:
 230              	.LBB42:
  66:../eurorack/stmlib/dsp/cosine_oscillator.h ****         frequency -= 0.5f;
 231              		.loc 3 66 7 is_stmt 1 view .LVU64
 232 006a B4EEC60A 		vcmpe.f32	s0, s12
 233 006e F1EE10FA 		vmrs	APSR_nzcv, FPSCR
 234 0072 02DD     		ble	.L14
  67:../eurorack/stmlib/dsp/cosine_oscillator.h ****       } else {
 235              		.loc 3 67 9 view .LVU65
  67:../eurorack/stmlib/dsp/cosine_oscillator.h ****       } else {
 236              		.loc 3 67 19 is_stmt 0 view .LVU66
 237 0074 30EE460A 		vsub.f32	s0, s0, s12
 238              	.LVL13:
ARM GAS  /var/folders/y7/g6pkzsp12sx54x3s3mvyn15r0000gn/T//cc4mEVA6.s 			page 13


  67:../eurorack/stmlib/dsp/cosine_oscillator.h ****       } else {
 239              		.loc 3 67 19 view .LVU67
 240 0078 D4E7     		b	.L15
 241              	.LVL14:
 242              	.L14:
  69:../eurorack/stmlib/dsp/cosine_oscillator.h ****       }
 243              		.loc 3 69 14 view .LVU68
 244 007a FBEE007A 		vmov.f32	s15, #-1.6e+1
 245 007e D3E7     		b	.L4
 246              	.LVL15:
 247              	.L7:
  69:../eurorack/stmlib/dsp/cosine_oscillator.h ****       }
 248              		.loc 3 69 14 view .LVU69
 249              	.LBE42:
 250              	.LBE51:
 251              	.LBE55:
 252              	.LBE74:
 253              	.LBB75:
  51:../eurorack/plaits/dsp/physical_modelling/resonator.cc ****   }
 254              		.loc 1 51 5 is_stmt 1 view .LVU70
 255              	.LBB61:
 256              	.LBI61:
  79:../eurorack/stmlib/dsp/cosine_oscillator.h ****   }
  80:../eurorack/stmlib/dsp/cosine_oscillator.h ****   
  81:../eurorack/stmlib/dsp/cosine_oscillator.h ****   inline float value() const {
  82:../eurorack/stmlib/dsp/cosine_oscillator.h ****     return y1_ + 0.5f;
  83:../eurorack/stmlib/dsp/cosine_oscillator.h ****   }
  84:../eurorack/stmlib/dsp/cosine_oscillator.h **** 
  85:../eurorack/stmlib/dsp/cosine_oscillator.h ****   inline float Next() {
 257              		.loc 3 85 16 view .LVU71
 258              	.LBB62:
  86:../eurorack/stmlib/dsp/cosine_oscillator.h ****     float temp = y0_;
 259              		.loc 3 86 5 view .LVU72
  87:../eurorack/stmlib/dsp/cosine_oscillator.h ****     y0_ = iir_coefficient_ * y0_ - y1_;
 260              		.loc 3 87 5 view .LVU73
 261              		.loc 3 87 34 is_stmt 0 view .LVU74
 262 0080 D7EE275A 		vfnms.f32	s11, s14, s15
 263              	.LVL16:
 264              		.loc 3 87 34 view .LVU75
 265              	.LBE62:
 266              	.LBE61:
  50:../eurorack/plaits/dsp/physical_modelling/resonator.cc ****     mode_amplitude_[i] = amplitudes.Next() * 0.25f;
 267              		.loc 1 50 3 discriminator 3 view .LVU76
 268 0084 0133     		adds	r3, r3, #1
 269              	.LVL17:
 270              	.LBB65:
 271              	.LBB63:
 272              		.loc 3 87 34 view .LVU77
 273 0086 B0EE655A 		vmov.f32	s10, s11
 274              	.LVL18:
  88:../eurorack/stmlib/dsp/cosine_oscillator.h ****     y1_ = temp;
 275              		.loc 3 88 5 is_stmt 1 view .LVU78
  89:../eurorack/stmlib/dsp/cosine_oscillator.h ****     return temp + 0.5f;
 276              		.loc 3 89 5 view .LVU79
 277              		.loc 3 89 19 is_stmt 0 view .LVU80
 278 008a 77EE065A 		vadd.f32	s11, s14, s12
 279              	.LBE63:
ARM GAS  /var/folders/y7/g6pkzsp12sx54x3s3mvyn15r0000gn/T//cc4mEVA6.s 			page 14


 280              	.LBE65:
  51:../eurorack/plaits/dsp/physical_modelling/resonator.cc ****   }
 281              		.loc 1 51 44 discriminator 1 view .LVU81
 282 008e 65EEA65A 		vmul.f32	s11, s11, s13
  51:../eurorack/plaits/dsp/physical_modelling/resonator.cc ****   }
 283              		.loc 1 51 24 discriminator 1 view .LVU82
 284 0092 E2EC015A 		vstmia.32	r2!, {s11}
  50:../eurorack/plaits/dsp/physical_modelling/resonator.cc ****     mode_amplitude_[i] = amplitudes.Next() * 0.25f;
 285              		.loc 1 50 3 is_stmt 1 discriminator 3 view .LVU83
 286              	.LVL19:
 287              	.LBB66:
 288              	.LBB64:
  88:../eurorack/stmlib/dsp/cosine_oscillator.h ****     return temp + 0.5f;
 289              		.loc 3 88 9 is_stmt 0 view .LVU84
 290 0096 F0EE475A 		vmov.f32	s11, s14
  87:../eurorack/stmlib/dsp/cosine_oscillator.h ****     y1_ = temp;
 291              		.loc 3 87 9 view .LVU85
 292 009a B0EE457A 		vmov.f32	s14, s10
 293              	.LVL20:
  87:../eurorack/stmlib/dsp/cosine_oscillator.h ****     y1_ = temp;
 294              		.loc 3 87 9 view .LVU86
 295 009e D3E7     		b	.L6
 296              	.LBE64:
 297              	.LBE66:
 298              	.LBE75:
 299              		.cfi_endproc
 300              	.LFE1319:
 302              		.section	.text._ZN6plaits12ResonatorSvfILi4EE7ProcessILN6stmlib10FilterModeE1ELb1EEEvPKfS6_S6_S6_P
 303              		.align	1
 304              		.weak	_ZN6plaits12ResonatorSvfILi4EE7ProcessILN6stmlib10FilterModeE1ELb1EEEvPKfS6_S6_S6_Pfj
 305              		.syntax unified
 306              		.thumb
 307              		.thumb_func
 309              	_ZN6plaits12ResonatorSvfILi4EE7ProcessILN6stmlib10FilterModeE1ELb1EEEvPKfS6_S6_S6_Pfj:
 310              	.LVL21:
 311              	.LFB1336:
  50:../eurorack/plaits/dsp/physical_modelling/resonator.h ****     }
  51:../eurorack/plaits/dsp/physical_modelling/resonator.h ****   }
  52:../eurorack/plaits/dsp/physical_modelling/resonator.h ****   
  53:../eurorack/plaits/dsp/physical_modelling/resonator.h ****   template<stmlib::FilterMode mode, bool add>
  54:../eurorack/plaits/dsp/physical_modelling/resonator.h ****   void Process(
 312              		.loc 4 54 8 is_stmt 1 view -0
 313              		.cfi_startproc
 314              		@ args = 12, pretend = 0, frame = 96
 315              		@ frame_needed = 0, uses_anonymous_args = 0
 316              	.LBB84:
  55:../eurorack/plaits/dsp/physical_modelling/resonator.h ****       const float* f,
  56:../eurorack/plaits/dsp/physical_modelling/resonator.h ****       const float* q,
  57:../eurorack/plaits/dsp/physical_modelling/resonator.h ****       const float* gain,
  58:../eurorack/plaits/dsp/physical_modelling/resonator.h ****       const float* in,
  59:../eurorack/plaits/dsp/physical_modelling/resonator.h ****       float* out,
  60:../eurorack/plaits/dsp/physical_modelling/resonator.h ****       size_t size) {
  61:../eurorack/plaits/dsp/physical_modelling/resonator.h ****     float g[batch_size];
  62:../eurorack/plaits/dsp/physical_modelling/resonator.h ****     float r[batch_size];
  63:../eurorack/plaits/dsp/physical_modelling/resonator.h ****     float r_plus_g[batch_size];
  64:../eurorack/plaits/dsp/physical_modelling/resonator.h ****     float h[batch_size];
  65:../eurorack/plaits/dsp/physical_modelling/resonator.h ****     float state_1[batch_size];
ARM GAS  /var/folders/y7/g6pkzsp12sx54x3s3mvyn15r0000gn/T//cc4mEVA6.s 			page 15


  66:../eurorack/plaits/dsp/physical_modelling/resonator.h ****     float state_2[batch_size];
  67:../eurorack/plaits/dsp/physical_modelling/resonator.h ****     float gains[batch_size];
  68:../eurorack/plaits/dsp/physical_modelling/resonator.h ****     for (int i = 0; i < batch_size; ++i) {
 317              		.loc 4 68 23 discriminator 1 view .LVU88
 318              	.LBE84:
  54:../eurorack/plaits/dsp/physical_modelling/resonator.h ****       const float* f,
 319              		.loc 4 54 8 is_stmt 0 view .LVU89
 320 0000 2DE9F043 		push	{r4, r5, r6, r7, r8, r9, lr}
 321              		.cfi_def_cfa_offset 28
 322              		.cfi_offset 4, -28
 323              		.cfi_offset 5, -24
 324              		.cfi_offset 6, -20
 325              		.cfi_offset 7, -16
 326              		.cfi_offset 8, -12
 327              		.cfi_offset 9, -8
 328              		.cfi_offset 14, -4
 329 0004 99B0     		sub	sp, sp, #100
 330              		.cfi_def_cfa_offset 128
  54:../eurorack/plaits/dsp/physical_modelling/resonator.h ****       const float* f,
 331              		.loc 4 54 8 view .LVU90
 332 0006 0446     		mov	r4, r0
 333 0008 01F11008 		add	r8, r1, #16
 334 000c 229D     		ldr	r5, [sp, #136]
 335 000e 04A8     		add	r0, sp, #16
 336              	.LVL22:
  54:../eurorack/plaits/dsp/physical_modelling/resonator.h ****       const float* f,
 337              		.loc 4 54 8 view .LVU91
 338 0010 0DF1200C 		add	ip, sp, #32
 339 0014 EE46     		mov	lr, sp
 340 0016 DDE92076 		ldrd	r7, r6, [sp, #128]
 341              	.LVL23:
 342              	.L17:
 343              	.LBB91:
  69:../eurorack/plaits/dsp/physical_modelling/resonator.h ****       g[i] = stmlib::OnePole::tan<stmlib::FREQUENCY_FAST>(f[i]);
 344              		.loc 4 69 58 view .LVU92
 345 001a B1EC017A 		vldmia.32	r1!, {s14}
 346              	.LVL24:
 347              	.LBB85:
 348              	.LBI85:
 349              		.file 5 "../eurorack/stmlib/dsp/filter.h"
   1:../eurorack/stmlib/dsp/filter.h **** // Copyright 2014 Emilie Gillet.
   2:../eurorack/stmlib/dsp/filter.h **** //
   3:../eurorack/stmlib/dsp/filter.h **** // Author: Emilie Gillet (emilie.o.gillet@gmail.com)
   4:../eurorack/stmlib/dsp/filter.h **** //
   5:../eurorack/stmlib/dsp/filter.h **** // Permission is hereby granted, free of charge, to any person obtaining a copy
   6:../eurorack/stmlib/dsp/filter.h **** // of this software and associated documentation files (the "Software"), to deal
   7:../eurorack/stmlib/dsp/filter.h **** // in the Software without restriction, including without limitation the rights
   8:../eurorack/stmlib/dsp/filter.h **** // to use, copy, modify, merge, publish, distribute, sublicense, and/or sell
   9:../eurorack/stmlib/dsp/filter.h **** // copies of the Software, and to permit persons to whom the Software is
  10:../eurorack/stmlib/dsp/filter.h **** // furnished to do so, subject to the following conditions:
  11:../eurorack/stmlib/dsp/filter.h **** // 
  12:../eurorack/stmlib/dsp/filter.h **** // The above copyright notice and this permission notice shall be included in
  13:../eurorack/stmlib/dsp/filter.h **** // all copies or substantial portions of the Software.
  14:../eurorack/stmlib/dsp/filter.h **** // 
  15:../eurorack/stmlib/dsp/filter.h **** // THE SOFTWARE IS PROVIDED "AS IS", WITHOUT WARRANTY OF ANY KIND, EXPRESS OR
  16:../eurorack/stmlib/dsp/filter.h **** // IMPLIED, INCLUDING BUT NOT LIMITED TO THE WARRANTIES OF MERCHANTABILITY,
  17:../eurorack/stmlib/dsp/filter.h **** // FITNESS FOR A PARTICULAR PURPOSE AND NONINFRINGEMENT. IN NO EVENT SHALL THE
ARM GAS  /var/folders/y7/g6pkzsp12sx54x3s3mvyn15r0000gn/T//cc4mEVA6.s 			page 16


  18:../eurorack/stmlib/dsp/filter.h **** // AUTHORS OR COPYRIGHT HOLDERS BE LIABLE FOR ANY CLAIM, DAMAGES OR OTHER
  19:../eurorack/stmlib/dsp/filter.h **** // LIABILITY, WHETHER IN AN ACTION OF CONTRACT, TORT OR OTHERWISE, ARISING FROM,
  20:../eurorack/stmlib/dsp/filter.h **** // OUT OF OR IN CONNECTION WITH THE SOFTWARE OR THE USE OR OTHER DEALINGS IN
  21:../eurorack/stmlib/dsp/filter.h **** // THE SOFTWARE.
  22:../eurorack/stmlib/dsp/filter.h **** // 
  23:../eurorack/stmlib/dsp/filter.h **** // See http://creativecommons.org/licenses/MIT/ for more information.
  24:../eurorack/stmlib/dsp/filter.h **** //
  25:../eurorack/stmlib/dsp/filter.h **** // -----------------------------------------------------------------------------
  26:../eurorack/stmlib/dsp/filter.h **** //
  27:../eurorack/stmlib/dsp/filter.h **** // Zero-delay-feedback filters (one pole and SVF).
  28:../eurorack/stmlib/dsp/filter.h **** // Naive SVF.
  29:../eurorack/stmlib/dsp/filter.h **** 
  30:../eurorack/stmlib/dsp/filter.h **** #ifndef STMLIB_DSP_FILTER_H_
  31:../eurorack/stmlib/dsp/filter.h **** #define STMLIB_DSP_FILTER_H_
  32:../eurorack/stmlib/dsp/filter.h **** 
  33:../eurorack/stmlib/dsp/filter.h **** #include "stmlib/stmlib.h"
  34:../eurorack/stmlib/dsp/filter.h **** 
  35:../eurorack/stmlib/dsp/filter.h **** #include <cmath>
  36:../eurorack/stmlib/dsp/filter.h **** #include <algorithm>
  37:../eurorack/stmlib/dsp/filter.h **** 
  38:../eurorack/stmlib/dsp/filter.h **** namespace stmlib {
  39:../eurorack/stmlib/dsp/filter.h **** 
  40:../eurorack/stmlib/dsp/filter.h **** enum FilterMode {
  41:../eurorack/stmlib/dsp/filter.h ****   FILTER_MODE_LOW_PASS,
  42:../eurorack/stmlib/dsp/filter.h ****   FILTER_MODE_BAND_PASS,
  43:../eurorack/stmlib/dsp/filter.h ****   FILTER_MODE_BAND_PASS_NORMALIZED,
  44:../eurorack/stmlib/dsp/filter.h ****   FILTER_MODE_HIGH_PASS
  45:../eurorack/stmlib/dsp/filter.h **** };
  46:../eurorack/stmlib/dsp/filter.h **** 
  47:../eurorack/stmlib/dsp/filter.h **** enum FrequencyApproximation {
  48:../eurorack/stmlib/dsp/filter.h ****   FREQUENCY_EXACT,
  49:../eurorack/stmlib/dsp/filter.h ****   FREQUENCY_ACCURATE,
  50:../eurorack/stmlib/dsp/filter.h ****   FREQUENCY_FAST,
  51:../eurorack/stmlib/dsp/filter.h ****   FREQUENCY_DIRTY
  52:../eurorack/stmlib/dsp/filter.h **** };
  53:../eurorack/stmlib/dsp/filter.h **** 
  54:../eurorack/stmlib/dsp/filter.h **** #define M_PI_F float(M_PI)
  55:../eurorack/stmlib/dsp/filter.h **** #define M_PI_POW_2 M_PI * M_PI
  56:../eurorack/stmlib/dsp/filter.h **** #define M_PI_POW_3 M_PI_POW_2 * M_PI
  57:../eurorack/stmlib/dsp/filter.h **** #define M_PI_POW_5 M_PI_POW_3 * M_PI_POW_2
  58:../eurorack/stmlib/dsp/filter.h **** #define M_PI_POW_7 M_PI_POW_5 * M_PI_POW_2
  59:../eurorack/stmlib/dsp/filter.h **** #define M_PI_POW_9 M_PI_POW_7 * M_PI_POW_2
  60:../eurorack/stmlib/dsp/filter.h **** #define M_PI_POW_11 M_PI_POW_9 * M_PI_POW_2
  61:../eurorack/stmlib/dsp/filter.h **** 
  62:../eurorack/stmlib/dsp/filter.h **** class DCBlocker {
  63:../eurorack/stmlib/dsp/filter.h ****  public:
  64:../eurorack/stmlib/dsp/filter.h ****   DCBlocker() { }
  65:../eurorack/stmlib/dsp/filter.h ****   ~DCBlocker() { }
  66:../eurorack/stmlib/dsp/filter.h ****   
  67:../eurorack/stmlib/dsp/filter.h ****   void Init(float pole) {
  68:../eurorack/stmlib/dsp/filter.h ****     x_ = 0.0f;
  69:../eurorack/stmlib/dsp/filter.h ****     y_ = 0.0f;
  70:../eurorack/stmlib/dsp/filter.h ****     pole_ = pole;
  71:../eurorack/stmlib/dsp/filter.h ****   }
  72:../eurorack/stmlib/dsp/filter.h ****   
  73:../eurorack/stmlib/dsp/filter.h ****   inline void Process(float* in_out, size_t size) {
  74:../eurorack/stmlib/dsp/filter.h ****     float x = x_;
ARM GAS  /var/folders/y7/g6pkzsp12sx54x3s3mvyn15r0000gn/T//cc4mEVA6.s 			page 17


  75:../eurorack/stmlib/dsp/filter.h ****     float y = y_;
  76:../eurorack/stmlib/dsp/filter.h ****     const float pole = pole_;
  77:../eurorack/stmlib/dsp/filter.h ****     while (size--) {
  78:../eurorack/stmlib/dsp/filter.h ****       float old_x = x;
  79:../eurorack/stmlib/dsp/filter.h ****       x = *in_out;
  80:../eurorack/stmlib/dsp/filter.h ****       *in_out++ = y = y * pole + x - old_x;
  81:../eurorack/stmlib/dsp/filter.h ****     }
  82:../eurorack/stmlib/dsp/filter.h ****     x_ = x;
  83:../eurorack/stmlib/dsp/filter.h ****     y_ = y;
  84:../eurorack/stmlib/dsp/filter.h ****   }
  85:../eurorack/stmlib/dsp/filter.h ****   
  86:../eurorack/stmlib/dsp/filter.h ****  private:
  87:../eurorack/stmlib/dsp/filter.h ****   float pole_;
  88:../eurorack/stmlib/dsp/filter.h ****   float x_;
  89:../eurorack/stmlib/dsp/filter.h ****   float y_;
  90:../eurorack/stmlib/dsp/filter.h **** };
  91:../eurorack/stmlib/dsp/filter.h **** 
  92:../eurorack/stmlib/dsp/filter.h **** class OnePole {
  93:../eurorack/stmlib/dsp/filter.h ****  public:
  94:../eurorack/stmlib/dsp/filter.h ****   OnePole() { }
  95:../eurorack/stmlib/dsp/filter.h ****   ~OnePole() { }
  96:../eurorack/stmlib/dsp/filter.h ****   
  97:../eurorack/stmlib/dsp/filter.h ****   void Init() {
  98:../eurorack/stmlib/dsp/filter.h ****     set_f<FREQUENCY_DIRTY>(0.01f);
  99:../eurorack/stmlib/dsp/filter.h ****     Reset();
 100:../eurorack/stmlib/dsp/filter.h ****   }
 101:../eurorack/stmlib/dsp/filter.h ****   
 102:../eurorack/stmlib/dsp/filter.h ****   void Reset() {
 103:../eurorack/stmlib/dsp/filter.h ****     state_ = 0.0f;
 104:../eurorack/stmlib/dsp/filter.h ****   }
 105:../eurorack/stmlib/dsp/filter.h ****   
 106:../eurorack/stmlib/dsp/filter.h ****   template<FrequencyApproximation approximation>
 107:../eurorack/stmlib/dsp/filter.h ****   static inline float tan(float f) {
 350              		.loc 5 107 23 is_stmt 1 view .LVU93
 351              	.LBB86:
 108:../eurorack/stmlib/dsp/filter.h ****     if (approximation == FREQUENCY_EXACT) {
 109:../eurorack/stmlib/dsp/filter.h ****       // Clip coefficient to about 100.
 110:../eurorack/stmlib/dsp/filter.h ****       f = f < 0.497f ? f : 0.497f;
 111:../eurorack/stmlib/dsp/filter.h ****       return tanf(M_PI_F * f);
 112:../eurorack/stmlib/dsp/filter.h ****     } else if (approximation == FREQUENCY_DIRTY) {
 113:../eurorack/stmlib/dsp/filter.h ****       // Optimized for frequencies below 8kHz.
 114:../eurorack/stmlib/dsp/filter.h ****       const float a = 3.736e-01f * M_PI_POW_3;
 115:../eurorack/stmlib/dsp/filter.h ****       return f * (M_PI_F + a * f * f);
 116:../eurorack/stmlib/dsp/filter.h ****     } else if (approximation == FREQUENCY_FAST) {
 117:../eurorack/stmlib/dsp/filter.h ****       // The usual tangent approximation uses 3.1755e-01 and 2.033e-01, but
 118:../eurorack/stmlib/dsp/filter.h ****       // the coefficients used here are optimized to minimize error for the
 119:../eurorack/stmlib/dsp/filter.h ****       // 16Hz to 16kHz range, with a sample rate of 48kHz.
 120:../eurorack/stmlib/dsp/filter.h ****       const float a = 3.260e-01f * M_PI_POW_3;
 121:../eurorack/stmlib/dsp/filter.h ****       const float b = 1.823e-01f * M_PI_POW_5;
 122:../eurorack/stmlib/dsp/filter.h ****       float f2 = f * f;
 123:../eurorack/stmlib/dsp/filter.h ****       return f * (M_PI_F + f2 * (a + b * f2));
 352              		.loc 5 123 36 is_stmt 0 view .LVU94
 353 001e DFED557A 		vldr.32	s15, .L33
 122:../eurorack/stmlib/dsp/filter.h ****       return f * (M_PI_F + f2 * (a + b * f2));
 354              		.loc 5 122 13 view .LVU95
 355 0022 27EE076A 		vmul.f32	s12, s14, s14
 356              	.LVL25:
ARM GAS  /var/folders/y7/g6pkzsp12sx54x3s3mvyn15r0000gn/T//cc4mEVA6.s 			page 18


 357              		.loc 5 123 36 view .LVU96
 358 0026 DFED546A 		vldr.32	s13, .L33+4
 359              	.LBE86:
 360              	.LBE85:
  68:../eurorack/plaits/dsp/physical_modelling/resonator.h ****       g[i] = stmlib::OnePole::tan<stmlib::FREQUENCY_FAST>(f[i]);
 361              		.loc 4 68 23 discriminator 1 view .LVU97
 362 002a 4145     		cmp	r1, r8
 363              	.LBB89:
 364              	.LBB87:
 365              		.loc 5 123 36 view .LVU98
 366 002c E6EE276A 		vfma.f32	s13, s12, s15
 367              		.loc 5 123 26 view .LVU99
 368 0030 DFED527A 		vldr.32	s15, .L33+8
 369 0034 E6EE867A 		vfma.f32	s15, s13, s12
 370              	.LBE87:
 371              	.LBE89:
  70:../eurorack/plaits/dsp/physical_modelling/resonator.h ****       r[i] = 1.0f / q[i];
 372              		.loc 4 70 24 view .LVU100
 373 0038 F2EC016A 		vldmia.32	r2!, {s13}
 374              		.loc 4 70 19 view .LVU101
 375 003c B7EE006A 		vmov.f32	s12, #1.0e+0
 376              	.LVL26:
 377              	.LBB90:
 378              	.LBB88:
 379              		.loc 5 123 45 view .LVU102
 380 0040 67EE877A 		vmul.f32	s15, s15, s14
 381              	.LVL27:
 382              		.loc 5 123 45 view .LVU103
 383              	.LBE88:
 384              	.LBE90:
 385              		.loc 4 70 19 view .LVU104
 386 0044 86EE267A 		vdiv.f32	s14, s12, s13
  69:../eurorack/plaits/dsp/physical_modelling/resonator.h ****       r[i] = 1.0f / q[i];
 387              		.loc 4 69 12 discriminator 1 view .LVU105
 388 0048 EEEC017A 		vstmia.32	lr!, {s15}
  71:../eurorack/plaits/dsp/physical_modelling/resonator.h ****       h[i] = 1.0f / (1.0f + r[i] * g[i] + g[i] * g[i]);
 389              		.loc 4 71 27 view .LVU106
 390 004c F0EE466A 		vmov.f32	s13, s12
 391 0050 E7EE276A 		vfma.f32	s13, s14, s15
  72:../eurorack/plaits/dsp/physical_modelling/resonator.h ****       r_plus_g[i] = r[i] + g[i];
 392              		.loc 4 72 26 view .LVU107
 393 0054 37EE277A 		vadd.f32	s14, s14, s15
 394              		.loc 4 72 19 view .LVU108
 395 0058 A0EC017A 		vstmia.32	r0!, {s14}
  68:../eurorack/plaits/dsp/physical_modelling/resonator.h ****       g[i] = stmlib::OnePole::tan<stmlib::FREQUENCY_FAST>(f[i]);
 396              		.loc 4 68 5 is_stmt 1 discriminator 3 view .LVU109
  68:../eurorack/plaits/dsp/physical_modelling/resonator.h ****       g[i] = stmlib::OnePole::tan<stmlib::FREQUENCY_FAST>(f[i]);
 397              		.loc 4 68 23 discriminator 1 view .LVU110
  71:../eurorack/plaits/dsp/physical_modelling/resonator.h ****       h[i] = 1.0f / (1.0f + r[i] * g[i] + g[i] * g[i]);
 398              		.loc 4 71 41 is_stmt 0 view .LVU111
 399 005c E7EEA76A 		vfma.f32	s13, s15, s15
  71:../eurorack/plaits/dsp/physical_modelling/resonator.h ****       h[i] = 1.0f / (1.0f + r[i] * g[i] + g[i] * g[i]);
 400              		.loc 4 71 19 view .LVU112
 401 0060 C6EE265A 		vdiv.f32	s11, s12, s13
  71:../eurorack/plaits/dsp/physical_modelling/resonator.h ****       h[i] = 1.0f / (1.0f + r[i] * g[i] + g[i] * g[i]);
 402              		.loc 4 71 12 view .LVU113
 403 0064 ECEC015A 		vstmia.32	ip!, {s11}
ARM GAS  /var/folders/y7/g6pkzsp12sx54x3s3mvyn15r0000gn/T//cc4mEVA6.s 			page 19


  68:../eurorack/plaits/dsp/physical_modelling/resonator.h ****       g[i] = stmlib::OnePole::tan<stmlib::FREQUENCY_FAST>(f[i]);
 404              		.loc 4 68 23 discriminator 1 view .LVU114
 405 0068 D7D1     		bne	.L17
  73:../eurorack/plaits/dsp/physical_modelling/resonator.h ****       state_1[i] = state_1_[i];
  74:../eurorack/plaits/dsp/physical_modelling/resonator.h ****       state_2[i] = state_2_[i];
  75:../eurorack/plaits/dsp/physical_modelling/resonator.h ****       gains[i] = gain[i];
 406              		.loc 4 75 16 view .LVU115
 407 006a 0DF1500C 		add	ip, sp, #80
 408 006e 03F1100E 		add	lr, r3, #16
 409              	.LVL28:
 410              	.L18:
 411              		.loc 4 75 16 view .LVU116
 412 0072 1868     		ldr	r0, [r3]	@ unaligned
 413 0074 0833     		adds	r3, r3, #8
 414 0076 53F8041C 		ldr	r1, [r3, #-4]	@ unaligned
 415 007a 6246     		mov	r2, ip
 416 007c 7345     		cmp	r3, lr
 417 007e 03C2     		stmia	r2!, {r0, r1}
 418 0080 9446     		mov	ip, r2
 419 0082 F6D1     		bne	.L18
 420 0084 04F11002 		add	r2, r4, #16
  74:../eurorack/plaits/dsp/physical_modelling/resonator.h ****       gains[i] = gain[i];
 421              		.loc 4 74 18 view .LVU117
 422 0088 0DF1400E 		add	lr, sp, #64
 423              	.LVL29:
  74:../eurorack/plaits/dsp/physical_modelling/resonator.h ****       gains[i] = gain[i];
 424              		.loc 4 74 18 view .LVU118
 425 008c 1346     		mov	r3, r2
 426 008e 02F11008 		add	r8, r2, #16
 427              	.LVL30:
 428              	.L19:
  74:../eurorack/plaits/dsp/physical_modelling/resonator.h ****       gains[i] = gain[i];
 429              		.loc 4 74 18 view .LVU119
 430 0092 1868     		ldr	r0, [r3]	@ unaligned
 431 0094 0833     		adds	r3, r3, #8
 432 0096 53F8041C 		ldr	r1, [r3, #-4]	@ unaligned
 433 009a F446     		mov	ip, lr
 434 009c 4345     		cmp	r3, r8
 435 009e ACE80300 		stmia	ip!, {r0, r1}
 436 00a2 E646     		mov	lr, ip
 437 00a4 F5D1     		bne	.L19
  73:../eurorack/plaits/dsp/physical_modelling/resonator.h ****       state_1[i] = state_1_[i];
 438              		.loc 4 73 18 view .LVU120
 439 00a6 2346     		mov	r3, r4
 440 00a8 0DF1300E 		add	lr, sp, #48
 441 00ac 04F11008 		add	r8, r4, #16
 442              	.L20:
 443 00b0 1868     		ldr	r0, [r3]	@ unaligned
 444 00b2 0833     		adds	r3, r3, #8
 445 00b4 53F8041C 		ldr	r1, [r3, #-4]	@ unaligned
 446 00b8 F446     		mov	ip, lr
 447 00ba 4345     		cmp	r3, r8
 448 00bc ACE80300 		stmia	ip!, {r0, r1}
 449 00c0 E646     		mov	lr, ip
 450 00c2 F5D1     		bne	.L20
 451              	.LVL31:
 452              	.L21:
ARM GAS  /var/folders/y7/g6pkzsp12sx54x3s3mvyn15r0000gn/T//cc4mEVA6.s 			page 20


  73:../eurorack/plaits/dsp/physical_modelling/resonator.h ****       state_1[i] = state_1_[i];
 453              		.loc 4 73 18 view .LVU121
 454              	.LBE91:
  76:../eurorack/plaits/dsp/physical_modelling/resonator.h ****     }
  77:../eurorack/plaits/dsp/physical_modelling/resonator.h ****     
  78:../eurorack/plaits/dsp/physical_modelling/resonator.h ****     while (size--) {
 455              		.loc 4 78 5 is_stmt 1 view .LVU122
 456 00c4 013D     		subs	r5, r5, #1
 457              	.LVL32:
 458              		.loc 4 78 5 is_stmt 0 view .LVU123
 459 00c6 6B1C     		adds	r3, r5, #1
 460 00c8 10AB     		add	r3, sp, #64
 461 00ca 18D1     		bne	.L23
 462              	.LBB92:
  79:../eurorack/plaits/dsp/physical_modelling/resonator.h ****       float s_in = *in++;
  80:../eurorack/plaits/dsp/physical_modelling/resonator.h ****       float s_out = 0.0f;
  81:../eurorack/plaits/dsp/physical_modelling/resonator.h ****       for (int i = 0; i < batch_size; ++i) {
  82:../eurorack/plaits/dsp/physical_modelling/resonator.h ****         const float hp = (s_in - r_plus_g[i] * state_1[i] - state_2[i]) * h[i];
  83:../eurorack/plaits/dsp/physical_modelling/resonator.h ****         const float bp = g[i] * hp + state_1[i];
  84:../eurorack/plaits/dsp/physical_modelling/resonator.h ****         state_1[i] = g[i] * hp + bp;
  85:../eurorack/plaits/dsp/physical_modelling/resonator.h ****         const float lp = g[i] * bp + state_2[i];
  86:../eurorack/plaits/dsp/physical_modelling/resonator.h ****         state_2[i] = g[i] * bp + lp;
  87:../eurorack/plaits/dsp/physical_modelling/resonator.h ****         s_out += gains[i] * ((mode == stmlib::FILTER_MODE_LOW_PASS) ? lp : bp);
  88:../eurorack/plaits/dsp/physical_modelling/resonator.h ****       }
  89:../eurorack/plaits/dsp/physical_modelling/resonator.h ****       if (add) {
  90:../eurorack/plaits/dsp/physical_modelling/resonator.h ****         *out++ += s_out;
  91:../eurorack/plaits/dsp/physical_modelling/resonator.h ****       } else {
  92:../eurorack/plaits/dsp/physical_modelling/resonator.h ****         *out++ = s_out;
  93:../eurorack/plaits/dsp/physical_modelling/resonator.h ****       }
  94:../eurorack/plaits/dsp/physical_modelling/resonator.h ****     }
  95:../eurorack/plaits/dsp/physical_modelling/resonator.h ****     for (int i = 0; i < batch_size; ++i) {
  96:../eurorack/plaits/dsp/physical_modelling/resonator.h ****       state_1_[i] = state_1[i];
 463              		.loc 4 96 19 view .LVU124
 464 00cc 0CAD     		add	r5, sp, #48
 465              	.LVL33:
 466              	.L24:
 467              		.loc 4 96 19 view .LVU125
 468 00ce 2E46     		mov	r6, r5
 469 00d0 0834     		adds	r4, r4, #8
 470 00d2 03CE     		ldmia	r6!, {r0, r1}
 471 00d4 9E42     		cmp	r6, r3
 472 00d6 44F8080C 		str	r0, [r4, #-8]	@ unaligned
 473 00da 44F8041C 		str	r1, [r4, #-4]	@ unaligned
 474 00de 3546     		mov	r5, r6
 475 00e0 F5D1     		bne	.L24
  97:../eurorack/plaits/dsp/physical_modelling/resonator.h ****       state_2_[i] = state_2[i];
 476              		.loc 4 97 19 view .LVU126
 477 00e2 14AD     		add	r5, sp, #80
 478              	.LVL34:
 479              	.L25:
 480              		.loc 4 97 19 view .LVU127
 481 00e4 1C46     		mov	r4, r3
 482 00e6 0832     		adds	r2, r2, #8
 483 00e8 03CC     		ldmia	r4!, {r0, r1}
 484 00ea AC42     		cmp	r4, r5
 485 00ec 42F8080C 		str	r0, [r2, #-8]	@ unaligned
 486 00f0 42F8041C 		str	r1, [r2, #-4]	@ unaligned
ARM GAS  /var/folders/y7/g6pkzsp12sx54x3s3mvyn15r0000gn/T//cc4mEVA6.s 			page 21


 487 00f4 2346     		mov	r3, r4
 488 00f6 F5D1     		bne	.L25
 489              	.LBE92:
  98:../eurorack/plaits/dsp/physical_modelling/resonator.h ****     }
  99:../eurorack/plaits/dsp/physical_modelling/resonator.h ****   }
 490              		.loc 4 99 3 view .LVU128
 491 00f8 19B0     		add	sp, sp, #100
 492              		.cfi_remember_state
 493              		.cfi_def_cfa_offset 28
 494              		@ sp needed
 495 00fa BDE8F083 		pop	{r4, r5, r6, r7, r8, r9, pc}
 496              	.LVL35:
 497              	.L23:
 498              		.cfi_restore_state
 499              	.LBB93:
  79:../eurorack/plaits/dsp/physical_modelling/resonator.h ****       float s_out = 0.0f;
 500              		.loc 4 79 13 view .LVU129
 501 00fe F7EC014A 		vldmia.32	r7!, {s9}
 502              	.LVL36:
 503              	.LBB94:
  81:../eurorack/plaits/dsp/physical_modelling/resonator.h ****         const float hp = (s_in - r_plus_g[i] * state_1[i] - state_2[i]) * h[i];
 504              		.loc 4 81 25 is_stmt 1 discriminator 1 view .LVU130
 505 0102 0CA8     		add	r0, sp, #48
 506 0104 0DF1500C 		add	ip, sp, #80
 507              	.LBE94:
  79:../eurorack/plaits/dsp/physical_modelling/resonator.h ****       float s_out = 0.0f;
 508              		.loc 4 79 13 is_stmt 0 view .LVU131
 509 0108 EE46     		mov	lr, sp
 510 010a 0DF12008 		add	r8, sp, #32
 511 010e 0DF11009 		add	r9, sp, #16
 512              	.LBB98:
  81:../eurorack/plaits/dsp/physical_modelling/resonator.h ****         const float hp = (s_in - r_plus_g[i] * state_1[i] - state_2[i]) * h[i];
 513              		.loc 4 81 16 view .LVU132
 514 0112 0021     		movs	r1, #0
 515              	.LBE98:
  80:../eurorack/plaits/dsp/physical_modelling/resonator.h ****       for (int i = 0; i < batch_size; ++i) {
 516              		.loc 4 80 13 view .LVU133
 517 0114 DFED1A5A 		vldr.32	s11, .L33+12
 518              	.LVL37:
 519              	.L22:
 520              	.LBB99:
 521              	.LBB95:
  82:../eurorack/plaits/dsp/physical_modelling/resonator.h ****         const float bp = g[i] * hp + state_1[i];
 522              		.loc 4 82 32 view .LVU134
 523 0118 F0EE646A 		vmov.f32	s13, s9
  82:../eurorack/plaits/dsp/physical_modelling/resonator.h ****         const float bp = g[i] * hp + state_1[i];
 524              		.loc 4 82 55 view .LVU135
 525 011c D0ED007A 		vldr.32	s15, [r0]
  82:../eurorack/plaits/dsp/physical_modelling/resonator.h ****         const float bp = g[i] * hp + state_1[i];
 526              		.loc 4 82 42 view .LVU136
 527 0120 B9EC017A 		vldmia.32	r9!, {s14}
 528              	.LBE95:
  81:../eurorack/plaits/dsp/physical_modelling/resonator.h ****         const float hp = (s_in - r_plus_g[i] * state_1[i] - state_2[i]) * h[i];
 529              		.loc 4 81 7 discriminator 3 view .LVU137
 530 0124 0131     		adds	r1, r1, #1
 531              	.LVL38:
 532              	.LBB96:
ARM GAS  /var/folders/y7/g6pkzsp12sx54x3s3mvyn15r0000gn/T//cc4mEVA6.s 			page 22


  82:../eurorack/plaits/dsp/physical_modelling/resonator.h ****         const float bp = g[i] * hp + state_1[i];
 533              		.loc 4 82 76 view .LVU138
 534 0126 B8EC016A 		vldmia.32	r8!, {s12}
  82:../eurorack/plaits/dsp/physical_modelling/resonator.h ****         const float bp = g[i] * hp + state_1[i];
 535              		.loc 4 82 32 view .LVU139
 536 012a E7EE676A 		vfms.f32	s13, s14, s15
  82:../eurorack/plaits/dsp/physical_modelling/resonator.h ****         const float bp = g[i] * hp + state_1[i];
 537              		.loc 4 82 68 view .LVU140
 538 012e 93ED007A 		vldr.32	s14, [r3]
 539              	.LBE96:
  81:../eurorack/plaits/dsp/physical_modelling/resonator.h ****         const float hp = (s_in - r_plus_g[i] * state_1[i] - state_2[i]) * h[i];
 540              		.loc 4 81 25 discriminator 1 view .LVU141
 541 0132 0429     		cmp	r1, #4
 542              	.LBB97:
  82:../eurorack/plaits/dsp/physical_modelling/resonator.h ****         const float bp = g[i] * hp + state_1[i];
 543              		.loc 4 82 59 view .LVU142
 544 0134 76EEC76A 		vsub.f32	s13, s13, s14
  82:../eurorack/plaits/dsp/physical_modelling/resonator.h ****         const float bp = g[i] * hp + state_1[i];
 545              		.loc 4 82 21 view .LVU143
 546 0138 66EE866A 		vmul.f32	s13, s13, s12
 547              	.LVL39:
  83:../eurorack/plaits/dsp/physical_modelling/resonator.h ****         state_1[i] = g[i] * hp + bp;
 548              		.loc 4 83 27 view .LVU144
 549 013c BEEC016A 		vldmia.32	lr!, {s12}
  83:../eurorack/plaits/dsp/physical_modelling/resonator.h ****         state_1[i] = g[i] * hp + bp;
 550              		.loc 4 83 21 view .LVU145
 551 0140 E6EE267A 		vfma.f32	s15, s12, s13
 552              	.LVL40:
  85:../eurorack/plaits/dsp/physical_modelling/resonator.h ****         state_2[i] = g[i] * bp + lp;
 553              		.loc 4 85 21 view .LVU146
 554 0144 A6EE277A 		vfma.f32	s14, s12, s15
 555              	.LVL41:
  84:../eurorack/plaits/dsp/physical_modelling/resonator.h ****         const float lp = g[i] * bp + state_2[i];
 556              		.loc 4 84 32 view .LVU147
 557 0148 B0EE675A 		vmov.f32	s10, s15
 558 014c A6EE265A 		vfma.f32	s10, s12, s13
  86:../eurorack/plaits/dsp/physical_modelling/resonator.h ****         s_out += gains[i] * ((mode == stmlib::FILTER_MODE_LOW_PASS) ? lp : bp);
 559              		.loc 4 86 32 view .LVU148
 560 0150 A6EE277A 		vfma.f32	s14, s12, s15
 561              	.LVL42:
  84:../eurorack/plaits/dsp/physical_modelling/resonator.h ****         const float lp = g[i] * bp + state_2[i];
 562              		.loc 4 84 20 view .LVU149
 563 0154 A0EC015A 		vstmia.32	r0!, {s10}
  86:../eurorack/plaits/dsp/physical_modelling/resonator.h ****         s_out += gains[i] * ((mode == stmlib::FILTER_MODE_LOW_PASS) ? lp : bp);
 564              		.loc 4 86 20 view .LVU150
 565 0158 A3EC017A 		vstmia.32	r3!, {s14}
 566              	.LVL43:
  87:../eurorack/plaits/dsp/physical_modelling/resonator.h ****       }
 567              		.loc 4 87 23 view .LVU151
 568 015c BCEC017A 		vldmia.32	ip!, {s14}
  87:../eurorack/plaits/dsp/physical_modelling/resonator.h ****       }
 569              		.loc 4 87 15 view .LVU152
 570 0160 E7EE275A 		vfma.f32	s11, s14, s15
 571              	.LVL44:
  87:../eurorack/plaits/dsp/physical_modelling/resonator.h ****       }
 572              		.loc 4 87 15 view .LVU153
 573              	.LBE97:
ARM GAS  /var/folders/y7/g6pkzsp12sx54x3s3mvyn15r0000gn/T//cc4mEVA6.s 			page 23


  81:../eurorack/plaits/dsp/physical_modelling/resonator.h ****         const float hp = (s_in - r_plus_g[i] * state_1[i] - state_2[i]) * h[i];
 574              		.loc 4 81 7 is_stmt 1 discriminator 3 view .LVU154
  81:../eurorack/plaits/dsp/physical_modelling/resonator.h ****         const float hp = (s_in - r_plus_g[i] * state_1[i] - state_2[i]) * h[i];
 575              		.loc 4 81 25 discriminator 1 view .LVU155
 576 0164 D8D1     		bne	.L22
 577              	.LVL45:
  81:../eurorack/plaits/dsp/physical_modelling/resonator.h ****         const float hp = (s_in - r_plus_g[i] * state_1[i] - state_2[i]) * h[i];
 578              		.loc 4 81 25 is_stmt 0 discriminator 1 view .LVU156
 579              	.LBE99:
  90:../eurorack/plaits/dsp/physical_modelling/resonator.h ****       } else {
 580              		.loc 4 90 16 view .LVU157
 581 0166 F6EC017A 		vldmia.32	r6!, {s15}
 582              	.LVL46:
  90:../eurorack/plaits/dsp/physical_modelling/resonator.h ****       } else {
 583              		.loc 4 90 16 view .LVU158
 584 016a 77EEA57A 		vadd.f32	s15, s15, s11
 585 016e 46ED017A 		vstr.32	s15, [r6, #-4]
 586 0172 A7E7     		b	.L21
 587              	.L34:
 588              		.align	2
 589              	.L33:
 590 0174 49265F42 		.word	1113531977
 591 0178 8FBA2141 		.word	1092729487
 592 017c DB0F4940 		.word	1078530011
 593 0180 00000000 		.word	0
 594              	.LBE93:
 595              		.cfi_endproc
 596              	.LFE1336:
 598              		.section	.text._ZN6plaits9Resonator7ProcessEffffPKfPfj,"ax",%progbits
 599              		.align	1
 600              		.global	_ZN6plaits9Resonator7ProcessEffffPKfPfj
 601              		.syntax unified
 602              		.thumb
 603              		.thumb_func
 605              	_ZN6plaits9Resonator7ProcessEffffPKfPfj:
 606              	.LVL47:
 607              	.LFB1322:
  58:../eurorack/plaits/dsp/physical_modelling/resonator.cc **** 
  59:../eurorack/plaits/dsp/physical_modelling/resonator.cc **** inline float NthHarmonicCompensation(int n, float stiffness) {
  60:../eurorack/plaits/dsp/physical_modelling/resonator.cc ****   float stretch_factor = 1.0f;
  61:../eurorack/plaits/dsp/physical_modelling/resonator.cc ****   for (int i = 0; i < n - 1; ++i) {
  62:../eurorack/plaits/dsp/physical_modelling/resonator.cc ****     stretch_factor += stiffness;
  63:../eurorack/plaits/dsp/physical_modelling/resonator.cc ****     if (stiffness < 0.0f) {
  64:../eurorack/plaits/dsp/physical_modelling/resonator.cc ****       stiffness *= 0.93f;
  65:../eurorack/plaits/dsp/physical_modelling/resonator.cc ****     } else {
  66:../eurorack/plaits/dsp/physical_modelling/resonator.cc ****       stiffness *= 0.98f;
  67:../eurorack/plaits/dsp/physical_modelling/resonator.cc ****     }
  68:../eurorack/plaits/dsp/physical_modelling/resonator.cc ****   }
  69:../eurorack/plaits/dsp/physical_modelling/resonator.cc ****   return 1.0f / stretch_factor;
  70:../eurorack/plaits/dsp/physical_modelling/resonator.cc **** }
  71:../eurorack/plaits/dsp/physical_modelling/resonator.cc **** 
  72:../eurorack/plaits/dsp/physical_modelling/resonator.cc **** void Resonator::Process(
  73:../eurorack/plaits/dsp/physical_modelling/resonator.cc ****     float f0,
  74:../eurorack/plaits/dsp/physical_modelling/resonator.cc ****     float structure,
  75:../eurorack/plaits/dsp/physical_modelling/resonator.cc ****     float brightness,
  76:../eurorack/plaits/dsp/physical_modelling/resonator.cc ****     float damping,
  77:../eurorack/plaits/dsp/physical_modelling/resonator.cc ****     const float* in,
ARM GAS  /var/folders/y7/g6pkzsp12sx54x3s3mvyn15r0000gn/T//cc4mEVA6.s 			page 24


  78:../eurorack/plaits/dsp/physical_modelling/resonator.cc ****     float* out,
  79:../eurorack/plaits/dsp/physical_modelling/resonator.cc ****     size_t size) {
 608              		.loc 1 79 18 is_stmt 1 view -0
 609              		.cfi_startproc
 610              		@ args = 0, pretend = 0, frame = 48
 611              		@ frame_needed = 0, uses_anonymous_args = 0
  80:../eurorack/plaits/dsp/physical_modelling/resonator.cc ****   float stiffness = Interpolate(lut_stiffness, structure, 64.0f);
 612              		.loc 1 80 3 view .LVU160
 613              	.LBB109:
 614              	.LBI109:
 615              		.file 6 "../eurorack/stmlib/dsp/dsp.h"
   1:../eurorack/stmlib/dsp/dsp.h **** // Copyright 2012 Emilie Gillet.
   2:../eurorack/stmlib/dsp/dsp.h **** //
   3:../eurorack/stmlib/dsp/dsp.h **** // Author: Emilie Gillet (emilie.o.gillet@gmail.com)
   4:../eurorack/stmlib/dsp/dsp.h **** //
   5:../eurorack/stmlib/dsp/dsp.h **** // Permission is hereby granted, free of charge, to any person obtaining a copy
   6:../eurorack/stmlib/dsp/dsp.h **** // of this software and associated documentation files (the "Software"), to deal
   7:../eurorack/stmlib/dsp/dsp.h **** // in the Software without restriction, including without limitation the rights
   8:../eurorack/stmlib/dsp/dsp.h **** // to use, copy, modify, merge, publish, distribute, sublicense, and/or sell
   9:../eurorack/stmlib/dsp/dsp.h **** // copies of the Software, and to permit persons to whom the Software is
  10:../eurorack/stmlib/dsp/dsp.h **** // furnished to do so, subject to the following conditions:
  11:../eurorack/stmlib/dsp/dsp.h **** // 
  12:../eurorack/stmlib/dsp/dsp.h **** // The above copyright notice and this permission notice shall be included in
  13:../eurorack/stmlib/dsp/dsp.h **** // all copies or substantial portions of the Software.
  14:../eurorack/stmlib/dsp/dsp.h **** // 
  15:../eurorack/stmlib/dsp/dsp.h **** // THE SOFTWARE IS PROVIDED "AS IS", WITHOUT WARRANTY OF ANY KIND, EXPRESS OR
  16:../eurorack/stmlib/dsp/dsp.h **** // IMPLIED, INCLUDING BUT NOT LIMITED TO THE WARRANTIES OF MERCHANTABILITY,
  17:../eurorack/stmlib/dsp/dsp.h **** // FITNESS FOR A PARTICULAR PURPOSE AND NONINFRINGEMENT. IN NO EVENT SHALL THE
  18:../eurorack/stmlib/dsp/dsp.h **** // AUTHORS OR COPYRIGHT HOLDERS BE LIABLE FOR ANY CLAIM, DAMAGES OR OTHER
  19:../eurorack/stmlib/dsp/dsp.h **** // LIABILITY, WHETHER IN AN ACTION OF CONTRACT, TORT OR OTHERWISE, ARISING FROM,
  20:../eurorack/stmlib/dsp/dsp.h **** // OUT OF OR IN CONNECTION WITH THE SOFTWARE OR THE USE OR OTHER DEALINGS IN
  21:../eurorack/stmlib/dsp/dsp.h **** // THE SOFTWARE.
  22:../eurorack/stmlib/dsp/dsp.h **** // 
  23:../eurorack/stmlib/dsp/dsp.h **** // See http://creativecommons.org/licenses/MIT/ for more information.
  24:../eurorack/stmlib/dsp/dsp.h **** //
  25:../eurorack/stmlib/dsp/dsp.h **** // -----------------------------------------------------------------------------
  26:../eurorack/stmlib/dsp/dsp.h **** //
  27:../eurorack/stmlib/dsp/dsp.h **** // DSP utility routines.
  28:../eurorack/stmlib/dsp/dsp.h **** 
  29:../eurorack/stmlib/dsp/dsp.h **** #ifndef STMLIB_UTILS_DSP_DSP_H_
  30:../eurorack/stmlib/dsp/dsp.h **** #define STMLIB_UTILS_DSP_DSP_H_
  31:../eurorack/stmlib/dsp/dsp.h **** 
  32:../eurorack/stmlib/dsp/dsp.h **** #include "stmlib/stmlib.h"
  33:../eurorack/stmlib/dsp/dsp.h **** 
  34:../eurorack/stmlib/dsp/dsp.h **** #include <cmath>
  35:../eurorack/stmlib/dsp/dsp.h **** #include <math.h>
  36:../eurorack/stmlib/dsp/dsp.h **** 
  37:../eurorack/stmlib/dsp/dsp.h **** namespace stmlib {
  38:../eurorack/stmlib/dsp/dsp.h **** 
  39:../eurorack/stmlib/dsp/dsp.h **** #define MAKE_INTEGRAL_FRACTIONAL(x) \
  40:../eurorack/stmlib/dsp/dsp.h ****   int32_t x ## _integral = static_cast<int32_t>(x); \
  41:../eurorack/stmlib/dsp/dsp.h ****   float x ## _fractional = x - static_cast<float>(x ## _integral);
  42:../eurorack/stmlib/dsp/dsp.h **** 
  43:../eurorack/stmlib/dsp/dsp.h **** inline float Interpolate(const float* table, float index, float size) {
 616              		.loc 6 43 14 view .LVU161
 617              	.LBB110:
  44:../eurorack/stmlib/dsp/dsp.h ****   index *= size;
ARM GAS  /var/folders/y7/g6pkzsp12sx54x3s3mvyn15r0000gn/T//cc4mEVA6.s 			page 25


 618              		.loc 6 44 3 view .LVU162
 619              		.loc 6 44 9 is_stmt 0 view .LVU163
 620 0000 DFED617A 		vldr.32	s15, .L48
 621 0004 60EEA77A 		vmul.f32	s15, s1, s15
 622              	.LVL48:
  45:../eurorack/stmlib/dsp/dsp.h ****   MAKE_INTEGRAL_FRACTIONAL(index)
 623              		.loc 6 45 3 is_stmt 1 view .LVU164
 624              	.LBE110:
 625              	.LBE109:
  79:../eurorack/plaits/dsp/physical_modelling/resonator.cc ****   float stiffness = Interpolate(lut_stiffness, structure, 64.0f);
 626              		.loc 1 79 18 is_stmt 0 view .LVU165
 627 0008 2DE9F04F 		push	{r4, r5, r6, r7, r8, r9, r10, fp, lr}
 628              		.cfi_def_cfa_offset 36
 629              		.cfi_offset 4, -36
 630              		.cfi_offset 5, -32
 631              		.cfi_offset 6, -28
 632              		.cfi_offset 7, -24
 633              		.cfi_offset 8, -20
 634              		.cfi_offset 9, -16
 635              		.cfi_offset 10, -12
 636              		.cfi_offset 11, -8
 637              		.cfi_offset 14, -4
 638              	.LBB119:
 639              	.LBB111:
 640              		.loc 6 45 3 view .LVU166
 641 000c BDEEE77A 		vcvt.s32.f32	s14, s15
 642              	.LBE111:
 643              	.LBE119:
  79:../eurorack/plaits/dsp/physical_modelling/resonator.cc ****   float stiffness = Interpolate(lut_stiffness, structure, 64.0f);
 644              		.loc 1 79 18 view .LVU167
 645 0010 0446     		mov	r4, r0
 646 0012 9946     		mov	r9, r3
 647              	.LBB120:
 648              	.LBB112:
  46:../eurorack/stmlib/dsp/dsp.h ****   float a = table[index_integral];
 649              		.loc 6 46 9 view .LVU168
 650 0014 5D48     		ldr	r0, .L48+4
 651              	.LVL49:
 652              		.loc 6 46 9 view .LVU169
 653              	.LBE112:
 654              	.LBE120:
  79:../eurorack/plaits/dsp/physical_modelling/resonator.cc ****   float stiffness = Interpolate(lut_stiffness, structure, 64.0f);
 655              		.loc 1 79 18 view .LVU170
 656 0016 9046     		mov	r8, r2
 657 0018 0F46     		mov	r7, r1
 658              	.LBB121:
 659              	.LBB113:
  45:../eurorack/stmlib/dsp/dsp.h ****   MAKE_INTEGRAL_FRACTIONAL(index)
 660              		.loc 6 45 3 view .LVU171
 661 001a 17EE103A 		vmov	r3, s14	@ int
 662              	.LVL50:
  45:../eurorack/stmlib/dsp/dsp.h ****   MAKE_INTEGRAL_FRACTIONAL(index)
 663              		.loc 6 45 3 is_stmt 1 view .LVU172
 664              		.loc 6 46 3 view .LVU173
  45:../eurorack/stmlib/dsp/dsp.h ****   MAKE_INTEGRAL_FRACTIONAL(index)
 665              		.loc 6 45 3 is_stmt 0 view .LVU174
 666 001e B8EEC77A 		vcvt.f32.s32	s14, s14
ARM GAS  /var/folders/y7/g6pkzsp12sx54x3s3mvyn15r0000gn/T//cc4mEVA6.s 			page 26


 667              	.LBE113:
 668              	.LBE121:
 669              	.LBB122:
  81:../eurorack/plaits/dsp/physical_modelling/resonator.cc ****   f0 *= NthHarmonicCompensation(3, stiffness);
  82:../eurorack/plaits/dsp/physical_modelling/resonator.cc ****   
  83:../eurorack/plaits/dsp/physical_modelling/resonator.cc ****   float harmonic = f0;
  84:../eurorack/plaits/dsp/physical_modelling/resonator.cc ****   float stretch_factor = 1.0f;
  85:../eurorack/plaits/dsp/physical_modelling/resonator.cc ****   float q_sqrt = SemitonesToRatio(damping * 79.7f);
  86:../eurorack/plaits/dsp/physical_modelling/resonator.cc ****   float q = 500.0f * q_sqrt * q_sqrt;
  87:../eurorack/plaits/dsp/physical_modelling/resonator.cc ****   brightness *= 1.0f - structure * 0.3f;
  88:../eurorack/plaits/dsp/physical_modelling/resonator.cc ****   brightness *= 1.0f - damping * 0.3f;
  89:../eurorack/plaits/dsp/physical_modelling/resonator.cc ****   float q_loss = brightness * (2.0f - brightness) * 0.85f + 0.15f;
  90:../eurorack/plaits/dsp/physical_modelling/resonator.cc ****   
  91:../eurorack/plaits/dsp/physical_modelling/resonator.cc ****   float mode_q[kModeBatchSize];
  92:../eurorack/plaits/dsp/physical_modelling/resonator.cc ****   float mode_f[kModeBatchSize];
  93:../eurorack/plaits/dsp/physical_modelling/resonator.cc ****   float mode_a[kModeBatchSize];
  94:../eurorack/plaits/dsp/physical_modelling/resonator.cc ****   int batch_counter = 0;
  95:../eurorack/plaits/dsp/physical_modelling/resonator.cc ****   
  96:../eurorack/plaits/dsp/physical_modelling/resonator.cc ****   ResonatorSvf<kModeBatchSize>* batch_processor = &mode_filters_[0];
  97:../eurorack/plaits/dsp/physical_modelling/resonator.cc ****   
  98:../eurorack/plaits/dsp/physical_modelling/resonator.cc ****   
  99:../eurorack/plaits/dsp/physical_modelling/resonator.cc ****   for (int i = 0; i < resolution_; ++i) {
 670              		.loc 1 99 12 view .LVU175
 671 0022 0026     		movs	r6, #0
 672              	.LBE122:
  96:../eurorack/plaits/dsp/physical_modelling/resonator.cc ****   
 673              		.loc 1 96 33 view .LVU176
 674 0024 04F1640A 		add	r10, r4, #100
 675              	.LBB125:
 676              	.LBB114:
 677              		.loc 6 46 9 view .LVU177
 678 0028 00EB8302 		add	r2, r0, r3, lsl #2
 679              	.LVL51:
 680              		.loc 6 46 9 view .LVU178
 681 002c 04F1040B 		add	fp, r4, #4
  45:../eurorack/stmlib/dsp/dsp.h ****   float a = table[index_integral];
 682              		.loc 6 45 3 view .LVU179
 683 0030 77EEC77A 		vsub.f32	s15, s15, s14
 684              	.LVL52:
  45:../eurorack/stmlib/dsp/dsp.h ****   float a = table[index_integral];
 685              		.loc 6 45 3 view .LVU180
 686              	.LBE114:
 687              	.LBE125:
  94:../eurorack/plaits/dsp/physical_modelling/resonator.cc ****   
 688              		.loc 1 94 7 view .LVU181
 689 0034 3546     		mov	r5, r6
 690              	.LBB126:
 691              	.LBB115:
  47:../eurorack/stmlib/dsp/dsp.h ****   float b = table[index_integral + 1];
  48:../eurorack/stmlib/dsp/dsp.h ****   return a + (b - a) * index_fractional;
 692              		.loc 6 48 17 view .LVU182
 693 0036 92ED017A 		vldr.32	s14, [r2, #4]
 694              	.LBE115:
 695              	.LBE126:
  79:../eurorack/plaits/dsp/physical_modelling/resonator.cc ****   float stiffness = Interpolate(lut_stiffness, structure, 64.0f);
 696              		.loc 1 79 18 view .LVU183
 697 003a 2DED088B 		vpush.64	{d8, d9, d10, d11}
ARM GAS  /var/folders/y7/g6pkzsp12sx54x3s3mvyn15r0000gn/T//cc4mEVA6.s 			page 27


 698              		.cfi_def_cfa_offset 68
 699              		.cfi_offset 80, -68
 700              		.cfi_offset 81, -64
 701              		.cfi_offset 82, -60
 702              		.cfi_offset 83, -56
 703              		.cfi_offset 84, -52
 704              		.cfi_offset 85, -48
 705              		.cfi_offset 86, -44
 706              		.cfi_offset 87, -40
 707              	.LBB127:
 708              	.LBB116:
  46:../eurorack/stmlib/dsp/dsp.h ****   float b = table[index_integral + 1];
 709              		.loc 6 46 9 view .LVU184
 710 003e 92ED008A 		vldr.32	s16, [r2]
 711              	.LVL53:
  47:../eurorack/stmlib/dsp/dsp.h ****   float b = table[index_integral + 1];
 712              		.loc 6 47 3 is_stmt 1 view .LVU185
 713              		.loc 6 48 3 view .LVU186
 714              	.LBE116:
 715              	.LBE127:
 716              	.LBB128:
 717              	.LBB129:
 718              	.LBB130:
  62:../eurorack/plaits/dsp/physical_modelling/resonator.cc ****     if (stiffness < 0.0f) {
 719              		.loc 1 62 20 is_stmt 0 view .LVU187
 720 0042 B7EE009A 		vmov.f32	s18, #1.0e+0
 721              	.LBE130:
 722              	.LBE129:
 723              	.LBE128:
 724              	.LBB134:
 725              	.LBB135:
 726              		.file 7 "../eurorack/stmlib/dsp/units.h"
   1:../eurorack/stmlib/dsp/units.h **** // Copyright 2014 Emilie Gillet.
   2:../eurorack/stmlib/dsp/units.h **** //
   3:../eurorack/stmlib/dsp/units.h **** // Author: Emilie Gillet (emilie.o.gillet@gmail.com)
   4:../eurorack/stmlib/dsp/units.h **** //
   5:../eurorack/stmlib/dsp/units.h **** // Permission is hereby granted, free of charge, to any person obtaining a copy
   6:../eurorack/stmlib/dsp/units.h **** // of this software and associated documentation files (the "Software"), to deal
   7:../eurorack/stmlib/dsp/units.h **** // in the Software without restriction, including without limitation the rights
   8:../eurorack/stmlib/dsp/units.h **** // to use, copy, modify, merge, publish, distribute, sublicense, and/or sell
   9:../eurorack/stmlib/dsp/units.h **** // copies of the Software, and to permit persons to whom the Software is
  10:../eurorack/stmlib/dsp/units.h **** // furnished to do so, subject to the following conditions:
  11:../eurorack/stmlib/dsp/units.h **** // 
  12:../eurorack/stmlib/dsp/units.h **** // The above copyright notice and this permission notice shall be included in
  13:../eurorack/stmlib/dsp/units.h **** // all copies or substantial portions of the Software.
  14:../eurorack/stmlib/dsp/units.h **** // 
  15:../eurorack/stmlib/dsp/units.h **** // THE SOFTWARE IS PROVIDED "AS IS", WITHOUT WARRANTY OF ANY KIND, EXPRESS OR
  16:../eurorack/stmlib/dsp/units.h **** // IMPLIED, INCLUDING BUT NOT LIMITED TO THE WARRANTIES OF MERCHANTABILITY,
  17:../eurorack/stmlib/dsp/units.h **** // FITNESS FOR A PARTICULAR PURPOSE AND NONINFRINGEMENT. IN NO EVENT SHALL THE
  18:../eurorack/stmlib/dsp/units.h **** // AUTHORS OR COPYRIGHT HOLDERS BE LIABLE FOR ANY CLAIM, DAMAGES OR OTHER
  19:../eurorack/stmlib/dsp/units.h **** // LIABILITY, WHETHER IN AN ACTION OF CONTRACT, TORT OR OTHERWISE, ARISING FROM,
  20:../eurorack/stmlib/dsp/units.h **** // OUT OF OR IN CONNECTION WITH THE SOFTWARE OR THE USE OR OTHER DEALINGS IN
  21:../eurorack/stmlib/dsp/units.h **** // THE SOFTWARE.
  22:../eurorack/stmlib/dsp/units.h **** // 
  23:../eurorack/stmlib/dsp/units.h **** // See http://creativecommons.org/licenses/MIT/ for more information.
  24:../eurorack/stmlib/dsp/units.h **** //
  25:../eurorack/stmlib/dsp/units.h **** // -----------------------------------------------------------------------------
ARM GAS  /var/folders/y7/g6pkzsp12sx54x3s3mvyn15r0000gn/T//cc4mEVA6.s 			page 28


  26:../eurorack/stmlib/dsp/units.h **** //
  27:../eurorack/stmlib/dsp/units.h **** // Conversion from semitones to frequency ratio.
  28:../eurorack/stmlib/dsp/units.h **** 
  29:../eurorack/stmlib/dsp/units.h **** #ifndef STMLIB_DSP_UNITS_H_
  30:../eurorack/stmlib/dsp/units.h **** #define STMLIB_DSP_UNITS_H_
  31:../eurorack/stmlib/dsp/units.h **** 
  32:../eurorack/stmlib/dsp/units.h **** #include "stmlib/stmlib.h"
  33:../eurorack/stmlib/dsp/units.h **** #include "stmlib/dsp/dsp.h"
  34:../eurorack/stmlib/dsp/units.h **** 
  35:../eurorack/stmlib/dsp/units.h **** namespace stmlib {
  36:../eurorack/stmlib/dsp/units.h **** 
  37:../eurorack/stmlib/dsp/units.h **** extern const float lut_pitch_ratio_high[257];
  38:../eurorack/stmlib/dsp/units.h **** extern const float lut_pitch_ratio_low[257];
  39:../eurorack/stmlib/dsp/units.h **** 
  40:../eurorack/stmlib/dsp/units.h **** inline float SemitonesToRatio(float semitones) {
  41:../eurorack/stmlib/dsp/units.h ****   float pitch = semitones + 128.0f;
  42:../eurorack/stmlib/dsp/units.h ****   MAKE_INTEGRAL_FRACTIONAL(pitch)
  43:../eurorack/stmlib/dsp/units.h **** 
  44:../eurorack/stmlib/dsp/units.h ****   return lut_pitch_ratio_high[pitch_integral] * \
  45:../eurorack/stmlib/dsp/units.h ****       lut_pitch_ratio_low[static_cast<int32_t>(pitch_fractional * 256.0f)];
 727              		.loc 7 45 74 view .LVU188
 728 0046 524A     		ldr	r2, .L48+8
 729              	.LBE135:
 730              	.LBE134:
  89:../eurorack/plaits/dsp/physical_modelling/resonator.cc ****   
 731              		.loc 1 89 37 view .LVU189
 732 0048 F0EE00BA 		vmov.f32	s23, #2.0e+0
 733              	.LBB140:
 734              	.LBB117:
 735              		.loc 6 48 17 view .LVU190
 736 004c 37EE487A 		vsub.f32	s14, s14, s16
 737              	.LBE117:
 738              	.LBE140:
  86:../eurorack/plaits/dsp/physical_modelling/resonator.cc ****   brightness *= 1.0f - structure * 0.3f;
 739              		.loc 1 86 20 view .LVU191
 740 0050 DFED508A 		vldr.32	s17, .L48+12
  89:../eurorack/plaits/dsp/physical_modelling/resonator.cc ****   
 741              		.loc 1 89 9 view .LVU192
 742 0054 9FED50BA 		vldr.32	s22, .L48+16
  84:../eurorack/plaits/dsp/physical_modelling/resonator.cc ****   float q_sqrt = SemitonesToRatio(damping * 79.7f);
 743              		.loc 1 84 9 view .LVU193
 744 0058 F7EE00AA 		vmov.f32	s21, #1.0e+0
  79:../eurorack/plaits/dsp/physical_modelling/resonator.cc ****   float stiffness = Interpolate(lut_stiffness, structure, 64.0f);
 745              		.loc 1 79 18 view .LVU194
 746 005c 91B0     		sub	sp, sp, #68
 747              		.cfi_def_cfa_offset 136
 748              	.LBB141:
 749              	.LBB118:
 750              		.loc 6 48 24 view .LVU195
 751 005e A7EE878A 		vfma.f32	s16, s15, s14
 752              	.LVL54:
 753              		.loc 6 48 24 view .LVU196
 754              	.LBE118:
 755              	.LBE141:
  81:../eurorack/plaits/dsp/physical_modelling/resonator.cc ****   
 756              		.loc 1 81 3 is_stmt 1 view .LVU197
 757              	.LBB142:
ARM GAS  /var/folders/y7/g6pkzsp12sx54x3s3mvyn15r0000gn/T//cc4mEVA6.s 			page 29


 758              	.LBI128:
  59:../eurorack/plaits/dsp/physical_modelling/resonator.cc ****   float stretch_factor = 1.0f;
 759              		.loc 1 59 14 view .LVU198
 760              	.LBB132:
  60:../eurorack/plaits/dsp/physical_modelling/resonator.cc ****   for (int i = 0; i < n - 1; ++i) {
 761              		.loc 1 60 3 view .LVU199
  61:../eurorack/plaits/dsp/physical_modelling/resonator.cc ****     stretch_factor += stiffness;
 762              		.loc 1 61 3 view .LVU200
 763              	.LBB131:
  61:../eurorack/plaits/dsp/physical_modelling/resonator.cc ****     stretch_factor += stiffness;
 764              		.loc 1 61 21 discriminator 1 view .LVU201
  62:../eurorack/plaits/dsp/physical_modelling/resonator.cc ****     if (stiffness < 0.0f) {
 765              		.loc 1 62 5 view .LVU202
  63:../eurorack/plaits/dsp/physical_modelling/resonator.cc ****       stiffness *= 0.93f;
 766              		.loc 1 63 5 is_stmt 0 view .LVU203
 767 0062 B5EEC08A 		vcmpe.f32	s16, #0
  62:../eurorack/plaits/dsp/physical_modelling/resonator.cc ****     if (stiffness < 0.0f) {
 768              		.loc 1 62 20 view .LVU204
 769 0066 78EE097A 		vadd.f32	s15, s16, s18
 770              	.LVL55:
  63:../eurorack/plaits/dsp/physical_modelling/resonator.cc ****       stiffness *= 0.93f;
 771              		.loc 1 63 5 is_stmt 1 view .LVU205
 772 006a F1EE10FA 		vmrs	APSR_nzcv, FPSCR
  66:../eurorack/plaits/dsp/physical_modelling/resonator.cc ****     }
 773              		.loc 1 66 7 view .LVU206
 774              	.LVL56:
  61:../eurorack/plaits/dsp/physical_modelling/resonator.cc ****     stretch_factor += stiffness;
 775              		.loc 1 61 3 discriminator 2 view .LVU207
  61:../eurorack/plaits/dsp/physical_modelling/resonator.cc ****     stretch_factor += stiffness;
 776              		.loc 1 61 21 discriminator 1 view .LVU208
  62:../eurorack/plaits/dsp/physical_modelling/resonator.cc ****     if (stiffness < 0.0f) {
 777              		.loc 1 62 5 view .LVU209
  62:../eurorack/plaits/dsp/physical_modelling/resonator.cc ****     if (stiffness < 0.0f) {
 778              		.loc 1 62 20 is_stmt 0 view .LVU210
 779 006e 54BF     		ite	pl
 780 0070 9FED4A7A 		vldrpl.32	s14, .L48+20
  64:../eurorack/plaits/dsp/physical_modelling/resonator.cc ****     } else {
 781              		.loc 1 64 7 is_stmt 1 view .LVU211
 782              	.LVL57:
  61:../eurorack/plaits/dsp/physical_modelling/resonator.cc ****     stretch_factor += stiffness;
 783              		.loc 1 61 3 discriminator 2 view .LVU212
  61:../eurorack/plaits/dsp/physical_modelling/resonator.cc ****     stretch_factor += stiffness;
 784              		.loc 1 61 21 discriminator 1 view .LVU213
  62:../eurorack/plaits/dsp/physical_modelling/resonator.cc ****     if (stiffness < 0.0f) {
 785              		.loc 1 62 5 view .LVU214
  62:../eurorack/plaits/dsp/physical_modelling/resonator.cc ****     if (stiffness < 0.0f) {
 786              		.loc 1 62 20 is_stmt 0 view .LVU215
 787 0074 9FED4A7A 		vldrmi.32	s14, .L48+24
 788 0078 E8EE077A 		vfma.f32	s15, s16, s14
 789              	.LVL58:
  63:../eurorack/plaits/dsp/physical_modelling/resonator.cc ****       stiffness *= 0.93f;
 790              		.loc 1 63 5 is_stmt 1 view .LVU216
  61:../eurorack/plaits/dsp/physical_modelling/resonator.cc ****     stretch_factor += stiffness;
 791              		.loc 1 61 3 discriminator 2 view .LVU217
  61:../eurorack/plaits/dsp/physical_modelling/resonator.cc ****     stretch_factor += stiffness;
 792              		.loc 1 61 21 discriminator 1 view .LVU218
 793              	.LBE131:
ARM GAS  /var/folders/y7/g6pkzsp12sx54x3s3mvyn15r0000gn/T//cc4mEVA6.s 			page 30


  69:../eurorack/plaits/dsp/physical_modelling/resonator.cc **** }
 794              		.loc 1 69 3 view .LVU219
  69:../eurorack/plaits/dsp/physical_modelling/resonator.cc **** }
 795              		.loc 1 69 3 is_stmt 0 view .LVU220
 796              	.LBE132:
 797              	.LBE142:
 798              	.LBB143:
 799              	.LBB136:
  41:../eurorack/stmlib/dsp/units.h ****   MAKE_INTEGRAL_FRACTIONAL(pitch)
 800              		.loc 7 41 9 view .LVU221
 801 007c 9FED497A 		vldr.32	s14, .L48+28
 802              	.LBE136:
 803              	.LBE143:
 804              	.LBB144:
 805              	.LBB133:
  69:../eurorack/plaits/dsp/physical_modelling/resonator.cc **** }
 806              		.loc 1 69 17 view .LVU222
 807 0080 C9EE279A 		vdiv.f32	s19, s18, s15
 808              	.LBE133:
 809              	.LBE144:
 810              	.LBB145:
 811              	.LBB137:
  41:../eurorack/stmlib/dsp/units.h ****   MAKE_INTEGRAL_FRACTIONAL(pitch)
 812              		.loc 7 41 9 view .LVU223
 813 0084 DFED487A 		vldr.32	s15, .L48+32
 814 0088 E1EE877A 		vfma.f32	s15, s3, s14
  42:../eurorack/stmlib/dsp/units.h **** 
 815              		.loc 7 42 3 view .LVU224
 816 008c BDEEE77A 		vcvt.s32.f32	s14, s15
 817 0090 F8EEC76A 		vcvt.f32.s32	s13, s14
  44:../eurorack/stmlib/dsp/units.h ****       lut_pitch_ratio_low[static_cast<int32_t>(pitch_fractional * 256.0f)];
 818              		.loc 7 44 45 view .LVU225
 819 0094 17EE101A 		vmov	r1, s14	@ int
 820              	.LVL59:
  44:../eurorack/stmlib/dsp/units.h ****       lut_pitch_ratio_low[static_cast<int32_t>(pitch_fractional * 256.0f)];
 821              		.loc 7 44 45 view .LVU226
 822              	.LBE137:
 823              	.LBE145:
  81:../eurorack/plaits/dsp/physical_modelling/resonator.cc ****   
 824              		.loc 1 81 6 discriminator 1 view .LVU227
 825 0098 69EE809A 		vmul.f32	s19, s19, s0
 826              	.LVL60:
  83:../eurorack/plaits/dsp/physical_modelling/resonator.cc ****   float stretch_factor = 1.0f;
 827              		.loc 1 83 3 is_stmt 1 view .LVU228
  84:../eurorack/plaits/dsp/physical_modelling/resonator.cc ****   float q_sqrt = SemitonesToRatio(damping * 79.7f);
 828              		.loc 1 84 3 view .LVU229
  85:../eurorack/plaits/dsp/physical_modelling/resonator.cc ****   float q = 500.0f * q_sqrt * q_sqrt;
 829              		.loc 1 85 3 view .LVU230
 830              	.LBB146:
 831              	.LBI134:
  40:../eurorack/stmlib/dsp/units.h ****   float pitch = semitones + 128.0f;
 832              		.loc 7 40 14 view .LVU231
 833              	.LBB138:
  41:../eurorack/stmlib/dsp/units.h ****   MAKE_INTEGRAL_FRACTIONAL(pitch)
 834              		.loc 7 41 3 view .LVU232
  42:../eurorack/stmlib/dsp/units.h **** 
 835              		.loc 7 42 3 view .LVU233
ARM GAS  /var/folders/y7/g6pkzsp12sx54x3s3mvyn15r0000gn/T//cc4mEVA6.s 			page 31


  42:../eurorack/stmlib/dsp/units.h **** 
 836              		.loc 7 42 3 view .LVU234
  44:../eurorack/stmlib/dsp/units.h ****       lut_pitch_ratio_low[static_cast<int32_t>(pitch_fractional * 256.0f)];
 837              		.loc 7 44 3 view .LVU235
  42:../eurorack/stmlib/dsp/units.h **** 
 838              		.loc 7 42 3 is_stmt 0 view .LVU236
 839 009c 77EEE67A 		vsub.f32	s15, s15, s13
 840              	.LVL61:
  42:../eurorack/stmlib/dsp/units.h **** 
 841              		.loc 7 42 3 view .LVU237
 842              	.LBE138:
 843              	.LBE146:
  83:../eurorack/plaits/dsp/physical_modelling/resonator.cc ****   float stretch_factor = 1.0f;
 844              		.loc 1 83 9 view .LVU238
 845 00a0 B0EE69AA 		vmov.f32	s20, s19
 846              	.LBB147:
 847              	.LBB139:
 848              		.loc 7 45 27 view .LVU239
 849 00a4 FEEECC7A 		vcvt.s32.f32	s15, s15, #8
 850              	.LVL62:
 851              		.loc 7 45 74 view .LVU240
 852 00a8 17EE903A 		vmov	r3, s15	@ int
 853 00ac 02EB8302 		add	r2, r2, r3, lsl #2
  44:../eurorack/stmlib/dsp/units.h ****       lut_pitch_ratio_low[static_cast<int32_t>(pitch_fractional * 256.0f)];
 854              		.loc 7 44 45 view .LVU241
 855 00b0 3E4B     		ldr	r3, .L48+36
 856 00b2 03EB8103 		add	r3, r3, r1, lsl #2
 857              		.loc 7 45 74 view .LVU242
 858 00b6 D2ED007A 		vldr.32	s15, [r2]
 859 00ba 93ED007A 		vldr.32	s14, [r3]
 860 00be 67EE877A 		vmul.f32	s15, s15, s14
 861              	.LVL63:
 862              		.loc 7 45 74 view .LVU243
 863              	.LBE139:
 864              	.LBE147:
  86:../eurorack/plaits/dsp/physical_modelling/resonator.cc ****   brightness *= 1.0f - structure * 0.3f;
 865              		.loc 1 86 3 is_stmt 1 view .LVU244
  87:../eurorack/plaits/dsp/physical_modelling/resonator.cc ****   brightness *= 1.0f - damping * 0.3f;
 866              		.loc 1 87 22 is_stmt 0 view .LVU245
 867 00c2 9FED3B7A 		vldr.32	s14, .L48+40
  86:../eurorack/plaits/dsp/physical_modelling/resonator.cc ****   brightness *= 1.0f - structure * 0.3f;
 868              		.loc 1 86 20 view .LVU246
 869 00c6 67EEA88A 		vmul.f32	s17, s15, s17
  86:../eurorack/plaits/dsp/physical_modelling/resonator.cc ****   brightness *= 1.0f - structure * 0.3f;
 870              		.loc 1 86 9 view .LVU247
 871 00ca 68EEA78A 		vmul.f32	s17, s17, s15
 872              	.LVL64:
  87:../eurorack/plaits/dsp/physical_modelling/resonator.cc ****   brightness *= 1.0f - damping * 0.3f;
 873              		.loc 1 87 3 is_stmt 1 view .LVU248
  87:../eurorack/plaits/dsp/physical_modelling/resonator.cc ****   brightness *= 1.0f - damping * 0.3f;
 874              		.loc 1 87 22 is_stmt 0 view .LVU249
 875 00ce F0EE497A 		vmov.f32	s15, s18
 876              	.LVL65:
  87:../eurorack/plaits/dsp/physical_modelling/resonator.cc ****   brightness *= 1.0f - damping * 0.3f;
 877              		.loc 1 87 22 view .LVU250
 878 00d2 E0EEC77A 		vfms.f32	s15, s1, s14
  87:../eurorack/plaits/dsp/physical_modelling/resonator.cc ****   brightness *= 1.0f - damping * 0.3f;
ARM GAS  /var/folders/y7/g6pkzsp12sx54x3s3mvyn15r0000gn/T//cc4mEVA6.s 			page 32


 879              		.loc 1 87 14 view .LVU251
 880 00d6 67EE817A 		vmul.f32	s15, s15, s2
 881              	.LVL66:
  88:../eurorack/plaits/dsp/physical_modelling/resonator.cc ****   float q_loss = brightness * (2.0f - brightness) * 0.85f + 0.15f;
 882              		.loc 1 88 3 is_stmt 1 view .LVU252
  88:../eurorack/plaits/dsp/physical_modelling/resonator.cc ****   float q_loss = brightness * (2.0f - brightness) * 0.85f + 0.15f;
 883              		.loc 1 88 22 is_stmt 0 view .LVU253
 884 00da B0EE491A 		vmov.f32	s2, s18
 885 00de A1EEC71A 		vfms.f32	s2, s3, s14
  89:../eurorack/plaits/dsp/physical_modelling/resonator.cc ****   
 886              		.loc 1 89 9 view .LVU254
 887 00e2 9FED347A 		vldr.32	s14, .L48+44
  88:../eurorack/plaits/dsp/physical_modelling/resonator.cc ****   float q_loss = brightness * (2.0f - brightness) * 0.85f + 0.15f;
 888              		.loc 1 88 14 view .LVU255
 889 00e6 21EE271A 		vmul.f32	s2, s2, s15
 890              	.LVL67:
  89:../eurorack/plaits/dsp/physical_modelling/resonator.cc ****   
 891              		.loc 1 89 3 is_stmt 1 view .LVU256
  89:../eurorack/plaits/dsp/physical_modelling/resonator.cc ****   
 892              		.loc 1 89 37 is_stmt 0 view .LVU257
 893 00ea 7BEEC17A 		vsub.f32	s15, s23, s2
  89:../eurorack/plaits/dsp/physical_modelling/resonator.cc ****   
 894              		.loc 1 89 29 view .LVU258
 895 00ee 67EE817A 		vmul.f32	s15, s15, s2
  89:../eurorack/plaits/dsp/physical_modelling/resonator.cc ****   
 896              		.loc 1 89 9 view .LVU259
 897 00f2 A7EE87BA 		vfma.f32	s22, s15, s14
 898              	.LVL68:
  91:../eurorack/plaits/dsp/physical_modelling/resonator.cc ****   float mode_f[kModeBatchSize];
 899              		.loc 1 91 3 is_stmt 1 view .LVU260
  92:../eurorack/plaits/dsp/physical_modelling/resonator.cc ****   float mode_a[kModeBatchSize];
 900              		.loc 1 92 3 view .LVU261
  93:../eurorack/plaits/dsp/physical_modelling/resonator.cc ****   int batch_counter = 0;
 901              		.loc 1 93 3 view .LVU262
  94:../eurorack/plaits/dsp/physical_modelling/resonator.cc ****   
 902              		.loc 1 94 3 view .LVU263
  96:../eurorack/plaits/dsp/physical_modelling/resonator.cc ****   
 903              		.loc 1 96 3 view .LVU264
 904              		.loc 1 99 3 view .LVU265
 905              	.L38:
 906              	.LBB148:
 907              		.loc 1 99 21 discriminator 1 view .LVU266
 908 00f6 2368     		ldr	r3, [r4]
 909 00f8 B342     		cmp	r3, r6
 910 00fa 04DC     		bgt	.L43
 911              		.loc 1 99 21 is_stmt 0 discriminator 1 view .LVU267
 912              	.LBE148:
 100:../eurorack/plaits/dsp/physical_modelling/resonator.cc ****     float mode_frequency = harmonic * stretch_factor;
 101:../eurorack/plaits/dsp/physical_modelling/resonator.cc ****     if (mode_frequency >= 0.499f) {
 102:../eurorack/plaits/dsp/physical_modelling/resonator.cc ****       mode_frequency = 0.499f;
 103:../eurorack/plaits/dsp/physical_modelling/resonator.cc ****     }
 104:../eurorack/plaits/dsp/physical_modelling/resonator.cc ****     const float mode_attenuation = 1.0f - mode_frequency * 2.0f;
 105:../eurorack/plaits/dsp/physical_modelling/resonator.cc ****     
 106:../eurorack/plaits/dsp/physical_modelling/resonator.cc ****     mode_f[batch_counter] = mode_frequency;
 107:../eurorack/plaits/dsp/physical_modelling/resonator.cc ****     mode_q[batch_counter] = 1.0f + mode_frequency * q;
 108:../eurorack/plaits/dsp/physical_modelling/resonator.cc ****     mode_a[batch_counter] = mode_amplitude_[i] * mode_attenuation;
 109:../eurorack/plaits/dsp/physical_modelling/resonator.cc ****     ++batch_counter;
ARM GAS  /var/folders/y7/g6pkzsp12sx54x3s3mvyn15r0000gn/T//cc4mEVA6.s 			page 33


 110:../eurorack/plaits/dsp/physical_modelling/resonator.cc ****     
 111:../eurorack/plaits/dsp/physical_modelling/resonator.cc ****     if (batch_counter == kModeBatchSize) {
 112:../eurorack/plaits/dsp/physical_modelling/resonator.cc ****       batch_counter = 0;
 113:../eurorack/plaits/dsp/physical_modelling/resonator.cc ****       batch_processor->Process<FILTER_MODE_BAND_PASS, true>(
 114:../eurorack/plaits/dsp/physical_modelling/resonator.cc ****           mode_f,
 115:../eurorack/plaits/dsp/physical_modelling/resonator.cc ****           mode_q,
 116:../eurorack/plaits/dsp/physical_modelling/resonator.cc ****           mode_a,
 117:../eurorack/plaits/dsp/physical_modelling/resonator.cc ****           in,
 118:../eurorack/plaits/dsp/physical_modelling/resonator.cc ****           out,
 119:../eurorack/plaits/dsp/physical_modelling/resonator.cc ****           size);
 120:../eurorack/plaits/dsp/physical_modelling/resonator.cc ****       ++batch_processor;
 121:../eurorack/plaits/dsp/physical_modelling/resonator.cc ****     }
 122:../eurorack/plaits/dsp/physical_modelling/resonator.cc ****     
 123:../eurorack/plaits/dsp/physical_modelling/resonator.cc ****     stretch_factor += stiffness;
 124:../eurorack/plaits/dsp/physical_modelling/resonator.cc ****     if (stiffness < 0.0f) {
 125:../eurorack/plaits/dsp/physical_modelling/resonator.cc ****       // Make sure that the partials do not fold back into negative frequencies.
 126:../eurorack/plaits/dsp/physical_modelling/resonator.cc ****       stiffness *= 0.93f;
 127:../eurorack/plaits/dsp/physical_modelling/resonator.cc ****     } else {
 128:../eurorack/plaits/dsp/physical_modelling/resonator.cc ****       // This helps adding a few extra partials in the highest frequencies.
 129:../eurorack/plaits/dsp/physical_modelling/resonator.cc ****       stiffness *= 0.98f;
 130:../eurorack/plaits/dsp/physical_modelling/resonator.cc ****     }
 131:../eurorack/plaits/dsp/physical_modelling/resonator.cc ****     harmonic += f0;
 132:../eurorack/plaits/dsp/physical_modelling/resonator.cc ****     q *= q_loss;
 133:../eurorack/plaits/dsp/physical_modelling/resonator.cc ****   }
 134:../eurorack/plaits/dsp/physical_modelling/resonator.cc **** }
 913              		.loc 1 134 1 view .LVU268
 914 00fc 11B0     		add	sp, sp, #68
 915              		.cfi_remember_state
 916              		.cfi_def_cfa_offset 68
 917              		@ sp needed
 918 00fe BDEC088B 		vldm	sp!, {d8-d11}
 919              		.cfi_restore 86
 920              		.cfi_restore 87
 921              		.cfi_restore 84
 922              		.cfi_restore 85
 923              		.cfi_restore 82
 924              		.cfi_restore 83
 925              		.cfi_restore 80
 926              		.cfi_restore 81
 927              		.cfi_def_cfa_offset 36
 928              	.LVL69:
 929              		.loc 1 134 1 view .LVU269
 930 0102 BDE8F08F 		pop	{r4, r5, r6, r7, r8, r9, r10, fp, pc}
 931              	.LVL70:
 932              	.L43:
 933              		.cfi_restore_state
 934              	.LBB149:
 935              	.LBB123:
 100:../eurorack/plaits/dsp/physical_modelling/resonator.cc ****     float mode_frequency = harmonic * stretch_factor;
 936              		.loc 1 100 5 is_stmt 1 view .LVU270
 100:../eurorack/plaits/dsp/physical_modelling/resonator.cc ****     float mode_frequency = harmonic * stretch_factor;
 937              		.loc 1 100 11 is_stmt 0 view .LVU271
 938 0106 2AEE2A7A 		vmul.f32	s14, s20, s21
 939              	.LVL71:
 101:../eurorack/plaits/dsp/physical_modelling/resonator.cc ****       mode_frequency = 0.499f;
 940              		.loc 1 101 5 is_stmt 1 view .LVU272
 941 010a DFED2B7A 		vldr.32	s15, .L48+48
ARM GAS  /var/folders/y7/g6pkzsp12sx54x3s3mvyn15r0000gn/T//cc4mEVA6.s 			page 34


 107:../eurorack/plaits/dsp/physical_modelling/resonator.cc ****     mode_a[batch_counter] = mode_amplitude_[i] * mode_attenuation;
 942              		.loc 1 107 34 is_stmt 0 view .LVU273
 943 010e F0EE496A 		vmov.f32	s13, s18
 106:../eurorack/plaits/dsp/physical_modelling/resonator.cc ****     mode_q[batch_counter] = 1.0f + mode_frequency * q;
 944              		.loc 1 106 27 view .LVU274
 945 0112 10AB     		add	r3, sp, #64
 946 0114 B4EEE77A 		vcmpe.f32	s14, s15
 947 0118 03EB8503 		add	r3, r3, r5, lsl #2
 109:../eurorack/plaits/dsp/physical_modelling/resonator.cc ****     
 948              		.loc 1 109 5 view .LVU275
 949 011c 0135     		adds	r5, r5, #1
 950              	.LVL72:
 109:../eurorack/plaits/dsp/physical_modelling/resonator.cc ****     
 951              		.loc 1 109 5 view .LVU276
 952 011e F1EE10FA 		vmrs	APSR_nzcv, FPSCR
 953 0122 67FE877A 		vselge.f32	s15, s15, s14
 954              	.LVL73:
 104:../eurorack/plaits/dsp/physical_modelling/resonator.cc ****     
 955              		.loc 1 104 5 is_stmt 1 view .LVU277
 104:../eurorack/plaits/dsp/physical_modelling/resonator.cc ****     
 956              		.loc 1 104 17 is_stmt 0 view .LVU278
 957 0126 B0EE497A 		vmov.f32	s14, s18
 107:../eurorack/plaits/dsp/physical_modelling/resonator.cc ****     mode_a[batch_counter] = mode_amplitude_[i] * mode_attenuation;
 958              		.loc 1 107 34 view .LVU279
 959 012a E8EEA76A 		vfma.f32	s13, s17, s15
 106:../eurorack/plaits/dsp/physical_modelling/resonator.cc ****     mode_q[batch_counter] = 1.0f + mode_frequency * q;
 960              		.loc 1 106 27 view .LVU280
 961 012e 43ED087A 		vstr.32	s15, [r3, #-32]
 111:../eurorack/plaits/dsp/physical_modelling/resonator.cc ****       batch_counter = 0;
 962              		.loc 1 111 5 view .LVU281
 963 0132 042D     		cmp	r5, #4
 104:../eurorack/plaits/dsp/physical_modelling/resonator.cc ****     
 964              		.loc 1 104 17 view .LVU282
 965 0134 A7EEEB7A 		vfms.f32	s14, s15, s23
 966              	.LVL74:
 106:../eurorack/plaits/dsp/physical_modelling/resonator.cc ****     mode_q[batch_counter] = 1.0f + mode_frequency * q;
 967              		.loc 1 106 5 is_stmt 1 view .LVU283
 107:../eurorack/plaits/dsp/physical_modelling/resonator.cc ****     mode_a[batch_counter] = mode_amplitude_[i] * mode_attenuation;
 968              		.loc 1 107 5 view .LVU284
 108:../eurorack/plaits/dsp/physical_modelling/resonator.cc ****     ++batch_counter;
 969              		.loc 1 108 46 is_stmt 0 view .LVU285
 970 0138 FBEC017A 		vldmia.32	fp!, {s15}
 971              	.LVL75:
 107:../eurorack/plaits/dsp/physical_modelling/resonator.cc ****     mode_a[batch_counter] = mode_amplitude_[i] * mode_attenuation;
 972              		.loc 1 107 27 view .LVU286
 973 013c 43ED0C6A 		vstr.32	s13, [r3, #-48]
 108:../eurorack/plaits/dsp/physical_modelling/resonator.cc ****     ++batch_counter;
 974              		.loc 1 108 5 is_stmt 1 view .LVU287
 108:../eurorack/plaits/dsp/physical_modelling/resonator.cc ****     ++batch_counter;
 975              		.loc 1 108 48 is_stmt 0 view .LVU288
 976 0140 67EE877A 		vmul.f32	s15, s15, s14
 108:../eurorack/plaits/dsp/physical_modelling/resonator.cc ****     ++batch_counter;
 977              		.loc 1 108 27 view .LVU289
 978 0144 43ED047A 		vstr.32	s15, [r3, #-16]
 109:../eurorack/plaits/dsp/physical_modelling/resonator.cc ****     
 979              		.loc 1 109 5 is_stmt 1 view .LVU290
 980              	.LVL76:
ARM GAS  /var/folders/y7/g6pkzsp12sx54x3s3mvyn15r0000gn/T//cc4mEVA6.s 			page 35


 111:../eurorack/plaits/dsp/physical_modelling/resonator.cc ****       batch_counter = 0;
 981              		.loc 1 111 5 view .LVU291
 982 0148 0BD1     		bne	.L39
 112:../eurorack/plaits/dsp/physical_modelling/resonator.cc ****       batch_processor->Process<FILTER_MODE_BAND_PASS, true>(
 983              		.loc 1 112 7 view .LVU292
 984              	.LVL77:
 113:../eurorack/plaits/dsp/physical_modelling/resonator.cc ****           mode_f,
 985              		.loc 1 113 7 view .LVU293
 113:../eurorack/plaits/dsp/physical_modelling/resonator.cc ****           mode_f,
 986              		.loc 1 113 60 is_stmt 0 view .LVU294
 987 014a 5046     		mov	r0, r10
 112:../eurorack/plaits/dsp/physical_modelling/resonator.cc ****       batch_processor->Process<FILTER_MODE_BAND_PASS, true>(
 988              		.loc 1 112 21 view .LVU295
 989 014c 0025     		movs	r5, #0
 120:../eurorack/plaits/dsp/physical_modelling/resonator.cc ****     }
 990              		.loc 1 120 7 view .LVU296
 991 014e 0AF1200A 		add	r10, r10, #32
 992              	.LVL78:
 113:../eurorack/plaits/dsp/physical_modelling/resonator.cc ****           mode_f,
 993              		.loc 1 113 60 view .LVU297
 994 0152 0CAB     		add	r3, sp, #48
 995              	.LVL79:
 113:../eurorack/plaits/dsp/physical_modelling/resonator.cc ****           mode_f,
 996              		.loc 1 113 60 view .LVU298
 997 0154 04AA     		add	r2, sp, #16
 998 0156 08A9     		add	r1, sp, #32
 999 0158 0097     		str	r7, [sp]
 113:../eurorack/plaits/dsp/physical_modelling/resonator.cc ****           mode_f,
 1000              		.loc 1 113 60 view .LVU299
 1001 015a CDE90189 		strd	r8, r9, [sp, #4]
 1002 015e FFF7FEFF 		bl	_ZN6plaits12ResonatorSvfILi4EE7ProcessILN6stmlib10FilterModeE1ELb1EEEvPKfS6_S6_S6_Pfj
 1003              	.LVL80:
 120:../eurorack/plaits/dsp/physical_modelling/resonator.cc ****     }
 1004              		.loc 1 120 7 is_stmt 1 view .LVU300
 1005              	.L39:
 123:../eurorack/plaits/dsp/physical_modelling/resonator.cc ****     if (stiffness < 0.0f) {
 1006              		.loc 1 123 5 view .LVU301
 124:../eurorack/plaits/dsp/physical_modelling/resonator.cc ****       // Make sure that the partials do not fold back into negative frequencies.
 1007              		.loc 1 124 5 is_stmt 0 view .LVU302
 1008 0162 B5EEC08A 		vcmpe.f32	s16, #0
 1009              	.LBE123:
  99:../eurorack/plaits/dsp/physical_modelling/resonator.cc ****     float mode_frequency = harmonic * stretch_factor;
 1010              		.loc 1 99 3 discriminator 2 view .LVU303
 1011 0166 0136     		adds	r6, r6, #1
 1012              	.LVL81:
 1013              	.LBB124:
 123:../eurorack/plaits/dsp/physical_modelling/resonator.cc ****     if (stiffness < 0.0f) {
 1014              		.loc 1 123 20 view .LVU304
 1015 0168 7AEE88AA 		vadd.f32	s21, s21, s16
 1016              	.LVL82:
 124:../eurorack/plaits/dsp/physical_modelling/resonator.cc ****       // Make sure that the partials do not fold back into negative frequencies.
 1017              		.loc 1 124 5 is_stmt 1 view .LVU305
 131:../eurorack/plaits/dsp/physical_modelling/resonator.cc ****     q *= q_loss;
 1018              		.loc 1 131 14 is_stmt 0 view .LVU306
 1019 016c 3AEE29AA 		vadd.f32	s20, s20, s19
 1020              	.LVL83:
 124:../eurorack/plaits/dsp/physical_modelling/resonator.cc ****       // Make sure that the partials do not fold back into negative frequencies.
ARM GAS  /var/folders/y7/g6pkzsp12sx54x3s3mvyn15r0000gn/T//cc4mEVA6.s 			page 36


 1021              		.loc 1 124 5 view .LVU307
 1022 0170 F1EE10FA 		vmrs	APSR_nzcv, FPSCR
 126:../eurorack/plaits/dsp/physical_modelling/resonator.cc ****     } else {
 1023              		.loc 1 126 7 is_stmt 1 view .LVU308
 132:../eurorack/plaits/dsp/physical_modelling/resonator.cc ****   }
 1024              		.loc 1 132 7 is_stmt 0 view .LVU309
 1025 0174 68EE8B8A 		vmul.f32	s17, s17, s22
 1026              	.LVL84:
 126:../eurorack/plaits/dsp/physical_modelling/resonator.cc ****     } else {
 1027              		.loc 1 126 17 view .LVU310
 1028 0178 4CBF     		ite	mi
 1029 017a DFED097A 		vldrmi.32	s15, .L48+24
 129:../eurorack/plaits/dsp/physical_modelling/resonator.cc ****     }
 1030              		.loc 1 129 7 is_stmt 1 view .LVU311
 129:../eurorack/plaits/dsp/physical_modelling/resonator.cc ****     }
 1031              		.loc 1 129 17 is_stmt 0 view .LVU312
 1032 017e DFED077A 		vldrpl.32	s15, .L48+20
 1033 0182 28EE278A 		vmul.f32	s16, s16, s15
 1034              	.LVL85:
 131:../eurorack/plaits/dsp/physical_modelling/resonator.cc ****     q *= q_loss;
 1035              		.loc 1 131 5 is_stmt 1 view .LVU313
 132:../eurorack/plaits/dsp/physical_modelling/resonator.cc ****   }
 1036              		.loc 1 132 5 view .LVU314
 132:../eurorack/plaits/dsp/physical_modelling/resonator.cc ****   }
 1037              		.loc 1 132 5 is_stmt 0 view .LVU315
 1038              	.LBE124:
  99:../eurorack/plaits/dsp/physical_modelling/resonator.cc ****     float mode_frequency = harmonic * stretch_factor;
 1039              		.loc 1 99 3 is_stmt 1 discriminator 2 view .LVU316
 1040 0186 B6E7     		b	.L38
 1041              	.L49:
 1042              		.align	2
 1043              	.L48:
 1044 0188 00008042 		.word	1115684864
 1045 018c 00000000 		.word	_ZN6plaits13lut_stiffnessE
 1046 0190 00000000 		.word	_ZN6stmlib19lut_pitch_ratio_lowE
 1047 0194 0000FA43 		.word	1140457472
 1048 0198 9A99193E 		.word	1041865114
 1049 019c 48E17A3F 		.word	1065017672
 1050 01a0 7B146E3F 		.word	1064178811
 1051 01a4 66669F42 		.word	1117742694
 1052 01a8 00000043 		.word	1124073472
 1053 01ac 00000000 		.word	_ZN6stmlib20lut_pitch_ratio_highE
 1054 01b0 9A99993E 		.word	1050253722
 1055 01b4 9A99593F 		.word	1062836634
 1056 01b8 EE7CFF3E 		.word	1056931054
 1057              	.LBE149:
 1058              		.cfi_endproc
 1059              	.LFE1322:
 1061              		.text
 1062              	.Letext0:
 1063              		.file 8 "/Applications/ArmGNUToolchain/14.2.rel1/arm-none-eabi/arm-none-eabi/include/machine/_defa
 1064              		.file 9 "/Applications/ArmGNUToolchain/14.2.rel1/arm-none-eabi/arm-none-eabi/include/sys/_stdint.h
 1065              		.file 10 "/Applications/ArmGNUToolchain/14.2.rel1/arm-none-eabi/lib/gcc/arm-none-eabi/14.2.1/inclu
 1066              		.file 11 "/Applications/ArmGNUToolchain/14.2.rel1/arm-none-eabi/arm-none-eabi/include/c++/14.2.1/c
 1067              		.file 12 "/Applications/ArmGNUToolchain/14.2.rel1/arm-none-eabi/arm-none-eabi/include/c++/14.2.1/b
 1068              		.file 13 "/Applications/ArmGNUToolchain/14.2.rel1/arm-none-eabi/arm-none-eabi/include/c++/14.2.1/t
 1069              		.file 14 "/Applications/ArmGNUToolchain/14.2.rel1/arm-none-eabi/arm-none-eabi/include/c++/14.2.1/d
ARM GAS  /var/folders/y7/g6pkzsp12sx54x3s3mvyn15r0000gn/T//cc4mEVA6.s 			page 37


 1070              		.file 15 "/Applications/ArmGNUToolchain/14.2.rel1/arm-none-eabi/arm-none-eabi/include/c++/14.2.1/c
 1071              		.file 16 "/Applications/ArmGNUToolchain/14.2.rel1/arm-none-eabi/arm-none-eabi/include/c++/14.2.1/b
 1072              		.file 17 "/Applications/ArmGNUToolchain/14.2.rel1/arm-none-eabi/arm-none-eabi/include/math.h"
 1073              		.file 18 "/Applications/ArmGNUToolchain/14.2.rel1/arm-none-eabi/arm-none-eabi/include/stdlib.h"
 1074              		.file 19 "/Applications/ArmGNUToolchain/14.2.rel1/arm-none-eabi/arm-none-eabi/include/c++/14.2.1/m
 1075              		.file 20 "../eurorack/stmlib/stmlib.h"
 1076              		.file 21 "/Applications/ArmGNUToolchain/14.2.rel1/arm-none-eabi/arm-none-eabi/include/c++/14.2.1/a
 1077              		.file 22 "/Applications/ArmGNUToolchain/14.2.rel1/arm-none-eabi/arm-none-eabi/include/c++/14.2.1/b
 1078              		.file 23 "../eurorack/plaits/resources.h"
ARM GAS  /var/folders/y7/g6pkzsp12sx54x3s3mvyn15r0000gn/T//cc4mEVA6.s 			page 38


DEFINED SYMBOLS
                            *ABS*:00000000 resonator.cc
/var/folders/y7/g6pkzsp12sx54x3s3mvyn15r0000gn/T//cc4mEVA6.s:20     .text._ZN6plaits9Resonator4InitEfi:00000000 $t
/var/folders/y7/g6pkzsp12sx54x3s3mvyn15r0000gn/T//cc4mEVA6.s:26     .text._ZN6plaits9Resonator4InitEfi:00000000 _ZN6plaits9Resonator4InitEfi
/var/folders/y7/g6pkzsp12sx54x3s3mvyn15r0000gn/T//cc4mEVA6.s:303    .text._ZN6plaits12ResonatorSvfILi4EE7ProcessILN6stmlib10FilterModeE1ELb1EEEvPKfS6_S6_S6_Pfj:00000000 $t
/var/folders/y7/g6pkzsp12sx54x3s3mvyn15r0000gn/T//cc4mEVA6.s:309    .text._ZN6plaits12ResonatorSvfILi4EE7ProcessILN6stmlib10FilterModeE1ELb1EEEvPKfS6_S6_S6_Pfj:00000000 _ZN6plaits12ResonatorSvfILi4EE7ProcessILN6stmlib10FilterModeE1ELb1EEEvPKfS6_S6_S6_Pfj
/var/folders/y7/g6pkzsp12sx54x3s3mvyn15r0000gn/T//cc4mEVA6.s:590    .text._ZN6plaits12ResonatorSvfILi4EE7ProcessILN6stmlib10FilterModeE1ELb1EEEvPKfS6_S6_S6_Pfj:00000174 $d
/var/folders/y7/g6pkzsp12sx54x3s3mvyn15r0000gn/T//cc4mEVA6.s:599    .text._ZN6plaits9Resonator7ProcessEffffPKfPfj:00000000 $t
/var/folders/y7/g6pkzsp12sx54x3s3mvyn15r0000gn/T//cc4mEVA6.s:605    .text._ZN6plaits9Resonator7ProcessEffffPKfPfj:00000000 _ZN6plaits9Resonator7ProcessEffffPKfPfj
/var/folders/y7/g6pkzsp12sx54x3s3mvyn15r0000gn/T//cc4mEVA6.s:1044   .text._ZN6plaits9Resonator7ProcessEffffPKfPfj:00000188 $d

UNDEFINED SYMBOLS
_ZN6plaits13lut_stiffnessE
_ZN6stmlib19lut_pitch_ratio_lowE
_ZN6stmlib20lut_pitch_ratio_highE
