ARM GAS  /var/folders/y7/g6pkzsp12sx54x3s3mvyn15r0000gn/T//ccWX7ODC.s 			page 1


   1              		.cpu cortex-m7
   2              		.arch armv7e-m
   3              		.fpu fpv5-d16
   4              		.eabi_attribute 28, 1
   5              		.eabi_attribute 20, 1
   6              		.eabi_attribute 21, 1
   7              		.eabi_attribute 23, 3
   8              		.eabi_attribute 24, 1
   9              		.eabi_attribute 25, 1
  10              		.eabi_attribute 26, 1
  11              		.eabi_attribute 30, 4
  12              		.eabi_attribute 34, 1
  13              		.eabi_attribute 18, 4
  14              		.file	"snare_drum_engine.cc"
  15              		.text
  16              	.Ltext0:
  17              		.cfi_sections	.debug_frame
  18              		.file 1 "../eurorack/plaits/dsp/engine/snare_drum_engine.cc"
  19              		.section	.text._ZN6plaits15SnareDrumEngine12LoadUserDataEPKh,"axG",%progbits,_ZN6plaits15SnareDrum
  20              		.align	1
  21              		.weak	_ZN6plaits15SnareDrumEngine12LoadUserDataEPKh
  22              		.syntax unified
  23              		.thumb
  24              		.thumb_func
  26              	_ZN6plaits15SnareDrumEngine12LoadUserDataEPKh:
  27              	.LVL0:
  28              	.LFB1399:
  29              		.file 2 "../eurorack/plaits/dsp/engine/snare_drum_engine.h"
   1:../eurorack/plaits/dsp/engine/snare_drum_engine.h **** // Copyright 2016 Emilie Gillet.
   2:../eurorack/plaits/dsp/engine/snare_drum_engine.h **** //
   3:../eurorack/plaits/dsp/engine/snare_drum_engine.h **** // Author: Emilie Gillet (emilie.o.gillet@gmail.com)
   4:../eurorack/plaits/dsp/engine/snare_drum_engine.h **** //
   5:../eurorack/plaits/dsp/engine/snare_drum_engine.h **** // Permission is hereby granted, free of charge, to any person obtaining a copy
   6:../eurorack/plaits/dsp/engine/snare_drum_engine.h **** // of this software and associated documentation files (the "Software"), to deal
   7:../eurorack/plaits/dsp/engine/snare_drum_engine.h **** // in the Software without restriction, including without limitation the rights
   8:../eurorack/plaits/dsp/engine/snare_drum_engine.h **** // to use, copy, modify, merge, publish, distribute, sublicense, and/or sell
   9:../eurorack/plaits/dsp/engine/snare_drum_engine.h **** // copies of the Software, and to permit persons to whom the Software is
  10:../eurorack/plaits/dsp/engine/snare_drum_engine.h **** // furnished to do so, subject to the following conditions:
  11:../eurorack/plaits/dsp/engine/snare_drum_engine.h **** // 
  12:../eurorack/plaits/dsp/engine/snare_drum_engine.h **** // The above copyright notice and this permission notice shall be included in
  13:../eurorack/plaits/dsp/engine/snare_drum_engine.h **** // all copies or substantial portions of the Software.
  14:../eurorack/plaits/dsp/engine/snare_drum_engine.h **** // 
  15:../eurorack/plaits/dsp/engine/snare_drum_engine.h **** // THE SOFTWARE IS PROVIDED "AS IS", WITHOUT WARRANTY OF ANY KIND, EXPRESS OR
  16:../eurorack/plaits/dsp/engine/snare_drum_engine.h **** // IMPLIED, INCLUDING BUT NOT LIMITED TO THE WARRANTIES OF MERCHANTABILITY,
  17:../eurorack/plaits/dsp/engine/snare_drum_engine.h **** // FITNESS FOR A PARTICULAR PURPOSE AND NONINFRINGEMENT. IN NO EVENT SHALL THE
  18:../eurorack/plaits/dsp/engine/snare_drum_engine.h **** // AUTHORS OR COPYRIGHT HOLDERS BE LIABLE FOR ANY CLAIM, DAMAGES OR OTHER
  19:../eurorack/plaits/dsp/engine/snare_drum_engine.h **** // LIABILITY, WHETHER IN AN ACTION OF CONTRACT, TORT OR OTHERWISE, ARISING FROM,
  20:../eurorack/plaits/dsp/engine/snare_drum_engine.h **** // OUT OF OR IN CONNECTION WITH THE SOFTWARE OR THE USE OR OTHER DEALINGS IN
  21:../eurorack/plaits/dsp/engine/snare_drum_engine.h **** // THE SOFTWARE.
  22:../eurorack/plaits/dsp/engine/snare_drum_engine.h **** // 
  23:../eurorack/plaits/dsp/engine/snare_drum_engine.h **** // See http://creativecommons.org/licenses/MIT/ for more information.
  24:../eurorack/plaits/dsp/engine/snare_drum_engine.h **** //
  25:../eurorack/plaits/dsp/engine/snare_drum_engine.h **** // -----------------------------------------------------------------------------
  26:../eurorack/plaits/dsp/engine/snare_drum_engine.h **** //
  27:../eurorack/plaits/dsp/engine/snare_drum_engine.h **** // 808 and synthetic snare drum generators.
  28:../eurorack/plaits/dsp/engine/snare_drum_engine.h **** 
  29:../eurorack/plaits/dsp/engine/snare_drum_engine.h **** #ifndef PLAITS_DSP_ENGINE_SNARE_DRUM_ENGINE_H_
ARM GAS  /var/folders/y7/g6pkzsp12sx54x3s3mvyn15r0000gn/T//ccWX7ODC.s 			page 2


  30:../eurorack/plaits/dsp/engine/snare_drum_engine.h **** #define PLAITS_DSP_ENGINE_SNARE_DRUM_ENGINE_H_
  31:../eurorack/plaits/dsp/engine/snare_drum_engine.h **** 
  32:../eurorack/plaits/dsp/engine/snare_drum_engine.h **** #include "plaits/dsp/drums/analog_snare_drum.h"
  33:../eurorack/plaits/dsp/engine/snare_drum_engine.h **** #include "plaits/dsp/drums/synthetic_snare_drum.h"
  34:../eurorack/plaits/dsp/engine/snare_drum_engine.h **** #include "plaits/dsp/engine/engine.h"
  35:../eurorack/plaits/dsp/engine/snare_drum_engine.h **** 
  36:../eurorack/plaits/dsp/engine/snare_drum_engine.h **** namespace plaits {
  37:../eurorack/plaits/dsp/engine/snare_drum_engine.h ****   
  38:../eurorack/plaits/dsp/engine/snare_drum_engine.h **** class SnareDrumEngine : public Engine {
  39:../eurorack/plaits/dsp/engine/snare_drum_engine.h ****  public:
  40:../eurorack/plaits/dsp/engine/snare_drum_engine.h ****   SnareDrumEngine() { }
  41:../eurorack/plaits/dsp/engine/snare_drum_engine.h ****   ~SnareDrumEngine() { }
  42:../eurorack/plaits/dsp/engine/snare_drum_engine.h ****   
  43:../eurorack/plaits/dsp/engine/snare_drum_engine.h ****   virtual void Init(stmlib::BufferAllocator* allocator);
  44:../eurorack/plaits/dsp/engine/snare_drum_engine.h ****   virtual void Reset();
  45:../eurorack/plaits/dsp/engine/snare_drum_engine.h ****   virtual void LoadUserData(const uint8_t* user_data) { }
  30              		.loc 2 45 16 view -0
  31              		.cfi_startproc
  32              		@ args = 0, pretend = 0, frame = 0
  33              		@ frame_needed = 0, uses_anonymous_args = 0
  34              		@ link register save eliminated.
  35              		.loc 2 45 57 is_stmt 0 view .LVU1
  36 0000 7047     		bx	lr
  37              		.cfi_endproc
  38              	.LFE1399:
  40              		.section	.text._ZN6plaits15SnareDrumEngine5ResetEv,"ax",%progbits
  41              		.align	1
  42              		.global	_ZN6plaits15SnareDrumEngine5ResetEv
  43              		.syntax unified
  44              		.thumb
  45              		.thumb_func
  47              	_ZN6plaits15SnareDrumEngine5ResetEv:
  48              	.LVL1:
  49              	.LFB1401:
   1:../eurorack/plaits/dsp/engine/snare_drum_engine.cc **** // Copyright 2016 Emilie Gillet.
   2:../eurorack/plaits/dsp/engine/snare_drum_engine.cc **** //
   3:../eurorack/plaits/dsp/engine/snare_drum_engine.cc **** // Author: Emilie Gillet (emilie.o.gillet@gmail.com)
   4:../eurorack/plaits/dsp/engine/snare_drum_engine.cc **** //
   5:../eurorack/plaits/dsp/engine/snare_drum_engine.cc **** // Permission is hereby granted, free of charge, to any person obtaining a copy
   6:../eurorack/plaits/dsp/engine/snare_drum_engine.cc **** // of this software and associated documentation files (the "Software"), to deal
   7:../eurorack/plaits/dsp/engine/snare_drum_engine.cc **** // in the Software without restriction, including without limitation the rights
   8:../eurorack/plaits/dsp/engine/snare_drum_engine.cc **** // to use, copy, modify, merge, publish, distribute, sublicense, and/or sell
   9:../eurorack/plaits/dsp/engine/snare_drum_engine.cc **** // copies of the Software, and to permit persons to whom the Software is
  10:../eurorack/plaits/dsp/engine/snare_drum_engine.cc **** // furnished to do so, subject to the following conditions:
  11:../eurorack/plaits/dsp/engine/snare_drum_engine.cc **** // 
  12:../eurorack/plaits/dsp/engine/snare_drum_engine.cc **** // The above copyright notice and this permission notice shall be included in
  13:../eurorack/plaits/dsp/engine/snare_drum_engine.cc **** // all copies or substantial portions of the Software.
  14:../eurorack/plaits/dsp/engine/snare_drum_engine.cc **** // 
  15:../eurorack/plaits/dsp/engine/snare_drum_engine.cc **** // THE SOFTWARE IS PROVIDED "AS IS", WITHOUT WARRANTY OF ANY KIND, EXPRESS OR
  16:../eurorack/plaits/dsp/engine/snare_drum_engine.cc **** // IMPLIED, INCLUDING BUT NOT LIMITED TO THE WARRANTIES OF MERCHANTABILITY,
  17:../eurorack/plaits/dsp/engine/snare_drum_engine.cc **** // FITNESS FOR A PARTICULAR PURPOSE AND NONINFRINGEMENT. IN NO EVENT SHALL THE
  18:../eurorack/plaits/dsp/engine/snare_drum_engine.cc **** // AUTHORS OR COPYRIGHT HOLDERS BE LIABLE FOR ANY CLAIM, DAMAGES OR OTHER
  19:../eurorack/plaits/dsp/engine/snare_drum_engine.cc **** // LIABILITY, WHETHER IN AN ACTION OF CONTRACT, TORT OR OTHERWISE, ARISING FROM,
  20:../eurorack/plaits/dsp/engine/snare_drum_engine.cc **** // OUT OF OR IN CONNECTION WITH THE SOFTWARE OR THE USE OR OTHER DEALINGS IN
  21:../eurorack/plaits/dsp/engine/snare_drum_engine.cc **** // THE SOFTWARE.
  22:../eurorack/plaits/dsp/engine/snare_drum_engine.cc **** // 
  23:../eurorack/plaits/dsp/engine/snare_drum_engine.cc **** // See http://creativecommons.org/licenses/MIT/ for more information.
ARM GAS  /var/folders/y7/g6pkzsp12sx54x3s3mvyn15r0000gn/T//ccWX7ODC.s 			page 3


  24:../eurorack/plaits/dsp/engine/snare_drum_engine.cc **** //
  25:../eurorack/plaits/dsp/engine/snare_drum_engine.cc **** // -----------------------------------------------------------------------------
  26:../eurorack/plaits/dsp/engine/snare_drum_engine.cc **** //
  27:../eurorack/plaits/dsp/engine/snare_drum_engine.cc **** // 808 and synthetic snare drum generators.
  28:../eurorack/plaits/dsp/engine/snare_drum_engine.cc **** 
  29:../eurorack/plaits/dsp/engine/snare_drum_engine.cc **** #include "plaits/dsp/engine/snare_drum_engine.h"
  30:../eurorack/plaits/dsp/engine/snare_drum_engine.cc **** 
  31:../eurorack/plaits/dsp/engine/snare_drum_engine.cc **** #include <algorithm>
  32:../eurorack/plaits/dsp/engine/snare_drum_engine.cc **** 
  33:../eurorack/plaits/dsp/engine/snare_drum_engine.cc **** namespace plaits {
  34:../eurorack/plaits/dsp/engine/snare_drum_engine.cc **** 
  35:../eurorack/plaits/dsp/engine/snare_drum_engine.cc **** using namespace std;
  36:../eurorack/plaits/dsp/engine/snare_drum_engine.cc **** using namespace stmlib;
  37:../eurorack/plaits/dsp/engine/snare_drum_engine.cc **** 
  38:../eurorack/plaits/dsp/engine/snare_drum_engine.cc **** void SnareDrumEngine::Init(BufferAllocator* allocator) {
  39:../eurorack/plaits/dsp/engine/snare_drum_engine.cc ****   analog_snare_drum_.Init();
  40:../eurorack/plaits/dsp/engine/snare_drum_engine.cc ****   synthetic_snare_drum_.Init();
  41:../eurorack/plaits/dsp/engine/snare_drum_engine.cc **** }
  42:../eurorack/plaits/dsp/engine/snare_drum_engine.cc **** 
  43:../eurorack/plaits/dsp/engine/snare_drum_engine.cc **** void SnareDrumEngine::Reset() {
  50              		.loc 1 43 31 is_stmt 1 view -0
  51              		.cfi_startproc
  52              		@ args = 0, pretend = 0, frame = 0
  53              		@ frame_needed = 0, uses_anonymous_args = 0
  54              		@ link register save eliminated.
  44:../eurorack/plaits/dsp/engine/snare_drum_engine.cc ****   
  45:../eurorack/plaits/dsp/engine/snare_drum_engine.cc **** }
  55              		.loc 1 45 1 is_stmt 0 view .LVU3
  56 0000 7047     		bx	lr
  57              		.cfi_endproc
  58              	.LFE1401:
  60              		.section	.text._ZN6stmlib3Svf4InitEv,"axG",%progbits,_ZN6stmlib3Svf4InitEv,comdat
  61              		.align	1
  62              		.weak	_ZN6stmlib3Svf4InitEv
  63              		.syntax unified
  64              		.thumb
  65              		.thumb_func
  67              	_ZN6stmlib3Svf4InitEv:
  68              	.LVL2:
  69              	.LFB1242:
  70              		.file 3 "../eurorack/stmlib/dsp/filter.h"
   1:../eurorack/stmlib/dsp/filter.h **** // Copyright 2014 Emilie Gillet.
   2:../eurorack/stmlib/dsp/filter.h **** //
   3:../eurorack/stmlib/dsp/filter.h **** // Author: Emilie Gillet (emilie.o.gillet@gmail.com)
   4:../eurorack/stmlib/dsp/filter.h **** //
   5:../eurorack/stmlib/dsp/filter.h **** // Permission is hereby granted, free of charge, to any person obtaining a copy
   6:../eurorack/stmlib/dsp/filter.h **** // of this software and associated documentation files (the "Software"), to deal
   7:../eurorack/stmlib/dsp/filter.h **** // in the Software without restriction, including without limitation the rights
   8:../eurorack/stmlib/dsp/filter.h **** // to use, copy, modify, merge, publish, distribute, sublicense, and/or sell
   9:../eurorack/stmlib/dsp/filter.h **** // copies of the Software, and to permit persons to whom the Software is
  10:../eurorack/stmlib/dsp/filter.h **** // furnished to do so, subject to the following conditions:
  11:../eurorack/stmlib/dsp/filter.h **** // 
  12:../eurorack/stmlib/dsp/filter.h **** // The above copyright notice and this permission notice shall be included in
  13:../eurorack/stmlib/dsp/filter.h **** // all copies or substantial portions of the Software.
  14:../eurorack/stmlib/dsp/filter.h **** // 
  15:../eurorack/stmlib/dsp/filter.h **** // THE SOFTWARE IS PROVIDED "AS IS", WITHOUT WARRANTY OF ANY KIND, EXPRESS OR
  16:../eurorack/stmlib/dsp/filter.h **** // IMPLIED, INCLUDING BUT NOT LIMITED TO THE WARRANTIES OF MERCHANTABILITY,
ARM GAS  /var/folders/y7/g6pkzsp12sx54x3s3mvyn15r0000gn/T//ccWX7ODC.s 			page 4


  17:../eurorack/stmlib/dsp/filter.h **** // FITNESS FOR A PARTICULAR PURPOSE AND NONINFRINGEMENT. IN NO EVENT SHALL THE
  18:../eurorack/stmlib/dsp/filter.h **** // AUTHORS OR COPYRIGHT HOLDERS BE LIABLE FOR ANY CLAIM, DAMAGES OR OTHER
  19:../eurorack/stmlib/dsp/filter.h **** // LIABILITY, WHETHER IN AN ACTION OF CONTRACT, TORT OR OTHERWISE, ARISING FROM,
  20:../eurorack/stmlib/dsp/filter.h **** // OUT OF OR IN CONNECTION WITH THE SOFTWARE OR THE USE OR OTHER DEALINGS IN
  21:../eurorack/stmlib/dsp/filter.h **** // THE SOFTWARE.
  22:../eurorack/stmlib/dsp/filter.h **** // 
  23:../eurorack/stmlib/dsp/filter.h **** // See http://creativecommons.org/licenses/MIT/ for more information.
  24:../eurorack/stmlib/dsp/filter.h **** //
  25:../eurorack/stmlib/dsp/filter.h **** // -----------------------------------------------------------------------------
  26:../eurorack/stmlib/dsp/filter.h **** //
  27:../eurorack/stmlib/dsp/filter.h **** // Zero-delay-feedback filters (one pole and SVF).
  28:../eurorack/stmlib/dsp/filter.h **** // Naive SVF.
  29:../eurorack/stmlib/dsp/filter.h **** 
  30:../eurorack/stmlib/dsp/filter.h **** #ifndef STMLIB_DSP_FILTER_H_
  31:../eurorack/stmlib/dsp/filter.h **** #define STMLIB_DSP_FILTER_H_
  32:../eurorack/stmlib/dsp/filter.h **** 
  33:../eurorack/stmlib/dsp/filter.h **** #include "stmlib/stmlib.h"
  34:../eurorack/stmlib/dsp/filter.h **** 
  35:../eurorack/stmlib/dsp/filter.h **** #include <cmath>
  36:../eurorack/stmlib/dsp/filter.h **** #include <algorithm>
  37:../eurorack/stmlib/dsp/filter.h **** 
  38:../eurorack/stmlib/dsp/filter.h **** namespace stmlib {
  39:../eurorack/stmlib/dsp/filter.h **** 
  40:../eurorack/stmlib/dsp/filter.h **** enum FilterMode {
  41:../eurorack/stmlib/dsp/filter.h ****   FILTER_MODE_LOW_PASS,
  42:../eurorack/stmlib/dsp/filter.h ****   FILTER_MODE_BAND_PASS,
  43:../eurorack/stmlib/dsp/filter.h ****   FILTER_MODE_BAND_PASS_NORMALIZED,
  44:../eurorack/stmlib/dsp/filter.h ****   FILTER_MODE_HIGH_PASS
  45:../eurorack/stmlib/dsp/filter.h **** };
  46:../eurorack/stmlib/dsp/filter.h **** 
  47:../eurorack/stmlib/dsp/filter.h **** enum FrequencyApproximation {
  48:../eurorack/stmlib/dsp/filter.h ****   FREQUENCY_EXACT,
  49:../eurorack/stmlib/dsp/filter.h ****   FREQUENCY_ACCURATE,
  50:../eurorack/stmlib/dsp/filter.h ****   FREQUENCY_FAST,
  51:../eurorack/stmlib/dsp/filter.h ****   FREQUENCY_DIRTY
  52:../eurorack/stmlib/dsp/filter.h **** };
  53:../eurorack/stmlib/dsp/filter.h **** 
  54:../eurorack/stmlib/dsp/filter.h **** #define M_PI_F float(M_PI)
  55:../eurorack/stmlib/dsp/filter.h **** #define M_PI_POW_2 M_PI * M_PI
  56:../eurorack/stmlib/dsp/filter.h **** #define M_PI_POW_3 M_PI_POW_2 * M_PI
  57:../eurorack/stmlib/dsp/filter.h **** #define M_PI_POW_5 M_PI_POW_3 * M_PI_POW_2
  58:../eurorack/stmlib/dsp/filter.h **** #define M_PI_POW_7 M_PI_POW_5 * M_PI_POW_2
  59:../eurorack/stmlib/dsp/filter.h **** #define M_PI_POW_9 M_PI_POW_7 * M_PI_POW_2
  60:../eurorack/stmlib/dsp/filter.h **** #define M_PI_POW_11 M_PI_POW_9 * M_PI_POW_2
  61:../eurorack/stmlib/dsp/filter.h **** 
  62:../eurorack/stmlib/dsp/filter.h **** class DCBlocker {
  63:../eurorack/stmlib/dsp/filter.h ****  public:
  64:../eurorack/stmlib/dsp/filter.h ****   DCBlocker() { }
  65:../eurorack/stmlib/dsp/filter.h ****   ~DCBlocker() { }
  66:../eurorack/stmlib/dsp/filter.h ****   
  67:../eurorack/stmlib/dsp/filter.h ****   void Init(float pole) {
  68:../eurorack/stmlib/dsp/filter.h ****     x_ = 0.0f;
  69:../eurorack/stmlib/dsp/filter.h ****     y_ = 0.0f;
  70:../eurorack/stmlib/dsp/filter.h ****     pole_ = pole;
  71:../eurorack/stmlib/dsp/filter.h ****   }
  72:../eurorack/stmlib/dsp/filter.h ****   
  73:../eurorack/stmlib/dsp/filter.h ****   inline void Process(float* in_out, size_t size) {
ARM GAS  /var/folders/y7/g6pkzsp12sx54x3s3mvyn15r0000gn/T//ccWX7ODC.s 			page 5


  74:../eurorack/stmlib/dsp/filter.h ****     float x = x_;
  75:../eurorack/stmlib/dsp/filter.h ****     float y = y_;
  76:../eurorack/stmlib/dsp/filter.h ****     const float pole = pole_;
  77:../eurorack/stmlib/dsp/filter.h ****     while (size--) {
  78:../eurorack/stmlib/dsp/filter.h ****       float old_x = x;
  79:../eurorack/stmlib/dsp/filter.h ****       x = *in_out;
  80:../eurorack/stmlib/dsp/filter.h ****       *in_out++ = y = y * pole + x - old_x;
  81:../eurorack/stmlib/dsp/filter.h ****     }
  82:../eurorack/stmlib/dsp/filter.h ****     x_ = x;
  83:../eurorack/stmlib/dsp/filter.h ****     y_ = y;
  84:../eurorack/stmlib/dsp/filter.h ****   }
  85:../eurorack/stmlib/dsp/filter.h ****   
  86:../eurorack/stmlib/dsp/filter.h ****  private:
  87:../eurorack/stmlib/dsp/filter.h ****   float pole_;
  88:../eurorack/stmlib/dsp/filter.h ****   float x_;
  89:../eurorack/stmlib/dsp/filter.h ****   float y_;
  90:../eurorack/stmlib/dsp/filter.h **** };
  91:../eurorack/stmlib/dsp/filter.h **** 
  92:../eurorack/stmlib/dsp/filter.h **** class OnePole {
  93:../eurorack/stmlib/dsp/filter.h ****  public:
  94:../eurorack/stmlib/dsp/filter.h ****   OnePole() { }
  95:../eurorack/stmlib/dsp/filter.h ****   ~OnePole() { }
  96:../eurorack/stmlib/dsp/filter.h ****   
  97:../eurorack/stmlib/dsp/filter.h ****   void Init() {
  98:../eurorack/stmlib/dsp/filter.h ****     set_f<FREQUENCY_DIRTY>(0.01f);
  99:../eurorack/stmlib/dsp/filter.h ****     Reset();
 100:../eurorack/stmlib/dsp/filter.h ****   }
 101:../eurorack/stmlib/dsp/filter.h ****   
 102:../eurorack/stmlib/dsp/filter.h ****   void Reset() {
 103:../eurorack/stmlib/dsp/filter.h ****     state_ = 0.0f;
 104:../eurorack/stmlib/dsp/filter.h ****   }
 105:../eurorack/stmlib/dsp/filter.h ****   
 106:../eurorack/stmlib/dsp/filter.h ****   template<FrequencyApproximation approximation>
 107:../eurorack/stmlib/dsp/filter.h ****   static inline float tan(float f) {
 108:../eurorack/stmlib/dsp/filter.h ****     if (approximation == FREQUENCY_EXACT) {
 109:../eurorack/stmlib/dsp/filter.h ****       // Clip coefficient to about 100.
 110:../eurorack/stmlib/dsp/filter.h ****       f = f < 0.497f ? f : 0.497f;
 111:../eurorack/stmlib/dsp/filter.h ****       return tanf(M_PI_F * f);
 112:../eurorack/stmlib/dsp/filter.h ****     } else if (approximation == FREQUENCY_DIRTY) {
 113:../eurorack/stmlib/dsp/filter.h ****       // Optimized for frequencies below 8kHz.
 114:../eurorack/stmlib/dsp/filter.h ****       const float a = 3.736e-01f * M_PI_POW_3;
 115:../eurorack/stmlib/dsp/filter.h ****       return f * (M_PI_F + a * f * f);
 116:../eurorack/stmlib/dsp/filter.h ****     } else if (approximation == FREQUENCY_FAST) {
 117:../eurorack/stmlib/dsp/filter.h ****       // The usual tangent approximation uses 3.1755e-01 and 2.033e-01, but
 118:../eurorack/stmlib/dsp/filter.h ****       // the coefficients used here are optimized to minimize error for the
 119:../eurorack/stmlib/dsp/filter.h ****       // 16Hz to 16kHz range, with a sample rate of 48kHz.
 120:../eurorack/stmlib/dsp/filter.h ****       const float a = 3.260e-01f * M_PI_POW_3;
 121:../eurorack/stmlib/dsp/filter.h ****       const float b = 1.823e-01f * M_PI_POW_5;
 122:../eurorack/stmlib/dsp/filter.h ****       float f2 = f * f;
 123:../eurorack/stmlib/dsp/filter.h ****       return f * (M_PI_F + f2 * (a + b * f2));
 124:../eurorack/stmlib/dsp/filter.h ****     } else if (approximation == FREQUENCY_ACCURATE) {
 125:../eurorack/stmlib/dsp/filter.h ****       // These coefficients don't need to be tweaked for the audio range.
 126:../eurorack/stmlib/dsp/filter.h ****       const float a = 3.333314036e-01f * M_PI_POW_3;
 127:../eurorack/stmlib/dsp/filter.h ****       const float b = 1.333923995e-01f * M_PI_POW_5;
 128:../eurorack/stmlib/dsp/filter.h ****       const float c = 5.33740603e-02f * M_PI_POW_7;
 129:../eurorack/stmlib/dsp/filter.h ****       const float d = 2.900525e-03f * M_PI_POW_9;
 130:../eurorack/stmlib/dsp/filter.h ****       const float e = 9.5168091e-03f * M_PI_POW_11;
ARM GAS  /var/folders/y7/g6pkzsp12sx54x3s3mvyn15r0000gn/T//ccWX7ODC.s 			page 6


 131:../eurorack/stmlib/dsp/filter.h ****       float f2 = f * f;
 132:../eurorack/stmlib/dsp/filter.h ****       return f * (M_PI_F + f2 * (a + f2 * (b + f2 * (c + f2 * (d + f2 * e)))));
 133:../eurorack/stmlib/dsp/filter.h ****     }
 134:../eurorack/stmlib/dsp/filter.h ****   }
 135:../eurorack/stmlib/dsp/filter.h ****   
 136:../eurorack/stmlib/dsp/filter.h ****   // Set frequency and resonance from true units. Various approximations
 137:../eurorack/stmlib/dsp/filter.h ****   // are available to avoid the cost of tanf.
 138:../eurorack/stmlib/dsp/filter.h ****   template<FrequencyApproximation approximation>
 139:../eurorack/stmlib/dsp/filter.h ****   inline void set_f(float f) {
 140:../eurorack/stmlib/dsp/filter.h ****     g_ = tan<approximation>(f);
 141:../eurorack/stmlib/dsp/filter.h ****     gi_ = 1.0f / (1.0f + g_);
 142:../eurorack/stmlib/dsp/filter.h ****   }
 143:../eurorack/stmlib/dsp/filter.h ****   
 144:../eurorack/stmlib/dsp/filter.h ****   template<FilterMode mode>
 145:../eurorack/stmlib/dsp/filter.h ****   inline float Process(float in) {
 146:../eurorack/stmlib/dsp/filter.h ****     float lp;
 147:../eurorack/stmlib/dsp/filter.h ****     lp = (g_ * in + state_) * gi_;
 148:../eurorack/stmlib/dsp/filter.h ****     state_ = g_ * (in - lp) + lp;
 149:../eurorack/stmlib/dsp/filter.h **** 
 150:../eurorack/stmlib/dsp/filter.h ****     if (mode == FILTER_MODE_LOW_PASS) {
 151:../eurorack/stmlib/dsp/filter.h ****       return lp;
 152:../eurorack/stmlib/dsp/filter.h ****     } else if (mode == FILTER_MODE_HIGH_PASS) {
 153:../eurorack/stmlib/dsp/filter.h ****       return in - lp;
 154:../eurorack/stmlib/dsp/filter.h ****     } else {
 155:../eurorack/stmlib/dsp/filter.h ****       return 0.0f;
 156:../eurorack/stmlib/dsp/filter.h ****     }
 157:../eurorack/stmlib/dsp/filter.h ****   }
 158:../eurorack/stmlib/dsp/filter.h ****   
 159:../eurorack/stmlib/dsp/filter.h ****   template<FilterMode mode>
 160:../eurorack/stmlib/dsp/filter.h ****   inline void Process(float* in_out, size_t size) {
 161:../eurorack/stmlib/dsp/filter.h ****     while (size--) {
 162:../eurorack/stmlib/dsp/filter.h ****       *in_out = Process<mode>(*in_out);
 163:../eurorack/stmlib/dsp/filter.h ****       ++in_out;
 164:../eurorack/stmlib/dsp/filter.h ****     }
 165:../eurorack/stmlib/dsp/filter.h ****   }
 166:../eurorack/stmlib/dsp/filter.h ****   
 167:../eurorack/stmlib/dsp/filter.h ****  private:
 168:../eurorack/stmlib/dsp/filter.h ****   float g_;
 169:../eurorack/stmlib/dsp/filter.h ****   float gi_;
 170:../eurorack/stmlib/dsp/filter.h ****   float state_;
 171:../eurorack/stmlib/dsp/filter.h ****   
 172:../eurorack/stmlib/dsp/filter.h ****   DISALLOW_COPY_AND_ASSIGN(OnePole);
 173:../eurorack/stmlib/dsp/filter.h **** };
 174:../eurorack/stmlib/dsp/filter.h **** 
 175:../eurorack/stmlib/dsp/filter.h **** 
 176:../eurorack/stmlib/dsp/filter.h **** 
 177:../eurorack/stmlib/dsp/filter.h **** class Svf {
 178:../eurorack/stmlib/dsp/filter.h ****  public:
 179:../eurorack/stmlib/dsp/filter.h ****   Svf() { }
 180:../eurorack/stmlib/dsp/filter.h ****   ~Svf() { }
 181:../eurorack/stmlib/dsp/filter.h ****   
 182:../eurorack/stmlib/dsp/filter.h ****   void Init() {
  71              		.loc 3 182 8 is_stmt 1 view -0
  72              		.cfi_startproc
  73              		@ args = 0, pretend = 0, frame = 0
  74              		@ frame_needed = 0, uses_anonymous_args = 0
  75              		@ link register save eliminated.
ARM GAS  /var/folders/y7/g6pkzsp12sx54x3s3mvyn15r0000gn/T//ccWX7ODC.s 			page 7


 183:../eurorack/stmlib/dsp/filter.h ****     set_f_q<FREQUENCY_DIRTY>(0.01f, 100.0f);
  76              		.loc 3 183 5 view .LVU5
  77              	.LBB63:
  78              	.LBI63:
 184:../eurorack/stmlib/dsp/filter.h ****     Reset();
 185:../eurorack/stmlib/dsp/filter.h ****   }
 186:../eurorack/stmlib/dsp/filter.h ****   
 187:../eurorack/stmlib/dsp/filter.h ****   void Reset() {
 188:../eurorack/stmlib/dsp/filter.h ****     state_1_ = state_2_ = 0.0f;
 189:../eurorack/stmlib/dsp/filter.h ****   }
 190:../eurorack/stmlib/dsp/filter.h ****   
 191:../eurorack/stmlib/dsp/filter.h ****   // Copy settings from another filter.
 192:../eurorack/stmlib/dsp/filter.h ****   inline void set(const Svf& f) {
 193:../eurorack/stmlib/dsp/filter.h ****     g_ = f.g();
 194:../eurorack/stmlib/dsp/filter.h ****     r_ = f.r();
 195:../eurorack/stmlib/dsp/filter.h ****     h_ = f.h();
 196:../eurorack/stmlib/dsp/filter.h ****   }
 197:../eurorack/stmlib/dsp/filter.h **** 
 198:../eurorack/stmlib/dsp/filter.h ****   // Set all parameters from LUT.
 199:../eurorack/stmlib/dsp/filter.h ****   inline void set_g_r_h(float g, float r, float h) {
 200:../eurorack/stmlib/dsp/filter.h ****     g_ = g;
 201:../eurorack/stmlib/dsp/filter.h ****     r_ = r;
 202:../eurorack/stmlib/dsp/filter.h ****     h_ = h;
 203:../eurorack/stmlib/dsp/filter.h ****   }
 204:../eurorack/stmlib/dsp/filter.h ****   
 205:../eurorack/stmlib/dsp/filter.h ****   // Set frequency and resonance coefficients from LUT, adjust remaining
 206:../eurorack/stmlib/dsp/filter.h ****   // parameter.
 207:../eurorack/stmlib/dsp/filter.h ****   inline void set_g_r(float g, float r) {
 208:../eurorack/stmlib/dsp/filter.h ****     g_ = g;
 209:../eurorack/stmlib/dsp/filter.h ****     r_ = r;
 210:../eurorack/stmlib/dsp/filter.h ****     h_ = 1.0f / (1.0f + r_ * g_ + g_ * g_);
 211:../eurorack/stmlib/dsp/filter.h ****   }
 212:../eurorack/stmlib/dsp/filter.h **** 
 213:../eurorack/stmlib/dsp/filter.h ****   // Set frequency from LUT, resonance in true units, adjust the rest.
 214:../eurorack/stmlib/dsp/filter.h ****   inline void set_g_q(float g, float resonance) {
 215:../eurorack/stmlib/dsp/filter.h ****     g_ = g;
 216:../eurorack/stmlib/dsp/filter.h ****     r_ = 1.0f / resonance;
 217:../eurorack/stmlib/dsp/filter.h ****     h_ = 1.0f / (1.0f + r_ * g_ + g_ * g_);
 218:../eurorack/stmlib/dsp/filter.h ****   }
 219:../eurorack/stmlib/dsp/filter.h **** 
 220:../eurorack/stmlib/dsp/filter.h ****   // Set frequency and resonance from true units. Various approximations
 221:../eurorack/stmlib/dsp/filter.h ****   // are available to avoid the cost of tanf.
 222:../eurorack/stmlib/dsp/filter.h ****   template<FrequencyApproximation approximation>
 223:../eurorack/stmlib/dsp/filter.h ****   inline void set_f_q(float f, float resonance) {
  79              		.loc 3 223 15 view .LVU6
  80              	.LBB64:
 224:../eurorack/stmlib/dsp/filter.h ****     g_ = OnePole::tan<approximation>(f);
  81              		.loc 3 224 8 is_stmt 0 discriminator 1 view .LVU7
  82 0000 044B     		ldr	r3, .L4
  83 0002 0360     		str	r3, [r0]	@ float
 225:../eurorack/stmlib/dsp/filter.h ****     r_ = 1.0f / resonance;
  84              		.loc 3 225 8 view .LVU8
  85 0004 044B     		ldr	r3, .L4+4
  86 0006 4360     		str	r3, [r0, #4]	@ float
 226:../eurorack/stmlib/dsp/filter.h ****     h_ = 1.0f / (1.0f + r_ * g_ + g_ * g_);
  87              		.loc 3 226 8 view .LVU9
  88 0008 044B     		ldr	r3, .L4+8
ARM GAS  /var/folders/y7/g6pkzsp12sx54x3s3mvyn15r0000gn/T//ccWX7ODC.s 			page 8


  89 000a 8360     		str	r3, [r0, #8]	@ float
  90              	.LVL3:
  91              		.loc 3 226 8 view .LVU10
  92              	.LBE64:
  93              	.LBE63:
 184:../eurorack/stmlib/dsp/filter.h ****   }
  94              		.loc 3 184 5 is_stmt 1 view .LVU11
  95              	.LBB65:
  96              	.LBI65:
 187:../eurorack/stmlib/dsp/filter.h ****     state_1_ = state_2_ = 0.0f;
  97              		.loc 3 187 8 view .LVU12
  98              	.LBB66:
 188:../eurorack/stmlib/dsp/filter.h ****   }
  99              		.loc 3 188 5 view .LVU13
 188:../eurorack/stmlib/dsp/filter.h ****   }
 100              		.loc 3 188 25 is_stmt 0 view .LVU14
 101 000c 0023     		movs	r3, #0
 102 000e 0361     		str	r3, [r0, #16]	@ float
 188:../eurorack/stmlib/dsp/filter.h ****   }
 103              		.loc 3 188 14 view .LVU15
 104 0010 C360     		str	r3, [r0, #12]	@ float
 105              	.LVL4:
 188:../eurorack/stmlib/dsp/filter.h ****   }
 106              		.loc 3 188 14 view .LVU16
 107              	.LBE66:
 108              	.LBE65:
 185:../eurorack/stmlib/dsp/filter.h ****   
 109              		.loc 3 185 3 view .LVU17
 110 0012 7047     		bx	lr
 111              	.L5:
 112              		.align	2
 113              	.L4:
 114 0014 22BA003D 		.word	1023457826
 115 0018 0AD7233C 		.word	1008981770
 116 001c CAAA7F3F 		.word	1065331402
 117              		.cfi_endproc
 118              	.LFE1242:
 120              		.section	.text._ZN6plaits15SnareDrumEngine4InitEPN6stmlib15BufferAllocatorE,"ax",%progbits
 121              		.align	1
 122              		.global	_ZN6plaits15SnareDrumEngine4InitEPN6stmlib15BufferAllocatorE
 123              		.syntax unified
 124              		.thumb
 125              		.thumb_func
 127              	_ZN6plaits15SnareDrumEngine4InitEPN6stmlib15BufferAllocatorE:
 128              	.LVL5:
 129              	.LFB1400:
  38:../eurorack/plaits/dsp/engine/snare_drum_engine.cc ****   analog_snare_drum_.Init();
 130              		.loc 1 38 56 is_stmt 1 view -0
 131              		.cfi_startproc
 132              		@ args = 0, pretend = 0, frame = 0
 133              		@ frame_needed = 0, uses_anonymous_args = 0
  39:../eurorack/plaits/dsp/engine/snare_drum_engine.cc ****   synthetic_snare_drum_.Init();
 134              		.loc 1 39 3 view .LVU19
 135              	.LBB92:
 136              	.LBI92:
 137              		.file 4 "../eurorack/plaits/dsp/drums/analog_snare_drum.h"
   1:../eurorack/plaits/dsp/drums/analog_snare_drum.h **** // Copyright 2016 Emilie Gillet.
ARM GAS  /var/folders/y7/g6pkzsp12sx54x3s3mvyn15r0000gn/T//ccWX7ODC.s 			page 9


   2:../eurorack/plaits/dsp/drums/analog_snare_drum.h **** //
   3:../eurorack/plaits/dsp/drums/analog_snare_drum.h **** // Author: Emilie Gillet (emilie.o.gillet@gmail.com)
   4:../eurorack/plaits/dsp/drums/analog_snare_drum.h **** //
   5:../eurorack/plaits/dsp/drums/analog_snare_drum.h **** // Permission is hereby granted, free of charge, to any person obtaining a copy
   6:../eurorack/plaits/dsp/drums/analog_snare_drum.h **** // of this software and associated documentation files (the "Software"), to deal
   7:../eurorack/plaits/dsp/drums/analog_snare_drum.h **** // in the Software without restriction, including without limitation the rights
   8:../eurorack/plaits/dsp/drums/analog_snare_drum.h **** // to use, copy, modify, merge, publish, distribute, sublicense, and/or sell
   9:../eurorack/plaits/dsp/drums/analog_snare_drum.h **** // copies of the Software, and to permit persons to whom the Software is
  10:../eurorack/plaits/dsp/drums/analog_snare_drum.h **** // furnished to do so, subject to the following conditions:
  11:../eurorack/plaits/dsp/drums/analog_snare_drum.h **** // 
  12:../eurorack/plaits/dsp/drums/analog_snare_drum.h **** // The above copyright notice and this permission notice shall be included in
  13:../eurorack/plaits/dsp/drums/analog_snare_drum.h **** // all copies or substantial portions of the Software.
  14:../eurorack/plaits/dsp/drums/analog_snare_drum.h **** // 
  15:../eurorack/plaits/dsp/drums/analog_snare_drum.h **** // THE SOFTWARE IS PROVIDED "AS IS", WITHOUT WARRANTY OF ANY KIND, EXPRESS OR
  16:../eurorack/plaits/dsp/drums/analog_snare_drum.h **** // IMPLIED, INCLUDING BUT NOT LIMITED TO THE WARRANTIES OF MERCHANTABILITY,
  17:../eurorack/plaits/dsp/drums/analog_snare_drum.h **** // FITNESS FOR A PARTICULAR PURPOSE AND NONINFRINGEMENT. IN NO EVENT SHALL THE
  18:../eurorack/plaits/dsp/drums/analog_snare_drum.h **** // AUTHORS OR COPYRIGHT HOLDERS BE LIABLE FOR ANY CLAIM, DAMAGES OR OTHER
  19:../eurorack/plaits/dsp/drums/analog_snare_drum.h **** // LIABILITY, WHETHER IN AN ACTION OF CONTRACT, TORT OR OTHERWISE, ARISING FROM,
  20:../eurorack/plaits/dsp/drums/analog_snare_drum.h **** // OUT OF OR IN CONNECTION WITH THE SOFTWARE OR THE USE OR OTHER DEALINGS IN
  21:../eurorack/plaits/dsp/drums/analog_snare_drum.h **** // THE SOFTWARE.
  22:../eurorack/plaits/dsp/drums/analog_snare_drum.h **** // 
  23:../eurorack/plaits/dsp/drums/analog_snare_drum.h **** // See http://creativecommons.org/licenses/MIT/ for more information.
  24:../eurorack/plaits/dsp/drums/analog_snare_drum.h **** //
  25:../eurorack/plaits/dsp/drums/analog_snare_drum.h **** // -----------------------------------------------------------------------------
  26:../eurorack/plaits/dsp/drums/analog_snare_drum.h **** //
  27:../eurorack/plaits/dsp/drums/analog_snare_drum.h **** // 808 snare drum model, revisited.
  28:../eurorack/plaits/dsp/drums/analog_snare_drum.h **** 
  29:../eurorack/plaits/dsp/drums/analog_snare_drum.h **** #ifndef PLAITS_DSP_DRUMS_ANALOG_SNARE_DRUM_H_
  30:../eurorack/plaits/dsp/drums/analog_snare_drum.h **** #define PLAITS_DSP_DRUMS_ANALOG_SNARE_DRUM_H_
  31:../eurorack/plaits/dsp/drums/analog_snare_drum.h **** 
  32:../eurorack/plaits/dsp/drums/analog_snare_drum.h **** #include <algorithm>
  33:../eurorack/plaits/dsp/drums/analog_snare_drum.h **** 
  34:../eurorack/plaits/dsp/drums/analog_snare_drum.h **** #include "stmlib/dsp/dsp.h"
  35:../eurorack/plaits/dsp/drums/analog_snare_drum.h **** #include "stmlib/dsp/filter.h"
  36:../eurorack/plaits/dsp/drums/analog_snare_drum.h **** #include "stmlib/dsp/parameter_interpolator.h"
  37:../eurorack/plaits/dsp/drums/analog_snare_drum.h **** #include "stmlib/dsp/units.h"
  38:../eurorack/plaits/dsp/drums/analog_snare_drum.h **** #include "stmlib/utils/random.h"
  39:../eurorack/plaits/dsp/drums/analog_snare_drum.h **** 
  40:../eurorack/plaits/dsp/drums/analog_snare_drum.h **** #include "plaits/dsp/dsp.h"
  41:../eurorack/plaits/dsp/drums/analog_snare_drum.h **** #include "plaits/dsp/oscillator/sine_oscillator.h"
  42:../eurorack/plaits/dsp/drums/analog_snare_drum.h **** 
  43:../eurorack/plaits/dsp/drums/analog_snare_drum.h **** namespace plaits {
  44:../eurorack/plaits/dsp/drums/analog_snare_drum.h **** 
  45:../eurorack/plaits/dsp/drums/analog_snare_drum.h **** class AnalogSnareDrum {
  46:../eurorack/plaits/dsp/drums/analog_snare_drum.h ****  public:
  47:../eurorack/plaits/dsp/drums/analog_snare_drum.h ****   AnalogSnareDrum() { }
  48:../eurorack/plaits/dsp/drums/analog_snare_drum.h ****   ~AnalogSnareDrum() { }
  49:../eurorack/plaits/dsp/drums/analog_snare_drum.h **** 
  50:../eurorack/plaits/dsp/drums/analog_snare_drum.h ****   static const int kNumModes = 5;
  51:../eurorack/plaits/dsp/drums/analog_snare_drum.h **** 
  52:../eurorack/plaits/dsp/drums/analog_snare_drum.h ****   void Init() {
 138              		.loc 4 52 8 view .LVU20
 139              	.LBB93:
  53:../eurorack/plaits/dsp/drums/analog_snare_drum.h ****     pulse_remaining_samples_ = 0;
 140              		.loc 4 53 5 view .LVU21
 141              	.LBE93:
 142              	.LBE92:
ARM GAS  /var/folders/y7/g6pkzsp12sx54x3s3mvyn15r0000gn/T//ccWX7ODC.s 			page 10


  38:../eurorack/plaits/dsp/engine/snare_drum_engine.cc ****   analog_snare_drum_.Init();
 143              		.loc 1 38 56 is_stmt 0 view .LVU22
 144 0000 2DE9F041 		push	{r4, r5, r6, r7, r8, lr}
 145              		.cfi_def_cfa_offset 24
 146              		.cfi_offset 4, -24
 147              		.cfi_offset 5, -20
 148              		.cfi_offset 6, -16
 149              		.cfi_offset 7, -12
 150              		.cfi_offset 8, -8
 151              		.cfi_offset 14, -4
 152              	.LBB101:
 153              	.LBB99:
 154              		.loc 4 53 30 view .LVU23
 155 0004 0023     		movs	r3, #0
  54:../eurorack/plaits/dsp/drums/analog_snare_drum.h ****     pulse_ = 0.0f;
 156              		.loc 4 54 12 view .LVU24
 157 0006 0025     		movs	r5, #0
 158              	.LBE99:
 159              	.LBE101:
  38:../eurorack/plaits/dsp/engine/snare_drum_engine.cc ****   analog_snare_drum_.Init();
 160              		.loc 1 38 56 view .LVU25
 161 0008 0446     		mov	r4, r0
 162 000a 00F12807 		add	r7, r0, #40
 163 000e 0646     		mov	r6, r0
 164 0010 00F13C08 		add	r8, r0, #60
 165              	.LBB102:
 166              	.LBB100:
  53:../eurorack/plaits/dsp/drums/analog_snare_drum.h ****     pulse_remaining_samples_ = 0;
 167              		.loc 4 53 30 view .LVU26
 168 0014 0361     		str	r3, [r0, #16]
 169              		.loc 4 54 5 is_stmt 1 view .LVU27
 170              		.loc 4 54 12 is_stmt 0 view .LVU28
 171 0016 4561     		str	r5, [r0, #20]	@ float
  55:../eurorack/plaits/dsp/drums/analog_snare_drum.h ****     pulse_height_ = 0.0f;
 172              		.loc 4 55 5 is_stmt 1 view .LVU29
 173              		.loc 4 55 19 is_stmt 0 view .LVU30
 174 0018 8561     		str	r5, [r0, #24]	@ float
  56:../eurorack/plaits/dsp/drums/analog_snare_drum.h ****     pulse_lp_ = 0.0f;
 175              		.loc 4 56 5 is_stmt 1 view .LVU31
 176              		.loc 4 56 15 is_stmt 0 view .LVU32
 177 001a C561     		str	r5, [r0, #28]	@ float
  57:../eurorack/plaits/dsp/drums/analog_snare_drum.h ****     noise_envelope_ = 0.0f;
 178              		.loc 4 57 5 is_stmt 1 view .LVU33
 179              		.loc 4 57 21 is_stmt 0 view .LVU34
 180 001c 0562     		str	r5, [r0, #32]	@ float
  58:../eurorack/plaits/dsp/drums/analog_snare_drum.h ****     sustain_gain_ = 0.0f;
 181              		.loc 4 58 5 is_stmt 1 view .LVU35
 182              		.loc 4 58 19 is_stmt 0 view .LVU36
 183 001e 4562     		str	r5, [r0, #36]	@ float
  59:../eurorack/plaits/dsp/drums/analog_snare_drum.h **** 
  60:../eurorack/plaits/dsp/drums/analog_snare_drum.h ****     for (int i = 0; i < kNumModes; ++i) {
 184              		.loc 4 60 5 is_stmt 1 view .LVU37
 185              	.LVL6:
 186              	.LBB94:
 187              		.loc 4 60 23 discriminator 1 view .LVU38
 188              	.L7:
  61:../eurorack/plaits/dsp/drums/analog_snare_drum.h ****       resonator_[i].Init();
ARM GAS  /var/folders/y7/g6pkzsp12sx54x3s3mvyn15r0000gn/T//ccWX7ODC.s 			page 11


 189              		.loc 4 61 7 view .LVU39
 190              		.loc 4 61 25 is_stmt 0 view .LVU40
 191 0020 3846     		mov	r0, r7
  60:../eurorack/plaits/dsp/drums/analog_snare_drum.h ****       resonator_[i].Init();
 192              		.loc 4 60 23 discriminator 1 view .LVU41
 193 0022 0C36     		adds	r6, r6, #12
 194              		.loc 4 61 25 view .LVU42
 195 0024 FFF7FEFF 		bl	_ZN6stmlib3Svf4InitEv
 196              	.LVL7:
  62:../eurorack/plaits/dsp/drums/analog_snare_drum.h ****       oscillator_[i].Init();
 197              		.loc 4 62 7 is_stmt 1 view .LVU43
 198              	.LBB95:
 199              	.LBI95:
 200              		.file 5 "../eurorack/plaits/dsp/oscillator/sine_oscillator.h"
   1:../eurorack/plaits/dsp/oscillator/sine_oscillator.h **** // Copyright 2016 Emilie Gillet.
   2:../eurorack/plaits/dsp/oscillator/sine_oscillator.h **** //
   3:../eurorack/plaits/dsp/oscillator/sine_oscillator.h **** // Author: Emilie Gillet (emilie.o.gillet@gmail.com)
   4:../eurorack/plaits/dsp/oscillator/sine_oscillator.h **** //
   5:../eurorack/plaits/dsp/oscillator/sine_oscillator.h **** // Permission is hereby granted, free of charge, to any person obtaining a copy
   6:../eurorack/plaits/dsp/oscillator/sine_oscillator.h **** // of this software and associated documentation files (the "Software"), to deal
   7:../eurorack/plaits/dsp/oscillator/sine_oscillator.h **** // in the Software without restriction, including without limitation the rights
   8:../eurorack/plaits/dsp/oscillator/sine_oscillator.h **** // to use, copy, modify, merge, publish, distribute, sublicense, and/or sell
   9:../eurorack/plaits/dsp/oscillator/sine_oscillator.h **** // copies of the Software, and to permit persons to whom the Software is
  10:../eurorack/plaits/dsp/oscillator/sine_oscillator.h **** // furnished to do so, subject to the following conditions:
  11:../eurorack/plaits/dsp/oscillator/sine_oscillator.h **** // 
  12:../eurorack/plaits/dsp/oscillator/sine_oscillator.h **** // The above copyright notice and this permission notice shall be included in
  13:../eurorack/plaits/dsp/oscillator/sine_oscillator.h **** // all copies or substantial portions of the Software.
  14:../eurorack/plaits/dsp/oscillator/sine_oscillator.h **** // 
  15:../eurorack/plaits/dsp/oscillator/sine_oscillator.h **** // THE SOFTWARE IS PROVIDED "AS IS", WITHOUT WARRANTY OF ANY KIND, EXPRESS OR
  16:../eurorack/plaits/dsp/oscillator/sine_oscillator.h **** // IMPLIED, INCLUDING BUT NOT LIMITED TO THE WARRANTIES OF MERCHANTABILITY,
  17:../eurorack/plaits/dsp/oscillator/sine_oscillator.h **** // FITNESS FOR A PARTICULAR PURPOSE AND NONINFRINGEMENT. IN NO EVENT SHALL THE
  18:../eurorack/plaits/dsp/oscillator/sine_oscillator.h **** // AUTHORS OR COPYRIGHT HOLDERS BE LIABLE FOR ANY CLAIM, DAMAGES OR OTHER
  19:../eurorack/plaits/dsp/oscillator/sine_oscillator.h **** // LIABILITY, WHETHER IN AN ACTION OF CONTRACT, TORT OR OTHERWISE, ARISING FROM,
  20:../eurorack/plaits/dsp/oscillator/sine_oscillator.h **** // OUT OF OR IN CONNECTION WITH THE SOFTWARE OR THE USE OR OTHER DEALINGS IN
  21:../eurorack/plaits/dsp/oscillator/sine_oscillator.h **** // THE SOFTWARE.
  22:../eurorack/plaits/dsp/oscillator/sine_oscillator.h **** // 
  23:../eurorack/plaits/dsp/oscillator/sine_oscillator.h **** // See http://creativecommons.org/licenses/MIT/ for more information.
  24:../eurorack/plaits/dsp/oscillator/sine_oscillator.h **** //
  25:../eurorack/plaits/dsp/oscillator/sine_oscillator.h **** // -----------------------------------------------------------------------------
  26:../eurorack/plaits/dsp/oscillator/sine_oscillator.h **** //
  27:../eurorack/plaits/dsp/oscillator/sine_oscillator.h **** // Simple sine oscillator (wavetable) + fast sine oscillator (magic circle).
  28:../eurorack/plaits/dsp/oscillator/sine_oscillator.h **** //
  29:../eurorack/plaits/dsp/oscillator/sine_oscillator.h **** // The fast implementation might glitch a bit under heavy modulations of the
  30:../eurorack/plaits/dsp/oscillator/sine_oscillator.h **** // frequency.
  31:../eurorack/plaits/dsp/oscillator/sine_oscillator.h **** 
  32:../eurorack/plaits/dsp/oscillator/sine_oscillator.h **** #ifndef PLAITS_DSP_OSCILLATOR_SINE_OSCILLATOR_H_
  33:../eurorack/plaits/dsp/oscillator/sine_oscillator.h **** #define PLAITS_DSP_OSCILLATOR_SINE_OSCILLATOR_H_
  34:../eurorack/plaits/dsp/oscillator/sine_oscillator.h **** 
  35:../eurorack/plaits/dsp/oscillator/sine_oscillator.h **** #include "stmlib/dsp/dsp.h"
  36:../eurorack/plaits/dsp/oscillator/sine_oscillator.h **** #include "stmlib/dsp/parameter_interpolator.h"
  37:../eurorack/plaits/dsp/oscillator/sine_oscillator.h **** #include "stmlib/dsp/rsqrt.h"
  38:../eurorack/plaits/dsp/oscillator/sine_oscillator.h **** 
  39:../eurorack/plaits/dsp/oscillator/sine_oscillator.h **** #include "plaits/resources.h"
  40:../eurorack/plaits/dsp/oscillator/sine_oscillator.h **** 
  41:../eurorack/plaits/dsp/oscillator/sine_oscillator.h **** namespace plaits {
  42:../eurorack/plaits/dsp/oscillator/sine_oscillator.h ****   
  43:../eurorack/plaits/dsp/oscillator/sine_oscillator.h **** const float kSineLUTSize = 512.0f;
ARM GAS  /var/folders/y7/g6pkzsp12sx54x3s3mvyn15r0000gn/T//ccWX7ODC.s 			page 12


  44:../eurorack/plaits/dsp/oscillator/sine_oscillator.h **** const size_t kSineLUTQuadrature = 128;
  45:../eurorack/plaits/dsp/oscillator/sine_oscillator.h **** const size_t kSineLUTBits = 9;
  46:../eurorack/plaits/dsp/oscillator/sine_oscillator.h **** 
  47:../eurorack/plaits/dsp/oscillator/sine_oscillator.h **** // Safe for phase >= 0.0f, will wrap.
  48:../eurorack/plaits/dsp/oscillator/sine_oscillator.h **** inline float Sine(float phase) {
  49:../eurorack/plaits/dsp/oscillator/sine_oscillator.h ****   return stmlib::InterpolateWrap(lut_sine, phase, kSineLUTSize);
  50:../eurorack/plaits/dsp/oscillator/sine_oscillator.h **** }
  51:../eurorack/plaits/dsp/oscillator/sine_oscillator.h **** 
  52:../eurorack/plaits/dsp/oscillator/sine_oscillator.h **** // Potentially unsafe, if phase >= 1.25.
  53:../eurorack/plaits/dsp/oscillator/sine_oscillator.h **** inline float SineNoWrap(float phase) {
  54:../eurorack/plaits/dsp/oscillator/sine_oscillator.h ****   return stmlib::Interpolate(lut_sine, phase, kSineLUTSize);
  55:../eurorack/plaits/dsp/oscillator/sine_oscillator.h **** }
  56:../eurorack/plaits/dsp/oscillator/sine_oscillator.h **** 
  57:../eurorack/plaits/dsp/oscillator/sine_oscillator.h **** // With positive of negative phase modulation up to an index of 32.
  58:../eurorack/plaits/dsp/oscillator/sine_oscillator.h **** inline float SinePM(uint32_t phase, float pm) {
  59:../eurorack/plaits/dsp/oscillator/sine_oscillator.h ****   const float max_uint32 = 4294967296.0f;
  60:../eurorack/plaits/dsp/oscillator/sine_oscillator.h ****   const int max_index = 32;
  61:../eurorack/plaits/dsp/oscillator/sine_oscillator.h ****   const float offset = float(max_index);
  62:../eurorack/plaits/dsp/oscillator/sine_oscillator.h ****   const float scale = max_uint32 / float(max_index * 2);
  63:../eurorack/plaits/dsp/oscillator/sine_oscillator.h **** 
  64:../eurorack/plaits/dsp/oscillator/sine_oscillator.h ****   phase += static_cast<uint32_t>((pm + offset) * scale) * max_index * 2;
  65:../eurorack/plaits/dsp/oscillator/sine_oscillator.h ****   
  66:../eurorack/plaits/dsp/oscillator/sine_oscillator.h ****   uint32_t integral = phase >> (32 - kSineLUTBits);
  67:../eurorack/plaits/dsp/oscillator/sine_oscillator.h ****   float fractional = static_cast<float>(phase << kSineLUTBits) / float(max_uint32);
  68:../eurorack/plaits/dsp/oscillator/sine_oscillator.h ****   float a = lut_sine[integral];
  69:../eurorack/plaits/dsp/oscillator/sine_oscillator.h ****   float b = lut_sine[integral + 1];
  70:../eurorack/plaits/dsp/oscillator/sine_oscillator.h ****   return a + (b - a) * fractional;
  71:../eurorack/plaits/dsp/oscillator/sine_oscillator.h **** }
  72:../eurorack/plaits/dsp/oscillator/sine_oscillator.h **** 
  73:../eurorack/plaits/dsp/oscillator/sine_oscillator.h **** // Direct lookup without interpolation.
  74:../eurorack/plaits/dsp/oscillator/sine_oscillator.h **** inline float SineRaw(uint32_t phase) {
  75:../eurorack/plaits/dsp/oscillator/sine_oscillator.h ****   return lut_sine[phase >> (32 - kSineLUTBits)];
  76:../eurorack/plaits/dsp/oscillator/sine_oscillator.h **** }
  77:../eurorack/plaits/dsp/oscillator/sine_oscillator.h **** 
  78:../eurorack/plaits/dsp/oscillator/sine_oscillator.h **** class SineOscillator {
  79:../eurorack/plaits/dsp/oscillator/sine_oscillator.h ****  public:
  80:../eurorack/plaits/dsp/oscillator/sine_oscillator.h ****   SineOscillator() { }
  81:../eurorack/plaits/dsp/oscillator/sine_oscillator.h ****   ~SineOscillator() { }
  82:../eurorack/plaits/dsp/oscillator/sine_oscillator.h **** 
  83:../eurorack/plaits/dsp/oscillator/sine_oscillator.h ****   void Init() {
 201              		.loc 5 83 8 view .LVU44
 202              	.LBB96:
  84:../eurorack/plaits/dsp/oscillator/sine_oscillator.h ****     phase_ = 0.0f;
 203              		.loc 5 84 5 view .LVU45
 204              		.loc 5 84 12 is_stmt 0 view .LVU46
 205 0028 C6F89450 		str	r5, [r6, #148]	@ float
  85:../eurorack/plaits/dsp/oscillator/sine_oscillator.h ****     frequency_ = 0.0f;
 206              		.loc 5 85 5 is_stmt 1 view .LVU47
 207              		.loc 5 85 16 is_stmt 0 view .LVU48
 208 002c C6F89850 		str	r5, [r6, #152]	@ float
  86:../eurorack/plaits/dsp/oscillator/sine_oscillator.h ****     amplitude_ = 0.0f;
 209              		.loc 5 86 5 is_stmt 1 view .LVU49
 210              	.LBE96:
 211              	.LBE95:
  60:../eurorack/plaits/dsp/drums/analog_snare_drum.h ****       resonator_[i].Init();
 212              		.loc 4 60 23 is_stmt 0 discriminator 1 view .LVU50
 213 0030 1437     		adds	r7, r7, #20
ARM GAS  /var/folders/y7/g6pkzsp12sx54x3s3mvyn15r0000gn/T//ccWX7ODC.s 			page 13


 214              	.LBB98:
 215              	.LBB97:
 216              		.loc 5 86 16 view .LVU51
 217 0032 C6F89C50 		str	r5, [r6, #156]	@ float
 218              	.LBE97:
 219              	.LBE98:
  60:../eurorack/plaits/dsp/drums/analog_snare_drum.h ****       resonator_[i].Init();
 220              		.loc 4 60 5 is_stmt 1 discriminator 3 view .LVU52
  60:../eurorack/plaits/dsp/drums/analog_snare_drum.h ****       resonator_[i].Init();
 221              		.loc 4 60 23 discriminator 1 view .LVU53
 222 0036 B045     		cmp	r8, r6
 223 0038 F2D1     		bne	.L7
 224              	.LBE94:
  63:../eurorack/plaits/dsp/drums/analog_snare_drum.h ****     }
  64:../eurorack/plaits/dsp/drums/analog_snare_drum.h ****     noise_filter_.Init();
 225              		.loc 4 64 5 view .LVU54
 226              		.loc 4 64 23 is_stmt 0 view .LVU55
 227 003a 04F18C00 		add	r0, r4, #140
 228 003e FFF7FEFF 		bl	_ZN6stmlib3Svf4InitEv
 229              	.LVL8:
 230              		.loc 4 64 23 view .LVU56
 231              	.LBE100:
 232              	.LBE102:
  40:../eurorack/plaits/dsp/engine/snare_drum_engine.cc **** }
 233              		.loc 1 40 3 is_stmt 1 view .LVU57
 234              	.LBB103:
 235              	.LBI103:
 236              		.file 6 "../eurorack/plaits/dsp/drums/synthetic_snare_drum.h"
   1:../eurorack/plaits/dsp/drums/synthetic_snare_drum.h **** // Copyright 2016 Emilie Gillet.
   2:../eurorack/plaits/dsp/drums/synthetic_snare_drum.h **** //
   3:../eurorack/plaits/dsp/drums/synthetic_snare_drum.h **** // Author: Emilie Gillet (emilie.o.gillet@gmail.com)
   4:../eurorack/plaits/dsp/drums/synthetic_snare_drum.h **** //
   5:../eurorack/plaits/dsp/drums/synthetic_snare_drum.h **** // Permission is hereby granted, free of charge, to any person obtaining a copy
   6:../eurorack/plaits/dsp/drums/synthetic_snare_drum.h **** // of this software and associated documentation files (the "Software"), to deal
   7:../eurorack/plaits/dsp/drums/synthetic_snare_drum.h **** // in the Software without restriction, including without limitation the rights
   8:../eurorack/plaits/dsp/drums/synthetic_snare_drum.h **** // to use, copy, modify, merge, publish, distribute, sublicense, and/or sell
   9:../eurorack/plaits/dsp/drums/synthetic_snare_drum.h **** // copies of the Software, and to permit persons to whom the Software is
  10:../eurorack/plaits/dsp/drums/synthetic_snare_drum.h **** // furnished to do so, subject to the following conditions:
  11:../eurorack/plaits/dsp/drums/synthetic_snare_drum.h **** // 
  12:../eurorack/plaits/dsp/drums/synthetic_snare_drum.h **** // The above copyright notice and this permission notice shall be included in
  13:../eurorack/plaits/dsp/drums/synthetic_snare_drum.h **** // all copies or substantial portions of the Software.
  14:../eurorack/plaits/dsp/drums/synthetic_snare_drum.h **** // 
  15:../eurorack/plaits/dsp/drums/synthetic_snare_drum.h **** // THE SOFTWARE IS PROVIDED "AS IS", WITHOUT WARRANTY OF ANY KIND, EXPRESS OR
  16:../eurorack/plaits/dsp/drums/synthetic_snare_drum.h **** // IMPLIED, INCLUDING BUT NOT LIMITED TO THE WARRANTIES OF MERCHANTABILITY,
  17:../eurorack/plaits/dsp/drums/synthetic_snare_drum.h **** // FITNESS FOR A PARTICULAR PURPOSE AND NONINFRINGEMENT. IN NO EVENT SHALL THE
  18:../eurorack/plaits/dsp/drums/synthetic_snare_drum.h **** // AUTHORS OR COPYRIGHT HOLDERS BE LIABLE FOR ANY CLAIM, DAMAGES OR OTHER
  19:../eurorack/plaits/dsp/drums/synthetic_snare_drum.h **** // LIABILITY, WHETHER IN AN ACTION OF CONTRACT, TORT OR OTHERWISE, ARISING FROM,
  20:../eurorack/plaits/dsp/drums/synthetic_snare_drum.h **** // OUT OF OR IN CONNECTION WITH THE SOFTWARE OR THE USE OR OTHER DEALINGS IN
  21:../eurorack/plaits/dsp/drums/synthetic_snare_drum.h **** // THE SOFTWARE.
  22:../eurorack/plaits/dsp/drums/synthetic_snare_drum.h **** // 
  23:../eurorack/plaits/dsp/drums/synthetic_snare_drum.h **** // See http://creativecommons.org/licenses/MIT/ for more information.
  24:../eurorack/plaits/dsp/drums/synthetic_snare_drum.h **** //
  25:../eurorack/plaits/dsp/drums/synthetic_snare_drum.h **** // -----------------------------------------------------------------------------
  26:../eurorack/plaits/dsp/drums/synthetic_snare_drum.h **** //
  27:../eurorack/plaits/dsp/drums/synthetic_snare_drum.h **** // Naive snare drum model (two modulated oscillators + filtered noise).
  28:../eurorack/plaits/dsp/drums/synthetic_snare_drum.h **** // Uses a few magic numbers taken from the 909 schematics:
  29:../eurorack/plaits/dsp/drums/synthetic_snare_drum.h **** // - Ratio between the two modes of the drum set to 1.47.
ARM GAS  /var/folders/y7/g6pkzsp12sx54x3s3mvyn15r0000gn/T//ccWX7ODC.s 			page 14


  30:../eurorack/plaits/dsp/drums/synthetic_snare_drum.h **** // - Funky coupling between the two modes.
  31:../eurorack/plaits/dsp/drums/synthetic_snare_drum.h **** // - Noise coloration filters and envelope shapes for the snare.
  32:../eurorack/plaits/dsp/drums/synthetic_snare_drum.h **** 
  33:../eurorack/plaits/dsp/drums/synthetic_snare_drum.h **** #ifndef PLAITS_DSP_DRUMS_SYNTHETIC_SNARE_DRUM_H_
  34:../eurorack/plaits/dsp/drums/synthetic_snare_drum.h **** #define PLAITS_DSP_DRUMS_SYNTHETIC_SNARE_DRUM_H_
  35:../eurorack/plaits/dsp/drums/synthetic_snare_drum.h **** 
  36:../eurorack/plaits/dsp/drums/synthetic_snare_drum.h **** #include <algorithm>
  37:../eurorack/plaits/dsp/drums/synthetic_snare_drum.h **** 
  38:../eurorack/plaits/dsp/drums/synthetic_snare_drum.h **** #include "stmlib/dsp/dsp.h"
  39:../eurorack/plaits/dsp/drums/synthetic_snare_drum.h **** #include "stmlib/dsp/parameter_interpolator.h"
  40:../eurorack/plaits/dsp/drums/synthetic_snare_drum.h **** #include "stmlib/dsp/units.h"
  41:../eurorack/plaits/dsp/drums/synthetic_snare_drum.h **** 
  42:../eurorack/plaits/dsp/drums/synthetic_snare_drum.h **** #include "plaits/dsp/dsp.h"
  43:../eurorack/plaits/dsp/drums/synthetic_snare_drum.h **** 
  44:../eurorack/plaits/dsp/drums/synthetic_snare_drum.h **** namespace plaits {
  45:../eurorack/plaits/dsp/drums/synthetic_snare_drum.h **** 
  46:../eurorack/plaits/dsp/drums/synthetic_snare_drum.h **** class SyntheticSnareDrum {
  47:../eurorack/plaits/dsp/drums/synthetic_snare_drum.h ****  public:
  48:../eurorack/plaits/dsp/drums/synthetic_snare_drum.h ****   SyntheticSnareDrum() { }
  49:../eurorack/plaits/dsp/drums/synthetic_snare_drum.h ****   ~SyntheticSnareDrum() { }
  50:../eurorack/plaits/dsp/drums/synthetic_snare_drum.h **** 
  51:../eurorack/plaits/dsp/drums/synthetic_snare_drum.h ****   void Init() {
 237              		.loc 6 51 8 view .LVU58
 238              	.LBB104:
  52:../eurorack/plaits/dsp/drums/synthetic_snare_drum.h ****     phase_[0] = 0.0f;
 239              		.loc 6 52 5 view .LVU59
  53:../eurorack/plaits/dsp/drums/synthetic_snare_drum.h ****     phase_[1] = 0.0f;
  54:../eurorack/plaits/dsp/drums/synthetic_snare_drum.h ****     drum_amplitude_ = 0.0f;
  55:../eurorack/plaits/dsp/drums/synthetic_snare_drum.h ****     snare_amplitude_ = 0.0f;
  56:../eurorack/plaits/dsp/drums/synthetic_snare_drum.h ****     fm_ = 0.0f;
  57:../eurorack/plaits/dsp/drums/synthetic_snare_drum.h ****     hold_counter_ = 0;
 240              		.loc 6 57 19 is_stmt 0 view .LVU60
 241 0042 0023     		movs	r3, #0
 242              	.LBB105:
 243              	.LBB106:
 244              	.LBB107:
 140:../eurorack/stmlib/dsp/filter.h ****     gi_ = 1.0f / (1.0f + g_);
 245              		.loc 3 140 8 discriminator 1 view .LVU61
 246 0044 104A     		ldr	r2, .L9
 247              	.LBE107:
 248              	.LBE106:
 249              	.LBE105:
  58:../eurorack/plaits/dsp/drums/synthetic_snare_drum.h ****     sustain_gain_ = 0.0f;
  59:../eurorack/plaits/dsp/drums/synthetic_snare_drum.h **** 
  60:../eurorack/plaits/dsp/drums/synthetic_snare_drum.h ****     drum_lp_.Init();
  61:../eurorack/plaits/dsp/drums/synthetic_snare_drum.h ****     snare_hp_.Init();
  62:../eurorack/plaits/dsp/drums/synthetic_snare_drum.h ****     snare_lp_.Init();
 250              		.loc 6 62 19 view .LVU62
 251 0046 04F58870 		add	r0, r4, #272
  57:../eurorack/plaits/dsp/drums/synthetic_snare_drum.h ****     sustain_gain_ = 0.0f;
 252              		.loc 6 57 19 view .LVU63
 253 004a C4F8F430 		str	r3, [r4, #244]
 254              	.LBB114:
 255              	.LBB110:
 256              	.LBB108:
 141:../eurorack/stmlib/dsp/filter.h ****   }
 257              		.loc 3 141 9 view .LVU64
ARM GAS  /var/folders/y7/g6pkzsp12sx54x3s3mvyn15r0000gn/T//ccWX7ODC.s 			page 15


 258 004e 0F4B     		ldr	r3, .L9+4
 259              	.LBE108:
 260              	.LBE110:
 261              	.LBE114:
  52:../eurorack/plaits/dsp/drums/synthetic_snare_drum.h ****     phase_[1] = 0.0f;
 262              		.loc 6 52 15 view .LVU65
 263 0050 C4F8DC50 		str	r5, [r4, #220]	@ float
  53:../eurorack/plaits/dsp/drums/synthetic_snare_drum.h ****     drum_amplitude_ = 0.0f;
 264              		.loc 6 53 5 is_stmt 1 view .LVU66
  53:../eurorack/plaits/dsp/drums/synthetic_snare_drum.h ****     drum_amplitude_ = 0.0f;
 265              		.loc 6 53 15 is_stmt 0 view .LVU67
 266 0054 C4F8E050 		str	r5, [r4, #224]	@ float
  54:../eurorack/plaits/dsp/drums/synthetic_snare_drum.h ****     snare_amplitude_ = 0.0f;
 267              		.loc 6 54 5 is_stmt 1 view .LVU68
  54:../eurorack/plaits/dsp/drums/synthetic_snare_drum.h ****     snare_amplitude_ = 0.0f;
 268              		.loc 6 54 21 is_stmt 0 view .LVU69
 269 0058 C4F8E450 		str	r5, [r4, #228]	@ float
  55:../eurorack/plaits/dsp/drums/synthetic_snare_drum.h ****     fm_ = 0.0f;
 270              		.loc 6 55 5 is_stmt 1 view .LVU70
  55:../eurorack/plaits/dsp/drums/synthetic_snare_drum.h ****     fm_ = 0.0f;
 271              		.loc 6 55 22 is_stmt 0 view .LVU71
 272 005c C4F8E850 		str	r5, [r4, #232]	@ float
  56:../eurorack/plaits/dsp/drums/synthetic_snare_drum.h ****     hold_counter_ = 0;
 273              		.loc 6 56 5 is_stmt 1 view .LVU72
  56:../eurorack/plaits/dsp/drums/synthetic_snare_drum.h ****     hold_counter_ = 0;
 274              		.loc 6 56 9 is_stmt 0 view .LVU73
 275 0060 C4F8EC50 		str	r5, [r4, #236]	@ float
  57:../eurorack/plaits/dsp/drums/synthetic_snare_drum.h ****     sustain_gain_ = 0.0f;
 276              		.loc 6 57 5 is_stmt 1 view .LVU74
  58:../eurorack/plaits/dsp/drums/synthetic_snare_drum.h **** 
 277              		.loc 6 58 5 view .LVU75
  58:../eurorack/plaits/dsp/drums/synthetic_snare_drum.h **** 
 278              		.loc 6 58 19 is_stmt 0 view .LVU76
 279 0064 C4F8F050 		str	r5, [r4, #240]	@ float
  60:../eurorack/plaits/dsp/drums/synthetic_snare_drum.h ****     snare_hp_.Init();
 280              		.loc 6 60 5 is_stmt 1 view .LVU77
 281              	.LVL9:
 282              	.LBB115:
 283              	.LBI105:
  97:../eurorack/stmlib/dsp/filter.h ****     set_f<FREQUENCY_DIRTY>(0.01f);
 284              		.loc 3 97 8 view .LVU78
  98:../eurorack/stmlib/dsp/filter.h ****     Reset();
 285              		.loc 3 98 5 view .LVU79
 286              	.LBB111:
 287              	.LBI106:
 139:../eurorack/stmlib/dsp/filter.h ****     g_ = tan<approximation>(f);
 288              		.loc 3 139 15 view .LVU80
 289              	.LBB109:
 140:../eurorack/stmlib/dsp/filter.h ****     gi_ = 1.0f / (1.0f + g_);
 290              		.loc 3 140 8 is_stmt 0 discriminator 1 view .LVU81
 291 0068 C4F8F820 		str	r2, [r4, #248]	@ float
 141:../eurorack/stmlib/dsp/filter.h ****   }
 292              		.loc 3 141 9 view .LVU82
 293 006c C4F8FC30 		str	r3, [r4, #252]	@ float
 294              	.LVL10:
 141:../eurorack/stmlib/dsp/filter.h ****   }
 295              		.loc 3 141 9 view .LVU83
ARM GAS  /var/folders/y7/g6pkzsp12sx54x3s3mvyn15r0000gn/T//ccWX7ODC.s 			page 16


 296              	.LBE109:
 297              	.LBE111:
  99:../eurorack/stmlib/dsp/filter.h ****   }
 298              		.loc 3 99 5 is_stmt 1 view .LVU84
 299              	.LBB112:
 300              	.LBI112:
 102:../eurorack/stmlib/dsp/filter.h ****     state_ = 0.0f;
 301              		.loc 3 102 8 view .LVU85
 302              	.LBB113:
 103:../eurorack/stmlib/dsp/filter.h ****   }
 303              		.loc 3 103 5 view .LVU86
 103:../eurorack/stmlib/dsp/filter.h ****   }
 304              		.loc 3 103 12 is_stmt 0 view .LVU87
 305 0070 C4F80051 		str	r5, [r4, #256]	@ float
 306              	.LVL11:
 103:../eurorack/stmlib/dsp/filter.h ****   }
 307              		.loc 3 103 12 view .LVU88
 308              	.LBE113:
 309              	.LBE112:
 310              	.LBE115:
  61:../eurorack/plaits/dsp/drums/synthetic_snare_drum.h ****     snare_lp_.Init();
 311              		.loc 6 61 5 is_stmt 1 view .LVU89
 312              	.LBB116:
 313              	.LBI116:
  97:../eurorack/stmlib/dsp/filter.h ****     set_f<FREQUENCY_DIRTY>(0.01f);
 314              		.loc 3 97 8 view .LVU90
  98:../eurorack/stmlib/dsp/filter.h ****     Reset();
 315              		.loc 3 98 5 view .LVU91
 316              	.LBB117:
 317              	.LBI117:
 139:../eurorack/stmlib/dsp/filter.h ****     g_ = tan<approximation>(f);
 318              		.loc 3 139 15 view .LVU92
 319              	.LBB118:
 140:../eurorack/stmlib/dsp/filter.h ****     gi_ = 1.0f / (1.0f + g_);
 320              		.loc 3 140 8 is_stmt 0 discriminator 1 view .LVU93
 321 0074 C4F80421 		str	r2, [r4, #260]	@ float
 141:../eurorack/stmlib/dsp/filter.h ****   }
 322              		.loc 3 141 9 view .LVU94
 323 0078 C4F80831 		str	r3, [r4, #264]	@ float
 324              	.LVL12:
 141:../eurorack/stmlib/dsp/filter.h ****   }
 325              		.loc 3 141 9 view .LVU95
 326              	.LBE118:
 327              	.LBE117:
  99:../eurorack/stmlib/dsp/filter.h ****   }
 328              		.loc 3 99 5 is_stmt 1 view .LVU96
 329              	.LBB119:
 330              	.LBI119:
 102:../eurorack/stmlib/dsp/filter.h ****     state_ = 0.0f;
 331              		.loc 3 102 8 view .LVU97
 332              	.LBB120:
 103:../eurorack/stmlib/dsp/filter.h ****   }
 333              		.loc 3 103 5 view .LVU98
 103:../eurorack/stmlib/dsp/filter.h ****   }
 334              		.loc 3 103 12 is_stmt 0 view .LVU99
 335 007c C4F80C51 		str	r5, [r4, #268]	@ float
 336              	.LVL13:
ARM GAS  /var/folders/y7/g6pkzsp12sx54x3s3mvyn15r0000gn/T//ccWX7ODC.s 			page 17


 103:../eurorack/stmlib/dsp/filter.h ****   }
 337              		.loc 3 103 12 view .LVU100
 338              	.LBE120:
 339              	.LBE119:
 340              	.LBE116:
 341              		.loc 6 62 5 is_stmt 1 view .LVU101
 342              		.loc 6 62 19 is_stmt 0 view .LVU102
 343 0080 FFF7FEFF 		bl	_ZN6stmlib3Svf4InitEv
 344              	.LVL14:
 345              		.loc 6 62 19 view .LVU103
 346              	.LBE104:
 347              	.LBE103:
  41:../eurorack/plaits/dsp/engine/snare_drum_engine.cc **** 
 348              		.loc 1 41 1 view .LVU104
 349 0084 BDE8F081 		pop	{r4, r5, r6, r7, r8, pc}
 350              	.LVL15:
 351              	.L10:
  41:../eurorack/plaits/dsp/engine/snare_drum_engine.cc **** 
 352              		.loc 1 41 1 view .LVU105
 353              		.align	2
 354              	.L9:
 355 0088 22BA003D 		.word	1023457826
 356 008c 2033783F 		.word	1064842016
 357              		.cfi_endproc
 358              	.LFE1400:
 360              		.section	.text._ZN6stmlib16SemitonesToRatioEf,"axG",%progbits,_ZN6stmlib16SemitonesToRatioEf,comda
 361              		.align	1
 362              		.weak	_ZN6stmlib16SemitonesToRatioEf
 363              		.syntax unified
 364              		.thumb
 365              		.thumb_func
 367              	_ZN6stmlib16SemitonesToRatioEf:
 368              	.LVL16:
 369              	.LFB1310:
 370              		.file 7 "../eurorack/stmlib/dsp/units.h"
   1:../eurorack/stmlib/dsp/units.h **** // Copyright 2014 Emilie Gillet.
   2:../eurorack/stmlib/dsp/units.h **** //
   3:../eurorack/stmlib/dsp/units.h **** // Author: Emilie Gillet (emilie.o.gillet@gmail.com)
   4:../eurorack/stmlib/dsp/units.h **** //
   5:../eurorack/stmlib/dsp/units.h **** // Permission is hereby granted, free of charge, to any person obtaining a copy
   6:../eurorack/stmlib/dsp/units.h **** // of this software and associated documentation files (the "Software"), to deal
   7:../eurorack/stmlib/dsp/units.h **** // in the Software without restriction, including without limitation the rights
   8:../eurorack/stmlib/dsp/units.h **** // to use, copy, modify, merge, publish, distribute, sublicense, and/or sell
   9:../eurorack/stmlib/dsp/units.h **** // copies of the Software, and to permit persons to whom the Software is
  10:../eurorack/stmlib/dsp/units.h **** // furnished to do so, subject to the following conditions:
  11:../eurorack/stmlib/dsp/units.h **** // 
  12:../eurorack/stmlib/dsp/units.h **** // The above copyright notice and this permission notice shall be included in
  13:../eurorack/stmlib/dsp/units.h **** // all copies or substantial portions of the Software.
  14:../eurorack/stmlib/dsp/units.h **** // 
  15:../eurorack/stmlib/dsp/units.h **** // THE SOFTWARE IS PROVIDED "AS IS", WITHOUT WARRANTY OF ANY KIND, EXPRESS OR
  16:../eurorack/stmlib/dsp/units.h **** // IMPLIED, INCLUDING BUT NOT LIMITED TO THE WARRANTIES OF MERCHANTABILITY,
  17:../eurorack/stmlib/dsp/units.h **** // FITNESS FOR A PARTICULAR PURPOSE AND NONINFRINGEMENT. IN NO EVENT SHALL THE
  18:../eurorack/stmlib/dsp/units.h **** // AUTHORS OR COPYRIGHT HOLDERS BE LIABLE FOR ANY CLAIM, DAMAGES OR OTHER
  19:../eurorack/stmlib/dsp/units.h **** // LIABILITY, WHETHER IN AN ACTION OF CONTRACT, TORT OR OTHERWISE, ARISING FROM,
  20:../eurorack/stmlib/dsp/units.h **** // OUT OF OR IN CONNECTION WITH THE SOFTWARE OR THE USE OR OTHER DEALINGS IN
  21:../eurorack/stmlib/dsp/units.h **** // THE SOFTWARE.
  22:../eurorack/stmlib/dsp/units.h **** // 
ARM GAS  /var/folders/y7/g6pkzsp12sx54x3s3mvyn15r0000gn/T//ccWX7ODC.s 			page 18


  23:../eurorack/stmlib/dsp/units.h **** // See http://creativecommons.org/licenses/MIT/ for more information.
  24:../eurorack/stmlib/dsp/units.h **** //
  25:../eurorack/stmlib/dsp/units.h **** // -----------------------------------------------------------------------------
  26:../eurorack/stmlib/dsp/units.h **** //
  27:../eurorack/stmlib/dsp/units.h **** // Conversion from semitones to frequency ratio.
  28:../eurorack/stmlib/dsp/units.h **** 
  29:../eurorack/stmlib/dsp/units.h **** #ifndef STMLIB_DSP_UNITS_H_
  30:../eurorack/stmlib/dsp/units.h **** #define STMLIB_DSP_UNITS_H_
  31:../eurorack/stmlib/dsp/units.h **** 
  32:../eurorack/stmlib/dsp/units.h **** #include "stmlib/stmlib.h"
  33:../eurorack/stmlib/dsp/units.h **** #include "stmlib/dsp/dsp.h"
  34:../eurorack/stmlib/dsp/units.h **** 
  35:../eurorack/stmlib/dsp/units.h **** namespace stmlib {
  36:../eurorack/stmlib/dsp/units.h **** 
  37:../eurorack/stmlib/dsp/units.h **** extern const float lut_pitch_ratio_high[257];
  38:../eurorack/stmlib/dsp/units.h **** extern const float lut_pitch_ratio_low[257];
  39:../eurorack/stmlib/dsp/units.h **** 
  40:../eurorack/stmlib/dsp/units.h **** inline float SemitonesToRatio(float semitones) {
 371              		.loc 7 40 48 is_stmt 1 view -0
 372              		.cfi_startproc
 373              		@ args = 0, pretend = 0, frame = 0
 374              		@ frame_needed = 0, uses_anonymous_args = 0
 375              		@ link register save eliminated.
  41:../eurorack/stmlib/dsp/units.h ****   float pitch = semitones + 128.0f;
 376              		.loc 7 41 3 view .LVU107
 377              		.loc 7 41 9 is_stmt 0 view .LVU108
 378 0000 DFED0E7A 		vldr.32	s15, .L12
  42:../eurorack/stmlib/dsp/units.h ****   MAKE_INTEGRAL_FRACTIONAL(pitch)
  43:../eurorack/stmlib/dsp/units.h **** 
  44:../eurorack/stmlib/dsp/units.h ****   return lut_pitch_ratio_high[pitch_integral] * \
  45:../eurorack/stmlib/dsp/units.h ****       lut_pitch_ratio_low[static_cast<int32_t>(pitch_fractional * 256.0f)];
 379              		.loc 7 45 74 view .LVU109
 380 0004 0E4A     		ldr	r2, .L12+4
  41:../eurorack/stmlib/dsp/units.h ****   float pitch = semitones + 128.0f;
 381              		.loc 7 41 9 view .LVU110
 382 0006 30EE270A 		vadd.f32	s0, s0, s15
 383              	.LVL17:
  42:../eurorack/stmlib/dsp/units.h ****   MAKE_INTEGRAL_FRACTIONAL(pitch)
 384              		.loc 7 42 3 is_stmt 1 view .LVU111
 385 000a FDEEC07A 		vcvt.s32.f32	s15, s0
 386              	.LVL18:
  42:../eurorack/stmlib/dsp/units.h ****   MAKE_INTEGRAL_FRACTIONAL(pitch)
 387              		.loc 7 42 3 view .LVU112
  44:../eurorack/stmlib/dsp/units.h ****       lut_pitch_ratio_low[static_cast<int32_t>(pitch_fractional * 256.0f)];
 388              		.loc 7 44 3 view .LVU113
  42:../eurorack/stmlib/dsp/units.h ****   MAKE_INTEGRAL_FRACTIONAL(pitch)
 389              		.loc 7 42 3 is_stmt 0 view .LVU114
 390 000e B8EEE77A 		vcvt.f32.s32	s14, s15
  44:../eurorack/stmlib/dsp/units.h ****       lut_pitch_ratio_low[static_cast<int32_t>(pitch_fractional * 256.0f)];
 391              		.loc 7 44 45 view .LVU115
 392 0012 17EE901A 		vmov	r1, s15	@ int
  42:../eurorack/stmlib/dsp/units.h ****   MAKE_INTEGRAL_FRACTIONAL(pitch)
 393              		.loc 7 42 3 view .LVU116
 394 0016 30EE470A 		vsub.f32	s0, s0, s14
 395              	.LVL19:
 396              		.loc 7 45 27 view .LVU117
 397 001a BEEECC0A 		vcvt.s32.f32	s0, s0, #8
ARM GAS  /var/folders/y7/g6pkzsp12sx54x3s3mvyn15r0000gn/T//ccWX7ODC.s 			page 19


 398              	.LVL20:
 399              		.loc 7 45 74 view .LVU118
 400 001e 10EE103A 		vmov	r3, s0	@ int
 401 0022 02EB8302 		add	r2, r2, r3, lsl #2
  44:../eurorack/stmlib/dsp/units.h ****       lut_pitch_ratio_low[static_cast<int32_t>(pitch_fractional * 256.0f)];
 402              		.loc 7 44 45 view .LVU119
 403 0026 074B     		ldr	r3, .L12+8
 404 0028 03EB8103 		add	r3, r3, r1, lsl #2
 405              		.loc 7 45 74 view .LVU120
 406 002c 92ED000A 		vldr.32	s0, [r2]
 407 0030 D3ED007A 		vldr.32	s15, [r3]
 408              	.LVL21:
  46:../eurorack/stmlib/dsp/units.h **** }
 409              		.loc 7 46 1 view .LVU121
 410 0034 20EE270A 		vmul.f32	s0, s0, s15
 411 0038 7047     		bx	lr
 412              	.L13:
 413 003a 00BF     		.align	2
 414              	.L12:
 415 003c 00000043 		.word	1124073472
 416 0040 00000000 		.word	_ZN6stmlib19lut_pitch_ratio_lowE
 417 0044 00000000 		.word	_ZN6stmlib20lut_pitch_ratio_highE
 418              		.cfi_endproc
 419              	.LFE1310:
 421              		.section	.text._ZN6stmlib6Random8GetFloatEv,"axG",%progbits,_ZN6stmlib6Random8GetFloatEv,comdat
 422              		.align	1
 423              		.weak	_ZN6stmlib6Random8GetFloatEv
 424              		.syntax unified
 425              		.thumb
 426              		.thumb_func
 428              	_ZN6stmlib6Random8GetFloatEv:
 429              	.LFB1317:
 430              		.file 8 "../eurorack/stmlib/utils/random.h"
   1:../eurorack/stmlib/utils/random.h **** // Copyright 2012 Emilie Gillet.
   2:../eurorack/stmlib/utils/random.h **** //
   3:../eurorack/stmlib/utils/random.h **** // Author: Emilie Gillet (emilie.o.gillet@gmail.com)
   4:../eurorack/stmlib/utils/random.h **** //
   5:../eurorack/stmlib/utils/random.h **** // Permission is hereby granted, free of charge, to any person obtaining a copy
   6:../eurorack/stmlib/utils/random.h **** // of this software and associated documentation files (the "Software"), to deal
   7:../eurorack/stmlib/utils/random.h **** // in the Software without restriction, including without limitation the rights
   8:../eurorack/stmlib/utils/random.h **** // to use, copy, modify, merge, publish, distribute, sublicense, and/or sell
   9:../eurorack/stmlib/utils/random.h **** // copies of the Software, and to permit persons to whom the Software is
  10:../eurorack/stmlib/utils/random.h **** // furnished to do so, subject to the following conditions:
  11:../eurorack/stmlib/utils/random.h **** // 
  12:../eurorack/stmlib/utils/random.h **** // The above copyright notice and this permission notice shall be included in
  13:../eurorack/stmlib/utils/random.h **** // all copies or substantial portions of the Software.
  14:../eurorack/stmlib/utils/random.h **** // 
  15:../eurorack/stmlib/utils/random.h **** // THE SOFTWARE IS PROVIDED "AS IS", WITHOUT WARRANTY OF ANY KIND, EXPRESS OR
  16:../eurorack/stmlib/utils/random.h **** // IMPLIED, INCLUDING BUT NOT LIMITED TO THE WARRANTIES OF MERCHANTABILITY,
  17:../eurorack/stmlib/utils/random.h **** // FITNESS FOR A PARTICULAR PURPOSE AND NONINFRINGEMENT. IN NO EVENT SHALL THE
  18:../eurorack/stmlib/utils/random.h **** // AUTHORS OR COPYRIGHT HOLDERS BE LIABLE FOR ANY CLAIM, DAMAGES OR OTHER
  19:../eurorack/stmlib/utils/random.h **** // LIABILITY, WHETHER IN AN ACTION OF CONTRACT, TORT OR OTHERWISE, ARISING FROM,
  20:../eurorack/stmlib/utils/random.h **** // OUT OF OR IN CONNECTION WITH THE SOFTWARE OR THE USE OR OTHER DEALINGS IN
  21:../eurorack/stmlib/utils/random.h **** // THE SOFTWARE.
  22:../eurorack/stmlib/utils/random.h **** // 
  23:../eurorack/stmlib/utils/random.h **** // See http://creativecommons.org/licenses/MIT/ for more information.
  24:../eurorack/stmlib/utils/random.h **** //
ARM GAS  /var/folders/y7/g6pkzsp12sx54x3s3mvyn15r0000gn/T//ccWX7ODC.s 			page 20


  25:../eurorack/stmlib/utils/random.h **** // -----------------------------------------------------------------------------
  26:../eurorack/stmlib/utils/random.h **** //
  27:../eurorack/stmlib/utils/random.h **** // Fast 16-bit pseudo random number generator.
  28:../eurorack/stmlib/utils/random.h **** 
  29:../eurorack/stmlib/utils/random.h **** #ifndef STMLIB_UTILS_RANDOM_H_
  30:../eurorack/stmlib/utils/random.h **** #define STMLIB_UTILS_RANDOM_H_
  31:../eurorack/stmlib/utils/random.h **** 
  32:../eurorack/stmlib/utils/random.h **** #include "stmlib/stmlib.h"
  33:../eurorack/stmlib/utils/random.h **** 
  34:../eurorack/stmlib/utils/random.h **** namespace stmlib {
  35:../eurorack/stmlib/utils/random.h **** 
  36:../eurorack/stmlib/utils/random.h **** class Random {
  37:../eurorack/stmlib/utils/random.h ****  public:
  38:../eurorack/stmlib/utils/random.h ****   static inline uint32_t state() { return rng_state_; }
  39:../eurorack/stmlib/utils/random.h **** 
  40:../eurorack/stmlib/utils/random.h ****   static inline void Seed(uint32_t seed) {
  41:../eurorack/stmlib/utils/random.h ****     rng_state_ = seed;
  42:../eurorack/stmlib/utils/random.h ****   }
  43:../eurorack/stmlib/utils/random.h **** 
  44:../eurorack/stmlib/utils/random.h ****   static inline uint32_t GetWord() {
  45:../eurorack/stmlib/utils/random.h ****     rng_state_ = rng_state_ * 1664525L + 1013904223L;
  46:../eurorack/stmlib/utils/random.h ****     return state();
  47:../eurorack/stmlib/utils/random.h ****   }
  48:../eurorack/stmlib/utils/random.h ****   
  49:../eurorack/stmlib/utils/random.h ****   static inline int16_t GetSample() {
  50:../eurorack/stmlib/utils/random.h ****     return static_cast<int16_t>(GetWord() >> 16);
  51:../eurorack/stmlib/utils/random.h ****   }
  52:../eurorack/stmlib/utils/random.h **** 
  53:../eurorack/stmlib/utils/random.h ****   static inline float GetFloat() {
 431              		.loc 8 53 23 is_stmt 1 view -0
 432              		.cfi_startproc
 433              		@ args = 0, pretend = 0, frame = 0
 434              		@ frame_needed = 0, uses_anonymous_args = 0
 435              		@ link register save eliminated.
  54:../eurorack/stmlib/utils/random.h ****     return static_cast<float>(GetWord()) / 4294967296.0f;
 436              		.loc 8 54 5 view .LVU123
 437              	.LBB123:
 438              	.LBI123:
  44:../eurorack/stmlib/utils/random.h ****     rng_state_ = rng_state_ * 1664525L + 1013904223L;
 439              		.loc 8 44 26 view .LVU124
 440              	.LBB124:
  45:../eurorack/stmlib/utils/random.h ****     return state();
 441              		.loc 8 45 5 view .LVU125
  45:../eurorack/stmlib/utils/random.h ****     return state();
 442              		.loc 8 45 29 is_stmt 0 view .LVU126
 443 0000 074A     		ldr	r2, .L15
  45:../eurorack/stmlib/utils/random.h ****     return state();
 444              		.loc 8 45 40 view .LVU127
 445 0002 0848     		ldr	r0, .L15+4
  45:../eurorack/stmlib/utils/random.h ****     return state();
 446              		.loc 8 45 29 view .LVU128
 447 0004 1168     		ldr	r1, [r2]
  45:../eurorack/stmlib/utils/random.h ****     return state();
 448              		.loc 8 45 40 view .LVU129
 449 0006 084B     		ldr	r3, .L15+8
 450 0008 00FB0133 		mla	r3, r0, r1, r3
 451              	.LBE124:
ARM GAS  /var/folders/y7/g6pkzsp12sx54x3s3mvyn15r0000gn/T//ccWX7ODC.s 			page 21


 452              	.LBE123:
 453              		.loc 8 54 12 discriminator 1 view .LVU130
 454 000c 07EE903A 		vmov	s15, r3	@ int
 455              	.LBB126:
 456              	.LBB125:
  45:../eurorack/stmlib/utils/random.h ****     return state();
 457              		.loc 8 45 16 view .LVU131
 458 0010 1360     		str	r3, [r2]
  46:../eurorack/stmlib/utils/random.h ****   }
 459              		.loc 8 46 5 is_stmt 1 view .LVU132
 460              	.LBE125:
 461              	.LBE126:
 462              		.loc 8 54 12 is_stmt 0 discriminator 1 view .LVU133
 463 0012 B8EE670A 		vcvt.f32.u32	s0, s15
  55:../eurorack/stmlib/utils/random.h ****   }
 464              		.loc 8 55 3 view .LVU134
 465 0016 DFED057A 		vldr.32	s15, .L15+12
 466 001a 20EE270A 		vmul.f32	s0, s0, s15
 467 001e 7047     		bx	lr
 468              	.L16:
 469              		.align	2
 470              	.L15:
 471 0020 00000000 		.word	_ZN6stmlib6Random10rng_state_E
 472 0024 0D661900 		.word	1664525
 473 0028 5FF36E3C 		.word	1013904223
 474 002c 0000802F 		.word	796917760
 475              		.cfi_endproc
 476              	.LFE1317:
 478              		.section	.text._ZN6stmlib3Svf7set_f_qILNS_22FrequencyApproximationE2EEEvff,"axG",%progbits,_ZN6stm
 479              		.align	1
 480              		.weak	_ZN6stmlib3Svf7set_f_qILNS_22FrequencyApproximationE2EEEvff
 481              		.syntax unified
 482              		.thumb
 483              		.thumb_func
 485              	_ZN6stmlib3Svf7set_f_qILNS_22FrequencyApproximationE2EEEvff:
 486              	.LVL22:
 487              	.LFB1415:
 223:../eurorack/stmlib/dsp/filter.h ****     g_ = OnePole::tan<approximation>(f);
 488              		.loc 3 223 15 is_stmt 1 view -0
 489              		.cfi_startproc
 490              		@ args = 0, pretend = 0, frame = 0
 491              		@ frame_needed = 0, uses_anonymous_args = 0
 492              		@ link register save eliminated.
 493              	.LBB130:
 494              	.LBI130:
 107:../eurorack/stmlib/dsp/filter.h ****     if (approximation == FREQUENCY_EXACT) {
 495              		.loc 3 107 23 view .LVU136
 496              	.LBB131:
 122:../eurorack/stmlib/dsp/filter.h ****       return f * (M_PI_F + f2 * (a + b * f2));
 497              		.loc 3 122 13 is_stmt 0 view .LVU137
 498 0000 60EE006A 		vmul.f32	s13, s0, s0
 499              	.LVL23:
 123:../eurorack/stmlib/dsp/filter.h ****     } else if (approximation == FREQUENCY_ACCURATE) {
 500              		.loc 3 123 36 view .LVU138
 501 0004 DFED0F7A 		vldr.32	s15, .L18
 502 0008 9FED0F7A 		vldr.32	s14, .L18+4
 503 000c A6EEA77A 		vfma.f32	s14, s13, s15
ARM GAS  /var/folders/y7/g6pkzsp12sx54x3s3mvyn15r0000gn/T//ccWX7ODC.s 			page 22


 123:../eurorack/stmlib/dsp/filter.h ****     } else if (approximation == FREQUENCY_ACCURATE) {
 504              		.loc 3 123 26 view .LVU139
 505 0010 DFED0E7A 		vldr.32	s15, .L18+8
 506 0014 E6EE877A 		vfma.f32	s15, s13, s14
 507              	.LBE131:
 508              	.LBE130:
 225:../eurorack/stmlib/dsp/filter.h ****     h_ = 1.0f / (1.0f + r_ * g_ + g_ * g_);
 509              		.loc 3 225 15 view .LVU140
 510 0018 B7EE007A 		vmov.f32	s14, #1.0e+0
 511 001c C7EE206A 		vdiv.f32	s13, s14, s1
 512              	.LVL24:
 513              	.LBB133:
 514              	.LBB132:
 123:../eurorack/stmlib/dsp/filter.h ****     } else if (approximation == FREQUENCY_ACCURATE) {
 515              		.loc 3 123 45 view .LVU141
 516 0020 20EE270A 		vmul.f32	s0, s0, s15
 517              	.LVL25:
 123:../eurorack/stmlib/dsp/filter.h ****     } else if (approximation == FREQUENCY_ACCURATE) {
 518              		.loc 3 123 45 view .LVU142
 519              	.LBE132:
 520              	.LBE133:
 521              		.loc 3 226 23 view .LVU143
 522 0024 F0EE477A 		vmov.f32	s15, s14
 224:../eurorack/stmlib/dsp/filter.h ****     r_ = 1.0f / resonance;
 523              		.loc 3 224 8 discriminator 1 view .LVU144
 524 0028 80ED000A 		vstr.32	s0, [r0]
 525              		.loc 3 226 23 view .LVU145
 526 002c E6EE807A 		vfma.f32	s15, s13, s0
 225:../eurorack/stmlib/dsp/filter.h ****     h_ = 1.0f / (1.0f + r_ * g_ + g_ * g_);
 527              		.loc 3 225 8 view .LVU146
 528 0030 C0ED016A 		vstr.32	s13, [r0, #4]
 529              		.loc 3 226 33 view .LVU147
 530 0034 E0EE007A 		vfma.f32	s15, s0, s0
 531              		.loc 3 226 15 view .LVU148
 532 0038 C7EE276A 		vdiv.f32	s13, s14, s15
 533              		.loc 3 226 8 view .LVU149
 534 003c C0ED026A 		vstr.32	s13, [r0, #8]
 227:../eurorack/stmlib/dsp/filter.h ****   }
 535              		.loc 3 227 3 view .LVU150
 536 0040 7047     		bx	lr
 537              	.L19:
 538 0042 00BF     		.align	2
 539              	.L18:
 540 0044 49265F42 		.word	1113531977
 541 0048 8FBA2141 		.word	1092729487
 542 004c DB0F4940 		.word	1078530011
 543              		.cfi_endproc
 544              	.LFE1415:
 546              		.section	.text._ZN6stmlib3Svf7ProcessILNS_10FilterModeE1EEEff,"axG",%progbits,_ZN6stmlib3Svf7Proce
 547              		.align	1
 548              		.weak	_ZN6stmlib3Svf7ProcessILNS_10FilterModeE1EEEff
 549              		.syntax unified
 550              		.thumb
 551              		.thumb_func
 553              	_ZN6stmlib3Svf7ProcessILNS_10FilterModeE1EEEff:
 554              	.LVL26:
 555              	.LFB1417:
ARM GAS  /var/folders/y7/g6pkzsp12sx54x3s3mvyn15r0000gn/T//ccWX7ODC.s 			page 23


 228:../eurorack/stmlib/dsp/filter.h ****   
 229:../eurorack/stmlib/dsp/filter.h ****   template<FilterMode mode>
 230:../eurorack/stmlib/dsp/filter.h ****   inline float Process(float in) {
 556              		.loc 3 230 16 is_stmt 1 view -0
 557              		.cfi_startproc
 558              		@ args = 0, pretend = 0, frame = 0
 559              		@ frame_needed = 0, uses_anonymous_args = 0
 560              		@ link register save eliminated.
 561              		.loc 3 230 16 is_stmt 0 view .LVU152
 562 0000 F0EE407A 		vmov.f32	s15, s0
 231:../eurorack/stmlib/dsp/filter.h ****     float hp, bp, lp;
 232:../eurorack/stmlib/dsp/filter.h ****     hp = (in - r_ * state_1_ - g_ * state_1_ - state_2_) * h_;
 563              		.loc 3 232 14 view .LVU153
 564 0004 90ED017A 		vldr.32	s14, [r0, #4]
 565              		.loc 3 232 21 view .LVU154
 566 0008 90ED030A 		vldr.32	s0, [r0, #12]
 567              	.LVL27:
 568              		.loc 3 232 32 view .LVU155
 569 000c D0ED006A 		vldr.32	s13, [r0]
 570              		.loc 3 232 14 view .LVU156
 571 0010 E7EE407A 		vfms.f32	s15, s14, s0
 572              	.LVL28:
 573              		.loc 3 232 48 view .LVU157
 574 0014 90ED047A 		vldr.32	s14, [r0, #16]
 575              		.loc 3 232 8 view .LVU158
 576 0018 90ED026A 		vldr.32	s12, [r0, #8]
 577              		.loc 3 232 30 view .LVU159
 578 001c E0EE667A 		vfms.f32	s15, s0, s13
 579              		.loc 3 232 46 view .LVU160
 580 0020 77EEC77A 		vsub.f32	s15, s15, s14
 581              		.loc 3 232 8 view .LVU161
 582 0024 67EE867A 		vmul.f32	s15, s15, s12
 583              	.LVL29:
 233:../eurorack/stmlib/dsp/filter.h ****     bp = g_ * hp + state_1_;
 584              		.loc 3 233 8 view .LVU162
 585 0028 A6EEA70A 		vfma.f32	s0, s13, s15
 586              	.LVL30:
 234:../eurorack/stmlib/dsp/filter.h ****     state_1_ = g_ * hp + bp;
 235:../eurorack/stmlib/dsp/filter.h ****     lp = g_ * bp + state_2_;
 587              		.loc 3 235 8 view .LVU163
 588 002c A6EE807A 		vfma.f32	s14, s13, s0
 589              	.LVL31:
 234:../eurorack/stmlib/dsp/filter.h ****     state_1_ = g_ * hp + bp;
 590              		.loc 3 234 24 view .LVU164
 591 0030 B0EE406A 		vmov.f32	s12, s0
 592 0034 A6EEA76A 		vfma.f32	s12, s13, s15
 236:../eurorack/stmlib/dsp/filter.h ****     state_2_ = g_ * bp + lp;
 593              		.loc 3 236 24 view .LVU165
 594 0038 A6EE807A 		vfma.f32	s14, s13, s0
 595              	.LVL32:
 234:../eurorack/stmlib/dsp/filter.h ****     state_1_ = g_ * hp + bp;
 596              		.loc 3 234 14 view .LVU166
 597 003c 80ED036A 		vstr.32	s12, [r0, #12]
 598              		.loc 3 236 14 view .LVU167
 599 0040 80ED047A 		vstr.32	s14, [r0, #16]
 600              	.LVL33:
 237:../eurorack/stmlib/dsp/filter.h ****     
ARM GAS  /var/folders/y7/g6pkzsp12sx54x3s3mvyn15r0000gn/T//ccWX7ODC.s 			page 24


 238:../eurorack/stmlib/dsp/filter.h ****     if (mode == FILTER_MODE_LOW_PASS) {
 239:../eurorack/stmlib/dsp/filter.h ****       return lp;
 240:../eurorack/stmlib/dsp/filter.h ****     } else if (mode == FILTER_MODE_BAND_PASS) {
 241:../eurorack/stmlib/dsp/filter.h ****       return bp;
 242:../eurorack/stmlib/dsp/filter.h ****     } else if (mode == FILTER_MODE_BAND_PASS_NORMALIZED) {
 243:../eurorack/stmlib/dsp/filter.h ****       return bp * r_;
 244:../eurorack/stmlib/dsp/filter.h ****     } else if (mode == FILTER_MODE_HIGH_PASS) {
 245:../eurorack/stmlib/dsp/filter.h ****       return hp;
 246:../eurorack/stmlib/dsp/filter.h ****     }
 247:../eurorack/stmlib/dsp/filter.h ****   }
 601              		.loc 3 247 3 view .LVU168
 602 0044 7047     		bx	lr
 603              		.cfi_endproc
 604              	.LFE1417:
 606              		.section	.text._ZN6plaits15AnalogSnareDrum6RenderEbbfffffPfj,"axG",%progbits,_ZN6plaits15AnalogSna
 607              		.align	1
 608              		.weak	_ZN6plaits15AnalogSnareDrum6RenderEbbfffffPfj
 609              		.syntax unified
 610              		.thumb
 611              		.thumb_func
 613              	_ZN6plaits15AnalogSnareDrum6RenderEbbfffffPfj:
 614              	.LVL34:
 615              	.LFB1356:
  65:../eurorack/plaits/dsp/drums/analog_snare_drum.h ****   }
  66:../eurorack/plaits/dsp/drums/analog_snare_drum.h ****   
  67:../eurorack/plaits/dsp/drums/analog_snare_drum.h ****   void Render(
 616              		.loc 4 67 8 is_stmt 1 view -0
 617              		.cfi_startproc
 618              		@ args = 4, pretend = 0, frame = 48
 619              		@ frame_needed = 0, uses_anonymous_args = 0
  68:../eurorack/plaits/dsp/drums/analog_snare_drum.h ****       bool sustain,
  69:../eurorack/plaits/dsp/drums/analog_snare_drum.h ****       bool trigger,
  70:../eurorack/plaits/dsp/drums/analog_snare_drum.h ****       float accent,
  71:../eurorack/plaits/dsp/drums/analog_snare_drum.h ****       float f0,
  72:../eurorack/plaits/dsp/drums/analog_snare_drum.h ****       float tone,
  73:../eurorack/plaits/dsp/drums/analog_snare_drum.h ****       float decay,
  74:../eurorack/plaits/dsp/drums/analog_snare_drum.h ****       float snappy,
  75:../eurorack/plaits/dsp/drums/analog_snare_drum.h ****       float* out,
  76:../eurorack/plaits/dsp/drums/analog_snare_drum.h ****       size_t size) {
  77:../eurorack/plaits/dsp/drums/analog_snare_drum.h ****     const float decay_xt = decay * (1.0f + decay * (decay - 1.0f));
 620              		.loc 4 77 5 view .LVU170
  67:../eurorack/plaits/dsp/drums/analog_snare_drum.h ****       bool sustain,
 621              		.loc 4 67 8 is_stmt 0 view .LVU171
 622 0000 2DE9F04F 		push	{r4, r5, r6, r7, r8, r9, r10, fp, lr}
 623              		.cfi_def_cfa_offset 36
 624              		.cfi_offset 4, -36
 625              		.cfi_offset 5, -32
 626              		.cfi_offset 6, -28
 627              		.cfi_offset 7, -24
 628              		.cfi_offset 8, -20
 629              		.cfi_offset 9, -16
 630              		.cfi_offset 10, -12
 631              		.cfi_offset 11, -8
 632              		.cfi_offset 14, -4
 633 0004 2DED0C8B 		vpush.64	{d8, d9, d10, d11, d12, d13}
 634              		.cfi_def_cfa_offset 84
 635              		.cfi_offset 80, -84
ARM GAS  /var/folders/y7/g6pkzsp12sx54x3s3mvyn15r0000gn/T//ccWX7ODC.s 			page 25


 636              		.cfi_offset 81, -80
 637              		.cfi_offset 82, -76
 638              		.cfi_offset 83, -72
 639              		.cfi_offset 84, -68
 640              		.cfi_offset 85, -64
 641              		.cfi_offset 86, -60
 642              		.cfi_offset 87, -56
 643              		.cfi_offset 88, -52
 644              		.cfi_offset 89, -48
 645              		.cfi_offset 90, -44
 646              		.cfi_offset 91, -40
 647              		.loc 4 77 59 view .LVU172
 648 0008 F7EE00BA 		vmov.f32	s23, #1.0e+0
  67:../eurorack/plaits/dsp/drums/analog_snare_drum.h ****       bool sustain,
 649              		.loc 4 67 8 view .LVU173
 650 000c 8DB0     		sub	sp, sp, #52
 651              		.cfi_def_cfa_offset 136
  67:../eurorack/plaits/dsp/drums/analog_snare_drum.h ****       bool sustain,
 652              		.loc 4 67 8 view .LVU174
 653 000e B0EE40DA 		vmov.f32	s26, s0
  78:../eurorack/plaits/dsp/drums/analog_snare_drum.h ****     const int kTriggerPulseDuration = 1.0e-3f * kSampleRate;
  79:../eurorack/plaits/dsp/drums/analog_snare_drum.h ****     const float kPulseDecayTime = 0.1e-3f * kSampleRate;
  80:../eurorack/plaits/dsp/drums/analog_snare_drum.h ****     const float q = 2000.0f * stmlib::SemitonesToRatio(decay_xt * 84.0f);
 654              		.loc 4 80 55 view .LVU175
 655 0012 9FEDE40A 		vldr.32	s0, .L58
 656              	.LVL35:
  67:../eurorack/plaits/dsp/drums/analog_snare_drum.h ****       bool sustain,
 657              		.loc 4 67 8 view .LVU176
 658 0016 F0EE429A 		vmov.f32	s19, s4
 659 001a 0446     		mov	r4, r0
  77:../eurorack/plaits/dsp/drums/analog_snare_drum.h ****     const int kTriggerPulseDuration = 1.0e-3f * kSampleRate;
 660              		.loc 4 77 59 view .LVU177
 661 001c 31EEEB7A 		vsub.f32	s14, s3, s23
  67:../eurorack/plaits/dsp/drums/analog_snare_drum.h ****       bool sustain,
 662              		.loc 4 67 8 view .LVU178
 663 0020 0E46     		mov	r6, r1
  77:../eurorack/plaits/dsp/drums/analog_snare_drum.h ****     const int kTriggerPulseDuration = 1.0e-3f * kSampleRate;
 664              		.loc 4 77 42 view .LVU179
 665 0022 F0EE6B7A 		vmov.f32	s15, s23
  67:../eurorack/plaits/dsp/drums/analog_snare_drum.h ****       bool sustain,
 666              		.loc 4 67 8 view .LVU180
 667 0026 1546     		mov	r5, r2
 668 0028 F0EE61CA 		vmov.f32	s25, s3
 669 002c 1F46     		mov	r7, r3
 670 002e B0EE60CA 		vmov.f32	s24, s1
  81:../eurorack/plaits/dsp/drums/analog_snare_drum.h ****     const float noise_envelope_decay = 1.0f - 0.0017f * \
  82:../eurorack/plaits/dsp/drums/analog_snare_drum.h ****         stmlib::SemitonesToRatio(-decay * (50.0f + snappy * 10.0f));
  83:../eurorack/plaits/dsp/drums/analog_snare_drum.h ****     const float exciter_leak = snappy * (2.0f - snappy) * 0.1f;
  84:../eurorack/plaits/dsp/drums/analog_snare_drum.h ****     
  85:../eurorack/plaits/dsp/drums/analog_snare_drum.h ****     snappy = snappy * 1.1f - 0.05f;
 671              		.loc 4 85 12 view .LVU181
 672 0032 DFEDDD8A 		vldr.32	s17, .L58+4
  77:../eurorack/plaits/dsp/drums/analog_snare_drum.h ****     const int kTriggerPulseDuration = 1.0e-3f * kSampleRate;
 673              		.loc 4 77 42 view .LVU182
 674 0036 E7EE217A 		vfma.f32	s15, s14, s3
 675              	.LVL36:
  78:../eurorack/plaits/dsp/drums/analog_snare_drum.h ****     const float kPulseDecayTime = 0.1e-3f * kSampleRate;
ARM GAS  /var/folders/y7/g6pkzsp12sx54x3s3mvyn15r0000gn/T//ccWX7ODC.s 			page 26


 676              		.loc 4 78 5 is_stmt 1 view .LVU183
  79:../eurorack/plaits/dsp/drums/analog_snare_drum.h ****     const float q = 2000.0f * stmlib::SemitonesToRatio(decay_xt * 84.0f);
 677              		.loc 4 79 5 view .LVU184
  80:../eurorack/plaits/dsp/drums/analog_snare_drum.h ****     const float noise_envelope_decay = 1.0f - 0.0017f * \
 678              		.loc 4 80 5 view .LVU185
  67:../eurorack/plaits/dsp/drums/analog_snare_drum.h ****       bool sustain,
 679              		.loc 4 67 8 is_stmt 0 view .LVU186
 680 003a B0EE418A 		vmov.f32	s16, s2
  83:../eurorack/plaits/dsp/drums/analog_snare_drum.h ****     
 681              		.loc 4 83 47 view .LVU187
 682 003e B0EE00AA 		vmov.f32	s20, #2.0e+0
  82:../eurorack/plaits/dsp/drums/analog_snare_drum.h ****     const float exciter_leak = snappy * (2.0f - snappy) * 0.1f;
 683              		.loc 4 82 67 view .LVU188
 684 0042 F0EE6BAA 		vmov.f32	s21, s23
  83:../eurorack/plaits/dsp/drums/analog_snare_drum.h ****     
 685              		.loc 4 83 47 view .LVU189
 686 0046 3AEE699A 		vsub.f32	s18, s20, s19
  77:../eurorack/plaits/dsp/drums/analog_snare_drum.h ****     const int kTriggerPulseDuration = 1.0e-3f * kSampleRate;
 687              		.loc 4 77 17 view .LVU190
 688 004a 67EEA17A 		vmul.f32	s15, s15, s3
 689              	.LVL37:
  83:../eurorack/plaits/dsp/drums/analog_snare_drum.h ****     
 690              		.loc 4 83 39 view .LVU191
 691 004e 29EE299A 		vmul.f32	s18, s18, s19
  80:../eurorack/plaits/dsp/drums/analog_snare_drum.h ****     const float noise_envelope_decay = 1.0f - 0.0017f * \
 692              		.loc 4 80 55 view .LVU192
 693 0052 27EE800A 		vmul.f32	s0, s15, s0
 694 0056 FFF7FEFF 		bl	_ZN6stmlib16SemitonesToRatioEf
 695              	.LVL38:
  80:../eurorack/plaits/dsp/drums/analog_snare_drum.h ****     const float noise_envelope_decay = 1.0f - 0.0017f * \
 696              		.loc 4 80 72 discriminator 1 view .LVU193
 697 005a DFEDD47A 		vldr.32	s15, .L58+8
 698 005e 60EE27DA 		vmul.f32	s27, s0, s15
 699              	.LVL39:
  81:../eurorack/plaits/dsp/drums/analog_snare_drum.h ****         stmlib::SemitonesToRatio(-decay * (50.0f + snappy * 10.0f));
 700              		.loc 4 81 5 is_stmt 1 view .LVU194
  82:../eurorack/plaits/dsp/drums/analog_snare_drum.h ****     const float exciter_leak = snappy * (2.0f - snappy) * 0.1f;
 701              		.loc 4 82 50 is_stmt 0 view .LVU195
 702 0062 9FEDD30A 		vldr.32	s0, .L58+12
 703 0066 F2EE047A 		vmov.f32	s15, #1.0e+1
 704 006a A9EEA70A 		vfma.f32	s0, s19, s15
  82:../eurorack/plaits/dsp/drums/analog_snare_drum.h ****     const float exciter_leak = snappy * (2.0f - snappy) * 0.1f;
 705              		.loc 4 82 33 view .LVU196
 706 006e 2CEEC00A 		vnmul.f32	s0, s25, s0
 707 0072 FFF7FEFF 		bl	_ZN6stmlib16SemitonesToRatioEf
 708              	.LVL40:
  82:../eurorack/plaits/dsp/drums/analog_snare_drum.h ****     const float exciter_leak = snappy * (2.0f - snappy) * 0.1f;
 709              		.loc 4 82 67 view .LVU197
 710 0076 DFEDCF7A 		vldr.32	s15, .L58+16
 711 007a E0EE67AA 		vfms.f32	s21, s0, s15
 712              	.LVL41:
  83:../eurorack/plaits/dsp/drums/analog_snare_drum.h ****     
 713              		.loc 4 83 5 is_stmt 1 view .LVU198
  83:../eurorack/plaits/dsp/drums/analog_snare_drum.h ****     
 714              		.loc 4 83 17 is_stmt 0 view .LVU199
 715 007e DFEDCE7A 		vldr.32	s15, .L58+20
 716 0082 29EE279A 		vmul.f32	s18, s18, s15
ARM GAS  /var/folders/y7/g6pkzsp12sx54x3s3mvyn15r0000gn/T//ccWX7ODC.s 			page 27


 717              	.LVL42:
 718              		.loc 4 85 5 is_stmt 1 view .LVU200
 719              		.loc 4 85 12 is_stmt 0 view .LVU201
 720 0086 DFEDCD7A 		vldr.32	s15, .L58+24
 721 008a E9EEA78A 		vfma.f32	s17, s19, s15
 722              	.LVL43:
  86:../eurorack/plaits/dsp/drums/analog_snare_drum.h ****     CONSTRAIN(snappy, 0.0f, 1.0f);
 723              		.loc 4 86 5 is_stmt 1 view .LVU202
 724 008e DFEDCC9A 		vldr.32	s19, .L58+28
 725 0092 F5EEC08A 		vcmpe.f32	s17, #0
 726 0096 F1EE10FA 		vmrs	APSR_nzcv, FPSCR
 727 009a 00F18B80 		bmi	.L43
 728              		.loc 4 86 5 discriminator 2 view .LVU203
 729 009e F4EEEB8A 		vcmpe.f32	s17, s23
 730 00a2 F1EE10FA 		vmrs	APSR_nzcv, FPSCR
 731 00a6 7BFEA88A 		vselgt.f32	s17, s23, s17
 732              	.LVL44:
 733              	.L22:
 734              		.loc 4 86 34 discriminator 6 view .LVU204
  87:../eurorack/plaits/dsp/drums/analog_snare_drum.h ****     
  88:../eurorack/plaits/dsp/drums/analog_snare_drum.h ****     if (trigger) {
 735              		.loc 4 88 5 view .LVU205
 736 00aa 5DB1     		cbz	r5, .L23
  89:../eurorack/plaits/dsp/drums/analog_snare_drum.h ****       pulse_remaining_samples_ = kTriggerPulseDuration;
 737              		.loc 4 89 7 view .LVU206
  90:../eurorack/plaits/dsp/drums/analog_snare_drum.h ****       pulse_height_ = 3.0f + 7.0f * accent;
 738              		.loc 4 90 28 is_stmt 0 view .LVU207
 739 00ac B1EE0C7A 		vmov.f32	s14, #7.0e+0
  89:../eurorack/plaits/dsp/drums/analog_snare_drum.h ****       pulse_remaining_samples_ = kTriggerPulseDuration;
 740              		.loc 4 89 32 view .LVU208
 741 00b0 3023     		movs	r3, #48
 742              		.loc 4 90 28 view .LVU209
 743 00b2 F0EE087A 		vmov.f32	s15, #3.0e+0
  91:../eurorack/plaits/dsp/drums/analog_snare_drum.h ****       noise_envelope_ = 2.0f;
 744              		.loc 4 91 23 view .LVU210
 745 00b6 84ED04AA 		vstr.32	s20, [r4, #16]
  89:../eurorack/plaits/dsp/drums/analog_snare_drum.h ****       pulse_remaining_samples_ = kTriggerPulseDuration;
 746              		.loc 4 89 32 view .LVU211
 747 00ba 2360     		str	r3, [r4]
  90:../eurorack/plaits/dsp/drums/analog_snare_drum.h ****       pulse_height_ = 3.0f + 7.0f * accent;
 748              		.loc 4 90 7 is_stmt 1 view .LVU212
  90:../eurorack/plaits/dsp/drums/analog_snare_drum.h ****       pulse_height_ = 3.0f + 7.0f * accent;
 749              		.loc 4 90 28 is_stmt 0 view .LVU213
 750 00bc EDEE077A 		vfma.f32	s15, s26, s14
  90:../eurorack/plaits/dsp/drums/analog_snare_drum.h ****       pulse_height_ = 3.0f + 7.0f * accent;
 751              		.loc 4 90 21 view .LVU214
 752 00c0 C4ED027A 		vstr.32	s15, [r4, #8]
 753              		.loc 4 91 7 is_stmt 1 view .LVU215
 754              	.L23:
 755              	.LVL45:
 756              	.LBB166:
  92:../eurorack/plaits/dsp/drums/analog_snare_drum.h ****     }
  93:../eurorack/plaits/dsp/drums/analog_snare_drum.h ****     
  94:../eurorack/plaits/dsp/drums/analog_snare_drum.h ****     static const float kModeFrequencies[kNumModes] = {
  95:../eurorack/plaits/dsp/drums/analog_snare_drum.h ****         1.00f,
  96:../eurorack/plaits/dsp/drums/analog_snare_drum.h ****         2.00f,
  97:../eurorack/plaits/dsp/drums/analog_snare_drum.h ****         3.18f,
ARM GAS  /var/folders/y7/g6pkzsp12sx54x3s3mvyn15r0000gn/T//ccWX7ODC.s 			page 28


  98:../eurorack/plaits/dsp/drums/analog_snare_drum.h ****         4.16f,
  99:../eurorack/plaits/dsp/drums/analog_snare_drum.h ****         5.62f};
 100:../eurorack/plaits/dsp/drums/analog_snare_drum.h ****     
 101:../eurorack/plaits/dsp/drums/analog_snare_drum.h ****     float f[kNumModes];
 102:../eurorack/plaits/dsp/drums/analog_snare_drum.h ****     float gain[kNumModes];
 103:../eurorack/plaits/dsp/drums/analog_snare_drum.h ****     
 104:../eurorack/plaits/dsp/drums/analog_snare_drum.h ****     for (int i = 0; i < kNumModes; ++i) {
 757              		.loc 4 104 23 discriminator 1 view .LVU216
 758 00c4 04F11809 		add	r9, r4, #24
 759 00c8 DFF82083 		ldr	r8, .L58+72
 760              	.LBE166:
  86:../eurorack/plaits/dsp/drums/analog_snare_drum.h ****     
 761              		.loc 4 86 5 is_stmt 0 discriminator 1 view .LVU217
 762 00cc 0DF1080B 		add	fp, sp, #8
 763 00d0 0025     		movs	r5, #0
 764              	.LVL46:
  86:../eurorack/plaits/dsp/drums/analog_snare_drum.h ****     
 765              		.loc 4 86 5 discriminator 1 view .LVU218
 766 00d2 CA46     		mov	r10, r9
 767              	.LVL47:
 768              	.L25:
 769              	.LBB167:
 105:../eurorack/plaits/dsp/drums/analog_snare_drum.h ****       f[i] = std::min(f0 * kModeFrequencies[i], 0.499f);
 770              		.loc 4 105 7 is_stmt 1 view .LVU219
 771              		.loc 4 105 46 is_stmt 0 view .LVU220
 772 00d4 B8EC010A 		vldmia.32	r8!, {s0}
 773 00d8 9FEDBABA 		vldr.32	s22, .L58+32
 774              		.loc 4 105 26 view .LVU221
 775 00dc 20EE0C0A 		vmul.f32	s0, s0, s24
 776 00e0 B4EECB0A 		vcmpe.f32	s0, s22
 777 00e4 F1EE10FA 		vmrs	APSR_nzcv, FPSCR
 778 00e8 3BFE000A 		vselgt.f32	s0, s22, s0
 779              		.loc 4 105 12 discriminator 1 view .LVU222
 780 00ec ABEC010A 		vstmia.32	fp!, {s0}
 106:../eurorack/plaits/dsp/drums/analog_snare_drum.h ****       resonator_[i].set_f_q<stmlib::FREQUENCY_FAST>(
 781              		.loc 4 106 7 is_stmt 1 view .LVU223
 107:../eurorack/plaits/dsp/drums/analog_snare_drum.h ****           f[i],
 108:../eurorack/plaits/dsp/drums/analog_snare_drum.h ****           1.0f + f[i] * (i == 0 ? q : q * 0.25f));
 782              		.loc 4 108 33 is_stmt 0 view .LVU224
 783 00f0 002D     		cmp	r5, #0
 784 00f2 62D0     		beq	.L44
 785              		.loc 4 108 33 discriminator 1 view .LVU225
 786 00f4 F5EE007A 		vmov.f32	s15, #2.5e-1
 787 00f8 6DEEA77A 		vmul.f32	s15, s27, s15
 788              	.L24:
 106:../eurorack/plaits/dsp/drums/analog_snare_drum.h ****       resonator_[i].set_f_q<stmlib::FREQUENCY_FAST>(
 789              		.loc 4 106 52 view .LVU226
 790 00fc F0EE6B0A 		vmov.f32	s1, s23
 104:../eurorack/plaits/dsp/drums/analog_snare_drum.h ****       f[i] = std::min(f0 * kModeFrequencies[i], 0.499f);
 791              		.loc 4 104 5 discriminator 2 view .LVU227
 792 0100 0135     		adds	r5, r5, #1
 793              	.LVL48:
 106:../eurorack/plaits/dsp/drums/analog_snare_drum.h ****       resonator_[i].set_f_q<stmlib::FREQUENCY_FAST>(
 794              		.loc 4 106 52 view .LVU228
 795 0102 5046     		mov	r0, r10
 104:../eurorack/plaits/dsp/drums/analog_snare_drum.h ****       f[i] = std::min(f0 * kModeFrequencies[i], 0.499f);
 796              		.loc 4 104 23 discriminator 1 view .LVU229
ARM GAS  /var/folders/y7/g6pkzsp12sx54x3s3mvyn15r0000gn/T//ccWX7ODC.s 			page 29


 797 0104 0AF1140A 		add	r10, r10, #20
 106:../eurorack/plaits/dsp/drums/analog_snare_drum.h ****       resonator_[i].set_f_q<stmlib::FREQUENCY_FAST>(
 798              		.loc 4 106 52 view .LVU230
 799 0108 E7EE800A 		vfma.f32	s1, s15, s0
 800 010c FFF7FEFF 		bl	_ZN6stmlib3Svf7set_f_qILNS_22FrequencyApproximationE2EEEvff
 801              	.LVL49:
 104:../eurorack/plaits/dsp/drums/analog_snare_drum.h ****       f[i] = std::min(f0 * kModeFrequencies[i], 0.499f);
 802              		.loc 4 104 5 is_stmt 1 discriminator 2 view .LVU231
 104:../eurorack/plaits/dsp/drums/analog_snare_drum.h ****       f[i] = std::min(f0 * kModeFrequencies[i], 0.499f);
 803              		.loc 4 104 23 discriminator 1 view .LVU232
 804 0110 052D     		cmp	r5, #5
 805 0112 DFD1     		bne	.L25
 806              	.LBE167:
 109:../eurorack/plaits/dsp/drums/analog_snare_drum.h ****     }
 110:../eurorack/plaits/dsp/drums/analog_snare_drum.h ****     
 111:../eurorack/plaits/dsp/drums/analog_snare_drum.h ****     if (tone < 0.666667f) {
 807              		.loc 4 111 5 view .LVU233
 808              	.LBB168:
 809 0114 9FEDAC7A 		vldr.32	s14, .L58+36
 810 0118 F7EE087A 		vmov.f32	s15, #1.5e+0
 811 011c B4EEC78A 		vcmpe.f32	s16, s14
 812 0120 F1EE10FA 		vmrs	APSR_nzcv, FPSCR
 813 0124 4CD5     		bpl	.L57
 112:../eurorack/plaits/dsp/drums/analog_snare_drum.h ****       // 808-style (2 modes)
 113:../eurorack/plaits/dsp/drums/analog_snare_drum.h ****       tone *= 1.5f;
 814              		.loc 4 113 7 view .LVU234
 815              		.loc 4 113 12 is_stmt 0 view .LVU235
 816 0126 28EE278A 		vmul.f32	s16, s16, s15
 817              	.LVL50:
 114:../eurorack/plaits/dsp/drums/analog_snare_drum.h ****       gain[0] = 1.5f + (1.0f - tone) * (1.0f - tone) * 4.5f;
 818              		.loc 4 114 7 is_stmt 1 view .LVU236
 819              	.LBB169:
 820              	.LBB170:
 821              	.LBB171:
 822              	.LBB172:
 823              		.file 9 "/Applications/ArmGNUToolchain/14.2.rel1/arm-none-eabi/arm-none-eabi/include/c++/14.2.1/bi
   1:/Applications/ArmGNUToolchain/14.2.rel1/arm-none-eabi/arm-none-eabi/include/c++/14.2.1/bits/stl_algobase.h **** // Core algorithmic facilities -*- C++ -*-
   2:/Applications/ArmGNUToolchain/14.2.rel1/arm-none-eabi/arm-none-eabi/include/c++/14.2.1/bits/stl_algobase.h **** 
   3:/Applications/ArmGNUToolchain/14.2.rel1/arm-none-eabi/arm-none-eabi/include/c++/14.2.1/bits/stl_algobase.h **** // Copyright (C) 2001-2024 Free Software Foundation, Inc.
   4:/Applications/ArmGNUToolchain/14.2.rel1/arm-none-eabi/arm-none-eabi/include/c++/14.2.1/bits/stl_algobase.h **** //
   5:/Applications/ArmGNUToolchain/14.2.rel1/arm-none-eabi/arm-none-eabi/include/c++/14.2.1/bits/stl_algobase.h **** // This file is part of the GNU ISO C++ Library.  This library is free
   6:/Applications/ArmGNUToolchain/14.2.rel1/arm-none-eabi/arm-none-eabi/include/c++/14.2.1/bits/stl_algobase.h **** // software; you can redistribute it and/or modify it under the
   7:/Applications/ArmGNUToolchain/14.2.rel1/arm-none-eabi/arm-none-eabi/include/c++/14.2.1/bits/stl_algobase.h **** // terms of the GNU General Public License as published by the
   8:/Applications/ArmGNUToolchain/14.2.rel1/arm-none-eabi/arm-none-eabi/include/c++/14.2.1/bits/stl_algobase.h **** // Free Software Foundation; either version 3, or (at your option)
   9:/Applications/ArmGNUToolchain/14.2.rel1/arm-none-eabi/arm-none-eabi/include/c++/14.2.1/bits/stl_algobase.h **** // any later version.
  10:/Applications/ArmGNUToolchain/14.2.rel1/arm-none-eabi/arm-none-eabi/include/c++/14.2.1/bits/stl_algobase.h **** 
  11:/Applications/ArmGNUToolchain/14.2.rel1/arm-none-eabi/arm-none-eabi/include/c++/14.2.1/bits/stl_algobase.h **** // This library is distributed in the hope that it will be useful,
  12:/Applications/ArmGNUToolchain/14.2.rel1/arm-none-eabi/arm-none-eabi/include/c++/14.2.1/bits/stl_algobase.h **** // but WITHOUT ANY WARRANTY; without even the implied warranty of
  13:/Applications/ArmGNUToolchain/14.2.rel1/arm-none-eabi/arm-none-eabi/include/c++/14.2.1/bits/stl_algobase.h **** // MERCHANTABILITY or FITNESS FOR A PARTICULAR PURPOSE.  See the
  14:/Applications/ArmGNUToolchain/14.2.rel1/arm-none-eabi/arm-none-eabi/include/c++/14.2.1/bits/stl_algobase.h **** // GNU General Public License for more details.
  15:/Applications/ArmGNUToolchain/14.2.rel1/arm-none-eabi/arm-none-eabi/include/c++/14.2.1/bits/stl_algobase.h **** 
  16:/Applications/ArmGNUToolchain/14.2.rel1/arm-none-eabi/arm-none-eabi/include/c++/14.2.1/bits/stl_algobase.h **** // Under Section 7 of GPL version 3, you are granted additional
  17:/Applications/ArmGNUToolchain/14.2.rel1/arm-none-eabi/arm-none-eabi/include/c++/14.2.1/bits/stl_algobase.h **** // permissions described in the GCC Runtime Library Exception, version
  18:/Applications/ArmGNUToolchain/14.2.rel1/arm-none-eabi/arm-none-eabi/include/c++/14.2.1/bits/stl_algobase.h **** // 3.1, as published by the Free Software Foundation.
  19:/Applications/ArmGNUToolchain/14.2.rel1/arm-none-eabi/arm-none-eabi/include/c++/14.2.1/bits/stl_algobase.h **** 
  20:/Applications/ArmGNUToolchain/14.2.rel1/arm-none-eabi/arm-none-eabi/include/c++/14.2.1/bits/stl_algobase.h **** // You should have received a copy of the GNU General Public License and
  21:/Applications/ArmGNUToolchain/14.2.rel1/arm-none-eabi/arm-none-eabi/include/c++/14.2.1/bits/stl_algobase.h **** // a copy of the GCC Runtime Library Exception along with this program;
ARM GAS  /var/folders/y7/g6pkzsp12sx54x3s3mvyn15r0000gn/T//ccWX7ODC.s 			page 30


  22:/Applications/ArmGNUToolchain/14.2.rel1/arm-none-eabi/arm-none-eabi/include/c++/14.2.1/bits/stl_algobase.h **** // see the files COPYING3 and COPYING.RUNTIME respectively.  If not, see
  23:/Applications/ArmGNUToolchain/14.2.rel1/arm-none-eabi/arm-none-eabi/include/c++/14.2.1/bits/stl_algobase.h **** // <http://www.gnu.org/licenses/>.
  24:/Applications/ArmGNUToolchain/14.2.rel1/arm-none-eabi/arm-none-eabi/include/c++/14.2.1/bits/stl_algobase.h **** 
  25:/Applications/ArmGNUToolchain/14.2.rel1/arm-none-eabi/arm-none-eabi/include/c++/14.2.1/bits/stl_algobase.h **** /*
  26:/Applications/ArmGNUToolchain/14.2.rel1/arm-none-eabi/arm-none-eabi/include/c++/14.2.1/bits/stl_algobase.h ****  *
  27:/Applications/ArmGNUToolchain/14.2.rel1/arm-none-eabi/arm-none-eabi/include/c++/14.2.1/bits/stl_algobase.h ****  * Copyright (c) 1994
  28:/Applications/ArmGNUToolchain/14.2.rel1/arm-none-eabi/arm-none-eabi/include/c++/14.2.1/bits/stl_algobase.h ****  * Hewlett-Packard Company
  29:/Applications/ArmGNUToolchain/14.2.rel1/arm-none-eabi/arm-none-eabi/include/c++/14.2.1/bits/stl_algobase.h ****  *
  30:/Applications/ArmGNUToolchain/14.2.rel1/arm-none-eabi/arm-none-eabi/include/c++/14.2.1/bits/stl_algobase.h ****  * Permission to use, copy, modify, distribute and sell this software
  31:/Applications/ArmGNUToolchain/14.2.rel1/arm-none-eabi/arm-none-eabi/include/c++/14.2.1/bits/stl_algobase.h ****  * and its documentation for any purpose is hereby granted without fee,
  32:/Applications/ArmGNUToolchain/14.2.rel1/arm-none-eabi/arm-none-eabi/include/c++/14.2.1/bits/stl_algobase.h ****  * provided that the above copyright notice appear in all copies and
  33:/Applications/ArmGNUToolchain/14.2.rel1/arm-none-eabi/arm-none-eabi/include/c++/14.2.1/bits/stl_algobase.h ****  * that both that copyright notice and this permission notice appear
  34:/Applications/ArmGNUToolchain/14.2.rel1/arm-none-eabi/arm-none-eabi/include/c++/14.2.1/bits/stl_algobase.h ****  * in supporting documentation.  Hewlett-Packard Company makes no
  35:/Applications/ArmGNUToolchain/14.2.rel1/arm-none-eabi/arm-none-eabi/include/c++/14.2.1/bits/stl_algobase.h ****  * representations about the suitability of this software for any
  36:/Applications/ArmGNUToolchain/14.2.rel1/arm-none-eabi/arm-none-eabi/include/c++/14.2.1/bits/stl_algobase.h ****  * purpose.  It is provided "as is" without express or implied warranty.
  37:/Applications/ArmGNUToolchain/14.2.rel1/arm-none-eabi/arm-none-eabi/include/c++/14.2.1/bits/stl_algobase.h ****  *
  38:/Applications/ArmGNUToolchain/14.2.rel1/arm-none-eabi/arm-none-eabi/include/c++/14.2.1/bits/stl_algobase.h ****  *
  39:/Applications/ArmGNUToolchain/14.2.rel1/arm-none-eabi/arm-none-eabi/include/c++/14.2.1/bits/stl_algobase.h ****  * Copyright (c) 1996-1998
  40:/Applications/ArmGNUToolchain/14.2.rel1/arm-none-eabi/arm-none-eabi/include/c++/14.2.1/bits/stl_algobase.h ****  * Silicon Graphics Computer Systems, Inc.
  41:/Applications/ArmGNUToolchain/14.2.rel1/arm-none-eabi/arm-none-eabi/include/c++/14.2.1/bits/stl_algobase.h ****  *
  42:/Applications/ArmGNUToolchain/14.2.rel1/arm-none-eabi/arm-none-eabi/include/c++/14.2.1/bits/stl_algobase.h ****  * Permission to use, copy, modify, distribute and sell this software
  43:/Applications/ArmGNUToolchain/14.2.rel1/arm-none-eabi/arm-none-eabi/include/c++/14.2.1/bits/stl_algobase.h ****  * and its documentation for any purpose is hereby granted without fee,
  44:/Applications/ArmGNUToolchain/14.2.rel1/arm-none-eabi/arm-none-eabi/include/c++/14.2.1/bits/stl_algobase.h ****  * provided that the above copyright notice appear in all copies and
  45:/Applications/ArmGNUToolchain/14.2.rel1/arm-none-eabi/arm-none-eabi/include/c++/14.2.1/bits/stl_algobase.h ****  * that both that copyright notice and this permission notice appear
  46:/Applications/ArmGNUToolchain/14.2.rel1/arm-none-eabi/arm-none-eabi/include/c++/14.2.1/bits/stl_algobase.h ****  * in supporting documentation.  Silicon Graphics makes no
  47:/Applications/ArmGNUToolchain/14.2.rel1/arm-none-eabi/arm-none-eabi/include/c++/14.2.1/bits/stl_algobase.h ****  * representations about the suitability of this software for any
  48:/Applications/ArmGNUToolchain/14.2.rel1/arm-none-eabi/arm-none-eabi/include/c++/14.2.1/bits/stl_algobase.h ****  * purpose.  It is provided "as is" without express or implied warranty.
  49:/Applications/ArmGNUToolchain/14.2.rel1/arm-none-eabi/arm-none-eabi/include/c++/14.2.1/bits/stl_algobase.h ****  */
  50:/Applications/ArmGNUToolchain/14.2.rel1/arm-none-eabi/arm-none-eabi/include/c++/14.2.1/bits/stl_algobase.h **** 
  51:/Applications/ArmGNUToolchain/14.2.rel1/arm-none-eabi/arm-none-eabi/include/c++/14.2.1/bits/stl_algobase.h **** /** @file bits/stl_algobase.h
  52:/Applications/ArmGNUToolchain/14.2.rel1/arm-none-eabi/arm-none-eabi/include/c++/14.2.1/bits/stl_algobase.h ****  *  This is an internal header file, included by other library headers.
  53:/Applications/ArmGNUToolchain/14.2.rel1/arm-none-eabi/arm-none-eabi/include/c++/14.2.1/bits/stl_algobase.h ****  *  Do not attempt to use it directly. @headername{algorithm}
  54:/Applications/ArmGNUToolchain/14.2.rel1/arm-none-eabi/arm-none-eabi/include/c++/14.2.1/bits/stl_algobase.h ****  */
  55:/Applications/ArmGNUToolchain/14.2.rel1/arm-none-eabi/arm-none-eabi/include/c++/14.2.1/bits/stl_algobase.h **** 
  56:/Applications/ArmGNUToolchain/14.2.rel1/arm-none-eabi/arm-none-eabi/include/c++/14.2.1/bits/stl_algobase.h **** #ifndef _STL_ALGOBASE_H
  57:/Applications/ArmGNUToolchain/14.2.rel1/arm-none-eabi/arm-none-eabi/include/c++/14.2.1/bits/stl_algobase.h **** #define _STL_ALGOBASE_H 1
  58:/Applications/ArmGNUToolchain/14.2.rel1/arm-none-eabi/arm-none-eabi/include/c++/14.2.1/bits/stl_algobase.h **** 
  59:/Applications/ArmGNUToolchain/14.2.rel1/arm-none-eabi/arm-none-eabi/include/c++/14.2.1/bits/stl_algobase.h **** #include <bits/c++config.h>
  60:/Applications/ArmGNUToolchain/14.2.rel1/arm-none-eabi/arm-none-eabi/include/c++/14.2.1/bits/stl_algobase.h **** #include <bits/functexcept.h>
  61:/Applications/ArmGNUToolchain/14.2.rel1/arm-none-eabi/arm-none-eabi/include/c++/14.2.1/bits/stl_algobase.h **** #include <bits/cpp_type_traits.h>
  62:/Applications/ArmGNUToolchain/14.2.rel1/arm-none-eabi/arm-none-eabi/include/c++/14.2.1/bits/stl_algobase.h **** #include <ext/type_traits.h>
  63:/Applications/ArmGNUToolchain/14.2.rel1/arm-none-eabi/arm-none-eabi/include/c++/14.2.1/bits/stl_algobase.h **** #include <ext/numeric_traits.h>
  64:/Applications/ArmGNUToolchain/14.2.rel1/arm-none-eabi/arm-none-eabi/include/c++/14.2.1/bits/stl_algobase.h **** #include <bits/stl_pair.h>
  65:/Applications/ArmGNUToolchain/14.2.rel1/arm-none-eabi/arm-none-eabi/include/c++/14.2.1/bits/stl_algobase.h **** #include <bits/stl_iterator_base_types.h>
  66:/Applications/ArmGNUToolchain/14.2.rel1/arm-none-eabi/arm-none-eabi/include/c++/14.2.1/bits/stl_algobase.h **** #include <bits/stl_iterator_base_funcs.h>
  67:/Applications/ArmGNUToolchain/14.2.rel1/arm-none-eabi/arm-none-eabi/include/c++/14.2.1/bits/stl_algobase.h **** #include <bits/stl_iterator.h>
  68:/Applications/ArmGNUToolchain/14.2.rel1/arm-none-eabi/arm-none-eabi/include/c++/14.2.1/bits/stl_algobase.h **** #include <bits/concept_check.h>
  69:/Applications/ArmGNUToolchain/14.2.rel1/arm-none-eabi/arm-none-eabi/include/c++/14.2.1/bits/stl_algobase.h **** #include <debug/debug.h>
  70:/Applications/ArmGNUToolchain/14.2.rel1/arm-none-eabi/arm-none-eabi/include/c++/14.2.1/bits/stl_algobase.h **** #include <bits/move.h> // For std::swap
  71:/Applications/ArmGNUToolchain/14.2.rel1/arm-none-eabi/arm-none-eabi/include/c++/14.2.1/bits/stl_algobase.h **** #include <bits/predefined_ops.h>
  72:/Applications/ArmGNUToolchain/14.2.rel1/arm-none-eabi/arm-none-eabi/include/c++/14.2.1/bits/stl_algobase.h **** #if __cplusplus >= 201103L
  73:/Applications/ArmGNUToolchain/14.2.rel1/arm-none-eabi/arm-none-eabi/include/c++/14.2.1/bits/stl_algobase.h **** # include <type_traits>
  74:/Applications/ArmGNUToolchain/14.2.rel1/arm-none-eabi/arm-none-eabi/include/c++/14.2.1/bits/stl_algobase.h **** #endif
  75:/Applications/ArmGNUToolchain/14.2.rel1/arm-none-eabi/arm-none-eabi/include/c++/14.2.1/bits/stl_algobase.h **** #if __cplusplus >= 201402L
  76:/Applications/ArmGNUToolchain/14.2.rel1/arm-none-eabi/arm-none-eabi/include/c++/14.2.1/bits/stl_algobase.h **** # include <bit> // std::__bit_width
  77:/Applications/ArmGNUToolchain/14.2.rel1/arm-none-eabi/arm-none-eabi/include/c++/14.2.1/bits/stl_algobase.h **** #endif
  78:/Applications/ArmGNUToolchain/14.2.rel1/arm-none-eabi/arm-none-eabi/include/c++/14.2.1/bits/stl_algobase.h **** #if __cplusplus >= 202002L
ARM GAS  /var/folders/y7/g6pkzsp12sx54x3s3mvyn15r0000gn/T//ccWX7ODC.s 			page 31


  79:/Applications/ArmGNUToolchain/14.2.rel1/arm-none-eabi/arm-none-eabi/include/c++/14.2.1/bits/stl_algobase.h **** # include <compare>
  80:/Applications/ArmGNUToolchain/14.2.rel1/arm-none-eabi/arm-none-eabi/include/c++/14.2.1/bits/stl_algobase.h **** #endif
  81:/Applications/ArmGNUToolchain/14.2.rel1/arm-none-eabi/arm-none-eabi/include/c++/14.2.1/bits/stl_algobase.h **** 
  82:/Applications/ArmGNUToolchain/14.2.rel1/arm-none-eabi/arm-none-eabi/include/c++/14.2.1/bits/stl_algobase.h **** namespace std _GLIBCXX_VISIBILITY(default)
  83:/Applications/ArmGNUToolchain/14.2.rel1/arm-none-eabi/arm-none-eabi/include/c++/14.2.1/bits/stl_algobase.h **** {
  84:/Applications/ArmGNUToolchain/14.2.rel1/arm-none-eabi/arm-none-eabi/include/c++/14.2.1/bits/stl_algobase.h **** _GLIBCXX_BEGIN_NAMESPACE_VERSION
  85:/Applications/ArmGNUToolchain/14.2.rel1/arm-none-eabi/arm-none-eabi/include/c++/14.2.1/bits/stl_algobase.h **** 
  86:/Applications/ArmGNUToolchain/14.2.rel1/arm-none-eabi/arm-none-eabi/include/c++/14.2.1/bits/stl_algobase.h ****   /*
  87:/Applications/ArmGNUToolchain/14.2.rel1/arm-none-eabi/arm-none-eabi/include/c++/14.2.1/bits/stl_algobase.h ****    * A constexpr wrapper for __builtin_memcmp.
  88:/Applications/ArmGNUToolchain/14.2.rel1/arm-none-eabi/arm-none-eabi/include/c++/14.2.1/bits/stl_algobase.h ****    * @param __num The number of elements of type _Tp (not bytes).
  89:/Applications/ArmGNUToolchain/14.2.rel1/arm-none-eabi/arm-none-eabi/include/c++/14.2.1/bits/stl_algobase.h ****    */
  90:/Applications/ArmGNUToolchain/14.2.rel1/arm-none-eabi/arm-none-eabi/include/c++/14.2.1/bits/stl_algobase.h ****   template<typename _Tp, typename _Up>
  91:/Applications/ArmGNUToolchain/14.2.rel1/arm-none-eabi/arm-none-eabi/include/c++/14.2.1/bits/stl_algobase.h ****     _GLIBCXX14_CONSTEXPR
  92:/Applications/ArmGNUToolchain/14.2.rel1/arm-none-eabi/arm-none-eabi/include/c++/14.2.1/bits/stl_algobase.h ****     inline int
  93:/Applications/ArmGNUToolchain/14.2.rel1/arm-none-eabi/arm-none-eabi/include/c++/14.2.1/bits/stl_algobase.h ****     __memcmp(const _Tp* __first1, const _Up* __first2, size_t __num)
  94:/Applications/ArmGNUToolchain/14.2.rel1/arm-none-eabi/arm-none-eabi/include/c++/14.2.1/bits/stl_algobase.h ****     {
  95:/Applications/ArmGNUToolchain/14.2.rel1/arm-none-eabi/arm-none-eabi/include/c++/14.2.1/bits/stl_algobase.h **** #if __cplusplus >= 201103L
  96:/Applications/ArmGNUToolchain/14.2.rel1/arm-none-eabi/arm-none-eabi/include/c++/14.2.1/bits/stl_algobase.h ****       static_assert(sizeof(_Tp) == sizeof(_Up), "can be compared with memcmp");
  97:/Applications/ArmGNUToolchain/14.2.rel1/arm-none-eabi/arm-none-eabi/include/c++/14.2.1/bits/stl_algobase.h **** #endif
  98:/Applications/ArmGNUToolchain/14.2.rel1/arm-none-eabi/arm-none-eabi/include/c++/14.2.1/bits/stl_algobase.h **** #ifdef __cpp_lib_is_constant_evaluated
  99:/Applications/ArmGNUToolchain/14.2.rel1/arm-none-eabi/arm-none-eabi/include/c++/14.2.1/bits/stl_algobase.h ****       if (std::is_constant_evaluated())
 100:/Applications/ArmGNUToolchain/14.2.rel1/arm-none-eabi/arm-none-eabi/include/c++/14.2.1/bits/stl_algobase.h **** 	{
 101:/Applications/ArmGNUToolchain/14.2.rel1/arm-none-eabi/arm-none-eabi/include/c++/14.2.1/bits/stl_algobase.h **** 	  for(; __num > 0; ++__first1, ++__first2, --__num)
 102:/Applications/ArmGNUToolchain/14.2.rel1/arm-none-eabi/arm-none-eabi/include/c++/14.2.1/bits/stl_algobase.h **** 	    if (*__first1 != *__first2)
 103:/Applications/ArmGNUToolchain/14.2.rel1/arm-none-eabi/arm-none-eabi/include/c++/14.2.1/bits/stl_algobase.h **** 	      return *__first1 < *__first2 ? -1 : 1;
 104:/Applications/ArmGNUToolchain/14.2.rel1/arm-none-eabi/arm-none-eabi/include/c++/14.2.1/bits/stl_algobase.h **** 	  return 0;
 105:/Applications/ArmGNUToolchain/14.2.rel1/arm-none-eabi/arm-none-eabi/include/c++/14.2.1/bits/stl_algobase.h **** 	}
 106:/Applications/ArmGNUToolchain/14.2.rel1/arm-none-eabi/arm-none-eabi/include/c++/14.2.1/bits/stl_algobase.h ****       else
 107:/Applications/ArmGNUToolchain/14.2.rel1/arm-none-eabi/arm-none-eabi/include/c++/14.2.1/bits/stl_algobase.h **** #endif
 108:/Applications/ArmGNUToolchain/14.2.rel1/arm-none-eabi/arm-none-eabi/include/c++/14.2.1/bits/stl_algobase.h **** 	return __builtin_memcmp(__first1, __first2, sizeof(_Tp) * __num);
 109:/Applications/ArmGNUToolchain/14.2.rel1/arm-none-eabi/arm-none-eabi/include/c++/14.2.1/bits/stl_algobase.h ****     }
 110:/Applications/ArmGNUToolchain/14.2.rel1/arm-none-eabi/arm-none-eabi/include/c++/14.2.1/bits/stl_algobase.h **** 
 111:/Applications/ArmGNUToolchain/14.2.rel1/arm-none-eabi/arm-none-eabi/include/c++/14.2.1/bits/stl_algobase.h **** #if __cplusplus < 201103L
 112:/Applications/ArmGNUToolchain/14.2.rel1/arm-none-eabi/arm-none-eabi/include/c++/14.2.1/bits/stl_algobase.h ****   // See http://gcc.gnu.org/ml/libstdc++/2004-08/msg00167.html: in a
 113:/Applications/ArmGNUToolchain/14.2.rel1/arm-none-eabi/arm-none-eabi/include/c++/14.2.1/bits/stl_algobase.h ****   // nutshell, we are partially implementing the resolution of DR 187,
 114:/Applications/ArmGNUToolchain/14.2.rel1/arm-none-eabi/arm-none-eabi/include/c++/14.2.1/bits/stl_algobase.h ****   // when it's safe, i.e., the value_types are equal.
 115:/Applications/ArmGNUToolchain/14.2.rel1/arm-none-eabi/arm-none-eabi/include/c++/14.2.1/bits/stl_algobase.h ****   template<bool _BoolType>
 116:/Applications/ArmGNUToolchain/14.2.rel1/arm-none-eabi/arm-none-eabi/include/c++/14.2.1/bits/stl_algobase.h ****     struct __iter_swap
 117:/Applications/ArmGNUToolchain/14.2.rel1/arm-none-eabi/arm-none-eabi/include/c++/14.2.1/bits/stl_algobase.h ****     {
 118:/Applications/ArmGNUToolchain/14.2.rel1/arm-none-eabi/arm-none-eabi/include/c++/14.2.1/bits/stl_algobase.h ****       template<typename _ForwardIterator1, typename _ForwardIterator2>
 119:/Applications/ArmGNUToolchain/14.2.rel1/arm-none-eabi/arm-none-eabi/include/c++/14.2.1/bits/stl_algobase.h **** 	static void
 120:/Applications/ArmGNUToolchain/14.2.rel1/arm-none-eabi/arm-none-eabi/include/c++/14.2.1/bits/stl_algobase.h **** 	iter_swap(_ForwardIterator1 __a, _ForwardIterator2 __b)
 121:/Applications/ArmGNUToolchain/14.2.rel1/arm-none-eabi/arm-none-eabi/include/c++/14.2.1/bits/stl_algobase.h **** 	{
 122:/Applications/ArmGNUToolchain/14.2.rel1/arm-none-eabi/arm-none-eabi/include/c++/14.2.1/bits/stl_algobase.h **** 	  typedef typename iterator_traits<_ForwardIterator1>::value_type
 123:/Applications/ArmGNUToolchain/14.2.rel1/arm-none-eabi/arm-none-eabi/include/c++/14.2.1/bits/stl_algobase.h **** 	    _ValueType1;
 124:/Applications/ArmGNUToolchain/14.2.rel1/arm-none-eabi/arm-none-eabi/include/c++/14.2.1/bits/stl_algobase.h **** 	  _ValueType1 __tmp = *__a;
 125:/Applications/ArmGNUToolchain/14.2.rel1/arm-none-eabi/arm-none-eabi/include/c++/14.2.1/bits/stl_algobase.h **** 	  *__a = *__b;
 126:/Applications/ArmGNUToolchain/14.2.rel1/arm-none-eabi/arm-none-eabi/include/c++/14.2.1/bits/stl_algobase.h **** 	  *__b = __tmp;
 127:/Applications/ArmGNUToolchain/14.2.rel1/arm-none-eabi/arm-none-eabi/include/c++/14.2.1/bits/stl_algobase.h **** 	}
 128:/Applications/ArmGNUToolchain/14.2.rel1/arm-none-eabi/arm-none-eabi/include/c++/14.2.1/bits/stl_algobase.h ****     };
 129:/Applications/ArmGNUToolchain/14.2.rel1/arm-none-eabi/arm-none-eabi/include/c++/14.2.1/bits/stl_algobase.h **** 
 130:/Applications/ArmGNUToolchain/14.2.rel1/arm-none-eabi/arm-none-eabi/include/c++/14.2.1/bits/stl_algobase.h ****   template<>
 131:/Applications/ArmGNUToolchain/14.2.rel1/arm-none-eabi/arm-none-eabi/include/c++/14.2.1/bits/stl_algobase.h ****     struct __iter_swap<true>
 132:/Applications/ArmGNUToolchain/14.2.rel1/arm-none-eabi/arm-none-eabi/include/c++/14.2.1/bits/stl_algobase.h ****     {
 133:/Applications/ArmGNUToolchain/14.2.rel1/arm-none-eabi/arm-none-eabi/include/c++/14.2.1/bits/stl_algobase.h ****       template<typename _ForwardIterator1, typename _ForwardIterator2>
 134:/Applications/ArmGNUToolchain/14.2.rel1/arm-none-eabi/arm-none-eabi/include/c++/14.2.1/bits/stl_algobase.h **** 	static void
 135:/Applications/ArmGNUToolchain/14.2.rel1/arm-none-eabi/arm-none-eabi/include/c++/14.2.1/bits/stl_algobase.h **** 	iter_swap(_ForwardIterator1 __a, _ForwardIterator2 __b)
ARM GAS  /var/folders/y7/g6pkzsp12sx54x3s3mvyn15r0000gn/T//ccWX7ODC.s 			page 32


 136:/Applications/ArmGNUToolchain/14.2.rel1/arm-none-eabi/arm-none-eabi/include/c++/14.2.1/bits/stl_algobase.h **** 	{
 137:/Applications/ArmGNUToolchain/14.2.rel1/arm-none-eabi/arm-none-eabi/include/c++/14.2.1/bits/stl_algobase.h **** 	  swap(*__a, *__b);
 138:/Applications/ArmGNUToolchain/14.2.rel1/arm-none-eabi/arm-none-eabi/include/c++/14.2.1/bits/stl_algobase.h **** 	}
 139:/Applications/ArmGNUToolchain/14.2.rel1/arm-none-eabi/arm-none-eabi/include/c++/14.2.1/bits/stl_algobase.h ****     };
 140:/Applications/ArmGNUToolchain/14.2.rel1/arm-none-eabi/arm-none-eabi/include/c++/14.2.1/bits/stl_algobase.h **** #endif // C++03
 141:/Applications/ArmGNUToolchain/14.2.rel1/arm-none-eabi/arm-none-eabi/include/c++/14.2.1/bits/stl_algobase.h **** 
 142:/Applications/ArmGNUToolchain/14.2.rel1/arm-none-eabi/arm-none-eabi/include/c++/14.2.1/bits/stl_algobase.h ****   /**
 143:/Applications/ArmGNUToolchain/14.2.rel1/arm-none-eabi/arm-none-eabi/include/c++/14.2.1/bits/stl_algobase.h ****    *  @brief Swaps the contents of two iterators.
 144:/Applications/ArmGNUToolchain/14.2.rel1/arm-none-eabi/arm-none-eabi/include/c++/14.2.1/bits/stl_algobase.h ****    *  @ingroup mutating_algorithms
 145:/Applications/ArmGNUToolchain/14.2.rel1/arm-none-eabi/arm-none-eabi/include/c++/14.2.1/bits/stl_algobase.h ****    *  @param  __a  An iterator.
 146:/Applications/ArmGNUToolchain/14.2.rel1/arm-none-eabi/arm-none-eabi/include/c++/14.2.1/bits/stl_algobase.h ****    *  @param  __b  Another iterator.
 147:/Applications/ArmGNUToolchain/14.2.rel1/arm-none-eabi/arm-none-eabi/include/c++/14.2.1/bits/stl_algobase.h ****    *  @return   Nothing.
 148:/Applications/ArmGNUToolchain/14.2.rel1/arm-none-eabi/arm-none-eabi/include/c++/14.2.1/bits/stl_algobase.h ****    *
 149:/Applications/ArmGNUToolchain/14.2.rel1/arm-none-eabi/arm-none-eabi/include/c++/14.2.1/bits/stl_algobase.h ****    *  This function swaps the values pointed to by two iterators, not the
 150:/Applications/ArmGNUToolchain/14.2.rel1/arm-none-eabi/arm-none-eabi/include/c++/14.2.1/bits/stl_algobase.h ****    *  iterators themselves.
 151:/Applications/ArmGNUToolchain/14.2.rel1/arm-none-eabi/arm-none-eabi/include/c++/14.2.1/bits/stl_algobase.h ****   */
 152:/Applications/ArmGNUToolchain/14.2.rel1/arm-none-eabi/arm-none-eabi/include/c++/14.2.1/bits/stl_algobase.h ****   template<typename _ForwardIterator1, typename _ForwardIterator2>
 153:/Applications/ArmGNUToolchain/14.2.rel1/arm-none-eabi/arm-none-eabi/include/c++/14.2.1/bits/stl_algobase.h ****     _GLIBCXX20_CONSTEXPR
 154:/Applications/ArmGNUToolchain/14.2.rel1/arm-none-eabi/arm-none-eabi/include/c++/14.2.1/bits/stl_algobase.h ****     inline void
 155:/Applications/ArmGNUToolchain/14.2.rel1/arm-none-eabi/arm-none-eabi/include/c++/14.2.1/bits/stl_algobase.h ****     iter_swap(_ForwardIterator1 __a, _ForwardIterator2 __b)
 156:/Applications/ArmGNUToolchain/14.2.rel1/arm-none-eabi/arm-none-eabi/include/c++/14.2.1/bits/stl_algobase.h ****     {
 157:/Applications/ArmGNUToolchain/14.2.rel1/arm-none-eabi/arm-none-eabi/include/c++/14.2.1/bits/stl_algobase.h ****       // concept requirements
 158:/Applications/ArmGNUToolchain/14.2.rel1/arm-none-eabi/arm-none-eabi/include/c++/14.2.1/bits/stl_algobase.h ****       __glibcxx_function_requires(_Mutable_ForwardIteratorConcept<
 159:/Applications/ArmGNUToolchain/14.2.rel1/arm-none-eabi/arm-none-eabi/include/c++/14.2.1/bits/stl_algobase.h **** 				  _ForwardIterator1>)
 160:/Applications/ArmGNUToolchain/14.2.rel1/arm-none-eabi/arm-none-eabi/include/c++/14.2.1/bits/stl_algobase.h ****       __glibcxx_function_requires(_Mutable_ForwardIteratorConcept<
 161:/Applications/ArmGNUToolchain/14.2.rel1/arm-none-eabi/arm-none-eabi/include/c++/14.2.1/bits/stl_algobase.h **** 				  _ForwardIterator2>)
 162:/Applications/ArmGNUToolchain/14.2.rel1/arm-none-eabi/arm-none-eabi/include/c++/14.2.1/bits/stl_algobase.h **** 
 163:/Applications/ArmGNUToolchain/14.2.rel1/arm-none-eabi/arm-none-eabi/include/c++/14.2.1/bits/stl_algobase.h **** #if __cplusplus < 201103L
 164:/Applications/ArmGNUToolchain/14.2.rel1/arm-none-eabi/arm-none-eabi/include/c++/14.2.1/bits/stl_algobase.h ****       typedef typename iterator_traits<_ForwardIterator1>::value_type
 165:/Applications/ArmGNUToolchain/14.2.rel1/arm-none-eabi/arm-none-eabi/include/c++/14.2.1/bits/stl_algobase.h **** 	_ValueType1;
 166:/Applications/ArmGNUToolchain/14.2.rel1/arm-none-eabi/arm-none-eabi/include/c++/14.2.1/bits/stl_algobase.h ****       typedef typename iterator_traits<_ForwardIterator2>::value_type
 167:/Applications/ArmGNUToolchain/14.2.rel1/arm-none-eabi/arm-none-eabi/include/c++/14.2.1/bits/stl_algobase.h **** 	_ValueType2;
 168:/Applications/ArmGNUToolchain/14.2.rel1/arm-none-eabi/arm-none-eabi/include/c++/14.2.1/bits/stl_algobase.h **** 
 169:/Applications/ArmGNUToolchain/14.2.rel1/arm-none-eabi/arm-none-eabi/include/c++/14.2.1/bits/stl_algobase.h ****       __glibcxx_function_requires(_ConvertibleConcept<_ValueType1,
 170:/Applications/ArmGNUToolchain/14.2.rel1/arm-none-eabi/arm-none-eabi/include/c++/14.2.1/bits/stl_algobase.h **** 				  _ValueType2>)
 171:/Applications/ArmGNUToolchain/14.2.rel1/arm-none-eabi/arm-none-eabi/include/c++/14.2.1/bits/stl_algobase.h ****       __glibcxx_function_requires(_ConvertibleConcept<_ValueType2,
 172:/Applications/ArmGNUToolchain/14.2.rel1/arm-none-eabi/arm-none-eabi/include/c++/14.2.1/bits/stl_algobase.h **** 				  _ValueType1>)
 173:/Applications/ArmGNUToolchain/14.2.rel1/arm-none-eabi/arm-none-eabi/include/c++/14.2.1/bits/stl_algobase.h **** 
 174:/Applications/ArmGNUToolchain/14.2.rel1/arm-none-eabi/arm-none-eabi/include/c++/14.2.1/bits/stl_algobase.h ****       typedef typename iterator_traits<_ForwardIterator1>::reference
 175:/Applications/ArmGNUToolchain/14.2.rel1/arm-none-eabi/arm-none-eabi/include/c++/14.2.1/bits/stl_algobase.h **** 	_ReferenceType1;
 176:/Applications/ArmGNUToolchain/14.2.rel1/arm-none-eabi/arm-none-eabi/include/c++/14.2.1/bits/stl_algobase.h ****       typedef typename iterator_traits<_ForwardIterator2>::reference
 177:/Applications/ArmGNUToolchain/14.2.rel1/arm-none-eabi/arm-none-eabi/include/c++/14.2.1/bits/stl_algobase.h **** 	_ReferenceType2;
 178:/Applications/ArmGNUToolchain/14.2.rel1/arm-none-eabi/arm-none-eabi/include/c++/14.2.1/bits/stl_algobase.h ****       std::__iter_swap<__are_same<_ValueType1, _ValueType2>::__value
 179:/Applications/ArmGNUToolchain/14.2.rel1/arm-none-eabi/arm-none-eabi/include/c++/14.2.1/bits/stl_algobase.h **** 	&& __are_same<_ValueType1&, _ReferenceType1>::__value
 180:/Applications/ArmGNUToolchain/14.2.rel1/arm-none-eabi/arm-none-eabi/include/c++/14.2.1/bits/stl_algobase.h **** 	&& __are_same<_ValueType2&, _ReferenceType2>::__value>::
 181:/Applications/ArmGNUToolchain/14.2.rel1/arm-none-eabi/arm-none-eabi/include/c++/14.2.1/bits/stl_algobase.h **** 	iter_swap(__a, __b);
 182:/Applications/ArmGNUToolchain/14.2.rel1/arm-none-eabi/arm-none-eabi/include/c++/14.2.1/bits/stl_algobase.h **** #else
 183:/Applications/ArmGNUToolchain/14.2.rel1/arm-none-eabi/arm-none-eabi/include/c++/14.2.1/bits/stl_algobase.h ****       // _GLIBCXX_RESOLVE_LIB_DEFECTS
 184:/Applications/ArmGNUToolchain/14.2.rel1/arm-none-eabi/arm-none-eabi/include/c++/14.2.1/bits/stl_algobase.h ****       // 187. iter_swap underspecified
 185:/Applications/ArmGNUToolchain/14.2.rel1/arm-none-eabi/arm-none-eabi/include/c++/14.2.1/bits/stl_algobase.h ****       swap(*__a, *__b);
 186:/Applications/ArmGNUToolchain/14.2.rel1/arm-none-eabi/arm-none-eabi/include/c++/14.2.1/bits/stl_algobase.h **** #endif
 187:/Applications/ArmGNUToolchain/14.2.rel1/arm-none-eabi/arm-none-eabi/include/c++/14.2.1/bits/stl_algobase.h ****     }
 188:/Applications/ArmGNUToolchain/14.2.rel1/arm-none-eabi/arm-none-eabi/include/c++/14.2.1/bits/stl_algobase.h **** 
 189:/Applications/ArmGNUToolchain/14.2.rel1/arm-none-eabi/arm-none-eabi/include/c++/14.2.1/bits/stl_algobase.h ****   /**
 190:/Applications/ArmGNUToolchain/14.2.rel1/arm-none-eabi/arm-none-eabi/include/c++/14.2.1/bits/stl_algobase.h ****    *  @brief Swap the elements of two sequences.
 191:/Applications/ArmGNUToolchain/14.2.rel1/arm-none-eabi/arm-none-eabi/include/c++/14.2.1/bits/stl_algobase.h ****    *  @ingroup mutating_algorithms
 192:/Applications/ArmGNUToolchain/14.2.rel1/arm-none-eabi/arm-none-eabi/include/c++/14.2.1/bits/stl_algobase.h ****    *  @param  __first1  A forward iterator.
ARM GAS  /var/folders/y7/g6pkzsp12sx54x3s3mvyn15r0000gn/T//ccWX7ODC.s 			page 33


 193:/Applications/ArmGNUToolchain/14.2.rel1/arm-none-eabi/arm-none-eabi/include/c++/14.2.1/bits/stl_algobase.h ****    *  @param  __last1   A forward iterator.
 194:/Applications/ArmGNUToolchain/14.2.rel1/arm-none-eabi/arm-none-eabi/include/c++/14.2.1/bits/stl_algobase.h ****    *  @param  __first2  A forward iterator.
 195:/Applications/ArmGNUToolchain/14.2.rel1/arm-none-eabi/arm-none-eabi/include/c++/14.2.1/bits/stl_algobase.h ****    *  @return   An iterator equal to @p first2+(last1-first1).
 196:/Applications/ArmGNUToolchain/14.2.rel1/arm-none-eabi/arm-none-eabi/include/c++/14.2.1/bits/stl_algobase.h ****    *
 197:/Applications/ArmGNUToolchain/14.2.rel1/arm-none-eabi/arm-none-eabi/include/c++/14.2.1/bits/stl_algobase.h ****    *  Swaps each element in the range @p [first1,last1) with the
 198:/Applications/ArmGNUToolchain/14.2.rel1/arm-none-eabi/arm-none-eabi/include/c++/14.2.1/bits/stl_algobase.h ****    *  corresponding element in the range @p [first2,(last1-first1)).
 199:/Applications/ArmGNUToolchain/14.2.rel1/arm-none-eabi/arm-none-eabi/include/c++/14.2.1/bits/stl_algobase.h ****    *  The ranges must not overlap.
 200:/Applications/ArmGNUToolchain/14.2.rel1/arm-none-eabi/arm-none-eabi/include/c++/14.2.1/bits/stl_algobase.h ****   */
 201:/Applications/ArmGNUToolchain/14.2.rel1/arm-none-eabi/arm-none-eabi/include/c++/14.2.1/bits/stl_algobase.h ****   template<typename _ForwardIterator1, typename _ForwardIterator2>
 202:/Applications/ArmGNUToolchain/14.2.rel1/arm-none-eabi/arm-none-eabi/include/c++/14.2.1/bits/stl_algobase.h ****     _GLIBCXX20_CONSTEXPR
 203:/Applications/ArmGNUToolchain/14.2.rel1/arm-none-eabi/arm-none-eabi/include/c++/14.2.1/bits/stl_algobase.h ****     _ForwardIterator2
 204:/Applications/ArmGNUToolchain/14.2.rel1/arm-none-eabi/arm-none-eabi/include/c++/14.2.1/bits/stl_algobase.h ****     swap_ranges(_ForwardIterator1 __first1, _ForwardIterator1 __last1,
 205:/Applications/ArmGNUToolchain/14.2.rel1/arm-none-eabi/arm-none-eabi/include/c++/14.2.1/bits/stl_algobase.h **** 		_ForwardIterator2 __first2)
 206:/Applications/ArmGNUToolchain/14.2.rel1/arm-none-eabi/arm-none-eabi/include/c++/14.2.1/bits/stl_algobase.h ****     {
 207:/Applications/ArmGNUToolchain/14.2.rel1/arm-none-eabi/arm-none-eabi/include/c++/14.2.1/bits/stl_algobase.h ****       // concept requirements
 208:/Applications/ArmGNUToolchain/14.2.rel1/arm-none-eabi/arm-none-eabi/include/c++/14.2.1/bits/stl_algobase.h ****       __glibcxx_function_requires(_Mutable_ForwardIteratorConcept<
 209:/Applications/ArmGNUToolchain/14.2.rel1/arm-none-eabi/arm-none-eabi/include/c++/14.2.1/bits/stl_algobase.h **** 				  _ForwardIterator1>)
 210:/Applications/ArmGNUToolchain/14.2.rel1/arm-none-eabi/arm-none-eabi/include/c++/14.2.1/bits/stl_algobase.h ****       __glibcxx_function_requires(_Mutable_ForwardIteratorConcept<
 211:/Applications/ArmGNUToolchain/14.2.rel1/arm-none-eabi/arm-none-eabi/include/c++/14.2.1/bits/stl_algobase.h **** 				  _ForwardIterator2>)
 212:/Applications/ArmGNUToolchain/14.2.rel1/arm-none-eabi/arm-none-eabi/include/c++/14.2.1/bits/stl_algobase.h ****       __glibcxx_requires_valid_range(__first1, __last1);
 213:/Applications/ArmGNUToolchain/14.2.rel1/arm-none-eabi/arm-none-eabi/include/c++/14.2.1/bits/stl_algobase.h **** 
 214:/Applications/ArmGNUToolchain/14.2.rel1/arm-none-eabi/arm-none-eabi/include/c++/14.2.1/bits/stl_algobase.h ****       for (; __first1 != __last1; ++__first1, (void)++__first2)
 215:/Applications/ArmGNUToolchain/14.2.rel1/arm-none-eabi/arm-none-eabi/include/c++/14.2.1/bits/stl_algobase.h **** 	std::iter_swap(__first1, __first2);
 216:/Applications/ArmGNUToolchain/14.2.rel1/arm-none-eabi/arm-none-eabi/include/c++/14.2.1/bits/stl_algobase.h ****       return __first2;
 217:/Applications/ArmGNUToolchain/14.2.rel1/arm-none-eabi/arm-none-eabi/include/c++/14.2.1/bits/stl_algobase.h ****     }
 218:/Applications/ArmGNUToolchain/14.2.rel1/arm-none-eabi/arm-none-eabi/include/c++/14.2.1/bits/stl_algobase.h **** 
 219:/Applications/ArmGNUToolchain/14.2.rel1/arm-none-eabi/arm-none-eabi/include/c++/14.2.1/bits/stl_algobase.h ****   /**
 220:/Applications/ArmGNUToolchain/14.2.rel1/arm-none-eabi/arm-none-eabi/include/c++/14.2.1/bits/stl_algobase.h ****    *  @brief This does what you think it does.
 221:/Applications/ArmGNUToolchain/14.2.rel1/arm-none-eabi/arm-none-eabi/include/c++/14.2.1/bits/stl_algobase.h ****    *  @ingroup sorting_algorithms
 222:/Applications/ArmGNUToolchain/14.2.rel1/arm-none-eabi/arm-none-eabi/include/c++/14.2.1/bits/stl_algobase.h ****    *  @param  __a  A thing of arbitrary type.
 223:/Applications/ArmGNUToolchain/14.2.rel1/arm-none-eabi/arm-none-eabi/include/c++/14.2.1/bits/stl_algobase.h ****    *  @param  __b  Another thing of arbitrary type.
 224:/Applications/ArmGNUToolchain/14.2.rel1/arm-none-eabi/arm-none-eabi/include/c++/14.2.1/bits/stl_algobase.h ****    *  @return   The lesser of the parameters.
 225:/Applications/ArmGNUToolchain/14.2.rel1/arm-none-eabi/arm-none-eabi/include/c++/14.2.1/bits/stl_algobase.h ****    *
 226:/Applications/ArmGNUToolchain/14.2.rel1/arm-none-eabi/arm-none-eabi/include/c++/14.2.1/bits/stl_algobase.h ****    *  This is the simple classic generic implementation.  It will work on
 227:/Applications/ArmGNUToolchain/14.2.rel1/arm-none-eabi/arm-none-eabi/include/c++/14.2.1/bits/stl_algobase.h ****    *  temporary expressions, since they are only evaluated once, unlike a
 228:/Applications/ArmGNUToolchain/14.2.rel1/arm-none-eabi/arm-none-eabi/include/c++/14.2.1/bits/stl_algobase.h ****    *  preprocessor macro.
 229:/Applications/ArmGNUToolchain/14.2.rel1/arm-none-eabi/arm-none-eabi/include/c++/14.2.1/bits/stl_algobase.h ****   */
 230:/Applications/ArmGNUToolchain/14.2.rel1/arm-none-eabi/arm-none-eabi/include/c++/14.2.1/bits/stl_algobase.h ****   template<typename _Tp>
 231:/Applications/ArmGNUToolchain/14.2.rel1/arm-none-eabi/arm-none-eabi/include/c++/14.2.1/bits/stl_algobase.h ****     _GLIBCXX_NODISCARD _GLIBCXX14_CONSTEXPR
 232:/Applications/ArmGNUToolchain/14.2.rel1/arm-none-eabi/arm-none-eabi/include/c++/14.2.1/bits/stl_algobase.h ****     inline const _Tp&
 233:/Applications/ArmGNUToolchain/14.2.rel1/arm-none-eabi/arm-none-eabi/include/c++/14.2.1/bits/stl_algobase.h ****     min(const _Tp& __a, const _Tp& __b)
 234:/Applications/ArmGNUToolchain/14.2.rel1/arm-none-eabi/arm-none-eabi/include/c++/14.2.1/bits/stl_algobase.h ****     {
 235:/Applications/ArmGNUToolchain/14.2.rel1/arm-none-eabi/arm-none-eabi/include/c++/14.2.1/bits/stl_algobase.h ****       // concept requirements
 236:/Applications/ArmGNUToolchain/14.2.rel1/arm-none-eabi/arm-none-eabi/include/c++/14.2.1/bits/stl_algobase.h ****       __glibcxx_function_requires(_LessThanComparableConcept<_Tp>)
 237:/Applications/ArmGNUToolchain/14.2.rel1/arm-none-eabi/arm-none-eabi/include/c++/14.2.1/bits/stl_algobase.h ****       //return __b < __a ? __b : __a;
 238:/Applications/ArmGNUToolchain/14.2.rel1/arm-none-eabi/arm-none-eabi/include/c++/14.2.1/bits/stl_algobase.h ****       if (__b < __a)
 239:/Applications/ArmGNUToolchain/14.2.rel1/arm-none-eabi/arm-none-eabi/include/c++/14.2.1/bits/stl_algobase.h **** 	return __b;
 240:/Applications/ArmGNUToolchain/14.2.rel1/arm-none-eabi/arm-none-eabi/include/c++/14.2.1/bits/stl_algobase.h ****       return __a;
 241:/Applications/ArmGNUToolchain/14.2.rel1/arm-none-eabi/arm-none-eabi/include/c++/14.2.1/bits/stl_algobase.h ****     }
 242:/Applications/ArmGNUToolchain/14.2.rel1/arm-none-eabi/arm-none-eabi/include/c++/14.2.1/bits/stl_algobase.h **** 
 243:/Applications/ArmGNUToolchain/14.2.rel1/arm-none-eabi/arm-none-eabi/include/c++/14.2.1/bits/stl_algobase.h ****   /**
 244:/Applications/ArmGNUToolchain/14.2.rel1/arm-none-eabi/arm-none-eabi/include/c++/14.2.1/bits/stl_algobase.h ****    *  @brief This does what you think it does.
 245:/Applications/ArmGNUToolchain/14.2.rel1/arm-none-eabi/arm-none-eabi/include/c++/14.2.1/bits/stl_algobase.h ****    *  @ingroup sorting_algorithms
 246:/Applications/ArmGNUToolchain/14.2.rel1/arm-none-eabi/arm-none-eabi/include/c++/14.2.1/bits/stl_algobase.h ****    *  @param  __a  A thing of arbitrary type.
 247:/Applications/ArmGNUToolchain/14.2.rel1/arm-none-eabi/arm-none-eabi/include/c++/14.2.1/bits/stl_algobase.h ****    *  @param  __b  Another thing of arbitrary type.
 248:/Applications/ArmGNUToolchain/14.2.rel1/arm-none-eabi/arm-none-eabi/include/c++/14.2.1/bits/stl_algobase.h ****    *  @return   The greater of the parameters.
 249:/Applications/ArmGNUToolchain/14.2.rel1/arm-none-eabi/arm-none-eabi/include/c++/14.2.1/bits/stl_algobase.h ****    *
ARM GAS  /var/folders/y7/g6pkzsp12sx54x3s3mvyn15r0000gn/T//ccWX7ODC.s 			page 34


 250:/Applications/ArmGNUToolchain/14.2.rel1/arm-none-eabi/arm-none-eabi/include/c++/14.2.1/bits/stl_algobase.h ****    *  This is the simple classic generic implementation.  It will work on
 251:/Applications/ArmGNUToolchain/14.2.rel1/arm-none-eabi/arm-none-eabi/include/c++/14.2.1/bits/stl_algobase.h ****    *  temporary expressions, since they are only evaluated once, unlike a
 252:/Applications/ArmGNUToolchain/14.2.rel1/arm-none-eabi/arm-none-eabi/include/c++/14.2.1/bits/stl_algobase.h ****    *  preprocessor macro.
 253:/Applications/ArmGNUToolchain/14.2.rel1/arm-none-eabi/arm-none-eabi/include/c++/14.2.1/bits/stl_algobase.h ****   */
 254:/Applications/ArmGNUToolchain/14.2.rel1/arm-none-eabi/arm-none-eabi/include/c++/14.2.1/bits/stl_algobase.h ****   template<typename _Tp>
 255:/Applications/ArmGNUToolchain/14.2.rel1/arm-none-eabi/arm-none-eabi/include/c++/14.2.1/bits/stl_algobase.h ****     _GLIBCXX_NODISCARD _GLIBCXX14_CONSTEXPR
 256:/Applications/ArmGNUToolchain/14.2.rel1/arm-none-eabi/arm-none-eabi/include/c++/14.2.1/bits/stl_algobase.h ****     inline const _Tp&
 257:/Applications/ArmGNUToolchain/14.2.rel1/arm-none-eabi/arm-none-eabi/include/c++/14.2.1/bits/stl_algobase.h ****     max(const _Tp& __a, const _Tp& __b)
 258:/Applications/ArmGNUToolchain/14.2.rel1/arm-none-eabi/arm-none-eabi/include/c++/14.2.1/bits/stl_algobase.h ****     {
 259:/Applications/ArmGNUToolchain/14.2.rel1/arm-none-eabi/arm-none-eabi/include/c++/14.2.1/bits/stl_algobase.h ****       // concept requirements
 260:/Applications/ArmGNUToolchain/14.2.rel1/arm-none-eabi/arm-none-eabi/include/c++/14.2.1/bits/stl_algobase.h ****       __glibcxx_function_requires(_LessThanComparableConcept<_Tp>)
 261:/Applications/ArmGNUToolchain/14.2.rel1/arm-none-eabi/arm-none-eabi/include/c++/14.2.1/bits/stl_algobase.h ****       //return  __a < __b ? __b : __a;
 262:/Applications/ArmGNUToolchain/14.2.rel1/arm-none-eabi/arm-none-eabi/include/c++/14.2.1/bits/stl_algobase.h ****       if (__a < __b)
 263:/Applications/ArmGNUToolchain/14.2.rel1/arm-none-eabi/arm-none-eabi/include/c++/14.2.1/bits/stl_algobase.h **** 	return __b;
 264:/Applications/ArmGNUToolchain/14.2.rel1/arm-none-eabi/arm-none-eabi/include/c++/14.2.1/bits/stl_algobase.h ****       return __a;
 265:/Applications/ArmGNUToolchain/14.2.rel1/arm-none-eabi/arm-none-eabi/include/c++/14.2.1/bits/stl_algobase.h ****     }
 266:/Applications/ArmGNUToolchain/14.2.rel1/arm-none-eabi/arm-none-eabi/include/c++/14.2.1/bits/stl_algobase.h **** 
 267:/Applications/ArmGNUToolchain/14.2.rel1/arm-none-eabi/arm-none-eabi/include/c++/14.2.1/bits/stl_algobase.h ****   /**
 268:/Applications/ArmGNUToolchain/14.2.rel1/arm-none-eabi/arm-none-eabi/include/c++/14.2.1/bits/stl_algobase.h ****    *  @brief This does what you think it does.
 269:/Applications/ArmGNUToolchain/14.2.rel1/arm-none-eabi/arm-none-eabi/include/c++/14.2.1/bits/stl_algobase.h ****    *  @ingroup sorting_algorithms
 270:/Applications/ArmGNUToolchain/14.2.rel1/arm-none-eabi/arm-none-eabi/include/c++/14.2.1/bits/stl_algobase.h ****    *  @param  __a  A thing of arbitrary type.
 271:/Applications/ArmGNUToolchain/14.2.rel1/arm-none-eabi/arm-none-eabi/include/c++/14.2.1/bits/stl_algobase.h ****    *  @param  __b  Another thing of arbitrary type.
 272:/Applications/ArmGNUToolchain/14.2.rel1/arm-none-eabi/arm-none-eabi/include/c++/14.2.1/bits/stl_algobase.h ****    *  @param  __comp  A @link comparison_functors comparison functor@endlink.
 273:/Applications/ArmGNUToolchain/14.2.rel1/arm-none-eabi/arm-none-eabi/include/c++/14.2.1/bits/stl_algobase.h ****    *  @return   The lesser of the parameters.
 274:/Applications/ArmGNUToolchain/14.2.rel1/arm-none-eabi/arm-none-eabi/include/c++/14.2.1/bits/stl_algobase.h ****    *
 275:/Applications/ArmGNUToolchain/14.2.rel1/arm-none-eabi/arm-none-eabi/include/c++/14.2.1/bits/stl_algobase.h ****    *  This will work on temporary expressions, since they are only evaluated
 276:/Applications/ArmGNUToolchain/14.2.rel1/arm-none-eabi/arm-none-eabi/include/c++/14.2.1/bits/stl_algobase.h ****    *  once, unlike a preprocessor macro.
 277:/Applications/ArmGNUToolchain/14.2.rel1/arm-none-eabi/arm-none-eabi/include/c++/14.2.1/bits/stl_algobase.h ****   */
 278:/Applications/ArmGNUToolchain/14.2.rel1/arm-none-eabi/arm-none-eabi/include/c++/14.2.1/bits/stl_algobase.h ****   template<typename _Tp, typename _Compare>
 279:/Applications/ArmGNUToolchain/14.2.rel1/arm-none-eabi/arm-none-eabi/include/c++/14.2.1/bits/stl_algobase.h ****     _GLIBCXX_NODISCARD _GLIBCXX14_CONSTEXPR
 280:/Applications/ArmGNUToolchain/14.2.rel1/arm-none-eabi/arm-none-eabi/include/c++/14.2.1/bits/stl_algobase.h ****     inline const _Tp&
 281:/Applications/ArmGNUToolchain/14.2.rel1/arm-none-eabi/arm-none-eabi/include/c++/14.2.1/bits/stl_algobase.h ****     min(const _Tp& __a, const _Tp& __b, _Compare __comp)
 282:/Applications/ArmGNUToolchain/14.2.rel1/arm-none-eabi/arm-none-eabi/include/c++/14.2.1/bits/stl_algobase.h ****     {
 283:/Applications/ArmGNUToolchain/14.2.rel1/arm-none-eabi/arm-none-eabi/include/c++/14.2.1/bits/stl_algobase.h ****       //return __comp(__b, __a) ? __b : __a;
 284:/Applications/ArmGNUToolchain/14.2.rel1/arm-none-eabi/arm-none-eabi/include/c++/14.2.1/bits/stl_algobase.h ****       if (__comp(__b, __a))
 285:/Applications/ArmGNUToolchain/14.2.rel1/arm-none-eabi/arm-none-eabi/include/c++/14.2.1/bits/stl_algobase.h **** 	return __b;
 286:/Applications/ArmGNUToolchain/14.2.rel1/arm-none-eabi/arm-none-eabi/include/c++/14.2.1/bits/stl_algobase.h ****       return __a;
 287:/Applications/ArmGNUToolchain/14.2.rel1/arm-none-eabi/arm-none-eabi/include/c++/14.2.1/bits/stl_algobase.h ****     }
 288:/Applications/ArmGNUToolchain/14.2.rel1/arm-none-eabi/arm-none-eabi/include/c++/14.2.1/bits/stl_algobase.h **** 
 289:/Applications/ArmGNUToolchain/14.2.rel1/arm-none-eabi/arm-none-eabi/include/c++/14.2.1/bits/stl_algobase.h ****   /**
 290:/Applications/ArmGNUToolchain/14.2.rel1/arm-none-eabi/arm-none-eabi/include/c++/14.2.1/bits/stl_algobase.h ****    *  @brief This does what you think it does.
 291:/Applications/ArmGNUToolchain/14.2.rel1/arm-none-eabi/arm-none-eabi/include/c++/14.2.1/bits/stl_algobase.h ****    *  @ingroup sorting_algorithms
 292:/Applications/ArmGNUToolchain/14.2.rel1/arm-none-eabi/arm-none-eabi/include/c++/14.2.1/bits/stl_algobase.h ****    *  @param  __a  A thing of arbitrary type.
 293:/Applications/ArmGNUToolchain/14.2.rel1/arm-none-eabi/arm-none-eabi/include/c++/14.2.1/bits/stl_algobase.h ****    *  @param  __b  Another thing of arbitrary type.
 294:/Applications/ArmGNUToolchain/14.2.rel1/arm-none-eabi/arm-none-eabi/include/c++/14.2.1/bits/stl_algobase.h ****    *  @param  __comp  A @link comparison_functors comparison functor@endlink.
 295:/Applications/ArmGNUToolchain/14.2.rel1/arm-none-eabi/arm-none-eabi/include/c++/14.2.1/bits/stl_algobase.h ****    *  @return   The greater of the parameters.
 296:/Applications/ArmGNUToolchain/14.2.rel1/arm-none-eabi/arm-none-eabi/include/c++/14.2.1/bits/stl_algobase.h ****    *
 297:/Applications/ArmGNUToolchain/14.2.rel1/arm-none-eabi/arm-none-eabi/include/c++/14.2.1/bits/stl_algobase.h ****    *  This will work on temporary expressions, since they are only evaluated
 298:/Applications/ArmGNUToolchain/14.2.rel1/arm-none-eabi/arm-none-eabi/include/c++/14.2.1/bits/stl_algobase.h ****    *  once, unlike a preprocessor macro.
 299:/Applications/ArmGNUToolchain/14.2.rel1/arm-none-eabi/arm-none-eabi/include/c++/14.2.1/bits/stl_algobase.h ****   */
 300:/Applications/ArmGNUToolchain/14.2.rel1/arm-none-eabi/arm-none-eabi/include/c++/14.2.1/bits/stl_algobase.h ****   template<typename _Tp, typename _Compare>
 301:/Applications/ArmGNUToolchain/14.2.rel1/arm-none-eabi/arm-none-eabi/include/c++/14.2.1/bits/stl_algobase.h ****     _GLIBCXX_NODISCARD _GLIBCXX14_CONSTEXPR
 302:/Applications/ArmGNUToolchain/14.2.rel1/arm-none-eabi/arm-none-eabi/include/c++/14.2.1/bits/stl_algobase.h ****     inline const _Tp&
 303:/Applications/ArmGNUToolchain/14.2.rel1/arm-none-eabi/arm-none-eabi/include/c++/14.2.1/bits/stl_algobase.h ****     max(const _Tp& __a, const _Tp& __b, _Compare __comp)
 304:/Applications/ArmGNUToolchain/14.2.rel1/arm-none-eabi/arm-none-eabi/include/c++/14.2.1/bits/stl_algobase.h ****     {
 305:/Applications/ArmGNUToolchain/14.2.rel1/arm-none-eabi/arm-none-eabi/include/c++/14.2.1/bits/stl_algobase.h ****       //return __comp(__a, __b) ? __b : __a;
 306:/Applications/ArmGNUToolchain/14.2.rel1/arm-none-eabi/arm-none-eabi/include/c++/14.2.1/bits/stl_algobase.h ****       if (__comp(__a, __b))
ARM GAS  /var/folders/y7/g6pkzsp12sx54x3s3mvyn15r0000gn/T//ccWX7ODC.s 			page 35


 307:/Applications/ArmGNUToolchain/14.2.rel1/arm-none-eabi/arm-none-eabi/include/c++/14.2.1/bits/stl_algobase.h **** 	return __b;
 308:/Applications/ArmGNUToolchain/14.2.rel1/arm-none-eabi/arm-none-eabi/include/c++/14.2.1/bits/stl_algobase.h ****       return __a;
 309:/Applications/ArmGNUToolchain/14.2.rel1/arm-none-eabi/arm-none-eabi/include/c++/14.2.1/bits/stl_algobase.h ****     }
 310:/Applications/ArmGNUToolchain/14.2.rel1/arm-none-eabi/arm-none-eabi/include/c++/14.2.1/bits/stl_algobase.h **** 
 311:/Applications/ArmGNUToolchain/14.2.rel1/arm-none-eabi/arm-none-eabi/include/c++/14.2.1/bits/stl_algobase.h ****   // Fallback implementation of the function in bits/stl_iterator.h used to
 312:/Applications/ArmGNUToolchain/14.2.rel1/arm-none-eabi/arm-none-eabi/include/c++/14.2.1/bits/stl_algobase.h ****   // remove the __normal_iterator wrapper. See copy, fill, ...
 313:/Applications/ArmGNUToolchain/14.2.rel1/arm-none-eabi/arm-none-eabi/include/c++/14.2.1/bits/stl_algobase.h ****   template<typename _Iterator>
 314:/Applications/ArmGNUToolchain/14.2.rel1/arm-none-eabi/arm-none-eabi/include/c++/14.2.1/bits/stl_algobase.h ****     _GLIBCXX20_CONSTEXPR
 315:/Applications/ArmGNUToolchain/14.2.rel1/arm-none-eabi/arm-none-eabi/include/c++/14.2.1/bits/stl_algobase.h ****     inline _Iterator
 316:/Applications/ArmGNUToolchain/14.2.rel1/arm-none-eabi/arm-none-eabi/include/c++/14.2.1/bits/stl_algobase.h ****     __niter_base(_Iterator __it)
 317:/Applications/ArmGNUToolchain/14.2.rel1/arm-none-eabi/arm-none-eabi/include/c++/14.2.1/bits/stl_algobase.h ****     _GLIBCXX_NOEXCEPT_IF(std::is_nothrow_copy_constructible<_Iterator>::value)
 318:/Applications/ArmGNUToolchain/14.2.rel1/arm-none-eabi/arm-none-eabi/include/c++/14.2.1/bits/stl_algobase.h ****     { return __it; }
 319:/Applications/ArmGNUToolchain/14.2.rel1/arm-none-eabi/arm-none-eabi/include/c++/14.2.1/bits/stl_algobase.h **** 
 320:/Applications/ArmGNUToolchain/14.2.rel1/arm-none-eabi/arm-none-eabi/include/c++/14.2.1/bits/stl_algobase.h **** #if __cplusplus < 201103L
 321:/Applications/ArmGNUToolchain/14.2.rel1/arm-none-eabi/arm-none-eabi/include/c++/14.2.1/bits/stl_algobase.h ****   template<typename _Ite, typename _Seq>
 322:/Applications/ArmGNUToolchain/14.2.rel1/arm-none-eabi/arm-none-eabi/include/c++/14.2.1/bits/stl_algobase.h ****     _Ite
 323:/Applications/ArmGNUToolchain/14.2.rel1/arm-none-eabi/arm-none-eabi/include/c++/14.2.1/bits/stl_algobase.h ****     __niter_base(const ::__gnu_debug::_Safe_iterator<_Ite, _Seq,
 324:/Applications/ArmGNUToolchain/14.2.rel1/arm-none-eabi/arm-none-eabi/include/c++/14.2.1/bits/stl_algobase.h **** 		 std::random_access_iterator_tag>&);
 325:/Applications/ArmGNUToolchain/14.2.rel1/arm-none-eabi/arm-none-eabi/include/c++/14.2.1/bits/stl_algobase.h **** 
 326:/Applications/ArmGNUToolchain/14.2.rel1/arm-none-eabi/arm-none-eabi/include/c++/14.2.1/bits/stl_algobase.h ****  template<typename _Ite, typename _Cont, typename _Seq>
 327:/Applications/ArmGNUToolchain/14.2.rel1/arm-none-eabi/arm-none-eabi/include/c++/14.2.1/bits/stl_algobase.h ****     _Ite
 328:/Applications/ArmGNUToolchain/14.2.rel1/arm-none-eabi/arm-none-eabi/include/c++/14.2.1/bits/stl_algobase.h ****     __niter_base(const ::__gnu_debug::_Safe_iterator<
 329:/Applications/ArmGNUToolchain/14.2.rel1/arm-none-eabi/arm-none-eabi/include/c++/14.2.1/bits/stl_algobase.h **** 		 ::__gnu_cxx::__normal_iterator<_Ite, _Cont>, _Seq,
 330:/Applications/ArmGNUToolchain/14.2.rel1/arm-none-eabi/arm-none-eabi/include/c++/14.2.1/bits/stl_algobase.h **** 		 std::random_access_iterator_tag>&);
 331:/Applications/ArmGNUToolchain/14.2.rel1/arm-none-eabi/arm-none-eabi/include/c++/14.2.1/bits/stl_algobase.h **** #else
 332:/Applications/ArmGNUToolchain/14.2.rel1/arm-none-eabi/arm-none-eabi/include/c++/14.2.1/bits/stl_algobase.h ****   template<typename _Ite, typename _Seq>
 333:/Applications/ArmGNUToolchain/14.2.rel1/arm-none-eabi/arm-none-eabi/include/c++/14.2.1/bits/stl_algobase.h ****     _GLIBCXX20_CONSTEXPR
 334:/Applications/ArmGNUToolchain/14.2.rel1/arm-none-eabi/arm-none-eabi/include/c++/14.2.1/bits/stl_algobase.h ****     decltype(std::__niter_base(std::declval<_Ite>()))
 335:/Applications/ArmGNUToolchain/14.2.rel1/arm-none-eabi/arm-none-eabi/include/c++/14.2.1/bits/stl_algobase.h ****     __niter_base(const ::__gnu_debug::_Safe_iterator<_Ite, _Seq,
 336:/Applications/ArmGNUToolchain/14.2.rel1/arm-none-eabi/arm-none-eabi/include/c++/14.2.1/bits/stl_algobase.h **** 		 std::random_access_iterator_tag>&)
 337:/Applications/ArmGNUToolchain/14.2.rel1/arm-none-eabi/arm-none-eabi/include/c++/14.2.1/bits/stl_algobase.h ****     noexcept(std::is_nothrow_copy_constructible<_Ite>::value);
 338:/Applications/ArmGNUToolchain/14.2.rel1/arm-none-eabi/arm-none-eabi/include/c++/14.2.1/bits/stl_algobase.h **** #endif
 339:/Applications/ArmGNUToolchain/14.2.rel1/arm-none-eabi/arm-none-eabi/include/c++/14.2.1/bits/stl_algobase.h **** 
 340:/Applications/ArmGNUToolchain/14.2.rel1/arm-none-eabi/arm-none-eabi/include/c++/14.2.1/bits/stl_algobase.h ****   // Reverse the __niter_base transformation to get a
 341:/Applications/ArmGNUToolchain/14.2.rel1/arm-none-eabi/arm-none-eabi/include/c++/14.2.1/bits/stl_algobase.h ****   // __normal_iterator back again (this assumes that __normal_iterator
 342:/Applications/ArmGNUToolchain/14.2.rel1/arm-none-eabi/arm-none-eabi/include/c++/14.2.1/bits/stl_algobase.h ****   // is only used to wrap random access iterators, like pointers).
 343:/Applications/ArmGNUToolchain/14.2.rel1/arm-none-eabi/arm-none-eabi/include/c++/14.2.1/bits/stl_algobase.h ****   template<typename _From, typename _To>
 344:/Applications/ArmGNUToolchain/14.2.rel1/arm-none-eabi/arm-none-eabi/include/c++/14.2.1/bits/stl_algobase.h ****     _GLIBCXX20_CONSTEXPR
 345:/Applications/ArmGNUToolchain/14.2.rel1/arm-none-eabi/arm-none-eabi/include/c++/14.2.1/bits/stl_algobase.h ****     inline _From
 346:/Applications/ArmGNUToolchain/14.2.rel1/arm-none-eabi/arm-none-eabi/include/c++/14.2.1/bits/stl_algobase.h ****     __niter_wrap(_From __from, _To __res)
 347:/Applications/ArmGNUToolchain/14.2.rel1/arm-none-eabi/arm-none-eabi/include/c++/14.2.1/bits/stl_algobase.h ****     { return __from + (std::__niter_base(__res) - std::__niter_base(__from)); }
 348:/Applications/ArmGNUToolchain/14.2.rel1/arm-none-eabi/arm-none-eabi/include/c++/14.2.1/bits/stl_algobase.h **** 
 349:/Applications/ArmGNUToolchain/14.2.rel1/arm-none-eabi/arm-none-eabi/include/c++/14.2.1/bits/stl_algobase.h ****   // No need to wrap, iterator already has the right type.
 350:/Applications/ArmGNUToolchain/14.2.rel1/arm-none-eabi/arm-none-eabi/include/c++/14.2.1/bits/stl_algobase.h ****   template<typename _Iterator>
 351:/Applications/ArmGNUToolchain/14.2.rel1/arm-none-eabi/arm-none-eabi/include/c++/14.2.1/bits/stl_algobase.h ****     _GLIBCXX20_CONSTEXPR
 352:/Applications/ArmGNUToolchain/14.2.rel1/arm-none-eabi/arm-none-eabi/include/c++/14.2.1/bits/stl_algobase.h ****     inline _Iterator
 353:/Applications/ArmGNUToolchain/14.2.rel1/arm-none-eabi/arm-none-eabi/include/c++/14.2.1/bits/stl_algobase.h ****     __niter_wrap(const _Iterator&, _Iterator __res)
 354:/Applications/ArmGNUToolchain/14.2.rel1/arm-none-eabi/arm-none-eabi/include/c++/14.2.1/bits/stl_algobase.h ****     { return __res; }
 355:/Applications/ArmGNUToolchain/14.2.rel1/arm-none-eabi/arm-none-eabi/include/c++/14.2.1/bits/stl_algobase.h **** 
 356:/Applications/ArmGNUToolchain/14.2.rel1/arm-none-eabi/arm-none-eabi/include/c++/14.2.1/bits/stl_algobase.h ****   // All of these auxiliary structs serve two purposes.  (1) Replace
 357:/Applications/ArmGNUToolchain/14.2.rel1/arm-none-eabi/arm-none-eabi/include/c++/14.2.1/bits/stl_algobase.h ****   // calls to copy with memmove whenever possible.  (Memmove, not memcpy,
 358:/Applications/ArmGNUToolchain/14.2.rel1/arm-none-eabi/arm-none-eabi/include/c++/14.2.1/bits/stl_algobase.h ****   // because the input and output ranges are permitted to overlap.)
 359:/Applications/ArmGNUToolchain/14.2.rel1/arm-none-eabi/arm-none-eabi/include/c++/14.2.1/bits/stl_algobase.h ****   // (2) If we're using random access iterators, then write the loop as
 360:/Applications/ArmGNUToolchain/14.2.rel1/arm-none-eabi/arm-none-eabi/include/c++/14.2.1/bits/stl_algobase.h ****   // a for loop with an explicit count.
 361:/Applications/ArmGNUToolchain/14.2.rel1/arm-none-eabi/arm-none-eabi/include/c++/14.2.1/bits/stl_algobase.h **** 
 362:/Applications/ArmGNUToolchain/14.2.rel1/arm-none-eabi/arm-none-eabi/include/c++/14.2.1/bits/stl_algobase.h ****   template<bool _IsMove, bool _IsSimple, typename _Category>
 363:/Applications/ArmGNUToolchain/14.2.rel1/arm-none-eabi/arm-none-eabi/include/c++/14.2.1/bits/stl_algobase.h ****     struct __copy_move
ARM GAS  /var/folders/y7/g6pkzsp12sx54x3s3mvyn15r0000gn/T//ccWX7ODC.s 			page 36


 364:/Applications/ArmGNUToolchain/14.2.rel1/arm-none-eabi/arm-none-eabi/include/c++/14.2.1/bits/stl_algobase.h ****     {
 365:/Applications/ArmGNUToolchain/14.2.rel1/arm-none-eabi/arm-none-eabi/include/c++/14.2.1/bits/stl_algobase.h ****       template<typename _II, typename _OI>
 366:/Applications/ArmGNUToolchain/14.2.rel1/arm-none-eabi/arm-none-eabi/include/c++/14.2.1/bits/stl_algobase.h **** 	_GLIBCXX20_CONSTEXPR
 367:/Applications/ArmGNUToolchain/14.2.rel1/arm-none-eabi/arm-none-eabi/include/c++/14.2.1/bits/stl_algobase.h **** 	static _OI
 368:/Applications/ArmGNUToolchain/14.2.rel1/arm-none-eabi/arm-none-eabi/include/c++/14.2.1/bits/stl_algobase.h **** 	__copy_m(_II __first, _II __last, _OI __result)
 369:/Applications/ArmGNUToolchain/14.2.rel1/arm-none-eabi/arm-none-eabi/include/c++/14.2.1/bits/stl_algobase.h **** 	{
 370:/Applications/ArmGNUToolchain/14.2.rel1/arm-none-eabi/arm-none-eabi/include/c++/14.2.1/bits/stl_algobase.h **** 	  for (; __first != __last; ++__result, (void)++__first)
 371:/Applications/ArmGNUToolchain/14.2.rel1/arm-none-eabi/arm-none-eabi/include/c++/14.2.1/bits/stl_algobase.h **** 	    *__result = *__first;
 372:/Applications/ArmGNUToolchain/14.2.rel1/arm-none-eabi/arm-none-eabi/include/c++/14.2.1/bits/stl_algobase.h **** 	  return __result;
 373:/Applications/ArmGNUToolchain/14.2.rel1/arm-none-eabi/arm-none-eabi/include/c++/14.2.1/bits/stl_algobase.h **** 	}
 374:/Applications/ArmGNUToolchain/14.2.rel1/arm-none-eabi/arm-none-eabi/include/c++/14.2.1/bits/stl_algobase.h ****     };
 375:/Applications/ArmGNUToolchain/14.2.rel1/arm-none-eabi/arm-none-eabi/include/c++/14.2.1/bits/stl_algobase.h **** 
 376:/Applications/ArmGNUToolchain/14.2.rel1/arm-none-eabi/arm-none-eabi/include/c++/14.2.1/bits/stl_algobase.h **** #if __cplusplus >= 201103L
 377:/Applications/ArmGNUToolchain/14.2.rel1/arm-none-eabi/arm-none-eabi/include/c++/14.2.1/bits/stl_algobase.h ****   template<typename _Category>
 378:/Applications/ArmGNUToolchain/14.2.rel1/arm-none-eabi/arm-none-eabi/include/c++/14.2.1/bits/stl_algobase.h ****     struct __copy_move<true, false, _Category>
 379:/Applications/ArmGNUToolchain/14.2.rel1/arm-none-eabi/arm-none-eabi/include/c++/14.2.1/bits/stl_algobase.h ****     {
 380:/Applications/ArmGNUToolchain/14.2.rel1/arm-none-eabi/arm-none-eabi/include/c++/14.2.1/bits/stl_algobase.h ****       template<typename _II, typename _OI>
 381:/Applications/ArmGNUToolchain/14.2.rel1/arm-none-eabi/arm-none-eabi/include/c++/14.2.1/bits/stl_algobase.h **** 	_GLIBCXX20_CONSTEXPR
 382:/Applications/ArmGNUToolchain/14.2.rel1/arm-none-eabi/arm-none-eabi/include/c++/14.2.1/bits/stl_algobase.h **** 	static _OI
 383:/Applications/ArmGNUToolchain/14.2.rel1/arm-none-eabi/arm-none-eabi/include/c++/14.2.1/bits/stl_algobase.h **** 	__copy_m(_II __first, _II __last, _OI __result)
 384:/Applications/ArmGNUToolchain/14.2.rel1/arm-none-eabi/arm-none-eabi/include/c++/14.2.1/bits/stl_algobase.h **** 	{
 385:/Applications/ArmGNUToolchain/14.2.rel1/arm-none-eabi/arm-none-eabi/include/c++/14.2.1/bits/stl_algobase.h **** 	  for (; __first != __last; ++__result, (void)++__first)
 386:/Applications/ArmGNUToolchain/14.2.rel1/arm-none-eabi/arm-none-eabi/include/c++/14.2.1/bits/stl_algobase.h **** 	    *__result = std::move(*__first);
 387:/Applications/ArmGNUToolchain/14.2.rel1/arm-none-eabi/arm-none-eabi/include/c++/14.2.1/bits/stl_algobase.h **** 	  return __result;
 388:/Applications/ArmGNUToolchain/14.2.rel1/arm-none-eabi/arm-none-eabi/include/c++/14.2.1/bits/stl_algobase.h **** 	}
 389:/Applications/ArmGNUToolchain/14.2.rel1/arm-none-eabi/arm-none-eabi/include/c++/14.2.1/bits/stl_algobase.h ****     };
 390:/Applications/ArmGNUToolchain/14.2.rel1/arm-none-eabi/arm-none-eabi/include/c++/14.2.1/bits/stl_algobase.h **** #endif
 391:/Applications/ArmGNUToolchain/14.2.rel1/arm-none-eabi/arm-none-eabi/include/c++/14.2.1/bits/stl_algobase.h **** 
 392:/Applications/ArmGNUToolchain/14.2.rel1/arm-none-eabi/arm-none-eabi/include/c++/14.2.1/bits/stl_algobase.h ****   template<>
 393:/Applications/ArmGNUToolchain/14.2.rel1/arm-none-eabi/arm-none-eabi/include/c++/14.2.1/bits/stl_algobase.h ****     struct __copy_move<false, false, random_access_iterator_tag>
 394:/Applications/ArmGNUToolchain/14.2.rel1/arm-none-eabi/arm-none-eabi/include/c++/14.2.1/bits/stl_algobase.h ****     {
 395:/Applications/ArmGNUToolchain/14.2.rel1/arm-none-eabi/arm-none-eabi/include/c++/14.2.1/bits/stl_algobase.h ****       template<typename _II, typename _OI>
 396:/Applications/ArmGNUToolchain/14.2.rel1/arm-none-eabi/arm-none-eabi/include/c++/14.2.1/bits/stl_algobase.h **** 	_GLIBCXX20_CONSTEXPR
 397:/Applications/ArmGNUToolchain/14.2.rel1/arm-none-eabi/arm-none-eabi/include/c++/14.2.1/bits/stl_algobase.h **** 	static _OI
 398:/Applications/ArmGNUToolchain/14.2.rel1/arm-none-eabi/arm-none-eabi/include/c++/14.2.1/bits/stl_algobase.h **** 	__copy_m(_II __first, _II __last, _OI __result)
 399:/Applications/ArmGNUToolchain/14.2.rel1/arm-none-eabi/arm-none-eabi/include/c++/14.2.1/bits/stl_algobase.h **** 	{
 400:/Applications/ArmGNUToolchain/14.2.rel1/arm-none-eabi/arm-none-eabi/include/c++/14.2.1/bits/stl_algobase.h **** 	  typedef typename iterator_traits<_II>::difference_type _Distance;
 401:/Applications/ArmGNUToolchain/14.2.rel1/arm-none-eabi/arm-none-eabi/include/c++/14.2.1/bits/stl_algobase.h **** 	  for(_Distance __n = __last - __first; __n > 0; --__n)
 402:/Applications/ArmGNUToolchain/14.2.rel1/arm-none-eabi/arm-none-eabi/include/c++/14.2.1/bits/stl_algobase.h **** 	    {
 403:/Applications/ArmGNUToolchain/14.2.rel1/arm-none-eabi/arm-none-eabi/include/c++/14.2.1/bits/stl_algobase.h **** 	      *__result = *__first;
 404:/Applications/ArmGNUToolchain/14.2.rel1/arm-none-eabi/arm-none-eabi/include/c++/14.2.1/bits/stl_algobase.h **** 	      ++__first;
 405:/Applications/ArmGNUToolchain/14.2.rel1/arm-none-eabi/arm-none-eabi/include/c++/14.2.1/bits/stl_algobase.h **** 	      ++__result;
 406:/Applications/ArmGNUToolchain/14.2.rel1/arm-none-eabi/arm-none-eabi/include/c++/14.2.1/bits/stl_algobase.h **** 	    }
 407:/Applications/ArmGNUToolchain/14.2.rel1/arm-none-eabi/arm-none-eabi/include/c++/14.2.1/bits/stl_algobase.h **** 	  return __result;
 408:/Applications/ArmGNUToolchain/14.2.rel1/arm-none-eabi/arm-none-eabi/include/c++/14.2.1/bits/stl_algobase.h **** 	}
 409:/Applications/ArmGNUToolchain/14.2.rel1/arm-none-eabi/arm-none-eabi/include/c++/14.2.1/bits/stl_algobase.h **** 
 410:/Applications/ArmGNUToolchain/14.2.rel1/arm-none-eabi/arm-none-eabi/include/c++/14.2.1/bits/stl_algobase.h ****       template<typename _Tp, typename _Up>
 411:/Applications/ArmGNUToolchain/14.2.rel1/arm-none-eabi/arm-none-eabi/include/c++/14.2.1/bits/stl_algobase.h **** 	static void
 412:/Applications/ArmGNUToolchain/14.2.rel1/arm-none-eabi/arm-none-eabi/include/c++/14.2.1/bits/stl_algobase.h **** 	__assign_one(_Tp* __to, _Up* __from)
 413:/Applications/ArmGNUToolchain/14.2.rel1/arm-none-eabi/arm-none-eabi/include/c++/14.2.1/bits/stl_algobase.h **** 	{ *__to = *__from; }
 414:/Applications/ArmGNUToolchain/14.2.rel1/arm-none-eabi/arm-none-eabi/include/c++/14.2.1/bits/stl_algobase.h ****     };
 415:/Applications/ArmGNUToolchain/14.2.rel1/arm-none-eabi/arm-none-eabi/include/c++/14.2.1/bits/stl_algobase.h **** 
 416:/Applications/ArmGNUToolchain/14.2.rel1/arm-none-eabi/arm-none-eabi/include/c++/14.2.1/bits/stl_algobase.h **** #if __cplusplus >= 201103L
 417:/Applications/ArmGNUToolchain/14.2.rel1/arm-none-eabi/arm-none-eabi/include/c++/14.2.1/bits/stl_algobase.h ****   template<>
 418:/Applications/ArmGNUToolchain/14.2.rel1/arm-none-eabi/arm-none-eabi/include/c++/14.2.1/bits/stl_algobase.h ****     struct __copy_move<true, false, random_access_iterator_tag>
 419:/Applications/ArmGNUToolchain/14.2.rel1/arm-none-eabi/arm-none-eabi/include/c++/14.2.1/bits/stl_algobase.h ****     {
 420:/Applications/ArmGNUToolchain/14.2.rel1/arm-none-eabi/arm-none-eabi/include/c++/14.2.1/bits/stl_algobase.h ****       template<typename _II, typename _OI>
ARM GAS  /var/folders/y7/g6pkzsp12sx54x3s3mvyn15r0000gn/T//ccWX7ODC.s 			page 37


 421:/Applications/ArmGNUToolchain/14.2.rel1/arm-none-eabi/arm-none-eabi/include/c++/14.2.1/bits/stl_algobase.h **** 	_GLIBCXX20_CONSTEXPR
 422:/Applications/ArmGNUToolchain/14.2.rel1/arm-none-eabi/arm-none-eabi/include/c++/14.2.1/bits/stl_algobase.h **** 	static _OI
 423:/Applications/ArmGNUToolchain/14.2.rel1/arm-none-eabi/arm-none-eabi/include/c++/14.2.1/bits/stl_algobase.h **** 	__copy_m(_II __first, _II __last, _OI __result)
 424:/Applications/ArmGNUToolchain/14.2.rel1/arm-none-eabi/arm-none-eabi/include/c++/14.2.1/bits/stl_algobase.h **** 	{
 425:/Applications/ArmGNUToolchain/14.2.rel1/arm-none-eabi/arm-none-eabi/include/c++/14.2.1/bits/stl_algobase.h **** 	  typedef typename iterator_traits<_II>::difference_type _Distance;
 426:/Applications/ArmGNUToolchain/14.2.rel1/arm-none-eabi/arm-none-eabi/include/c++/14.2.1/bits/stl_algobase.h **** 	  for(_Distance __n = __last - __first; __n > 0; --__n)
 427:/Applications/ArmGNUToolchain/14.2.rel1/arm-none-eabi/arm-none-eabi/include/c++/14.2.1/bits/stl_algobase.h **** 	    {
 428:/Applications/ArmGNUToolchain/14.2.rel1/arm-none-eabi/arm-none-eabi/include/c++/14.2.1/bits/stl_algobase.h **** 	      *__result = std::move(*__first);
 429:/Applications/ArmGNUToolchain/14.2.rel1/arm-none-eabi/arm-none-eabi/include/c++/14.2.1/bits/stl_algobase.h **** 	      ++__first;
 430:/Applications/ArmGNUToolchain/14.2.rel1/arm-none-eabi/arm-none-eabi/include/c++/14.2.1/bits/stl_algobase.h **** 	      ++__result;
 431:/Applications/ArmGNUToolchain/14.2.rel1/arm-none-eabi/arm-none-eabi/include/c++/14.2.1/bits/stl_algobase.h **** 	    }
 432:/Applications/ArmGNUToolchain/14.2.rel1/arm-none-eabi/arm-none-eabi/include/c++/14.2.1/bits/stl_algobase.h **** 	  return __result;
 433:/Applications/ArmGNUToolchain/14.2.rel1/arm-none-eabi/arm-none-eabi/include/c++/14.2.1/bits/stl_algobase.h **** 	}
 434:/Applications/ArmGNUToolchain/14.2.rel1/arm-none-eabi/arm-none-eabi/include/c++/14.2.1/bits/stl_algobase.h **** 
 435:/Applications/ArmGNUToolchain/14.2.rel1/arm-none-eabi/arm-none-eabi/include/c++/14.2.1/bits/stl_algobase.h ****       template<typename _Tp, typename _Up>
 436:/Applications/ArmGNUToolchain/14.2.rel1/arm-none-eabi/arm-none-eabi/include/c++/14.2.1/bits/stl_algobase.h **** 	static void
 437:/Applications/ArmGNUToolchain/14.2.rel1/arm-none-eabi/arm-none-eabi/include/c++/14.2.1/bits/stl_algobase.h **** 	__assign_one(_Tp* __to, _Up* __from)
 438:/Applications/ArmGNUToolchain/14.2.rel1/arm-none-eabi/arm-none-eabi/include/c++/14.2.1/bits/stl_algobase.h **** 	{ *__to = std::move(*__from); }
 439:/Applications/ArmGNUToolchain/14.2.rel1/arm-none-eabi/arm-none-eabi/include/c++/14.2.1/bits/stl_algobase.h ****     };
 440:/Applications/ArmGNUToolchain/14.2.rel1/arm-none-eabi/arm-none-eabi/include/c++/14.2.1/bits/stl_algobase.h **** #endif
 441:/Applications/ArmGNUToolchain/14.2.rel1/arm-none-eabi/arm-none-eabi/include/c++/14.2.1/bits/stl_algobase.h **** 
 442:/Applications/ArmGNUToolchain/14.2.rel1/arm-none-eabi/arm-none-eabi/include/c++/14.2.1/bits/stl_algobase.h ****   template<bool _IsMove>
 443:/Applications/ArmGNUToolchain/14.2.rel1/arm-none-eabi/arm-none-eabi/include/c++/14.2.1/bits/stl_algobase.h ****     struct __copy_move<_IsMove, true, random_access_iterator_tag>
 444:/Applications/ArmGNUToolchain/14.2.rel1/arm-none-eabi/arm-none-eabi/include/c++/14.2.1/bits/stl_algobase.h ****     {
 445:/Applications/ArmGNUToolchain/14.2.rel1/arm-none-eabi/arm-none-eabi/include/c++/14.2.1/bits/stl_algobase.h ****       template<typename _Tp, typename _Up>
 446:/Applications/ArmGNUToolchain/14.2.rel1/arm-none-eabi/arm-none-eabi/include/c++/14.2.1/bits/stl_algobase.h **** 	_GLIBCXX20_CONSTEXPR
 447:/Applications/ArmGNUToolchain/14.2.rel1/arm-none-eabi/arm-none-eabi/include/c++/14.2.1/bits/stl_algobase.h **** 	static _Up*
 448:/Applications/ArmGNUToolchain/14.2.rel1/arm-none-eabi/arm-none-eabi/include/c++/14.2.1/bits/stl_algobase.h **** 	__copy_m(_Tp* __first, _Tp* __last, _Up* __result)
 449:/Applications/ArmGNUToolchain/14.2.rel1/arm-none-eabi/arm-none-eabi/include/c++/14.2.1/bits/stl_algobase.h **** 	{
 450:/Applications/ArmGNUToolchain/14.2.rel1/arm-none-eabi/arm-none-eabi/include/c++/14.2.1/bits/stl_algobase.h **** 	  const ptrdiff_t _Num = __last - __first;
 451:/Applications/ArmGNUToolchain/14.2.rel1/arm-none-eabi/arm-none-eabi/include/c++/14.2.1/bits/stl_algobase.h **** 	  if (__builtin_expect(_Num > 1, true))
 452:/Applications/ArmGNUToolchain/14.2.rel1/arm-none-eabi/arm-none-eabi/include/c++/14.2.1/bits/stl_algobase.h **** 	    __builtin_memmove(__result, __first, sizeof(_Tp) * _Num);
 453:/Applications/ArmGNUToolchain/14.2.rel1/arm-none-eabi/arm-none-eabi/include/c++/14.2.1/bits/stl_algobase.h **** 	  else if (_Num == 1)
 454:/Applications/ArmGNUToolchain/14.2.rel1/arm-none-eabi/arm-none-eabi/include/c++/14.2.1/bits/stl_algobase.h **** 	    std::__copy_move<_IsMove, false, random_access_iterator_tag>::
 455:/Applications/ArmGNUToolchain/14.2.rel1/arm-none-eabi/arm-none-eabi/include/c++/14.2.1/bits/stl_algobase.h **** 	      __assign_one(__result, __first);
 456:/Applications/ArmGNUToolchain/14.2.rel1/arm-none-eabi/arm-none-eabi/include/c++/14.2.1/bits/stl_algobase.h **** 	  return __result + _Num;
 457:/Applications/ArmGNUToolchain/14.2.rel1/arm-none-eabi/arm-none-eabi/include/c++/14.2.1/bits/stl_algobase.h **** 	}
 458:/Applications/ArmGNUToolchain/14.2.rel1/arm-none-eabi/arm-none-eabi/include/c++/14.2.1/bits/stl_algobase.h ****     };
 459:/Applications/ArmGNUToolchain/14.2.rel1/arm-none-eabi/arm-none-eabi/include/c++/14.2.1/bits/stl_algobase.h **** 
 460:/Applications/ArmGNUToolchain/14.2.rel1/arm-none-eabi/arm-none-eabi/include/c++/14.2.1/bits/stl_algobase.h **** _GLIBCXX_BEGIN_NAMESPACE_CONTAINER
 461:/Applications/ArmGNUToolchain/14.2.rel1/arm-none-eabi/arm-none-eabi/include/c++/14.2.1/bits/stl_algobase.h **** 
 462:/Applications/ArmGNUToolchain/14.2.rel1/arm-none-eabi/arm-none-eabi/include/c++/14.2.1/bits/stl_algobase.h ****   template<typename _Tp, typename _Ref, typename _Ptr>
 463:/Applications/ArmGNUToolchain/14.2.rel1/arm-none-eabi/arm-none-eabi/include/c++/14.2.1/bits/stl_algobase.h ****     struct _Deque_iterator;
 464:/Applications/ArmGNUToolchain/14.2.rel1/arm-none-eabi/arm-none-eabi/include/c++/14.2.1/bits/stl_algobase.h **** 
 465:/Applications/ArmGNUToolchain/14.2.rel1/arm-none-eabi/arm-none-eabi/include/c++/14.2.1/bits/stl_algobase.h ****   struct _Bit_iterator;
 466:/Applications/ArmGNUToolchain/14.2.rel1/arm-none-eabi/arm-none-eabi/include/c++/14.2.1/bits/stl_algobase.h **** 
 467:/Applications/ArmGNUToolchain/14.2.rel1/arm-none-eabi/arm-none-eabi/include/c++/14.2.1/bits/stl_algobase.h **** _GLIBCXX_END_NAMESPACE_CONTAINER
 468:/Applications/ArmGNUToolchain/14.2.rel1/arm-none-eabi/arm-none-eabi/include/c++/14.2.1/bits/stl_algobase.h **** 
 469:/Applications/ArmGNUToolchain/14.2.rel1/arm-none-eabi/arm-none-eabi/include/c++/14.2.1/bits/stl_algobase.h **** #if _GLIBCXX_HOSTED
 470:/Applications/ArmGNUToolchain/14.2.rel1/arm-none-eabi/arm-none-eabi/include/c++/14.2.1/bits/stl_algobase.h ****   // Helpers for streambuf iterators (either istream or ostream).
 471:/Applications/ArmGNUToolchain/14.2.rel1/arm-none-eabi/arm-none-eabi/include/c++/14.2.1/bits/stl_algobase.h ****   // NB: avoid including <iosfwd>, relatively large.
 472:/Applications/ArmGNUToolchain/14.2.rel1/arm-none-eabi/arm-none-eabi/include/c++/14.2.1/bits/stl_algobase.h ****   template<typename _CharT>
 473:/Applications/ArmGNUToolchain/14.2.rel1/arm-none-eabi/arm-none-eabi/include/c++/14.2.1/bits/stl_algobase.h ****     struct char_traits;
 474:/Applications/ArmGNUToolchain/14.2.rel1/arm-none-eabi/arm-none-eabi/include/c++/14.2.1/bits/stl_algobase.h **** 
 475:/Applications/ArmGNUToolchain/14.2.rel1/arm-none-eabi/arm-none-eabi/include/c++/14.2.1/bits/stl_algobase.h ****   template<typename _CharT, typename _Traits>
 476:/Applications/ArmGNUToolchain/14.2.rel1/arm-none-eabi/arm-none-eabi/include/c++/14.2.1/bits/stl_algobase.h ****     class istreambuf_iterator;
 477:/Applications/ArmGNUToolchain/14.2.rel1/arm-none-eabi/arm-none-eabi/include/c++/14.2.1/bits/stl_algobase.h **** 
ARM GAS  /var/folders/y7/g6pkzsp12sx54x3s3mvyn15r0000gn/T//ccWX7ODC.s 			page 38


 478:/Applications/ArmGNUToolchain/14.2.rel1/arm-none-eabi/arm-none-eabi/include/c++/14.2.1/bits/stl_algobase.h ****   template<typename _CharT, typename _Traits>
 479:/Applications/ArmGNUToolchain/14.2.rel1/arm-none-eabi/arm-none-eabi/include/c++/14.2.1/bits/stl_algobase.h ****     class ostreambuf_iterator;
 480:/Applications/ArmGNUToolchain/14.2.rel1/arm-none-eabi/arm-none-eabi/include/c++/14.2.1/bits/stl_algobase.h **** 
 481:/Applications/ArmGNUToolchain/14.2.rel1/arm-none-eabi/arm-none-eabi/include/c++/14.2.1/bits/stl_algobase.h ****   template<bool _IsMove, typename _CharT>
 482:/Applications/ArmGNUToolchain/14.2.rel1/arm-none-eabi/arm-none-eabi/include/c++/14.2.1/bits/stl_algobase.h ****     typename __gnu_cxx::__enable_if<__is_char<_CharT>::__value,
 483:/Applications/ArmGNUToolchain/14.2.rel1/arm-none-eabi/arm-none-eabi/include/c++/14.2.1/bits/stl_algobase.h **** 	     ostreambuf_iterator<_CharT, char_traits<_CharT> > >::__type
 484:/Applications/ArmGNUToolchain/14.2.rel1/arm-none-eabi/arm-none-eabi/include/c++/14.2.1/bits/stl_algobase.h ****     __copy_move_a2(_CharT*, _CharT*,
 485:/Applications/ArmGNUToolchain/14.2.rel1/arm-none-eabi/arm-none-eabi/include/c++/14.2.1/bits/stl_algobase.h **** 		   ostreambuf_iterator<_CharT, char_traits<_CharT> >);
 486:/Applications/ArmGNUToolchain/14.2.rel1/arm-none-eabi/arm-none-eabi/include/c++/14.2.1/bits/stl_algobase.h **** 
 487:/Applications/ArmGNUToolchain/14.2.rel1/arm-none-eabi/arm-none-eabi/include/c++/14.2.1/bits/stl_algobase.h ****   template<bool _IsMove, typename _CharT>
 488:/Applications/ArmGNUToolchain/14.2.rel1/arm-none-eabi/arm-none-eabi/include/c++/14.2.1/bits/stl_algobase.h ****     typename __gnu_cxx::__enable_if<__is_char<_CharT>::__value,
 489:/Applications/ArmGNUToolchain/14.2.rel1/arm-none-eabi/arm-none-eabi/include/c++/14.2.1/bits/stl_algobase.h **** 	     ostreambuf_iterator<_CharT, char_traits<_CharT> > >::__type
 490:/Applications/ArmGNUToolchain/14.2.rel1/arm-none-eabi/arm-none-eabi/include/c++/14.2.1/bits/stl_algobase.h ****     __copy_move_a2(const _CharT*, const _CharT*,
 491:/Applications/ArmGNUToolchain/14.2.rel1/arm-none-eabi/arm-none-eabi/include/c++/14.2.1/bits/stl_algobase.h **** 		   ostreambuf_iterator<_CharT, char_traits<_CharT> >);
 492:/Applications/ArmGNUToolchain/14.2.rel1/arm-none-eabi/arm-none-eabi/include/c++/14.2.1/bits/stl_algobase.h **** 
 493:/Applications/ArmGNUToolchain/14.2.rel1/arm-none-eabi/arm-none-eabi/include/c++/14.2.1/bits/stl_algobase.h ****   template<bool _IsMove, typename _CharT>
 494:/Applications/ArmGNUToolchain/14.2.rel1/arm-none-eabi/arm-none-eabi/include/c++/14.2.1/bits/stl_algobase.h ****     typename __gnu_cxx::__enable_if<__is_char<_CharT>::__value,
 495:/Applications/ArmGNUToolchain/14.2.rel1/arm-none-eabi/arm-none-eabi/include/c++/14.2.1/bits/stl_algobase.h **** 				    _CharT*>::__type
 496:/Applications/ArmGNUToolchain/14.2.rel1/arm-none-eabi/arm-none-eabi/include/c++/14.2.1/bits/stl_algobase.h ****     __copy_move_a2(istreambuf_iterator<_CharT, char_traits<_CharT> >,
 497:/Applications/ArmGNUToolchain/14.2.rel1/arm-none-eabi/arm-none-eabi/include/c++/14.2.1/bits/stl_algobase.h **** 		   istreambuf_iterator<_CharT, char_traits<_CharT> >, _CharT*);
 498:/Applications/ArmGNUToolchain/14.2.rel1/arm-none-eabi/arm-none-eabi/include/c++/14.2.1/bits/stl_algobase.h **** 
 499:/Applications/ArmGNUToolchain/14.2.rel1/arm-none-eabi/arm-none-eabi/include/c++/14.2.1/bits/stl_algobase.h ****   template<bool _IsMove, typename _CharT>
 500:/Applications/ArmGNUToolchain/14.2.rel1/arm-none-eabi/arm-none-eabi/include/c++/14.2.1/bits/stl_algobase.h ****     typename __gnu_cxx::__enable_if<
 501:/Applications/ArmGNUToolchain/14.2.rel1/arm-none-eabi/arm-none-eabi/include/c++/14.2.1/bits/stl_algobase.h ****       __is_char<_CharT>::__value,
 502:/Applications/ArmGNUToolchain/14.2.rel1/arm-none-eabi/arm-none-eabi/include/c++/14.2.1/bits/stl_algobase.h ****       _GLIBCXX_STD_C::_Deque_iterator<_CharT, _CharT&, _CharT*> >::__type
 503:/Applications/ArmGNUToolchain/14.2.rel1/arm-none-eabi/arm-none-eabi/include/c++/14.2.1/bits/stl_algobase.h ****     __copy_move_a2(
 504:/Applications/ArmGNUToolchain/14.2.rel1/arm-none-eabi/arm-none-eabi/include/c++/14.2.1/bits/stl_algobase.h **** 	istreambuf_iterator<_CharT, char_traits<_CharT> >,
 505:/Applications/ArmGNUToolchain/14.2.rel1/arm-none-eabi/arm-none-eabi/include/c++/14.2.1/bits/stl_algobase.h **** 	istreambuf_iterator<_CharT, char_traits<_CharT> >,
 506:/Applications/ArmGNUToolchain/14.2.rel1/arm-none-eabi/arm-none-eabi/include/c++/14.2.1/bits/stl_algobase.h **** 	_GLIBCXX_STD_C::_Deque_iterator<_CharT, _CharT&, _CharT*>);
 507:/Applications/ArmGNUToolchain/14.2.rel1/arm-none-eabi/arm-none-eabi/include/c++/14.2.1/bits/stl_algobase.h **** #endif // HOSTED
 508:/Applications/ArmGNUToolchain/14.2.rel1/arm-none-eabi/arm-none-eabi/include/c++/14.2.1/bits/stl_algobase.h **** 
 509:/Applications/ArmGNUToolchain/14.2.rel1/arm-none-eabi/arm-none-eabi/include/c++/14.2.1/bits/stl_algobase.h ****   template<bool _IsMove, typename _II, typename _OI>
 510:/Applications/ArmGNUToolchain/14.2.rel1/arm-none-eabi/arm-none-eabi/include/c++/14.2.1/bits/stl_algobase.h ****     _GLIBCXX20_CONSTEXPR
 511:/Applications/ArmGNUToolchain/14.2.rel1/arm-none-eabi/arm-none-eabi/include/c++/14.2.1/bits/stl_algobase.h ****     inline _OI
 512:/Applications/ArmGNUToolchain/14.2.rel1/arm-none-eabi/arm-none-eabi/include/c++/14.2.1/bits/stl_algobase.h ****     __copy_move_a2(_II __first, _II __last, _OI __result)
 513:/Applications/ArmGNUToolchain/14.2.rel1/arm-none-eabi/arm-none-eabi/include/c++/14.2.1/bits/stl_algobase.h ****     {
 514:/Applications/ArmGNUToolchain/14.2.rel1/arm-none-eabi/arm-none-eabi/include/c++/14.2.1/bits/stl_algobase.h ****       typedef typename iterator_traits<_II>::iterator_category _Category;
 515:/Applications/ArmGNUToolchain/14.2.rel1/arm-none-eabi/arm-none-eabi/include/c++/14.2.1/bits/stl_algobase.h **** #ifdef __cpp_lib_is_constant_evaluated
 516:/Applications/ArmGNUToolchain/14.2.rel1/arm-none-eabi/arm-none-eabi/include/c++/14.2.1/bits/stl_algobase.h ****       if (std::is_constant_evaluated())
 517:/Applications/ArmGNUToolchain/14.2.rel1/arm-none-eabi/arm-none-eabi/include/c++/14.2.1/bits/stl_algobase.h **** 	return std::__copy_move<_IsMove, false, _Category>::
 518:/Applications/ArmGNUToolchain/14.2.rel1/arm-none-eabi/arm-none-eabi/include/c++/14.2.1/bits/stl_algobase.h **** 	  __copy_m(__first, __last, __result);
 519:/Applications/ArmGNUToolchain/14.2.rel1/arm-none-eabi/arm-none-eabi/include/c++/14.2.1/bits/stl_algobase.h **** #endif
 520:/Applications/ArmGNUToolchain/14.2.rel1/arm-none-eabi/arm-none-eabi/include/c++/14.2.1/bits/stl_algobase.h ****       return std::__copy_move<_IsMove, __memcpyable<_OI, _II>::__value,
 521:/Applications/ArmGNUToolchain/14.2.rel1/arm-none-eabi/arm-none-eabi/include/c++/14.2.1/bits/stl_algobase.h **** 			      _Category>::__copy_m(__first, __last, __result);
 522:/Applications/ArmGNUToolchain/14.2.rel1/arm-none-eabi/arm-none-eabi/include/c++/14.2.1/bits/stl_algobase.h ****     }
 523:/Applications/ArmGNUToolchain/14.2.rel1/arm-none-eabi/arm-none-eabi/include/c++/14.2.1/bits/stl_algobase.h **** 
 524:/Applications/ArmGNUToolchain/14.2.rel1/arm-none-eabi/arm-none-eabi/include/c++/14.2.1/bits/stl_algobase.h ****   template<bool _IsMove,
 525:/Applications/ArmGNUToolchain/14.2.rel1/arm-none-eabi/arm-none-eabi/include/c++/14.2.1/bits/stl_algobase.h **** 	   typename _Tp, typename _Ref, typename _Ptr, typename _OI>
 526:/Applications/ArmGNUToolchain/14.2.rel1/arm-none-eabi/arm-none-eabi/include/c++/14.2.1/bits/stl_algobase.h ****     _OI
 527:/Applications/ArmGNUToolchain/14.2.rel1/arm-none-eabi/arm-none-eabi/include/c++/14.2.1/bits/stl_algobase.h ****     __copy_move_a1(_GLIBCXX_STD_C::_Deque_iterator<_Tp, _Ref, _Ptr>,
 528:/Applications/ArmGNUToolchain/14.2.rel1/arm-none-eabi/arm-none-eabi/include/c++/14.2.1/bits/stl_algobase.h **** 		   _GLIBCXX_STD_C::_Deque_iterator<_Tp, _Ref, _Ptr>,
 529:/Applications/ArmGNUToolchain/14.2.rel1/arm-none-eabi/arm-none-eabi/include/c++/14.2.1/bits/stl_algobase.h **** 		   _OI);
 530:/Applications/ArmGNUToolchain/14.2.rel1/arm-none-eabi/arm-none-eabi/include/c++/14.2.1/bits/stl_algobase.h **** 
 531:/Applications/ArmGNUToolchain/14.2.rel1/arm-none-eabi/arm-none-eabi/include/c++/14.2.1/bits/stl_algobase.h ****   template<bool _IsMove,
 532:/Applications/ArmGNUToolchain/14.2.rel1/arm-none-eabi/arm-none-eabi/include/c++/14.2.1/bits/stl_algobase.h **** 	   typename _ITp, typename _IRef, typename _IPtr, typename _OTp>
 533:/Applications/ArmGNUToolchain/14.2.rel1/arm-none-eabi/arm-none-eabi/include/c++/14.2.1/bits/stl_algobase.h ****     _GLIBCXX_STD_C::_Deque_iterator<_OTp, _OTp&, _OTp*>
 534:/Applications/ArmGNUToolchain/14.2.rel1/arm-none-eabi/arm-none-eabi/include/c++/14.2.1/bits/stl_algobase.h ****     __copy_move_a1(_GLIBCXX_STD_C::_Deque_iterator<_ITp, _IRef, _IPtr>,
ARM GAS  /var/folders/y7/g6pkzsp12sx54x3s3mvyn15r0000gn/T//ccWX7ODC.s 			page 39


 535:/Applications/ArmGNUToolchain/14.2.rel1/arm-none-eabi/arm-none-eabi/include/c++/14.2.1/bits/stl_algobase.h **** 		   _GLIBCXX_STD_C::_Deque_iterator<_ITp, _IRef, _IPtr>,
 536:/Applications/ArmGNUToolchain/14.2.rel1/arm-none-eabi/arm-none-eabi/include/c++/14.2.1/bits/stl_algobase.h **** 		   _GLIBCXX_STD_C::_Deque_iterator<_OTp, _OTp&, _OTp*>);
 537:/Applications/ArmGNUToolchain/14.2.rel1/arm-none-eabi/arm-none-eabi/include/c++/14.2.1/bits/stl_algobase.h **** 
 538:/Applications/ArmGNUToolchain/14.2.rel1/arm-none-eabi/arm-none-eabi/include/c++/14.2.1/bits/stl_algobase.h ****   template<bool _IsMove, typename _II, typename _Tp>
 539:/Applications/ArmGNUToolchain/14.2.rel1/arm-none-eabi/arm-none-eabi/include/c++/14.2.1/bits/stl_algobase.h ****     typename __gnu_cxx::__enable_if<
 540:/Applications/ArmGNUToolchain/14.2.rel1/arm-none-eabi/arm-none-eabi/include/c++/14.2.1/bits/stl_algobase.h ****       __is_random_access_iter<_II>::__value,
 541:/Applications/ArmGNUToolchain/14.2.rel1/arm-none-eabi/arm-none-eabi/include/c++/14.2.1/bits/stl_algobase.h ****       _GLIBCXX_STD_C::_Deque_iterator<_Tp, _Tp&, _Tp*> >::__type
 542:/Applications/ArmGNUToolchain/14.2.rel1/arm-none-eabi/arm-none-eabi/include/c++/14.2.1/bits/stl_algobase.h ****     __copy_move_a1(_II, _II, _GLIBCXX_STD_C::_Deque_iterator<_Tp, _Tp&, _Tp*>);
 543:/Applications/ArmGNUToolchain/14.2.rel1/arm-none-eabi/arm-none-eabi/include/c++/14.2.1/bits/stl_algobase.h **** 
 544:/Applications/ArmGNUToolchain/14.2.rel1/arm-none-eabi/arm-none-eabi/include/c++/14.2.1/bits/stl_algobase.h ****   template<bool _IsMove, typename _II, typename _OI>
 545:/Applications/ArmGNUToolchain/14.2.rel1/arm-none-eabi/arm-none-eabi/include/c++/14.2.1/bits/stl_algobase.h ****     _GLIBCXX20_CONSTEXPR
 546:/Applications/ArmGNUToolchain/14.2.rel1/arm-none-eabi/arm-none-eabi/include/c++/14.2.1/bits/stl_algobase.h ****     inline _OI
 547:/Applications/ArmGNUToolchain/14.2.rel1/arm-none-eabi/arm-none-eabi/include/c++/14.2.1/bits/stl_algobase.h ****     __copy_move_a1(_II __first, _II __last, _OI __result)
 548:/Applications/ArmGNUToolchain/14.2.rel1/arm-none-eabi/arm-none-eabi/include/c++/14.2.1/bits/stl_algobase.h ****     { return std::__copy_move_a2<_IsMove>(__first, __last, __result); }
 549:/Applications/ArmGNUToolchain/14.2.rel1/arm-none-eabi/arm-none-eabi/include/c++/14.2.1/bits/stl_algobase.h **** 
 550:/Applications/ArmGNUToolchain/14.2.rel1/arm-none-eabi/arm-none-eabi/include/c++/14.2.1/bits/stl_algobase.h ****   template<bool _IsMove, typename _II, typename _OI>
 551:/Applications/ArmGNUToolchain/14.2.rel1/arm-none-eabi/arm-none-eabi/include/c++/14.2.1/bits/stl_algobase.h ****     _GLIBCXX20_CONSTEXPR
 552:/Applications/ArmGNUToolchain/14.2.rel1/arm-none-eabi/arm-none-eabi/include/c++/14.2.1/bits/stl_algobase.h ****     inline _OI
 553:/Applications/ArmGNUToolchain/14.2.rel1/arm-none-eabi/arm-none-eabi/include/c++/14.2.1/bits/stl_algobase.h ****     __copy_move_a(_II __first, _II __last, _OI __result)
 554:/Applications/ArmGNUToolchain/14.2.rel1/arm-none-eabi/arm-none-eabi/include/c++/14.2.1/bits/stl_algobase.h ****     {
 555:/Applications/ArmGNUToolchain/14.2.rel1/arm-none-eabi/arm-none-eabi/include/c++/14.2.1/bits/stl_algobase.h ****       return std::__niter_wrap(__result,
 556:/Applications/ArmGNUToolchain/14.2.rel1/arm-none-eabi/arm-none-eabi/include/c++/14.2.1/bits/stl_algobase.h **** 		std::__copy_move_a1<_IsMove>(std::__niter_base(__first),
 557:/Applications/ArmGNUToolchain/14.2.rel1/arm-none-eabi/arm-none-eabi/include/c++/14.2.1/bits/stl_algobase.h **** 					     std::__niter_base(__last),
 558:/Applications/ArmGNUToolchain/14.2.rel1/arm-none-eabi/arm-none-eabi/include/c++/14.2.1/bits/stl_algobase.h **** 					     std::__niter_base(__result)));
 559:/Applications/ArmGNUToolchain/14.2.rel1/arm-none-eabi/arm-none-eabi/include/c++/14.2.1/bits/stl_algobase.h ****     }
 560:/Applications/ArmGNUToolchain/14.2.rel1/arm-none-eabi/arm-none-eabi/include/c++/14.2.1/bits/stl_algobase.h **** 
 561:/Applications/ArmGNUToolchain/14.2.rel1/arm-none-eabi/arm-none-eabi/include/c++/14.2.1/bits/stl_algobase.h ****   template<bool _IsMove,
 562:/Applications/ArmGNUToolchain/14.2.rel1/arm-none-eabi/arm-none-eabi/include/c++/14.2.1/bits/stl_algobase.h **** 	   typename _Ite, typename _Seq, typename _Cat, typename _OI>
 563:/Applications/ArmGNUToolchain/14.2.rel1/arm-none-eabi/arm-none-eabi/include/c++/14.2.1/bits/stl_algobase.h ****     _GLIBCXX20_CONSTEXPR
 564:/Applications/ArmGNUToolchain/14.2.rel1/arm-none-eabi/arm-none-eabi/include/c++/14.2.1/bits/stl_algobase.h ****     _OI
 565:/Applications/ArmGNUToolchain/14.2.rel1/arm-none-eabi/arm-none-eabi/include/c++/14.2.1/bits/stl_algobase.h ****     __copy_move_a(const ::__gnu_debug::_Safe_iterator<_Ite, _Seq, _Cat>&,
 566:/Applications/ArmGNUToolchain/14.2.rel1/arm-none-eabi/arm-none-eabi/include/c++/14.2.1/bits/stl_algobase.h **** 		  const ::__gnu_debug::_Safe_iterator<_Ite, _Seq, _Cat>&,
 567:/Applications/ArmGNUToolchain/14.2.rel1/arm-none-eabi/arm-none-eabi/include/c++/14.2.1/bits/stl_algobase.h **** 		  _OI);
 568:/Applications/ArmGNUToolchain/14.2.rel1/arm-none-eabi/arm-none-eabi/include/c++/14.2.1/bits/stl_algobase.h **** 
 569:/Applications/ArmGNUToolchain/14.2.rel1/arm-none-eabi/arm-none-eabi/include/c++/14.2.1/bits/stl_algobase.h ****   template<bool _IsMove,
 570:/Applications/ArmGNUToolchain/14.2.rel1/arm-none-eabi/arm-none-eabi/include/c++/14.2.1/bits/stl_algobase.h **** 	   typename _II, typename _Ite, typename _Seq, typename _Cat>
 571:/Applications/ArmGNUToolchain/14.2.rel1/arm-none-eabi/arm-none-eabi/include/c++/14.2.1/bits/stl_algobase.h ****     _GLIBCXX20_CONSTEXPR
 572:/Applications/ArmGNUToolchain/14.2.rel1/arm-none-eabi/arm-none-eabi/include/c++/14.2.1/bits/stl_algobase.h ****     __gnu_debug::_Safe_iterator<_Ite, _Seq, _Cat>
 573:/Applications/ArmGNUToolchain/14.2.rel1/arm-none-eabi/arm-none-eabi/include/c++/14.2.1/bits/stl_algobase.h ****     __copy_move_a(_II, _II,
 574:/Applications/ArmGNUToolchain/14.2.rel1/arm-none-eabi/arm-none-eabi/include/c++/14.2.1/bits/stl_algobase.h **** 		  const ::__gnu_debug::_Safe_iterator<_Ite, _Seq, _Cat>&);
 575:/Applications/ArmGNUToolchain/14.2.rel1/arm-none-eabi/arm-none-eabi/include/c++/14.2.1/bits/stl_algobase.h **** 
 576:/Applications/ArmGNUToolchain/14.2.rel1/arm-none-eabi/arm-none-eabi/include/c++/14.2.1/bits/stl_algobase.h ****   template<bool _IsMove,
 577:/Applications/ArmGNUToolchain/14.2.rel1/arm-none-eabi/arm-none-eabi/include/c++/14.2.1/bits/stl_algobase.h **** 	   typename _IIte, typename _ISeq, typename _ICat,
 578:/Applications/ArmGNUToolchain/14.2.rel1/arm-none-eabi/arm-none-eabi/include/c++/14.2.1/bits/stl_algobase.h **** 	   typename _OIte, typename _OSeq, typename _OCat>
 579:/Applications/ArmGNUToolchain/14.2.rel1/arm-none-eabi/arm-none-eabi/include/c++/14.2.1/bits/stl_algobase.h ****     _GLIBCXX20_CONSTEXPR
 580:/Applications/ArmGNUToolchain/14.2.rel1/arm-none-eabi/arm-none-eabi/include/c++/14.2.1/bits/stl_algobase.h ****     ::__gnu_debug::_Safe_iterator<_OIte, _OSeq, _OCat>
 581:/Applications/ArmGNUToolchain/14.2.rel1/arm-none-eabi/arm-none-eabi/include/c++/14.2.1/bits/stl_algobase.h ****     __copy_move_a(const ::__gnu_debug::_Safe_iterator<_IIte, _ISeq, _ICat>&,
 582:/Applications/ArmGNUToolchain/14.2.rel1/arm-none-eabi/arm-none-eabi/include/c++/14.2.1/bits/stl_algobase.h **** 		  const ::__gnu_debug::_Safe_iterator<_IIte, _ISeq, _ICat>&,
 583:/Applications/ArmGNUToolchain/14.2.rel1/arm-none-eabi/arm-none-eabi/include/c++/14.2.1/bits/stl_algobase.h **** 		  const ::__gnu_debug::_Safe_iterator<_OIte, _OSeq, _OCat>&);
 584:/Applications/ArmGNUToolchain/14.2.rel1/arm-none-eabi/arm-none-eabi/include/c++/14.2.1/bits/stl_algobase.h **** 
 585:/Applications/ArmGNUToolchain/14.2.rel1/arm-none-eabi/arm-none-eabi/include/c++/14.2.1/bits/stl_algobase.h ****   template<typename _InputIterator, typename _Size, typename _OutputIterator>
 586:/Applications/ArmGNUToolchain/14.2.rel1/arm-none-eabi/arm-none-eabi/include/c++/14.2.1/bits/stl_algobase.h ****     _GLIBCXX20_CONSTEXPR
 587:/Applications/ArmGNUToolchain/14.2.rel1/arm-none-eabi/arm-none-eabi/include/c++/14.2.1/bits/stl_algobase.h ****     _OutputIterator
 588:/Applications/ArmGNUToolchain/14.2.rel1/arm-none-eabi/arm-none-eabi/include/c++/14.2.1/bits/stl_algobase.h ****     __copy_n_a(_InputIterator __first, _Size __n, _OutputIterator __result,
 589:/Applications/ArmGNUToolchain/14.2.rel1/arm-none-eabi/arm-none-eabi/include/c++/14.2.1/bits/stl_algobase.h **** 	       bool)
 590:/Applications/ArmGNUToolchain/14.2.rel1/arm-none-eabi/arm-none-eabi/include/c++/14.2.1/bits/stl_algobase.h ****     {
 591:/Applications/ArmGNUToolchain/14.2.rel1/arm-none-eabi/arm-none-eabi/include/c++/14.2.1/bits/stl_algobase.h ****       if (__n > 0)
ARM GAS  /var/folders/y7/g6pkzsp12sx54x3s3mvyn15r0000gn/T//ccWX7ODC.s 			page 40


 592:/Applications/ArmGNUToolchain/14.2.rel1/arm-none-eabi/arm-none-eabi/include/c++/14.2.1/bits/stl_algobase.h **** 	{
 593:/Applications/ArmGNUToolchain/14.2.rel1/arm-none-eabi/arm-none-eabi/include/c++/14.2.1/bits/stl_algobase.h **** 	  while (true)
 594:/Applications/ArmGNUToolchain/14.2.rel1/arm-none-eabi/arm-none-eabi/include/c++/14.2.1/bits/stl_algobase.h **** 	    {
 595:/Applications/ArmGNUToolchain/14.2.rel1/arm-none-eabi/arm-none-eabi/include/c++/14.2.1/bits/stl_algobase.h **** 	      *__result = *__first;
 596:/Applications/ArmGNUToolchain/14.2.rel1/arm-none-eabi/arm-none-eabi/include/c++/14.2.1/bits/stl_algobase.h **** 	      ++__result;
 597:/Applications/ArmGNUToolchain/14.2.rel1/arm-none-eabi/arm-none-eabi/include/c++/14.2.1/bits/stl_algobase.h **** 	      if (--__n > 0)
 598:/Applications/ArmGNUToolchain/14.2.rel1/arm-none-eabi/arm-none-eabi/include/c++/14.2.1/bits/stl_algobase.h **** 		++__first;
 599:/Applications/ArmGNUToolchain/14.2.rel1/arm-none-eabi/arm-none-eabi/include/c++/14.2.1/bits/stl_algobase.h **** 	      else
 600:/Applications/ArmGNUToolchain/14.2.rel1/arm-none-eabi/arm-none-eabi/include/c++/14.2.1/bits/stl_algobase.h **** 		break;
 601:/Applications/ArmGNUToolchain/14.2.rel1/arm-none-eabi/arm-none-eabi/include/c++/14.2.1/bits/stl_algobase.h **** 	    }
 602:/Applications/ArmGNUToolchain/14.2.rel1/arm-none-eabi/arm-none-eabi/include/c++/14.2.1/bits/stl_algobase.h **** 	}
 603:/Applications/ArmGNUToolchain/14.2.rel1/arm-none-eabi/arm-none-eabi/include/c++/14.2.1/bits/stl_algobase.h ****       return __result;
 604:/Applications/ArmGNUToolchain/14.2.rel1/arm-none-eabi/arm-none-eabi/include/c++/14.2.1/bits/stl_algobase.h ****     }
 605:/Applications/ArmGNUToolchain/14.2.rel1/arm-none-eabi/arm-none-eabi/include/c++/14.2.1/bits/stl_algobase.h **** 
 606:/Applications/ArmGNUToolchain/14.2.rel1/arm-none-eabi/arm-none-eabi/include/c++/14.2.1/bits/stl_algobase.h **** #if _GLIBCXX_HOSTED
 607:/Applications/ArmGNUToolchain/14.2.rel1/arm-none-eabi/arm-none-eabi/include/c++/14.2.1/bits/stl_algobase.h ****   template<typename _CharT, typename _Size>
 608:/Applications/ArmGNUToolchain/14.2.rel1/arm-none-eabi/arm-none-eabi/include/c++/14.2.1/bits/stl_algobase.h ****     typename __gnu_cxx::__enable_if<
 609:/Applications/ArmGNUToolchain/14.2.rel1/arm-none-eabi/arm-none-eabi/include/c++/14.2.1/bits/stl_algobase.h ****       __is_char<_CharT>::__value, _CharT*>::__type
 610:/Applications/ArmGNUToolchain/14.2.rel1/arm-none-eabi/arm-none-eabi/include/c++/14.2.1/bits/stl_algobase.h ****     __copy_n_a(istreambuf_iterator<_CharT, char_traits<_CharT> >,
 611:/Applications/ArmGNUToolchain/14.2.rel1/arm-none-eabi/arm-none-eabi/include/c++/14.2.1/bits/stl_algobase.h **** 	       _Size, _CharT*, bool);
 612:/Applications/ArmGNUToolchain/14.2.rel1/arm-none-eabi/arm-none-eabi/include/c++/14.2.1/bits/stl_algobase.h **** 
 613:/Applications/ArmGNUToolchain/14.2.rel1/arm-none-eabi/arm-none-eabi/include/c++/14.2.1/bits/stl_algobase.h ****   template<typename _CharT, typename _Size>
 614:/Applications/ArmGNUToolchain/14.2.rel1/arm-none-eabi/arm-none-eabi/include/c++/14.2.1/bits/stl_algobase.h ****     typename __gnu_cxx::__enable_if<
 615:/Applications/ArmGNUToolchain/14.2.rel1/arm-none-eabi/arm-none-eabi/include/c++/14.2.1/bits/stl_algobase.h ****       __is_char<_CharT>::__value,
 616:/Applications/ArmGNUToolchain/14.2.rel1/arm-none-eabi/arm-none-eabi/include/c++/14.2.1/bits/stl_algobase.h ****       _GLIBCXX_STD_C::_Deque_iterator<_CharT, _CharT&, _CharT*> >::__type
 617:/Applications/ArmGNUToolchain/14.2.rel1/arm-none-eabi/arm-none-eabi/include/c++/14.2.1/bits/stl_algobase.h ****     __copy_n_a(istreambuf_iterator<_CharT, char_traits<_CharT> >, _Size,
 618:/Applications/ArmGNUToolchain/14.2.rel1/arm-none-eabi/arm-none-eabi/include/c++/14.2.1/bits/stl_algobase.h **** 	       _GLIBCXX_STD_C::_Deque_iterator<_CharT, _CharT&, _CharT*>,
 619:/Applications/ArmGNUToolchain/14.2.rel1/arm-none-eabi/arm-none-eabi/include/c++/14.2.1/bits/stl_algobase.h **** 	       bool);
 620:/Applications/ArmGNUToolchain/14.2.rel1/arm-none-eabi/arm-none-eabi/include/c++/14.2.1/bits/stl_algobase.h **** #endif
 621:/Applications/ArmGNUToolchain/14.2.rel1/arm-none-eabi/arm-none-eabi/include/c++/14.2.1/bits/stl_algobase.h **** 
 622:/Applications/ArmGNUToolchain/14.2.rel1/arm-none-eabi/arm-none-eabi/include/c++/14.2.1/bits/stl_algobase.h ****   /**
 623:/Applications/ArmGNUToolchain/14.2.rel1/arm-none-eabi/arm-none-eabi/include/c++/14.2.1/bits/stl_algobase.h ****    *  @brief Copies the range [first,last) into result.
 624:/Applications/ArmGNUToolchain/14.2.rel1/arm-none-eabi/arm-none-eabi/include/c++/14.2.1/bits/stl_algobase.h ****    *  @ingroup mutating_algorithms
 625:/Applications/ArmGNUToolchain/14.2.rel1/arm-none-eabi/arm-none-eabi/include/c++/14.2.1/bits/stl_algobase.h ****    *  @param  __first  An input iterator.
 626:/Applications/ArmGNUToolchain/14.2.rel1/arm-none-eabi/arm-none-eabi/include/c++/14.2.1/bits/stl_algobase.h ****    *  @param  __last   An input iterator.
 627:/Applications/ArmGNUToolchain/14.2.rel1/arm-none-eabi/arm-none-eabi/include/c++/14.2.1/bits/stl_algobase.h ****    *  @param  __result An output iterator.
 628:/Applications/ArmGNUToolchain/14.2.rel1/arm-none-eabi/arm-none-eabi/include/c++/14.2.1/bits/stl_algobase.h ****    *  @return   result + (last - first)
 629:/Applications/ArmGNUToolchain/14.2.rel1/arm-none-eabi/arm-none-eabi/include/c++/14.2.1/bits/stl_algobase.h ****    *
 630:/Applications/ArmGNUToolchain/14.2.rel1/arm-none-eabi/arm-none-eabi/include/c++/14.2.1/bits/stl_algobase.h ****    *  This inline function will boil down to a call to @c memmove whenever
 631:/Applications/ArmGNUToolchain/14.2.rel1/arm-none-eabi/arm-none-eabi/include/c++/14.2.1/bits/stl_algobase.h ****    *  possible.  Failing that, if random access iterators are passed, then the
 632:/Applications/ArmGNUToolchain/14.2.rel1/arm-none-eabi/arm-none-eabi/include/c++/14.2.1/bits/stl_algobase.h ****    *  loop count will be known (and therefore a candidate for compiler
 633:/Applications/ArmGNUToolchain/14.2.rel1/arm-none-eabi/arm-none-eabi/include/c++/14.2.1/bits/stl_algobase.h ****    *  optimizations such as unrolling).  Result may not be contained within
 634:/Applications/ArmGNUToolchain/14.2.rel1/arm-none-eabi/arm-none-eabi/include/c++/14.2.1/bits/stl_algobase.h ****    *  [first,last); the copy_backward function should be used instead.
 635:/Applications/ArmGNUToolchain/14.2.rel1/arm-none-eabi/arm-none-eabi/include/c++/14.2.1/bits/stl_algobase.h ****    *
 636:/Applications/ArmGNUToolchain/14.2.rel1/arm-none-eabi/arm-none-eabi/include/c++/14.2.1/bits/stl_algobase.h ****    *  Note that the end of the output range is permitted to be contained
 637:/Applications/ArmGNUToolchain/14.2.rel1/arm-none-eabi/arm-none-eabi/include/c++/14.2.1/bits/stl_algobase.h ****    *  within [first,last).
 638:/Applications/ArmGNUToolchain/14.2.rel1/arm-none-eabi/arm-none-eabi/include/c++/14.2.1/bits/stl_algobase.h ****   */
 639:/Applications/ArmGNUToolchain/14.2.rel1/arm-none-eabi/arm-none-eabi/include/c++/14.2.1/bits/stl_algobase.h ****   template<typename _II, typename _OI>
 640:/Applications/ArmGNUToolchain/14.2.rel1/arm-none-eabi/arm-none-eabi/include/c++/14.2.1/bits/stl_algobase.h ****     _GLIBCXX20_CONSTEXPR
 641:/Applications/ArmGNUToolchain/14.2.rel1/arm-none-eabi/arm-none-eabi/include/c++/14.2.1/bits/stl_algobase.h ****     inline _OI
 642:/Applications/ArmGNUToolchain/14.2.rel1/arm-none-eabi/arm-none-eabi/include/c++/14.2.1/bits/stl_algobase.h ****     copy(_II __first, _II __last, _OI __result)
 643:/Applications/ArmGNUToolchain/14.2.rel1/arm-none-eabi/arm-none-eabi/include/c++/14.2.1/bits/stl_algobase.h ****     {
 644:/Applications/ArmGNUToolchain/14.2.rel1/arm-none-eabi/arm-none-eabi/include/c++/14.2.1/bits/stl_algobase.h ****       // concept requirements
 645:/Applications/ArmGNUToolchain/14.2.rel1/arm-none-eabi/arm-none-eabi/include/c++/14.2.1/bits/stl_algobase.h ****       __glibcxx_function_requires(_InputIteratorConcept<_II>)
 646:/Applications/ArmGNUToolchain/14.2.rel1/arm-none-eabi/arm-none-eabi/include/c++/14.2.1/bits/stl_algobase.h ****       __glibcxx_function_requires(_OutputIteratorConcept<_OI,
 647:/Applications/ArmGNUToolchain/14.2.rel1/arm-none-eabi/arm-none-eabi/include/c++/14.2.1/bits/stl_algobase.h **** 	    typename iterator_traits<_II>::reference>)
 648:/Applications/ArmGNUToolchain/14.2.rel1/arm-none-eabi/arm-none-eabi/include/c++/14.2.1/bits/stl_algobase.h ****       __glibcxx_requires_can_increment_range(__first, __last, __result);
ARM GAS  /var/folders/y7/g6pkzsp12sx54x3s3mvyn15r0000gn/T//ccWX7ODC.s 			page 41


 649:/Applications/ArmGNUToolchain/14.2.rel1/arm-none-eabi/arm-none-eabi/include/c++/14.2.1/bits/stl_algobase.h **** 
 650:/Applications/ArmGNUToolchain/14.2.rel1/arm-none-eabi/arm-none-eabi/include/c++/14.2.1/bits/stl_algobase.h ****       return std::__copy_move_a<__is_move_iterator<_II>::__value>
 651:/Applications/ArmGNUToolchain/14.2.rel1/arm-none-eabi/arm-none-eabi/include/c++/14.2.1/bits/stl_algobase.h **** 	     (std::__miter_base(__first), std::__miter_base(__last), __result);
 652:/Applications/ArmGNUToolchain/14.2.rel1/arm-none-eabi/arm-none-eabi/include/c++/14.2.1/bits/stl_algobase.h ****     }
 653:/Applications/ArmGNUToolchain/14.2.rel1/arm-none-eabi/arm-none-eabi/include/c++/14.2.1/bits/stl_algobase.h **** 
 654:/Applications/ArmGNUToolchain/14.2.rel1/arm-none-eabi/arm-none-eabi/include/c++/14.2.1/bits/stl_algobase.h **** #if __cplusplus >= 201103L
 655:/Applications/ArmGNUToolchain/14.2.rel1/arm-none-eabi/arm-none-eabi/include/c++/14.2.1/bits/stl_algobase.h ****   /**
 656:/Applications/ArmGNUToolchain/14.2.rel1/arm-none-eabi/arm-none-eabi/include/c++/14.2.1/bits/stl_algobase.h ****    *  @brief Moves the range [first,last) into result.
 657:/Applications/ArmGNUToolchain/14.2.rel1/arm-none-eabi/arm-none-eabi/include/c++/14.2.1/bits/stl_algobase.h ****    *  @ingroup mutating_algorithms
 658:/Applications/ArmGNUToolchain/14.2.rel1/arm-none-eabi/arm-none-eabi/include/c++/14.2.1/bits/stl_algobase.h ****    *  @param  __first  An input iterator.
 659:/Applications/ArmGNUToolchain/14.2.rel1/arm-none-eabi/arm-none-eabi/include/c++/14.2.1/bits/stl_algobase.h ****    *  @param  __last   An input iterator.
 660:/Applications/ArmGNUToolchain/14.2.rel1/arm-none-eabi/arm-none-eabi/include/c++/14.2.1/bits/stl_algobase.h ****    *  @param  __result An output iterator.
 661:/Applications/ArmGNUToolchain/14.2.rel1/arm-none-eabi/arm-none-eabi/include/c++/14.2.1/bits/stl_algobase.h ****    *  @return   result + (last - first)
 662:/Applications/ArmGNUToolchain/14.2.rel1/arm-none-eabi/arm-none-eabi/include/c++/14.2.1/bits/stl_algobase.h ****    *
 663:/Applications/ArmGNUToolchain/14.2.rel1/arm-none-eabi/arm-none-eabi/include/c++/14.2.1/bits/stl_algobase.h ****    *  This inline function will boil down to a call to @c memmove whenever
 664:/Applications/ArmGNUToolchain/14.2.rel1/arm-none-eabi/arm-none-eabi/include/c++/14.2.1/bits/stl_algobase.h ****    *  possible.  Failing that, if random access iterators are passed, then the
 665:/Applications/ArmGNUToolchain/14.2.rel1/arm-none-eabi/arm-none-eabi/include/c++/14.2.1/bits/stl_algobase.h ****    *  loop count will be known (and therefore a candidate for compiler
 666:/Applications/ArmGNUToolchain/14.2.rel1/arm-none-eabi/arm-none-eabi/include/c++/14.2.1/bits/stl_algobase.h ****    *  optimizations such as unrolling).  Result may not be contained within
 667:/Applications/ArmGNUToolchain/14.2.rel1/arm-none-eabi/arm-none-eabi/include/c++/14.2.1/bits/stl_algobase.h ****    *  [first,last); the move_backward function should be used instead.
 668:/Applications/ArmGNUToolchain/14.2.rel1/arm-none-eabi/arm-none-eabi/include/c++/14.2.1/bits/stl_algobase.h ****    *
 669:/Applications/ArmGNUToolchain/14.2.rel1/arm-none-eabi/arm-none-eabi/include/c++/14.2.1/bits/stl_algobase.h ****    *  Note that the end of the output range is permitted to be contained
 670:/Applications/ArmGNUToolchain/14.2.rel1/arm-none-eabi/arm-none-eabi/include/c++/14.2.1/bits/stl_algobase.h ****    *  within [first,last).
 671:/Applications/ArmGNUToolchain/14.2.rel1/arm-none-eabi/arm-none-eabi/include/c++/14.2.1/bits/stl_algobase.h ****   */
 672:/Applications/ArmGNUToolchain/14.2.rel1/arm-none-eabi/arm-none-eabi/include/c++/14.2.1/bits/stl_algobase.h ****   template<typename _II, typename _OI>
 673:/Applications/ArmGNUToolchain/14.2.rel1/arm-none-eabi/arm-none-eabi/include/c++/14.2.1/bits/stl_algobase.h ****     _GLIBCXX20_CONSTEXPR
 674:/Applications/ArmGNUToolchain/14.2.rel1/arm-none-eabi/arm-none-eabi/include/c++/14.2.1/bits/stl_algobase.h ****     inline _OI
 675:/Applications/ArmGNUToolchain/14.2.rel1/arm-none-eabi/arm-none-eabi/include/c++/14.2.1/bits/stl_algobase.h ****     move(_II __first, _II __last, _OI __result)
 676:/Applications/ArmGNUToolchain/14.2.rel1/arm-none-eabi/arm-none-eabi/include/c++/14.2.1/bits/stl_algobase.h ****     {
 677:/Applications/ArmGNUToolchain/14.2.rel1/arm-none-eabi/arm-none-eabi/include/c++/14.2.1/bits/stl_algobase.h ****       // concept requirements
 678:/Applications/ArmGNUToolchain/14.2.rel1/arm-none-eabi/arm-none-eabi/include/c++/14.2.1/bits/stl_algobase.h ****       __glibcxx_function_requires(_InputIteratorConcept<_II>)
 679:/Applications/ArmGNUToolchain/14.2.rel1/arm-none-eabi/arm-none-eabi/include/c++/14.2.1/bits/stl_algobase.h ****       __glibcxx_function_requires(_OutputIteratorConcept<_OI,
 680:/Applications/ArmGNUToolchain/14.2.rel1/arm-none-eabi/arm-none-eabi/include/c++/14.2.1/bits/stl_algobase.h **** 	    typename iterator_traits<_II>::value_type&&>)
 681:/Applications/ArmGNUToolchain/14.2.rel1/arm-none-eabi/arm-none-eabi/include/c++/14.2.1/bits/stl_algobase.h ****       __glibcxx_requires_can_increment_range(__first, __last, __result);
 682:/Applications/ArmGNUToolchain/14.2.rel1/arm-none-eabi/arm-none-eabi/include/c++/14.2.1/bits/stl_algobase.h **** 
 683:/Applications/ArmGNUToolchain/14.2.rel1/arm-none-eabi/arm-none-eabi/include/c++/14.2.1/bits/stl_algobase.h ****       return std::__copy_move_a<true>(std::__miter_base(__first),
 684:/Applications/ArmGNUToolchain/14.2.rel1/arm-none-eabi/arm-none-eabi/include/c++/14.2.1/bits/stl_algobase.h **** 				      std::__miter_base(__last), __result);
 685:/Applications/ArmGNUToolchain/14.2.rel1/arm-none-eabi/arm-none-eabi/include/c++/14.2.1/bits/stl_algobase.h ****     }
 686:/Applications/ArmGNUToolchain/14.2.rel1/arm-none-eabi/arm-none-eabi/include/c++/14.2.1/bits/stl_algobase.h **** 
 687:/Applications/ArmGNUToolchain/14.2.rel1/arm-none-eabi/arm-none-eabi/include/c++/14.2.1/bits/stl_algobase.h **** #define _GLIBCXX_MOVE3(_Tp, _Up, _Vp) std::move(_Tp, _Up, _Vp)
 688:/Applications/ArmGNUToolchain/14.2.rel1/arm-none-eabi/arm-none-eabi/include/c++/14.2.1/bits/stl_algobase.h **** #else
 689:/Applications/ArmGNUToolchain/14.2.rel1/arm-none-eabi/arm-none-eabi/include/c++/14.2.1/bits/stl_algobase.h **** #define _GLIBCXX_MOVE3(_Tp, _Up, _Vp) std::copy(_Tp, _Up, _Vp)
 690:/Applications/ArmGNUToolchain/14.2.rel1/arm-none-eabi/arm-none-eabi/include/c++/14.2.1/bits/stl_algobase.h **** #endif
 691:/Applications/ArmGNUToolchain/14.2.rel1/arm-none-eabi/arm-none-eabi/include/c++/14.2.1/bits/stl_algobase.h **** 
 692:/Applications/ArmGNUToolchain/14.2.rel1/arm-none-eabi/arm-none-eabi/include/c++/14.2.1/bits/stl_algobase.h ****   template<bool _IsMove, bool _IsSimple, typename _Category>
 693:/Applications/ArmGNUToolchain/14.2.rel1/arm-none-eabi/arm-none-eabi/include/c++/14.2.1/bits/stl_algobase.h ****     struct __copy_move_backward
 694:/Applications/ArmGNUToolchain/14.2.rel1/arm-none-eabi/arm-none-eabi/include/c++/14.2.1/bits/stl_algobase.h ****     {
 695:/Applications/ArmGNUToolchain/14.2.rel1/arm-none-eabi/arm-none-eabi/include/c++/14.2.1/bits/stl_algobase.h ****       template<typename _BI1, typename _BI2>
 696:/Applications/ArmGNUToolchain/14.2.rel1/arm-none-eabi/arm-none-eabi/include/c++/14.2.1/bits/stl_algobase.h **** 	_GLIBCXX20_CONSTEXPR
 697:/Applications/ArmGNUToolchain/14.2.rel1/arm-none-eabi/arm-none-eabi/include/c++/14.2.1/bits/stl_algobase.h **** 	static _BI2
 698:/Applications/ArmGNUToolchain/14.2.rel1/arm-none-eabi/arm-none-eabi/include/c++/14.2.1/bits/stl_algobase.h **** 	__copy_move_b(_BI1 __first, _BI1 __last, _BI2 __result)
 699:/Applications/ArmGNUToolchain/14.2.rel1/arm-none-eabi/arm-none-eabi/include/c++/14.2.1/bits/stl_algobase.h **** 	{
 700:/Applications/ArmGNUToolchain/14.2.rel1/arm-none-eabi/arm-none-eabi/include/c++/14.2.1/bits/stl_algobase.h **** 	  while (__first != __last)
 701:/Applications/ArmGNUToolchain/14.2.rel1/arm-none-eabi/arm-none-eabi/include/c++/14.2.1/bits/stl_algobase.h **** 	    *--__result = *--__last;
 702:/Applications/ArmGNUToolchain/14.2.rel1/arm-none-eabi/arm-none-eabi/include/c++/14.2.1/bits/stl_algobase.h **** 	  return __result;
 703:/Applications/ArmGNUToolchain/14.2.rel1/arm-none-eabi/arm-none-eabi/include/c++/14.2.1/bits/stl_algobase.h **** 	}
 704:/Applications/ArmGNUToolchain/14.2.rel1/arm-none-eabi/arm-none-eabi/include/c++/14.2.1/bits/stl_algobase.h ****     };
 705:/Applications/ArmGNUToolchain/14.2.rel1/arm-none-eabi/arm-none-eabi/include/c++/14.2.1/bits/stl_algobase.h **** 
ARM GAS  /var/folders/y7/g6pkzsp12sx54x3s3mvyn15r0000gn/T//ccWX7ODC.s 			page 42


 706:/Applications/ArmGNUToolchain/14.2.rel1/arm-none-eabi/arm-none-eabi/include/c++/14.2.1/bits/stl_algobase.h **** #if __cplusplus >= 201103L
 707:/Applications/ArmGNUToolchain/14.2.rel1/arm-none-eabi/arm-none-eabi/include/c++/14.2.1/bits/stl_algobase.h ****   template<typename _Category>
 708:/Applications/ArmGNUToolchain/14.2.rel1/arm-none-eabi/arm-none-eabi/include/c++/14.2.1/bits/stl_algobase.h ****     struct __copy_move_backward<true, false, _Category>
 709:/Applications/ArmGNUToolchain/14.2.rel1/arm-none-eabi/arm-none-eabi/include/c++/14.2.1/bits/stl_algobase.h ****     {
 710:/Applications/ArmGNUToolchain/14.2.rel1/arm-none-eabi/arm-none-eabi/include/c++/14.2.1/bits/stl_algobase.h ****       template<typename _BI1, typename _BI2>
 711:/Applications/ArmGNUToolchain/14.2.rel1/arm-none-eabi/arm-none-eabi/include/c++/14.2.1/bits/stl_algobase.h **** 	_GLIBCXX20_CONSTEXPR
 712:/Applications/ArmGNUToolchain/14.2.rel1/arm-none-eabi/arm-none-eabi/include/c++/14.2.1/bits/stl_algobase.h **** 	static _BI2
 713:/Applications/ArmGNUToolchain/14.2.rel1/arm-none-eabi/arm-none-eabi/include/c++/14.2.1/bits/stl_algobase.h **** 	__copy_move_b(_BI1 __first, _BI1 __last, _BI2 __result)
 714:/Applications/ArmGNUToolchain/14.2.rel1/arm-none-eabi/arm-none-eabi/include/c++/14.2.1/bits/stl_algobase.h **** 	{
 715:/Applications/ArmGNUToolchain/14.2.rel1/arm-none-eabi/arm-none-eabi/include/c++/14.2.1/bits/stl_algobase.h **** 	  while (__first != __last)
 716:/Applications/ArmGNUToolchain/14.2.rel1/arm-none-eabi/arm-none-eabi/include/c++/14.2.1/bits/stl_algobase.h **** 	    *--__result = std::move(*--__last);
 717:/Applications/ArmGNUToolchain/14.2.rel1/arm-none-eabi/arm-none-eabi/include/c++/14.2.1/bits/stl_algobase.h **** 	  return __result;
 718:/Applications/ArmGNUToolchain/14.2.rel1/arm-none-eabi/arm-none-eabi/include/c++/14.2.1/bits/stl_algobase.h **** 	}
 719:/Applications/ArmGNUToolchain/14.2.rel1/arm-none-eabi/arm-none-eabi/include/c++/14.2.1/bits/stl_algobase.h ****     };
 720:/Applications/ArmGNUToolchain/14.2.rel1/arm-none-eabi/arm-none-eabi/include/c++/14.2.1/bits/stl_algobase.h **** #endif
 721:/Applications/ArmGNUToolchain/14.2.rel1/arm-none-eabi/arm-none-eabi/include/c++/14.2.1/bits/stl_algobase.h **** 
 722:/Applications/ArmGNUToolchain/14.2.rel1/arm-none-eabi/arm-none-eabi/include/c++/14.2.1/bits/stl_algobase.h ****   template<>
 723:/Applications/ArmGNUToolchain/14.2.rel1/arm-none-eabi/arm-none-eabi/include/c++/14.2.1/bits/stl_algobase.h ****     struct __copy_move_backward<false, false, random_access_iterator_tag>
 724:/Applications/ArmGNUToolchain/14.2.rel1/arm-none-eabi/arm-none-eabi/include/c++/14.2.1/bits/stl_algobase.h ****     {
 725:/Applications/ArmGNUToolchain/14.2.rel1/arm-none-eabi/arm-none-eabi/include/c++/14.2.1/bits/stl_algobase.h ****       template<typename _BI1, typename _BI2>
 726:/Applications/ArmGNUToolchain/14.2.rel1/arm-none-eabi/arm-none-eabi/include/c++/14.2.1/bits/stl_algobase.h **** 	_GLIBCXX20_CONSTEXPR
 727:/Applications/ArmGNUToolchain/14.2.rel1/arm-none-eabi/arm-none-eabi/include/c++/14.2.1/bits/stl_algobase.h **** 	static _BI2
 728:/Applications/ArmGNUToolchain/14.2.rel1/arm-none-eabi/arm-none-eabi/include/c++/14.2.1/bits/stl_algobase.h **** 	__copy_move_b(_BI1 __first, _BI1 __last, _BI2 __result)
 729:/Applications/ArmGNUToolchain/14.2.rel1/arm-none-eabi/arm-none-eabi/include/c++/14.2.1/bits/stl_algobase.h **** 	{
 730:/Applications/ArmGNUToolchain/14.2.rel1/arm-none-eabi/arm-none-eabi/include/c++/14.2.1/bits/stl_algobase.h **** 	  typename iterator_traits<_BI1>::difference_type
 731:/Applications/ArmGNUToolchain/14.2.rel1/arm-none-eabi/arm-none-eabi/include/c++/14.2.1/bits/stl_algobase.h **** 	    __n = __last - __first;
 732:/Applications/ArmGNUToolchain/14.2.rel1/arm-none-eabi/arm-none-eabi/include/c++/14.2.1/bits/stl_algobase.h **** 	  for (; __n > 0; --__n)
 733:/Applications/ArmGNUToolchain/14.2.rel1/arm-none-eabi/arm-none-eabi/include/c++/14.2.1/bits/stl_algobase.h **** 	    *--__result = *--__last;
 734:/Applications/ArmGNUToolchain/14.2.rel1/arm-none-eabi/arm-none-eabi/include/c++/14.2.1/bits/stl_algobase.h **** 	  return __result;
 735:/Applications/ArmGNUToolchain/14.2.rel1/arm-none-eabi/arm-none-eabi/include/c++/14.2.1/bits/stl_algobase.h **** 	}
 736:/Applications/ArmGNUToolchain/14.2.rel1/arm-none-eabi/arm-none-eabi/include/c++/14.2.1/bits/stl_algobase.h ****     };
 737:/Applications/ArmGNUToolchain/14.2.rel1/arm-none-eabi/arm-none-eabi/include/c++/14.2.1/bits/stl_algobase.h **** 
 738:/Applications/ArmGNUToolchain/14.2.rel1/arm-none-eabi/arm-none-eabi/include/c++/14.2.1/bits/stl_algobase.h **** #if __cplusplus >= 201103L
 739:/Applications/ArmGNUToolchain/14.2.rel1/arm-none-eabi/arm-none-eabi/include/c++/14.2.1/bits/stl_algobase.h ****   template<>
 740:/Applications/ArmGNUToolchain/14.2.rel1/arm-none-eabi/arm-none-eabi/include/c++/14.2.1/bits/stl_algobase.h ****     struct __copy_move_backward<true, false, random_access_iterator_tag>
 741:/Applications/ArmGNUToolchain/14.2.rel1/arm-none-eabi/arm-none-eabi/include/c++/14.2.1/bits/stl_algobase.h ****     {
 742:/Applications/ArmGNUToolchain/14.2.rel1/arm-none-eabi/arm-none-eabi/include/c++/14.2.1/bits/stl_algobase.h ****       template<typename _BI1, typename _BI2>
 743:/Applications/ArmGNUToolchain/14.2.rel1/arm-none-eabi/arm-none-eabi/include/c++/14.2.1/bits/stl_algobase.h **** 	_GLIBCXX20_CONSTEXPR
 744:/Applications/ArmGNUToolchain/14.2.rel1/arm-none-eabi/arm-none-eabi/include/c++/14.2.1/bits/stl_algobase.h **** 	static _BI2
 745:/Applications/ArmGNUToolchain/14.2.rel1/arm-none-eabi/arm-none-eabi/include/c++/14.2.1/bits/stl_algobase.h **** 	__copy_move_b(_BI1 __first, _BI1 __last, _BI2 __result)
 746:/Applications/ArmGNUToolchain/14.2.rel1/arm-none-eabi/arm-none-eabi/include/c++/14.2.1/bits/stl_algobase.h **** 	{
 747:/Applications/ArmGNUToolchain/14.2.rel1/arm-none-eabi/arm-none-eabi/include/c++/14.2.1/bits/stl_algobase.h **** 	  typename iterator_traits<_BI1>::difference_type
 748:/Applications/ArmGNUToolchain/14.2.rel1/arm-none-eabi/arm-none-eabi/include/c++/14.2.1/bits/stl_algobase.h **** 	    __n = __last - __first;
 749:/Applications/ArmGNUToolchain/14.2.rel1/arm-none-eabi/arm-none-eabi/include/c++/14.2.1/bits/stl_algobase.h **** 	  for (; __n > 0; --__n)
 750:/Applications/ArmGNUToolchain/14.2.rel1/arm-none-eabi/arm-none-eabi/include/c++/14.2.1/bits/stl_algobase.h **** 	    *--__result = std::move(*--__last);
 751:/Applications/ArmGNUToolchain/14.2.rel1/arm-none-eabi/arm-none-eabi/include/c++/14.2.1/bits/stl_algobase.h **** 	  return __result;
 752:/Applications/ArmGNUToolchain/14.2.rel1/arm-none-eabi/arm-none-eabi/include/c++/14.2.1/bits/stl_algobase.h **** 	}
 753:/Applications/ArmGNUToolchain/14.2.rel1/arm-none-eabi/arm-none-eabi/include/c++/14.2.1/bits/stl_algobase.h ****     };
 754:/Applications/ArmGNUToolchain/14.2.rel1/arm-none-eabi/arm-none-eabi/include/c++/14.2.1/bits/stl_algobase.h **** #endif
 755:/Applications/ArmGNUToolchain/14.2.rel1/arm-none-eabi/arm-none-eabi/include/c++/14.2.1/bits/stl_algobase.h **** 
 756:/Applications/ArmGNUToolchain/14.2.rel1/arm-none-eabi/arm-none-eabi/include/c++/14.2.1/bits/stl_algobase.h ****   template<bool _IsMove>
 757:/Applications/ArmGNUToolchain/14.2.rel1/arm-none-eabi/arm-none-eabi/include/c++/14.2.1/bits/stl_algobase.h ****     struct __copy_move_backward<_IsMove, true, random_access_iterator_tag>
 758:/Applications/ArmGNUToolchain/14.2.rel1/arm-none-eabi/arm-none-eabi/include/c++/14.2.1/bits/stl_algobase.h ****     {
 759:/Applications/ArmGNUToolchain/14.2.rel1/arm-none-eabi/arm-none-eabi/include/c++/14.2.1/bits/stl_algobase.h ****       template<typename _Tp, typename _Up>
 760:/Applications/ArmGNUToolchain/14.2.rel1/arm-none-eabi/arm-none-eabi/include/c++/14.2.1/bits/stl_algobase.h **** 	_GLIBCXX20_CONSTEXPR
 761:/Applications/ArmGNUToolchain/14.2.rel1/arm-none-eabi/arm-none-eabi/include/c++/14.2.1/bits/stl_algobase.h **** 	static _Up*
 762:/Applications/ArmGNUToolchain/14.2.rel1/arm-none-eabi/arm-none-eabi/include/c++/14.2.1/bits/stl_algobase.h **** 	__copy_move_b(_Tp* __first, _Tp* __last, _Up* __result)
ARM GAS  /var/folders/y7/g6pkzsp12sx54x3s3mvyn15r0000gn/T//ccWX7ODC.s 			page 43


 763:/Applications/ArmGNUToolchain/14.2.rel1/arm-none-eabi/arm-none-eabi/include/c++/14.2.1/bits/stl_algobase.h **** 	{
 764:/Applications/ArmGNUToolchain/14.2.rel1/arm-none-eabi/arm-none-eabi/include/c++/14.2.1/bits/stl_algobase.h **** 	  const ptrdiff_t _Num = __last - __first;
 765:/Applications/ArmGNUToolchain/14.2.rel1/arm-none-eabi/arm-none-eabi/include/c++/14.2.1/bits/stl_algobase.h **** 	  if (__builtin_expect(_Num > 1, true))
 766:/Applications/ArmGNUToolchain/14.2.rel1/arm-none-eabi/arm-none-eabi/include/c++/14.2.1/bits/stl_algobase.h **** 	    __builtin_memmove(__result - _Num, __first, sizeof(_Tp) * _Num);
 767:/Applications/ArmGNUToolchain/14.2.rel1/arm-none-eabi/arm-none-eabi/include/c++/14.2.1/bits/stl_algobase.h **** 	  else if (_Num == 1)
 768:/Applications/ArmGNUToolchain/14.2.rel1/arm-none-eabi/arm-none-eabi/include/c++/14.2.1/bits/stl_algobase.h **** 	    std::__copy_move<_IsMove, false, random_access_iterator_tag>::
 769:/Applications/ArmGNUToolchain/14.2.rel1/arm-none-eabi/arm-none-eabi/include/c++/14.2.1/bits/stl_algobase.h **** 	      __assign_one(__result - 1, __first);
 770:/Applications/ArmGNUToolchain/14.2.rel1/arm-none-eabi/arm-none-eabi/include/c++/14.2.1/bits/stl_algobase.h **** 	  return __result - _Num;
 771:/Applications/ArmGNUToolchain/14.2.rel1/arm-none-eabi/arm-none-eabi/include/c++/14.2.1/bits/stl_algobase.h **** 	}
 772:/Applications/ArmGNUToolchain/14.2.rel1/arm-none-eabi/arm-none-eabi/include/c++/14.2.1/bits/stl_algobase.h ****     };
 773:/Applications/ArmGNUToolchain/14.2.rel1/arm-none-eabi/arm-none-eabi/include/c++/14.2.1/bits/stl_algobase.h **** 
 774:/Applications/ArmGNUToolchain/14.2.rel1/arm-none-eabi/arm-none-eabi/include/c++/14.2.1/bits/stl_algobase.h ****   template<bool _IsMove, typename _BI1, typename _BI2>
 775:/Applications/ArmGNUToolchain/14.2.rel1/arm-none-eabi/arm-none-eabi/include/c++/14.2.1/bits/stl_algobase.h ****     _GLIBCXX20_CONSTEXPR
 776:/Applications/ArmGNUToolchain/14.2.rel1/arm-none-eabi/arm-none-eabi/include/c++/14.2.1/bits/stl_algobase.h ****     inline _BI2
 777:/Applications/ArmGNUToolchain/14.2.rel1/arm-none-eabi/arm-none-eabi/include/c++/14.2.1/bits/stl_algobase.h ****     __copy_move_backward_a2(_BI1 __first, _BI1 __last, _BI2 __result)
 778:/Applications/ArmGNUToolchain/14.2.rel1/arm-none-eabi/arm-none-eabi/include/c++/14.2.1/bits/stl_algobase.h ****     {
 779:/Applications/ArmGNUToolchain/14.2.rel1/arm-none-eabi/arm-none-eabi/include/c++/14.2.1/bits/stl_algobase.h ****       typedef typename iterator_traits<_BI1>::iterator_category _Category;
 780:/Applications/ArmGNUToolchain/14.2.rel1/arm-none-eabi/arm-none-eabi/include/c++/14.2.1/bits/stl_algobase.h **** #ifdef __cpp_lib_is_constant_evaluated
 781:/Applications/ArmGNUToolchain/14.2.rel1/arm-none-eabi/arm-none-eabi/include/c++/14.2.1/bits/stl_algobase.h ****       if (std::is_constant_evaluated())
 782:/Applications/ArmGNUToolchain/14.2.rel1/arm-none-eabi/arm-none-eabi/include/c++/14.2.1/bits/stl_algobase.h **** 	return std::__copy_move_backward<_IsMove, false, _Category>::
 783:/Applications/ArmGNUToolchain/14.2.rel1/arm-none-eabi/arm-none-eabi/include/c++/14.2.1/bits/stl_algobase.h **** 	  __copy_move_b(__first, __last, __result);
 784:/Applications/ArmGNUToolchain/14.2.rel1/arm-none-eabi/arm-none-eabi/include/c++/14.2.1/bits/stl_algobase.h **** #endif
 785:/Applications/ArmGNUToolchain/14.2.rel1/arm-none-eabi/arm-none-eabi/include/c++/14.2.1/bits/stl_algobase.h ****       return std::__copy_move_backward<_IsMove,
 786:/Applications/ArmGNUToolchain/14.2.rel1/arm-none-eabi/arm-none-eabi/include/c++/14.2.1/bits/stl_algobase.h **** 				       __memcpyable<_BI2, _BI1>::__value,
 787:/Applications/ArmGNUToolchain/14.2.rel1/arm-none-eabi/arm-none-eabi/include/c++/14.2.1/bits/stl_algobase.h **** 				       _Category>::__copy_move_b(__first,
 788:/Applications/ArmGNUToolchain/14.2.rel1/arm-none-eabi/arm-none-eabi/include/c++/14.2.1/bits/stl_algobase.h **** 								 __last,
 789:/Applications/ArmGNUToolchain/14.2.rel1/arm-none-eabi/arm-none-eabi/include/c++/14.2.1/bits/stl_algobase.h **** 								 __result);
 790:/Applications/ArmGNUToolchain/14.2.rel1/arm-none-eabi/arm-none-eabi/include/c++/14.2.1/bits/stl_algobase.h ****     }
 791:/Applications/ArmGNUToolchain/14.2.rel1/arm-none-eabi/arm-none-eabi/include/c++/14.2.1/bits/stl_algobase.h **** 
 792:/Applications/ArmGNUToolchain/14.2.rel1/arm-none-eabi/arm-none-eabi/include/c++/14.2.1/bits/stl_algobase.h ****   template<bool _IsMove, typename _BI1, typename _BI2>
 793:/Applications/ArmGNUToolchain/14.2.rel1/arm-none-eabi/arm-none-eabi/include/c++/14.2.1/bits/stl_algobase.h ****     _GLIBCXX20_CONSTEXPR
 794:/Applications/ArmGNUToolchain/14.2.rel1/arm-none-eabi/arm-none-eabi/include/c++/14.2.1/bits/stl_algobase.h ****     inline _BI2
 795:/Applications/ArmGNUToolchain/14.2.rel1/arm-none-eabi/arm-none-eabi/include/c++/14.2.1/bits/stl_algobase.h ****     __copy_move_backward_a1(_BI1 __first, _BI1 __last, _BI2 __result)
 796:/Applications/ArmGNUToolchain/14.2.rel1/arm-none-eabi/arm-none-eabi/include/c++/14.2.1/bits/stl_algobase.h ****     { return std::__copy_move_backward_a2<_IsMove>(__first, __last, __result); }
 797:/Applications/ArmGNUToolchain/14.2.rel1/arm-none-eabi/arm-none-eabi/include/c++/14.2.1/bits/stl_algobase.h **** 
 798:/Applications/ArmGNUToolchain/14.2.rel1/arm-none-eabi/arm-none-eabi/include/c++/14.2.1/bits/stl_algobase.h ****   template<bool _IsMove,
 799:/Applications/ArmGNUToolchain/14.2.rel1/arm-none-eabi/arm-none-eabi/include/c++/14.2.1/bits/stl_algobase.h **** 	   typename _Tp, typename _Ref, typename _Ptr, typename _OI>
 800:/Applications/ArmGNUToolchain/14.2.rel1/arm-none-eabi/arm-none-eabi/include/c++/14.2.1/bits/stl_algobase.h ****     _OI
 801:/Applications/ArmGNUToolchain/14.2.rel1/arm-none-eabi/arm-none-eabi/include/c++/14.2.1/bits/stl_algobase.h ****     __copy_move_backward_a1(_GLIBCXX_STD_C::_Deque_iterator<_Tp, _Ref, _Ptr>,
 802:/Applications/ArmGNUToolchain/14.2.rel1/arm-none-eabi/arm-none-eabi/include/c++/14.2.1/bits/stl_algobase.h **** 			    _GLIBCXX_STD_C::_Deque_iterator<_Tp, _Ref, _Ptr>,
 803:/Applications/ArmGNUToolchain/14.2.rel1/arm-none-eabi/arm-none-eabi/include/c++/14.2.1/bits/stl_algobase.h **** 			    _OI);
 804:/Applications/ArmGNUToolchain/14.2.rel1/arm-none-eabi/arm-none-eabi/include/c++/14.2.1/bits/stl_algobase.h **** 
 805:/Applications/ArmGNUToolchain/14.2.rel1/arm-none-eabi/arm-none-eabi/include/c++/14.2.1/bits/stl_algobase.h ****   template<bool _IsMove,
 806:/Applications/ArmGNUToolchain/14.2.rel1/arm-none-eabi/arm-none-eabi/include/c++/14.2.1/bits/stl_algobase.h **** 	   typename _ITp, typename _IRef, typename _IPtr, typename _OTp>
 807:/Applications/ArmGNUToolchain/14.2.rel1/arm-none-eabi/arm-none-eabi/include/c++/14.2.1/bits/stl_algobase.h ****     _GLIBCXX_STD_C::_Deque_iterator<_OTp, _OTp&, _OTp*>
 808:/Applications/ArmGNUToolchain/14.2.rel1/arm-none-eabi/arm-none-eabi/include/c++/14.2.1/bits/stl_algobase.h ****     __copy_move_backward_a1(
 809:/Applications/ArmGNUToolchain/14.2.rel1/arm-none-eabi/arm-none-eabi/include/c++/14.2.1/bits/stl_algobase.h **** 			_GLIBCXX_STD_C::_Deque_iterator<_ITp, _IRef, _IPtr>,
 810:/Applications/ArmGNUToolchain/14.2.rel1/arm-none-eabi/arm-none-eabi/include/c++/14.2.1/bits/stl_algobase.h **** 			_GLIBCXX_STD_C::_Deque_iterator<_ITp, _IRef, _IPtr>,
 811:/Applications/ArmGNUToolchain/14.2.rel1/arm-none-eabi/arm-none-eabi/include/c++/14.2.1/bits/stl_algobase.h **** 			_GLIBCXX_STD_C::_Deque_iterator<_OTp, _OTp&, _OTp*>);
 812:/Applications/ArmGNUToolchain/14.2.rel1/arm-none-eabi/arm-none-eabi/include/c++/14.2.1/bits/stl_algobase.h **** 
 813:/Applications/ArmGNUToolchain/14.2.rel1/arm-none-eabi/arm-none-eabi/include/c++/14.2.1/bits/stl_algobase.h ****   template<bool _IsMove, typename _II, typename _Tp>
 814:/Applications/ArmGNUToolchain/14.2.rel1/arm-none-eabi/arm-none-eabi/include/c++/14.2.1/bits/stl_algobase.h ****     typename __gnu_cxx::__enable_if<
 815:/Applications/ArmGNUToolchain/14.2.rel1/arm-none-eabi/arm-none-eabi/include/c++/14.2.1/bits/stl_algobase.h ****       __is_random_access_iter<_II>::__value,
 816:/Applications/ArmGNUToolchain/14.2.rel1/arm-none-eabi/arm-none-eabi/include/c++/14.2.1/bits/stl_algobase.h ****       _GLIBCXX_STD_C::_Deque_iterator<_Tp, _Tp&, _Tp*> >::__type
 817:/Applications/ArmGNUToolchain/14.2.rel1/arm-none-eabi/arm-none-eabi/include/c++/14.2.1/bits/stl_algobase.h ****     __copy_move_backward_a1(_II, _II,
 818:/Applications/ArmGNUToolchain/14.2.rel1/arm-none-eabi/arm-none-eabi/include/c++/14.2.1/bits/stl_algobase.h **** 			    _GLIBCXX_STD_C::_Deque_iterator<_Tp, _Tp&, _Tp*>);
 819:/Applications/ArmGNUToolchain/14.2.rel1/arm-none-eabi/arm-none-eabi/include/c++/14.2.1/bits/stl_algobase.h **** 
ARM GAS  /var/folders/y7/g6pkzsp12sx54x3s3mvyn15r0000gn/T//ccWX7ODC.s 			page 44


 820:/Applications/ArmGNUToolchain/14.2.rel1/arm-none-eabi/arm-none-eabi/include/c++/14.2.1/bits/stl_algobase.h ****   template<bool _IsMove, typename _II, typename _OI>
 821:/Applications/ArmGNUToolchain/14.2.rel1/arm-none-eabi/arm-none-eabi/include/c++/14.2.1/bits/stl_algobase.h ****     _GLIBCXX20_CONSTEXPR
 822:/Applications/ArmGNUToolchain/14.2.rel1/arm-none-eabi/arm-none-eabi/include/c++/14.2.1/bits/stl_algobase.h ****     inline _OI
 823:/Applications/ArmGNUToolchain/14.2.rel1/arm-none-eabi/arm-none-eabi/include/c++/14.2.1/bits/stl_algobase.h ****     __copy_move_backward_a(_II __first, _II __last, _OI __result)
 824:/Applications/ArmGNUToolchain/14.2.rel1/arm-none-eabi/arm-none-eabi/include/c++/14.2.1/bits/stl_algobase.h ****     {
 825:/Applications/ArmGNUToolchain/14.2.rel1/arm-none-eabi/arm-none-eabi/include/c++/14.2.1/bits/stl_algobase.h ****       return std::__niter_wrap(__result,
 826:/Applications/ArmGNUToolchain/14.2.rel1/arm-none-eabi/arm-none-eabi/include/c++/14.2.1/bits/stl_algobase.h **** 		std::__copy_move_backward_a1<_IsMove>
 827:/Applications/ArmGNUToolchain/14.2.rel1/arm-none-eabi/arm-none-eabi/include/c++/14.2.1/bits/stl_algobase.h **** 		  (std::__niter_base(__first), std::__niter_base(__last),
 828:/Applications/ArmGNUToolchain/14.2.rel1/arm-none-eabi/arm-none-eabi/include/c++/14.2.1/bits/stl_algobase.h **** 		   std::__niter_base(__result)));
 829:/Applications/ArmGNUToolchain/14.2.rel1/arm-none-eabi/arm-none-eabi/include/c++/14.2.1/bits/stl_algobase.h ****     }
 830:/Applications/ArmGNUToolchain/14.2.rel1/arm-none-eabi/arm-none-eabi/include/c++/14.2.1/bits/stl_algobase.h **** 
 831:/Applications/ArmGNUToolchain/14.2.rel1/arm-none-eabi/arm-none-eabi/include/c++/14.2.1/bits/stl_algobase.h ****   template<bool _IsMove,
 832:/Applications/ArmGNUToolchain/14.2.rel1/arm-none-eabi/arm-none-eabi/include/c++/14.2.1/bits/stl_algobase.h **** 	   typename _Ite, typename _Seq, typename _Cat, typename _OI>
 833:/Applications/ArmGNUToolchain/14.2.rel1/arm-none-eabi/arm-none-eabi/include/c++/14.2.1/bits/stl_algobase.h ****     _GLIBCXX20_CONSTEXPR
 834:/Applications/ArmGNUToolchain/14.2.rel1/arm-none-eabi/arm-none-eabi/include/c++/14.2.1/bits/stl_algobase.h ****     _OI
 835:/Applications/ArmGNUToolchain/14.2.rel1/arm-none-eabi/arm-none-eabi/include/c++/14.2.1/bits/stl_algobase.h ****     __copy_move_backward_a(
 836:/Applications/ArmGNUToolchain/14.2.rel1/arm-none-eabi/arm-none-eabi/include/c++/14.2.1/bits/stl_algobase.h **** 		const ::__gnu_debug::_Safe_iterator<_Ite, _Seq, _Cat>&,
 837:/Applications/ArmGNUToolchain/14.2.rel1/arm-none-eabi/arm-none-eabi/include/c++/14.2.1/bits/stl_algobase.h **** 		const ::__gnu_debug::_Safe_iterator<_Ite, _Seq, _Cat>&,
 838:/Applications/ArmGNUToolchain/14.2.rel1/arm-none-eabi/arm-none-eabi/include/c++/14.2.1/bits/stl_algobase.h **** 		_OI);
 839:/Applications/ArmGNUToolchain/14.2.rel1/arm-none-eabi/arm-none-eabi/include/c++/14.2.1/bits/stl_algobase.h **** 
 840:/Applications/ArmGNUToolchain/14.2.rel1/arm-none-eabi/arm-none-eabi/include/c++/14.2.1/bits/stl_algobase.h ****   template<bool _IsMove,
 841:/Applications/ArmGNUToolchain/14.2.rel1/arm-none-eabi/arm-none-eabi/include/c++/14.2.1/bits/stl_algobase.h **** 	   typename _II, typename _Ite, typename _Seq, typename _Cat>
 842:/Applications/ArmGNUToolchain/14.2.rel1/arm-none-eabi/arm-none-eabi/include/c++/14.2.1/bits/stl_algobase.h ****     _GLIBCXX20_CONSTEXPR
 843:/Applications/ArmGNUToolchain/14.2.rel1/arm-none-eabi/arm-none-eabi/include/c++/14.2.1/bits/stl_algobase.h ****     __gnu_debug::_Safe_iterator<_Ite, _Seq, _Cat>
 844:/Applications/ArmGNUToolchain/14.2.rel1/arm-none-eabi/arm-none-eabi/include/c++/14.2.1/bits/stl_algobase.h ****     __copy_move_backward_a(_II, _II,
 845:/Applications/ArmGNUToolchain/14.2.rel1/arm-none-eabi/arm-none-eabi/include/c++/14.2.1/bits/stl_algobase.h **** 		const ::__gnu_debug::_Safe_iterator<_Ite, _Seq, _Cat>&);
 846:/Applications/ArmGNUToolchain/14.2.rel1/arm-none-eabi/arm-none-eabi/include/c++/14.2.1/bits/stl_algobase.h **** 
 847:/Applications/ArmGNUToolchain/14.2.rel1/arm-none-eabi/arm-none-eabi/include/c++/14.2.1/bits/stl_algobase.h ****   template<bool _IsMove,
 848:/Applications/ArmGNUToolchain/14.2.rel1/arm-none-eabi/arm-none-eabi/include/c++/14.2.1/bits/stl_algobase.h **** 	   typename _IIte, typename _ISeq, typename _ICat,
 849:/Applications/ArmGNUToolchain/14.2.rel1/arm-none-eabi/arm-none-eabi/include/c++/14.2.1/bits/stl_algobase.h **** 	   typename _OIte, typename _OSeq, typename _OCat>
 850:/Applications/ArmGNUToolchain/14.2.rel1/arm-none-eabi/arm-none-eabi/include/c++/14.2.1/bits/stl_algobase.h ****     _GLIBCXX20_CONSTEXPR
 851:/Applications/ArmGNUToolchain/14.2.rel1/arm-none-eabi/arm-none-eabi/include/c++/14.2.1/bits/stl_algobase.h ****     ::__gnu_debug::_Safe_iterator<_OIte, _OSeq, _OCat>
 852:/Applications/ArmGNUToolchain/14.2.rel1/arm-none-eabi/arm-none-eabi/include/c++/14.2.1/bits/stl_algobase.h ****     __copy_move_backward_a(
 853:/Applications/ArmGNUToolchain/14.2.rel1/arm-none-eabi/arm-none-eabi/include/c++/14.2.1/bits/stl_algobase.h **** 		const ::__gnu_debug::_Safe_iterator<_IIte, _ISeq, _ICat>&,
 854:/Applications/ArmGNUToolchain/14.2.rel1/arm-none-eabi/arm-none-eabi/include/c++/14.2.1/bits/stl_algobase.h **** 		const ::__gnu_debug::_Safe_iterator<_IIte, _ISeq, _ICat>&,
 855:/Applications/ArmGNUToolchain/14.2.rel1/arm-none-eabi/arm-none-eabi/include/c++/14.2.1/bits/stl_algobase.h **** 		const ::__gnu_debug::_Safe_iterator<_OIte, _OSeq, _OCat>&);
 856:/Applications/ArmGNUToolchain/14.2.rel1/arm-none-eabi/arm-none-eabi/include/c++/14.2.1/bits/stl_algobase.h **** 
 857:/Applications/ArmGNUToolchain/14.2.rel1/arm-none-eabi/arm-none-eabi/include/c++/14.2.1/bits/stl_algobase.h ****   /**
 858:/Applications/ArmGNUToolchain/14.2.rel1/arm-none-eabi/arm-none-eabi/include/c++/14.2.1/bits/stl_algobase.h ****    *  @brief Copies the range [first,last) into result.
 859:/Applications/ArmGNUToolchain/14.2.rel1/arm-none-eabi/arm-none-eabi/include/c++/14.2.1/bits/stl_algobase.h ****    *  @ingroup mutating_algorithms
 860:/Applications/ArmGNUToolchain/14.2.rel1/arm-none-eabi/arm-none-eabi/include/c++/14.2.1/bits/stl_algobase.h ****    *  @param  __first  A bidirectional iterator.
 861:/Applications/ArmGNUToolchain/14.2.rel1/arm-none-eabi/arm-none-eabi/include/c++/14.2.1/bits/stl_algobase.h ****    *  @param  __last   A bidirectional iterator.
 862:/Applications/ArmGNUToolchain/14.2.rel1/arm-none-eabi/arm-none-eabi/include/c++/14.2.1/bits/stl_algobase.h ****    *  @param  __result A bidirectional iterator.
 863:/Applications/ArmGNUToolchain/14.2.rel1/arm-none-eabi/arm-none-eabi/include/c++/14.2.1/bits/stl_algobase.h ****    *  @return   result - (last - first)
 864:/Applications/ArmGNUToolchain/14.2.rel1/arm-none-eabi/arm-none-eabi/include/c++/14.2.1/bits/stl_algobase.h ****    *
 865:/Applications/ArmGNUToolchain/14.2.rel1/arm-none-eabi/arm-none-eabi/include/c++/14.2.1/bits/stl_algobase.h ****    *  The function has the same effect as copy, but starts at the end of the
 866:/Applications/ArmGNUToolchain/14.2.rel1/arm-none-eabi/arm-none-eabi/include/c++/14.2.1/bits/stl_algobase.h ****    *  range and works its way to the start, returning the start of the result.
 867:/Applications/ArmGNUToolchain/14.2.rel1/arm-none-eabi/arm-none-eabi/include/c++/14.2.1/bits/stl_algobase.h ****    *  This inline function will boil down to a call to @c memmove whenever
 868:/Applications/ArmGNUToolchain/14.2.rel1/arm-none-eabi/arm-none-eabi/include/c++/14.2.1/bits/stl_algobase.h ****    *  possible.  Failing that, if random access iterators are passed, then the
 869:/Applications/ArmGNUToolchain/14.2.rel1/arm-none-eabi/arm-none-eabi/include/c++/14.2.1/bits/stl_algobase.h ****    *  loop count will be known (and therefore a candidate for compiler
 870:/Applications/ArmGNUToolchain/14.2.rel1/arm-none-eabi/arm-none-eabi/include/c++/14.2.1/bits/stl_algobase.h ****    *  optimizations such as unrolling).
 871:/Applications/ArmGNUToolchain/14.2.rel1/arm-none-eabi/arm-none-eabi/include/c++/14.2.1/bits/stl_algobase.h ****    *
 872:/Applications/ArmGNUToolchain/14.2.rel1/arm-none-eabi/arm-none-eabi/include/c++/14.2.1/bits/stl_algobase.h ****    *  Result may not be in the range (first,last].  Use copy instead.  Note
 873:/Applications/ArmGNUToolchain/14.2.rel1/arm-none-eabi/arm-none-eabi/include/c++/14.2.1/bits/stl_algobase.h ****    *  that the start of the output range may overlap [first,last).
 874:/Applications/ArmGNUToolchain/14.2.rel1/arm-none-eabi/arm-none-eabi/include/c++/14.2.1/bits/stl_algobase.h ****   */
 875:/Applications/ArmGNUToolchain/14.2.rel1/arm-none-eabi/arm-none-eabi/include/c++/14.2.1/bits/stl_algobase.h ****   template<typename _BI1, typename _BI2>
 876:/Applications/ArmGNUToolchain/14.2.rel1/arm-none-eabi/arm-none-eabi/include/c++/14.2.1/bits/stl_algobase.h ****     _GLIBCXX20_CONSTEXPR
ARM GAS  /var/folders/y7/g6pkzsp12sx54x3s3mvyn15r0000gn/T//ccWX7ODC.s 			page 45


 877:/Applications/ArmGNUToolchain/14.2.rel1/arm-none-eabi/arm-none-eabi/include/c++/14.2.1/bits/stl_algobase.h ****     inline _BI2
 878:/Applications/ArmGNUToolchain/14.2.rel1/arm-none-eabi/arm-none-eabi/include/c++/14.2.1/bits/stl_algobase.h ****     copy_backward(_BI1 __first, _BI1 __last, _BI2 __result)
 879:/Applications/ArmGNUToolchain/14.2.rel1/arm-none-eabi/arm-none-eabi/include/c++/14.2.1/bits/stl_algobase.h ****     {
 880:/Applications/ArmGNUToolchain/14.2.rel1/arm-none-eabi/arm-none-eabi/include/c++/14.2.1/bits/stl_algobase.h ****       // concept requirements
 881:/Applications/ArmGNUToolchain/14.2.rel1/arm-none-eabi/arm-none-eabi/include/c++/14.2.1/bits/stl_algobase.h ****       __glibcxx_function_requires(_BidirectionalIteratorConcept<_BI1>)
 882:/Applications/ArmGNUToolchain/14.2.rel1/arm-none-eabi/arm-none-eabi/include/c++/14.2.1/bits/stl_algobase.h ****       __glibcxx_function_requires(_Mutable_BidirectionalIteratorConcept<_BI2>)
 883:/Applications/ArmGNUToolchain/14.2.rel1/arm-none-eabi/arm-none-eabi/include/c++/14.2.1/bits/stl_algobase.h ****       __glibcxx_function_requires(_OutputIteratorConcept<_BI2,
 884:/Applications/ArmGNUToolchain/14.2.rel1/arm-none-eabi/arm-none-eabi/include/c++/14.2.1/bits/stl_algobase.h **** 	    typename iterator_traits<_BI1>::reference>)
 885:/Applications/ArmGNUToolchain/14.2.rel1/arm-none-eabi/arm-none-eabi/include/c++/14.2.1/bits/stl_algobase.h ****       __glibcxx_requires_can_decrement_range(__first, __last, __result);
 886:/Applications/ArmGNUToolchain/14.2.rel1/arm-none-eabi/arm-none-eabi/include/c++/14.2.1/bits/stl_algobase.h **** 
 887:/Applications/ArmGNUToolchain/14.2.rel1/arm-none-eabi/arm-none-eabi/include/c++/14.2.1/bits/stl_algobase.h ****       return std::__copy_move_backward_a<__is_move_iterator<_BI1>::__value>
 888:/Applications/ArmGNUToolchain/14.2.rel1/arm-none-eabi/arm-none-eabi/include/c++/14.2.1/bits/stl_algobase.h **** 	     (std::__miter_base(__first), std::__miter_base(__last), __result);
 889:/Applications/ArmGNUToolchain/14.2.rel1/arm-none-eabi/arm-none-eabi/include/c++/14.2.1/bits/stl_algobase.h ****     }
 890:/Applications/ArmGNUToolchain/14.2.rel1/arm-none-eabi/arm-none-eabi/include/c++/14.2.1/bits/stl_algobase.h **** 
 891:/Applications/ArmGNUToolchain/14.2.rel1/arm-none-eabi/arm-none-eabi/include/c++/14.2.1/bits/stl_algobase.h **** #if __cplusplus >= 201103L
 892:/Applications/ArmGNUToolchain/14.2.rel1/arm-none-eabi/arm-none-eabi/include/c++/14.2.1/bits/stl_algobase.h ****   /**
 893:/Applications/ArmGNUToolchain/14.2.rel1/arm-none-eabi/arm-none-eabi/include/c++/14.2.1/bits/stl_algobase.h ****    *  @brief Moves the range [first,last) into result.
 894:/Applications/ArmGNUToolchain/14.2.rel1/arm-none-eabi/arm-none-eabi/include/c++/14.2.1/bits/stl_algobase.h ****    *  @ingroup mutating_algorithms
 895:/Applications/ArmGNUToolchain/14.2.rel1/arm-none-eabi/arm-none-eabi/include/c++/14.2.1/bits/stl_algobase.h ****    *  @param  __first  A bidirectional iterator.
 896:/Applications/ArmGNUToolchain/14.2.rel1/arm-none-eabi/arm-none-eabi/include/c++/14.2.1/bits/stl_algobase.h ****    *  @param  __last   A bidirectional iterator.
 897:/Applications/ArmGNUToolchain/14.2.rel1/arm-none-eabi/arm-none-eabi/include/c++/14.2.1/bits/stl_algobase.h ****    *  @param  __result A bidirectional iterator.
 898:/Applications/ArmGNUToolchain/14.2.rel1/arm-none-eabi/arm-none-eabi/include/c++/14.2.1/bits/stl_algobase.h ****    *  @return   result - (last - first)
 899:/Applications/ArmGNUToolchain/14.2.rel1/arm-none-eabi/arm-none-eabi/include/c++/14.2.1/bits/stl_algobase.h ****    *
 900:/Applications/ArmGNUToolchain/14.2.rel1/arm-none-eabi/arm-none-eabi/include/c++/14.2.1/bits/stl_algobase.h ****    *  The function has the same effect as move, but starts at the end of the
 901:/Applications/ArmGNUToolchain/14.2.rel1/arm-none-eabi/arm-none-eabi/include/c++/14.2.1/bits/stl_algobase.h ****    *  range and works its way to the start, returning the start of the result.
 902:/Applications/ArmGNUToolchain/14.2.rel1/arm-none-eabi/arm-none-eabi/include/c++/14.2.1/bits/stl_algobase.h ****    *  This inline function will boil down to a call to @c memmove whenever
 903:/Applications/ArmGNUToolchain/14.2.rel1/arm-none-eabi/arm-none-eabi/include/c++/14.2.1/bits/stl_algobase.h ****    *  possible.  Failing that, if random access iterators are passed, then the
 904:/Applications/ArmGNUToolchain/14.2.rel1/arm-none-eabi/arm-none-eabi/include/c++/14.2.1/bits/stl_algobase.h ****    *  loop count will be known (and therefore a candidate for compiler
 905:/Applications/ArmGNUToolchain/14.2.rel1/arm-none-eabi/arm-none-eabi/include/c++/14.2.1/bits/stl_algobase.h ****    *  optimizations such as unrolling).
 906:/Applications/ArmGNUToolchain/14.2.rel1/arm-none-eabi/arm-none-eabi/include/c++/14.2.1/bits/stl_algobase.h ****    *
 907:/Applications/ArmGNUToolchain/14.2.rel1/arm-none-eabi/arm-none-eabi/include/c++/14.2.1/bits/stl_algobase.h ****    *  Result may not be in the range (first,last].  Use move instead.  Note
 908:/Applications/ArmGNUToolchain/14.2.rel1/arm-none-eabi/arm-none-eabi/include/c++/14.2.1/bits/stl_algobase.h ****    *  that the start of the output range may overlap [first,last).
 909:/Applications/ArmGNUToolchain/14.2.rel1/arm-none-eabi/arm-none-eabi/include/c++/14.2.1/bits/stl_algobase.h ****   */
 910:/Applications/ArmGNUToolchain/14.2.rel1/arm-none-eabi/arm-none-eabi/include/c++/14.2.1/bits/stl_algobase.h ****   template<typename _BI1, typename _BI2>
 911:/Applications/ArmGNUToolchain/14.2.rel1/arm-none-eabi/arm-none-eabi/include/c++/14.2.1/bits/stl_algobase.h ****     _GLIBCXX20_CONSTEXPR
 912:/Applications/ArmGNUToolchain/14.2.rel1/arm-none-eabi/arm-none-eabi/include/c++/14.2.1/bits/stl_algobase.h ****     inline _BI2
 913:/Applications/ArmGNUToolchain/14.2.rel1/arm-none-eabi/arm-none-eabi/include/c++/14.2.1/bits/stl_algobase.h ****     move_backward(_BI1 __first, _BI1 __last, _BI2 __result)
 914:/Applications/ArmGNUToolchain/14.2.rel1/arm-none-eabi/arm-none-eabi/include/c++/14.2.1/bits/stl_algobase.h ****     {
 915:/Applications/ArmGNUToolchain/14.2.rel1/arm-none-eabi/arm-none-eabi/include/c++/14.2.1/bits/stl_algobase.h ****       // concept requirements
 916:/Applications/ArmGNUToolchain/14.2.rel1/arm-none-eabi/arm-none-eabi/include/c++/14.2.1/bits/stl_algobase.h ****       __glibcxx_function_requires(_BidirectionalIteratorConcept<_BI1>)
 917:/Applications/ArmGNUToolchain/14.2.rel1/arm-none-eabi/arm-none-eabi/include/c++/14.2.1/bits/stl_algobase.h ****       __glibcxx_function_requires(_Mutable_BidirectionalIteratorConcept<_BI2>)
 918:/Applications/ArmGNUToolchain/14.2.rel1/arm-none-eabi/arm-none-eabi/include/c++/14.2.1/bits/stl_algobase.h ****       __glibcxx_function_requires(_OutputIteratorConcept<_BI2,
 919:/Applications/ArmGNUToolchain/14.2.rel1/arm-none-eabi/arm-none-eabi/include/c++/14.2.1/bits/stl_algobase.h **** 	    typename iterator_traits<_BI1>::value_type&&>)
 920:/Applications/ArmGNUToolchain/14.2.rel1/arm-none-eabi/arm-none-eabi/include/c++/14.2.1/bits/stl_algobase.h ****       __glibcxx_requires_can_decrement_range(__first, __last, __result);
 921:/Applications/ArmGNUToolchain/14.2.rel1/arm-none-eabi/arm-none-eabi/include/c++/14.2.1/bits/stl_algobase.h **** 
 922:/Applications/ArmGNUToolchain/14.2.rel1/arm-none-eabi/arm-none-eabi/include/c++/14.2.1/bits/stl_algobase.h ****       return std::__copy_move_backward_a<true>(std::__miter_base(__first),
 923:/Applications/ArmGNUToolchain/14.2.rel1/arm-none-eabi/arm-none-eabi/include/c++/14.2.1/bits/stl_algobase.h **** 					       std::__miter_base(__last),
 924:/Applications/ArmGNUToolchain/14.2.rel1/arm-none-eabi/arm-none-eabi/include/c++/14.2.1/bits/stl_algobase.h **** 					       __result);
 925:/Applications/ArmGNUToolchain/14.2.rel1/arm-none-eabi/arm-none-eabi/include/c++/14.2.1/bits/stl_algobase.h ****     }
 926:/Applications/ArmGNUToolchain/14.2.rel1/arm-none-eabi/arm-none-eabi/include/c++/14.2.1/bits/stl_algobase.h **** 
 927:/Applications/ArmGNUToolchain/14.2.rel1/arm-none-eabi/arm-none-eabi/include/c++/14.2.1/bits/stl_algobase.h **** #define _GLIBCXX_MOVE_BACKWARD3(_Tp, _Up, _Vp) std::move_backward(_Tp, _Up, _Vp)
 928:/Applications/ArmGNUToolchain/14.2.rel1/arm-none-eabi/arm-none-eabi/include/c++/14.2.1/bits/stl_algobase.h **** #else
 929:/Applications/ArmGNUToolchain/14.2.rel1/arm-none-eabi/arm-none-eabi/include/c++/14.2.1/bits/stl_algobase.h **** #define _GLIBCXX_MOVE_BACKWARD3(_Tp, _Up, _Vp) std::copy_backward(_Tp, _Up, _Vp)
 930:/Applications/ArmGNUToolchain/14.2.rel1/arm-none-eabi/arm-none-eabi/include/c++/14.2.1/bits/stl_algobase.h **** #endif
 931:/Applications/ArmGNUToolchain/14.2.rel1/arm-none-eabi/arm-none-eabi/include/c++/14.2.1/bits/stl_algobase.h **** 
 932:/Applications/ArmGNUToolchain/14.2.rel1/arm-none-eabi/arm-none-eabi/include/c++/14.2.1/bits/stl_algobase.h ****   template<typename _ForwardIterator, typename _Tp>
 933:/Applications/ArmGNUToolchain/14.2.rel1/arm-none-eabi/arm-none-eabi/include/c++/14.2.1/bits/stl_algobase.h ****     _GLIBCXX20_CONSTEXPR
ARM GAS  /var/folders/y7/g6pkzsp12sx54x3s3mvyn15r0000gn/T//ccWX7ODC.s 			page 46


 934:/Applications/ArmGNUToolchain/14.2.rel1/arm-none-eabi/arm-none-eabi/include/c++/14.2.1/bits/stl_algobase.h ****     inline typename
 935:/Applications/ArmGNUToolchain/14.2.rel1/arm-none-eabi/arm-none-eabi/include/c++/14.2.1/bits/stl_algobase.h ****     __gnu_cxx::__enable_if<!__is_scalar<_Tp>::__value, void>::__type
 936:/Applications/ArmGNUToolchain/14.2.rel1/arm-none-eabi/arm-none-eabi/include/c++/14.2.1/bits/stl_algobase.h ****     __fill_a1(_ForwardIterator __first, _ForwardIterator __last,
 937:/Applications/ArmGNUToolchain/14.2.rel1/arm-none-eabi/arm-none-eabi/include/c++/14.2.1/bits/stl_algobase.h **** 	      const _Tp& __value)
 938:/Applications/ArmGNUToolchain/14.2.rel1/arm-none-eabi/arm-none-eabi/include/c++/14.2.1/bits/stl_algobase.h ****     {
 939:/Applications/ArmGNUToolchain/14.2.rel1/arm-none-eabi/arm-none-eabi/include/c++/14.2.1/bits/stl_algobase.h ****       for (; __first != __last; ++__first)
 940:/Applications/ArmGNUToolchain/14.2.rel1/arm-none-eabi/arm-none-eabi/include/c++/14.2.1/bits/stl_algobase.h **** 	*__first = __value;
 941:/Applications/ArmGNUToolchain/14.2.rel1/arm-none-eabi/arm-none-eabi/include/c++/14.2.1/bits/stl_algobase.h ****     }
 942:/Applications/ArmGNUToolchain/14.2.rel1/arm-none-eabi/arm-none-eabi/include/c++/14.2.1/bits/stl_algobase.h **** 
 943:/Applications/ArmGNUToolchain/14.2.rel1/arm-none-eabi/arm-none-eabi/include/c++/14.2.1/bits/stl_algobase.h ****   template<typename _ForwardIterator, typename _Tp>
 944:/Applications/ArmGNUToolchain/14.2.rel1/arm-none-eabi/arm-none-eabi/include/c++/14.2.1/bits/stl_algobase.h ****     _GLIBCXX20_CONSTEXPR
 945:/Applications/ArmGNUToolchain/14.2.rel1/arm-none-eabi/arm-none-eabi/include/c++/14.2.1/bits/stl_algobase.h ****     inline typename
 946:/Applications/ArmGNUToolchain/14.2.rel1/arm-none-eabi/arm-none-eabi/include/c++/14.2.1/bits/stl_algobase.h ****     __gnu_cxx::__enable_if<__is_scalar<_Tp>::__value, void>::__type
 947:/Applications/ArmGNUToolchain/14.2.rel1/arm-none-eabi/arm-none-eabi/include/c++/14.2.1/bits/stl_algobase.h ****     __fill_a1(_ForwardIterator __first, _ForwardIterator __last,
 948:/Applications/ArmGNUToolchain/14.2.rel1/arm-none-eabi/arm-none-eabi/include/c++/14.2.1/bits/stl_algobase.h **** 	      const _Tp& __value)
