ARM GAS  /var/folders/y7/g6pkzsp12sx54x3s3mvyn15r0000gn/T//cceyOD7A.s 			page 1


   1              		.cpu cortex-m7
   2              		.arch armv7e-m
   3              		.fpu fpv5-d16
   4              		.eabi_attribute 28, 1
   5              		.eabi_attribute 20, 1
   6              		.eabi_attribute 21, 1
   7              		.eabi_attribute 23, 3
   8              		.eabi_attribute 24, 1
   9              		.eabi_attribute 25, 1
  10              		.eabi_attribute 26, 1
  11              		.eabi_attribute 30, 4
  12              		.eabi_attribute 34, 1
  13              		.eabi_attribute 18, 4
  14              		.file	"string_engine.cc"
  15              		.text
  16              	.Ltext0:
  17              		.cfi_sections	.debug_frame
  18              		.file 1 "../eurorack/plaits/dsp/engine/string_engine.cc"
  19              		.section	.text._ZN6plaits12StringEngine12LoadUserDataEPKh,"axG",%progbits,_ZN6plaits12StringEngine
  20              		.align	1
  21              		.weak	_ZN6plaits12StringEngine12LoadUserDataEPKh
  22              		.syntax unified
  23              		.thumb
  24              		.thumb_func
  26              	_ZN6plaits12StringEngine12LoadUserDataEPKh:
  27              	.LVL0:
  28              	.LFB1352:
  29              		.file 2 "../eurorack/plaits/dsp/engine/string_engine.h"
   1:../eurorack/plaits/dsp/engine/string_engine.h **** // Copyright 2016 Emilie Gillet.
   2:../eurorack/plaits/dsp/engine/string_engine.h **** //
   3:../eurorack/plaits/dsp/engine/string_engine.h **** // Author: Emilie Gillet (emilie.o.gillet@gmail.com)
   4:../eurorack/plaits/dsp/engine/string_engine.h **** //
   5:../eurorack/plaits/dsp/engine/string_engine.h **** // Permission is hereby granted, free of charge, to any person obtaining a copy
   6:../eurorack/plaits/dsp/engine/string_engine.h **** // of this software and associated documentation files (the "Software"), to deal
   7:../eurorack/plaits/dsp/engine/string_engine.h **** // in the Software without restriction, including without limitation the rights
   8:../eurorack/plaits/dsp/engine/string_engine.h **** // to use, copy, modify, merge, publish, distribute, sublicense, and/or sell
   9:../eurorack/plaits/dsp/engine/string_engine.h **** // copies of the Software, and to permit persons to whom the Software is
  10:../eurorack/plaits/dsp/engine/string_engine.h **** // furnished to do so, subject to the following conditions:
  11:../eurorack/plaits/dsp/engine/string_engine.h **** // 
  12:../eurorack/plaits/dsp/engine/string_engine.h **** // The above copyright notice and this permission notice shall be included in
  13:../eurorack/plaits/dsp/engine/string_engine.h **** // all copies or substantial portions of the Software.
  14:../eurorack/plaits/dsp/engine/string_engine.h **** // 
  15:../eurorack/plaits/dsp/engine/string_engine.h **** // THE SOFTWARE IS PROVIDED "AS IS", WITHOUT WARRANTY OF ANY KIND, EXPRESS OR
  16:../eurorack/plaits/dsp/engine/string_engine.h **** // IMPLIED, INCLUDING BUT NOT LIMITED TO THE WARRANTIES OF MERCHANTABILITY,
  17:../eurorack/plaits/dsp/engine/string_engine.h **** // FITNESS FOR A PARTICULAR PURPOSE AND NONINFRINGEMENT. IN NO EVENT SHALL THE
  18:../eurorack/plaits/dsp/engine/string_engine.h **** // AUTHORS OR COPYRIGHT HOLDERS BE LIABLE FOR ANY CLAIM, DAMAGES OR OTHER
  19:../eurorack/plaits/dsp/engine/string_engine.h **** // LIABILITY, WHETHER IN AN ACTION OF CONTRACT, TORT OR OTHERWISE, ARISING FROM,
  20:../eurorack/plaits/dsp/engine/string_engine.h **** // OUT OF OR IN CONNECTION WITH THE SOFTWARE OR THE USE OR OTHER DEALINGS IN
  21:../eurorack/plaits/dsp/engine/string_engine.h **** // THE SOFTWARE.
  22:../eurorack/plaits/dsp/engine/string_engine.h **** // 
  23:../eurorack/plaits/dsp/engine/string_engine.h **** // See http://creativecommons.org/licenses/MIT/ for more information.
  24:../eurorack/plaits/dsp/engine/string_engine.h **** //
  25:../eurorack/plaits/dsp/engine/string_engine.h **** // -----------------------------------------------------------------------------
  26:../eurorack/plaits/dsp/engine/string_engine.h **** //
  27:../eurorack/plaits/dsp/engine/string_engine.h **** // Three voices of string synthesis.
  28:../eurorack/plaits/dsp/engine/string_engine.h **** 
  29:../eurorack/plaits/dsp/engine/string_engine.h **** #ifndef PLAITS_DSP_ENGINE_STRING_ENGINE_H_
ARM GAS  /var/folders/y7/g6pkzsp12sx54x3s3mvyn15r0000gn/T//cceyOD7A.s 			page 2


  30:../eurorack/plaits/dsp/engine/string_engine.h **** #define PLAITS_DSP_ENGINE_STRING_ENGINE_H_
  31:../eurorack/plaits/dsp/engine/string_engine.h **** 
  32:../eurorack/plaits/dsp/engine/string_engine.h **** #include "plaits/dsp/engine/engine.h"
  33:../eurorack/plaits/dsp/engine/string_engine.h **** #include "plaits/dsp/physical_modelling/string_voice.h"
  34:../eurorack/plaits/dsp/engine/string_engine.h **** 
  35:../eurorack/plaits/dsp/engine/string_engine.h **** namespace plaits {
  36:../eurorack/plaits/dsp/engine/string_engine.h **** 
  37:../eurorack/plaits/dsp/engine/string_engine.h **** const int kNumStrings = 3;
  38:../eurorack/plaits/dsp/engine/string_engine.h **** 
  39:../eurorack/plaits/dsp/engine/string_engine.h **** class StringEngine : public Engine {
  40:../eurorack/plaits/dsp/engine/string_engine.h ****  public:
  41:../eurorack/plaits/dsp/engine/string_engine.h ****   StringEngine() { }
  42:../eurorack/plaits/dsp/engine/string_engine.h ****   ~StringEngine() { }
  43:../eurorack/plaits/dsp/engine/string_engine.h ****   
  44:../eurorack/plaits/dsp/engine/string_engine.h ****   virtual void Init(stmlib::BufferAllocator* allocator);
  45:../eurorack/plaits/dsp/engine/string_engine.h ****   virtual void Reset();
  46:../eurorack/plaits/dsp/engine/string_engine.h ****   virtual void LoadUserData(const uint8_t* user_data) { }
  30              		.loc 2 46 16 view -0
  31              		.cfi_startproc
  32              		@ args = 0, pretend = 0, frame = 0
  33              		@ frame_needed = 0, uses_anonymous_args = 0
  34              		@ link register save eliminated.
  35              		.loc 2 46 57 is_stmt 0 view .LVU1
  36 0000 7047     		bx	lr
  37              		.cfi_endproc
  38              	.LFE1352:
  40              		.section	.text._ZN6plaits12StringEngine6RenderERKNS_16EngineParametersEPfS4_jPb,"ax",%progbits
  41              		.align	1
  42              		.global	_ZN6plaits12StringEngine6RenderERKNS_16EngineParametersEPfS4_jPb
  43              		.syntax unified
  44              		.thumb
  45              		.thumb_func
  47              	_ZN6plaits12StringEngine6RenderERKNS_16EngineParametersEPfS4_jPb:
  48              	.LVL1:
  49              	.LFB1355:
   1:../eurorack/plaits/dsp/engine/string_engine.cc **** // Copyright 2016 Emilie Gillet.
   2:../eurorack/plaits/dsp/engine/string_engine.cc **** //
   3:../eurorack/plaits/dsp/engine/string_engine.cc **** // Author: Emilie Gillet (emilie.o.gillet@gmail.com)
   4:../eurorack/plaits/dsp/engine/string_engine.cc **** //
   5:../eurorack/plaits/dsp/engine/string_engine.cc **** // Permission is hereby granted, free of charge, to any person obtaining a copy
   6:../eurorack/plaits/dsp/engine/string_engine.cc **** // of this software and associated documentation files (the "Software"), to deal
   7:../eurorack/plaits/dsp/engine/string_engine.cc **** // in the Software without restriction, including without limitation the rights
   8:../eurorack/plaits/dsp/engine/string_engine.cc **** // to use, copy, modify, merge, publish, distribute, sublicense, and/or sell
   9:../eurorack/plaits/dsp/engine/string_engine.cc **** // copies of the Software, and to permit persons to whom the Software is
  10:../eurorack/plaits/dsp/engine/string_engine.cc **** // furnished to do so, subject to the following conditions:
  11:../eurorack/plaits/dsp/engine/string_engine.cc **** // 
  12:../eurorack/plaits/dsp/engine/string_engine.cc **** // The above copyright notice and this permission notice shall be included in
  13:../eurorack/plaits/dsp/engine/string_engine.cc **** // all copies or substantial portions of the Software.
  14:../eurorack/plaits/dsp/engine/string_engine.cc **** // 
  15:../eurorack/plaits/dsp/engine/string_engine.cc **** // THE SOFTWARE IS PROVIDED "AS IS", WITHOUT WARRANTY OF ANY KIND, EXPRESS OR
  16:../eurorack/plaits/dsp/engine/string_engine.cc **** // IMPLIED, INCLUDING BUT NOT LIMITED TO THE WARRANTIES OF MERCHANTABILITY,
  17:../eurorack/plaits/dsp/engine/string_engine.cc **** // FITNESS FOR A PARTICULAR PURPOSE AND NONINFRINGEMENT. IN NO EVENT SHALL THE
  18:../eurorack/plaits/dsp/engine/string_engine.cc **** // AUTHORS OR COPYRIGHT HOLDERS BE LIABLE FOR ANY CLAIM, DAMAGES OR OTHER
  19:../eurorack/plaits/dsp/engine/string_engine.cc **** // LIABILITY, WHETHER IN AN ACTION OF CONTRACT, TORT OR OTHERWISE, ARISING FROM,
  20:../eurorack/plaits/dsp/engine/string_engine.cc **** // OUT OF OR IN CONNECTION WITH THE SOFTWARE OR THE USE OR OTHER DEALINGS IN
  21:../eurorack/plaits/dsp/engine/string_engine.cc **** // THE SOFTWARE.
  22:../eurorack/plaits/dsp/engine/string_engine.cc **** // 
ARM GAS  /var/folders/y7/g6pkzsp12sx54x3s3mvyn15r0000gn/T//cceyOD7A.s 			page 3


  23:../eurorack/plaits/dsp/engine/string_engine.cc **** // See http://creativecommons.org/licenses/MIT/ for more information.
  24:../eurorack/plaits/dsp/engine/string_engine.cc **** //
  25:../eurorack/plaits/dsp/engine/string_engine.cc **** // -----------------------------------------------------------------------------
  26:../eurorack/plaits/dsp/engine/string_engine.cc **** //
  27:../eurorack/plaits/dsp/engine/string_engine.cc **** // Three voices of string synthesis.
  28:../eurorack/plaits/dsp/engine/string_engine.cc **** 
  29:../eurorack/plaits/dsp/engine/string_engine.cc **** #include "plaits/dsp/engine/string_engine.h"
  30:../eurorack/plaits/dsp/engine/string_engine.cc **** 
  31:../eurorack/plaits/dsp/engine/string_engine.cc **** #include <algorithm>
  32:../eurorack/plaits/dsp/engine/string_engine.cc **** 
  33:../eurorack/plaits/dsp/engine/string_engine.cc **** namespace plaits {
  34:../eurorack/plaits/dsp/engine/string_engine.cc **** 
  35:../eurorack/plaits/dsp/engine/string_engine.cc **** using namespace std;
  36:../eurorack/plaits/dsp/engine/string_engine.cc **** using namespace stmlib;
  37:../eurorack/plaits/dsp/engine/string_engine.cc **** 
  38:../eurorack/plaits/dsp/engine/string_engine.cc **** void StringEngine::Init(BufferAllocator* allocator) {
  39:../eurorack/plaits/dsp/engine/string_engine.cc ****   temp_buffer_ = allocator->Allocate<float>(kMaxBlockSize);
  40:../eurorack/plaits/dsp/engine/string_engine.cc ****   for (int i = 0; i < kNumStrings; ++i) {
  41:../eurorack/plaits/dsp/engine/string_engine.cc ****     voice_[i].Init(allocator);
  42:../eurorack/plaits/dsp/engine/string_engine.cc ****     f0_[i] = 0.01f;
  43:../eurorack/plaits/dsp/engine/string_engine.cc ****   }
  44:../eurorack/plaits/dsp/engine/string_engine.cc ****   active_string_ = kNumStrings - 1;
  45:../eurorack/plaits/dsp/engine/string_engine.cc ****   f0_delay_.Init(allocator->Allocate<float>(16));
  46:../eurorack/plaits/dsp/engine/string_engine.cc **** }
  47:../eurorack/plaits/dsp/engine/string_engine.cc **** 
  48:../eurorack/plaits/dsp/engine/string_engine.cc **** void StringEngine::Reset() {
  49:../eurorack/plaits/dsp/engine/string_engine.cc ****   f0_delay_.Reset();
  50:../eurorack/plaits/dsp/engine/string_engine.cc ****   for (int i = 0; i < kNumStrings; ++i) {
  51:../eurorack/plaits/dsp/engine/string_engine.cc ****     voice_[i].Reset();
  52:../eurorack/plaits/dsp/engine/string_engine.cc ****   }
  53:../eurorack/plaits/dsp/engine/string_engine.cc **** }
  54:../eurorack/plaits/dsp/engine/string_engine.cc **** 
  55:../eurorack/plaits/dsp/engine/string_engine.cc **** void StringEngine::Render(
  56:../eurorack/plaits/dsp/engine/string_engine.cc ****     const EngineParameters& parameters,
  57:../eurorack/plaits/dsp/engine/string_engine.cc ****     float* out,
  58:../eurorack/plaits/dsp/engine/string_engine.cc ****     float* aux,
  59:../eurorack/plaits/dsp/engine/string_engine.cc ****     size_t size,
  60:../eurorack/plaits/dsp/engine/string_engine.cc ****     bool* already_enveloped) {
  50              		.loc 1 60 30 is_stmt 1 view -0
  51              		.cfi_startproc
  52              		@ args = 8, pretend = 0, frame = 0
  53              		@ frame_needed = 0, uses_anonymous_args = 0
  61:../eurorack/plaits/dsp/engine/string_engine.cc ****   if (parameters.trigger & TRIGGER_RISING_EDGE) {
  54              		.loc 1 61 3 view .LVU3
  60:../eurorack/plaits/dsp/engine/string_engine.cc ****   if (parameters.trigger & TRIGGER_RISING_EDGE) {
  55              		.loc 1 60 30 is_stmt 0 view .LVU4
  56 0000 2DE9F04F 		push	{r4, r5, r6, r7, r8, r9, r10, fp, lr}
  57              		.cfi_def_cfa_offset 36
  58              		.cfi_offset 4, -36
  59              		.cfi_offset 5, -32
  60              		.cfi_offset 6, -28
  61              		.cfi_offset 7, -24
  62              		.cfi_offset 8, -20
  63              		.cfi_offset 9, -16
  64              		.cfi_offset 10, -12
  65              		.cfi_offset 11, -8
  66              		.cfi_offset 14, -4
ARM GAS  /var/folders/y7/g6pkzsp12sx54x3s3mvyn15r0000gn/T//cceyOD7A.s 			page 4


  67 0004 0E46     		mov	r6, r1
  68 0006 9946     		mov	r9, r3
  69 0008 0446     		mov	r4, r0
  70 000a 85B0     		sub	sp, sp, #20
  71              		.cfi_def_cfa_offset 56
  72              		.loc 1 61 26 view .LVU5
  73 000c 3368     		ldr	r3, [r6]
  74              	.LVL2:
  60:../eurorack/plaits/dsp/engine/string_engine.cc ****   if (parameters.trigger & TRIGGER_RISING_EDGE) {
  75              		.loc 1 60 30 view .LVU6
  76 000e 9046     		mov	r8, r2
  77              	.LBB39:
  78              	.LBB40:
  79              		.file 3 "../eurorack/plaits/dsp/physical_modelling/delay_line.h"
   1:../eurorack/plaits/dsp/physical_modelling/delay_line.h **** // Copyright 2014 Emilie Gillet.
   2:../eurorack/plaits/dsp/physical_modelling/delay_line.h **** //
   3:../eurorack/plaits/dsp/physical_modelling/delay_line.h **** // Author: Emilie Gillet (emilie.o.gillet@gmail.com)
   4:../eurorack/plaits/dsp/physical_modelling/delay_line.h **** //
   5:../eurorack/plaits/dsp/physical_modelling/delay_line.h **** // Permission is hereby granted, free of charge, to any person obtaining a copy
   6:../eurorack/plaits/dsp/physical_modelling/delay_line.h **** // of this software and associated documentation files (the "Software"), to deal
   7:../eurorack/plaits/dsp/physical_modelling/delay_line.h **** // in the Software without restriction, including without limitation the rights
   8:../eurorack/plaits/dsp/physical_modelling/delay_line.h **** // to use, copy, modify, merge, publish, distribute, sublicense, and/or sell
   9:../eurorack/plaits/dsp/physical_modelling/delay_line.h **** // copies of the Software, and to permit persons to whom the Software is
  10:../eurorack/plaits/dsp/physical_modelling/delay_line.h **** // furnished to do so, subject to the following conditions:
  11:../eurorack/plaits/dsp/physical_modelling/delay_line.h **** // 
  12:../eurorack/plaits/dsp/physical_modelling/delay_line.h **** // The above copyright notice and this permission notice shall be included in
  13:../eurorack/plaits/dsp/physical_modelling/delay_line.h **** // all copies or substantial portions of the Software.
  14:../eurorack/plaits/dsp/physical_modelling/delay_line.h **** // 
  15:../eurorack/plaits/dsp/physical_modelling/delay_line.h **** // THE SOFTWARE IS PROVIDED "AS IS", WITHOUT WARRANTY OF ANY KIND, EXPRESS OR
  16:../eurorack/plaits/dsp/physical_modelling/delay_line.h **** // IMPLIED, INCLUDING BUT NOT LIMITED TO THE WARRANTIES OF MERCHANTABILITY,
  17:../eurorack/plaits/dsp/physical_modelling/delay_line.h **** // FITNESS FOR A PARTICULAR PURPOSE AND NONINFRINGEMENT. IN NO EVENT SHALL THE
  18:../eurorack/plaits/dsp/physical_modelling/delay_line.h **** // AUTHORS OR COPYRIGHT HOLDERS BE LIABLE FOR ANY CLAIM, DAMAGES OR OTHER
  19:../eurorack/plaits/dsp/physical_modelling/delay_line.h **** // LIABILITY, WHETHER IN AN ACTION OF CONTRACT, TORT OR OTHERWISE, ARISING FROM,
  20:../eurorack/plaits/dsp/physical_modelling/delay_line.h **** // OUT OF OR IN CONNECTION WITH THE SOFTWARE OR THE USE OR OTHER DEALINGS IN
  21:../eurorack/plaits/dsp/physical_modelling/delay_line.h **** // THE SOFTWARE.
  22:../eurorack/plaits/dsp/physical_modelling/delay_line.h **** // 
  23:../eurorack/plaits/dsp/physical_modelling/delay_line.h **** // See http://creativecommons.org/licenses/MIT/ for more information.
  24:../eurorack/plaits/dsp/physical_modelling/delay_line.h **** //
  25:../eurorack/plaits/dsp/physical_modelling/delay_line.h **** // -----------------------------------------------------------------------------
  26:../eurorack/plaits/dsp/physical_modelling/delay_line.h **** //
  27:../eurorack/plaits/dsp/physical_modelling/delay_line.h **** // Delay line (same implementation as from stmlib, but does not own its buffer).
  28:../eurorack/plaits/dsp/physical_modelling/delay_line.h **** 
  29:../eurorack/plaits/dsp/physical_modelling/delay_line.h **** #ifndef PLAITS_DSP_PHYSICAL_MODELLING_DELAY_LINE_H_
  30:../eurorack/plaits/dsp/physical_modelling/delay_line.h **** #define PLAITS_DSP_PHYSICAL_MODELLING_DELAY_LINE_H_
  31:../eurorack/plaits/dsp/physical_modelling/delay_line.h **** 
  32:../eurorack/plaits/dsp/physical_modelling/delay_line.h **** #include <algorithm>
  33:../eurorack/plaits/dsp/physical_modelling/delay_line.h **** 
  34:../eurorack/plaits/dsp/physical_modelling/delay_line.h **** #include "stmlib/dsp/dsp.h"
  35:../eurorack/plaits/dsp/physical_modelling/delay_line.h **** 
  36:../eurorack/plaits/dsp/physical_modelling/delay_line.h **** namespace plaits {
  37:../eurorack/plaits/dsp/physical_modelling/delay_line.h **** 
  38:../eurorack/plaits/dsp/physical_modelling/delay_line.h **** template<typename T, size_t max_delay>
  39:../eurorack/plaits/dsp/physical_modelling/delay_line.h **** class DelayLine {
  40:../eurorack/plaits/dsp/physical_modelling/delay_line.h ****  public:
  41:../eurorack/plaits/dsp/physical_modelling/delay_line.h ****   DelayLine() { }
  42:../eurorack/plaits/dsp/physical_modelling/delay_line.h ****   ~DelayLine() { }
  43:../eurorack/plaits/dsp/physical_modelling/delay_line.h ****   
ARM GAS  /var/folders/y7/g6pkzsp12sx54x3s3mvyn15r0000gn/T//cceyOD7A.s 			page 5


  44:../eurorack/plaits/dsp/physical_modelling/delay_line.h ****   void Init(float* buffer) {
  45:../eurorack/plaits/dsp/physical_modelling/delay_line.h ****     line_ = buffer;
  46:../eurorack/plaits/dsp/physical_modelling/delay_line.h ****     Reset();
  47:../eurorack/plaits/dsp/physical_modelling/delay_line.h ****   }
  48:../eurorack/plaits/dsp/physical_modelling/delay_line.h ****   
  49:../eurorack/plaits/dsp/physical_modelling/delay_line.h ****   void Reset() {
  50:../eurorack/plaits/dsp/physical_modelling/delay_line.h ****     std::fill(&line_[0], &line_[max_delay], T(0));
  51:../eurorack/plaits/dsp/physical_modelling/delay_line.h ****     write_ptr_ = 0;
  52:../eurorack/plaits/dsp/physical_modelling/delay_line.h ****   }
  53:../eurorack/plaits/dsp/physical_modelling/delay_line.h ****   
  54:../eurorack/plaits/dsp/physical_modelling/delay_line.h ****   inline void Write(const T sample) {
  55:../eurorack/plaits/dsp/physical_modelling/delay_line.h ****     line_[write_ptr_] = sample;
  56:../eurorack/plaits/dsp/physical_modelling/delay_line.h ****     write_ptr_ = (write_ptr_ - 1 + max_delay) % max_delay;
  57:../eurorack/plaits/dsp/physical_modelling/delay_line.h ****   }
  58:../eurorack/plaits/dsp/physical_modelling/delay_line.h ****   
  59:../eurorack/plaits/dsp/physical_modelling/delay_line.h ****   inline const T Allpass(const T sample, size_t delay, const T coefficient) {
  60:../eurorack/plaits/dsp/physical_modelling/delay_line.h ****     T read = line_[(write_ptr_ + delay) % max_delay];
  61:../eurorack/plaits/dsp/physical_modelling/delay_line.h ****     T write = sample + coefficient * read;
  62:../eurorack/plaits/dsp/physical_modelling/delay_line.h ****     Write(write);
  63:../eurorack/plaits/dsp/physical_modelling/delay_line.h ****     return -write * coefficient + read;
  64:../eurorack/plaits/dsp/physical_modelling/delay_line.h ****   }
  65:../eurorack/plaits/dsp/physical_modelling/delay_line.h **** 
  66:../eurorack/plaits/dsp/physical_modelling/delay_line.h ****   inline const T WriteRead(const T sample, float delay) {
  67:../eurorack/plaits/dsp/physical_modelling/delay_line.h ****     Write(sample);
  68:../eurorack/plaits/dsp/physical_modelling/delay_line.h ****     return Read(delay);
  69:../eurorack/plaits/dsp/physical_modelling/delay_line.h ****   }
  70:../eurorack/plaits/dsp/physical_modelling/delay_line.h ****   
  71:../eurorack/plaits/dsp/physical_modelling/delay_line.h ****   inline const T Read(float delay) const {
  72:../eurorack/plaits/dsp/physical_modelling/delay_line.h ****     MAKE_INTEGRAL_FRACTIONAL(delay)
  73:../eurorack/plaits/dsp/physical_modelling/delay_line.h ****     const T a = line_[(write_ptr_ + delay_integral) % max_delay];
  80              		.loc 3 73 24 view .LVU7
  81 0010 D0E94F51 		ldrd	r5, r1, [r0, #316]
  82              	.LVL3:
  83              		.loc 3 73 24 view .LVU8
  84              	.LBE40:
  85              	.LBE39:
  86              		.loc 1 61 3 view .LVU9
  87 0014 DF07     		lsls	r7, r3, #31
  88              	.LBB45:
  89              	.LBB41:
  74:../eurorack/plaits/dsp/physical_modelling/delay_line.h ****     const T b = line_[(write_ptr_ + delay_integral + 1) % max_delay];
  90              		.loc 3 74 52 view .LVU10
  91 0016 05F10F00 		add	r0, r5, #15
  92              	.LVL4:
  93              		.loc 3 74 57 view .LVU11
  94 001a 00F00F00 		and	r0, r0, #15
  95              	.LBE41:
  96              	.LBE45:
  97              		.loc 1 61 3 view .LVU12
  98 001e 20D5     		bpl	.L3
  99              	.LBB46:
 100              	.LBB42:
  73:../eurorack/plaits/dsp/physical_modelling/delay_line.h ****     const T b = line_[(write_ptr_ + delay_integral + 1) % max_delay];
 101              		.loc 3 73 35 view .LVU13
 102 0020 05F10E02 		add	r2, r5, #14
 103              	.LVL5:
  75:../eurorack/plaits/dsp/physical_modelling/delay_line.h ****     return a + (b - a) * T(delay_fractional);
ARM GAS  /var/folders/y7/g6pkzsp12sx54x3s3mvyn15r0000gn/T//cceyOD7A.s 			page 6


 104              		.loc 3 75 44 view .LVU14
 105 0024 DFED536A 		vldr.32	s13, .L19
 106              	.LBE42:
 107              	.LBE46:
  62:../eurorack/plaits/dsp/engine/string_engine.cc ****     // 8 in original firmware version.
  63:../eurorack/plaits/dsp/engine/string_engine.cc ****     // 05.01.18: mic.w: problem with microbrute.
  64:../eurorack/plaits/dsp/engine/string_engine.cc ****     f0_[active_string_] = f0_delay_.Read(14);
 108              		.loc 1 64 9 view .LVU15
 109 0028 D4F84431 		ldr	r3, [r4, #324]
 110              		.loc 1 64 5 is_stmt 1 view .LVU16
 111              	.LVL6:
 112              	.LBB47:
 113              	.LBI39:
  71:../eurorack/plaits/dsp/physical_modelling/delay_line.h ****     MAKE_INTEGRAL_FRACTIONAL(delay)
 114              		.loc 3 71 18 view .LVU17
 115              	.LBB43:
  73:../eurorack/plaits/dsp/physical_modelling/delay_line.h ****     const T b = line_[(write_ptr_ + delay_integral + 1) % max_delay];
 116              		.loc 3 73 53 is_stmt 0 view .LVU18
 117 002c 02F00F02 		and	r2, r2, #15
  73:../eurorack/plaits/dsp/physical_modelling/delay_line.h ****     const T b = line_[(write_ptr_ + delay_integral + 1) % max_delay];
 118              		.loc 3 73 13 view .LVU19
 119 0030 01EB8202 		add	r2, r1, r2, lsl #2
 120 0034 D2ED007A 		vldr.32	s15, [r2]
 121              	.LVL7:
  74:../eurorack/plaits/dsp/physical_modelling/delay_line.h ****     return a + (b - a) * T(delay_fractional);
 122              		.loc 3 74 13 view .LVU20
 123 0038 01EB8002 		add	r2, r1, r0, lsl #2
 124              	.LVL8:
 125              		.loc 3 75 19 view .LVU21
 126 003c 92ED007A 		vldr.32	s14, [r2]
 127              	.LBE43:
 128              	.LBE47:
 129              		.loc 1 64 25 discriminator 1 view .LVU22
 130 0040 04EB8302 		add	r2, r4, r3, lsl #2
 131              	.LVL9:
  65:../eurorack/plaits/dsp/engine/string_engine.cc ****     active_string_ = (active_string_ + 1) % kNumStrings;
 132              		.loc 1 65 38 view .LVU23
 133 0044 0133     		adds	r3, r3, #1
 134              	.LBB48:
 135              	.LBB44:
 136              		.loc 3 75 19 view .LVU24
 137 0046 37EE677A 		vsub.f32	s14, s14, s15
 138              	.LVL10:
 139              		.loc 3 75 44 view .LVU25
 140 004a E7EE267A 		vfma.f32	s15, s14, s13
 141              	.LVL11:
 142              		.loc 3 75 44 view .LVU26
 143              	.LBE44:
 144              	.LBE48:
  64:../eurorack/plaits/dsp/engine/string_engine.cc ****     active_string_ = (active_string_ + 1) % kNumStrings;
 145              		.loc 1 64 25 discriminator 1 view .LVU27
 146 004e C2ED4C7A 		vstr.32	s15, [r2, #304]
 147              		.loc 1 65 5 is_stmt 1 view .LVU28
 148              		.loc 1 65 43 is_stmt 0 view .LVU29
 149 0052 0322     		movs	r2, #3
 150 0054 93FBF2F2 		sdiv	r2, r3, r2
 151 0058 02EB4202 		add	r2, r2, r2, lsl #1
ARM GAS  /var/folders/y7/g6pkzsp12sx54x3s3mvyn15r0000gn/T//cceyOD7A.s 			page 7


 152 005c 9B1A     		subs	r3, r3, r2
 153              		.loc 1 65 20 view .LVU30
 154 005e C4F84431 		str	r3, [r4, #324]
 155              	.L3:
  66:../eurorack/plaits/dsp/engine/string_engine.cc ****   }
  67:../eurorack/plaits/dsp/engine/string_engine.cc ****   
  68:../eurorack/plaits/dsp/engine/string_engine.cc ****   const float f0 = NoteToFrequency(parameters.note);
 156              		.loc 1 68 3 is_stmt 1 view .LVU31
 157              	.LVL12:
 158              	.LBB49:
 159              	.LBI49:
 160              		.file 4 "../eurorack/plaits/dsp/engine/engine.h"
   1:../eurorack/plaits/dsp/engine/engine.h **** // Copyright 2016 Emilie Gillet.
   2:../eurorack/plaits/dsp/engine/engine.h **** //
   3:../eurorack/plaits/dsp/engine/engine.h **** // Author: Emilie Gillet (emilie.o.gillet@gmail.com)
   4:../eurorack/plaits/dsp/engine/engine.h **** //
   5:../eurorack/plaits/dsp/engine/engine.h **** // Permission is hereby granted, free of charge, to any person obtaining a copy
   6:../eurorack/plaits/dsp/engine/engine.h **** // of this software and associated documentation files (the "Software"), to deal
   7:../eurorack/plaits/dsp/engine/engine.h **** // in the Software without restriction, including without limitation the rights
   8:../eurorack/plaits/dsp/engine/engine.h **** // to use, copy, modify, merge, publish, distribute, sublicense, and/or sell
   9:../eurorack/plaits/dsp/engine/engine.h **** // copies of the Software, and to permit persons to whom the Software is
  10:../eurorack/plaits/dsp/engine/engine.h **** // furnished to do so, subject to the following conditions:
  11:../eurorack/plaits/dsp/engine/engine.h **** // 
  12:../eurorack/plaits/dsp/engine/engine.h **** // The above copyright notice and this permission notice shall be included in
  13:../eurorack/plaits/dsp/engine/engine.h **** // all copies or substantial portions of the Software.
  14:../eurorack/plaits/dsp/engine/engine.h **** // 
  15:../eurorack/plaits/dsp/engine/engine.h **** // THE SOFTWARE IS PROVIDED "AS IS", WITHOUT WARRANTY OF ANY KIND, EXPRESS OR
  16:../eurorack/plaits/dsp/engine/engine.h **** // IMPLIED, INCLUDING BUT NOT LIMITED TO THE WARRANTIES OF MERCHANTABILITY,
  17:../eurorack/plaits/dsp/engine/engine.h **** // FITNESS FOR A PARTICULAR PURPOSE AND NONINFRINGEMENT. IN NO EVENT SHALL THE
  18:../eurorack/plaits/dsp/engine/engine.h **** // AUTHORS OR COPYRIGHT HOLDERS BE LIABLE FOR ANY CLAIM, DAMAGES OR OTHER
  19:../eurorack/plaits/dsp/engine/engine.h **** // LIABILITY, WHETHER IN AN ACTION OF CONTRACT, TORT OR OTHERWISE, ARISING FROM,
  20:../eurorack/plaits/dsp/engine/engine.h **** // OUT OF OR IN CONNECTION WITH THE SOFTWARE OR THE USE OR OTHER DEALINGS IN
  21:../eurorack/plaits/dsp/engine/engine.h **** // THE SOFTWARE.
  22:../eurorack/plaits/dsp/engine/engine.h **** // 
  23:../eurorack/plaits/dsp/engine/engine.h **** // See http://creativecommons.org/licenses/MIT/ for more information.
  24:../eurorack/plaits/dsp/engine/engine.h **** //
  25:../eurorack/plaits/dsp/engine/engine.h **** // -----------------------------------------------------------------------------
  26:../eurorack/plaits/dsp/engine/engine.h **** //
  27:../eurorack/plaits/dsp/engine/engine.h **** // Base class for all engines.
  28:../eurorack/plaits/dsp/engine/engine.h **** 
  29:../eurorack/plaits/dsp/engine/engine.h **** #ifndef PLAITS_DSP_ENGINE_ENGINE_H_
  30:../eurorack/plaits/dsp/engine/engine.h **** #define PLAITS_DSP_ENGINE_ENGINE_H_
  31:../eurorack/plaits/dsp/engine/engine.h **** 
  32:../eurorack/plaits/dsp/engine/engine.h **** #include "plaits/dsp/dsp.h"
  33:../eurorack/plaits/dsp/engine/engine.h **** 
  34:../eurorack/plaits/dsp/engine/engine.h **** #include "stmlib/dsp/units.h"
  35:../eurorack/plaits/dsp/engine/engine.h **** #include "stmlib/utils/buffer_allocator.h"
  36:../eurorack/plaits/dsp/engine/engine.h **** 
  37:../eurorack/plaits/dsp/engine/engine.h **** namespace plaits {
  38:../eurorack/plaits/dsp/engine/engine.h **** 
  39:../eurorack/plaits/dsp/engine/engine.h **** inline float NoteToFrequency(float midi_note) {
 161              		.loc 4 39 14 view .LVU32
 162              	.LBB50:
  40:../eurorack/plaits/dsp/engine/engine.h ****   midi_note -= 9.0f;
 163              		.loc 4 40 3 view .LVU33
 164              		.loc 4 40 13 is_stmt 0 view .LVU34
 165 0062 F2EE027A 		vmov.f32	s15, #9.0e+0
ARM GAS  /var/folders/y7/g6pkzsp12sx54x3s3mvyn15r0000gn/T//cceyOD7A.s 			page 8


 166 0066 96ED017A 		vldr.32	s14, [r6, #4]
 167 006a 37EE677A 		vsub.f32	s14, s14, s15
 168              	.LVL13:
  41:../eurorack/plaits/dsp/engine/engine.h ****   CONSTRAIN(midi_note, -128.0f, 127.0f);
 169              		.loc 4 41 3 is_stmt 1 view .LVU35
 170 006e DFED427A 		vldr.32	s15, .L19+4
 171 0072 B4EEE77A 		vcmpe.f32	s14, s15
 172 0076 F1EE10FA 		vmrs	APSR_nzcv, FPSCR
 173 007a 07D4     		bmi	.L4
 174              		.loc 4 41 3 discriminator 2 view .LVU36
 175 007c DFED3F7A 		vldr.32	s15, .L19+8
 176 0080 B4EEE77A 		vcmpe.f32	s14, s15
 177 0084 F1EE10FA 		vmrs	APSR_nzcv, FPSCR
 178 0088 77FE877A 		vselgt.f32	s15, s15, s14
 179              	.L4:
 180              	.LVL14:
 181              		.loc 4 41 40 discriminator 6 view .LVU37
  42:../eurorack/plaits/dsp/engine/engine.h ****   return a0 * 0.25f * stmlib::SemitonesToRatio(midi_note);
 182              		.loc 4 42 3 view .LVU38
 183              	.LBB51:
 184              	.LBI51:
 185              		.file 5 "../eurorack/stmlib/dsp/units.h"
   1:../eurorack/stmlib/dsp/units.h **** // Copyright 2014 Emilie Gillet.
   2:../eurorack/stmlib/dsp/units.h **** //
   3:../eurorack/stmlib/dsp/units.h **** // Author: Emilie Gillet (emilie.o.gillet@gmail.com)
   4:../eurorack/stmlib/dsp/units.h **** //
   5:../eurorack/stmlib/dsp/units.h **** // Permission is hereby granted, free of charge, to any person obtaining a copy
   6:../eurorack/stmlib/dsp/units.h **** // of this software and associated documentation files (the "Software"), to deal
   7:../eurorack/stmlib/dsp/units.h **** // in the Software without restriction, including without limitation the rights
   8:../eurorack/stmlib/dsp/units.h **** // to use, copy, modify, merge, publish, distribute, sublicense, and/or sell
   9:../eurorack/stmlib/dsp/units.h **** // copies of the Software, and to permit persons to whom the Software is
  10:../eurorack/stmlib/dsp/units.h **** // furnished to do so, subject to the following conditions:
  11:../eurorack/stmlib/dsp/units.h **** // 
  12:../eurorack/stmlib/dsp/units.h **** // The above copyright notice and this permission notice shall be included in
  13:../eurorack/stmlib/dsp/units.h **** // all copies or substantial portions of the Software.
  14:../eurorack/stmlib/dsp/units.h **** // 
  15:../eurorack/stmlib/dsp/units.h **** // THE SOFTWARE IS PROVIDED "AS IS", WITHOUT WARRANTY OF ANY KIND, EXPRESS OR
  16:../eurorack/stmlib/dsp/units.h **** // IMPLIED, INCLUDING BUT NOT LIMITED TO THE WARRANTIES OF MERCHANTABILITY,
  17:../eurorack/stmlib/dsp/units.h **** // FITNESS FOR A PARTICULAR PURPOSE AND NONINFRINGEMENT. IN NO EVENT SHALL THE
  18:../eurorack/stmlib/dsp/units.h **** // AUTHORS OR COPYRIGHT HOLDERS BE LIABLE FOR ANY CLAIM, DAMAGES OR OTHER
  19:../eurorack/stmlib/dsp/units.h **** // LIABILITY, WHETHER IN AN ACTION OF CONTRACT, TORT OR OTHERWISE, ARISING FROM,
  20:../eurorack/stmlib/dsp/units.h **** // OUT OF OR IN CONNECTION WITH THE SOFTWARE OR THE USE OR OTHER DEALINGS IN
  21:../eurorack/stmlib/dsp/units.h **** // THE SOFTWARE.
  22:../eurorack/stmlib/dsp/units.h **** // 
  23:../eurorack/stmlib/dsp/units.h **** // See http://creativecommons.org/licenses/MIT/ for more information.
  24:../eurorack/stmlib/dsp/units.h **** //
  25:../eurorack/stmlib/dsp/units.h **** // -----------------------------------------------------------------------------
  26:../eurorack/stmlib/dsp/units.h **** //
  27:../eurorack/stmlib/dsp/units.h **** // Conversion from semitones to frequency ratio.
  28:../eurorack/stmlib/dsp/units.h **** 
  29:../eurorack/stmlib/dsp/units.h **** #ifndef STMLIB_DSP_UNITS_H_
  30:../eurorack/stmlib/dsp/units.h **** #define STMLIB_DSP_UNITS_H_
  31:../eurorack/stmlib/dsp/units.h **** 
  32:../eurorack/stmlib/dsp/units.h **** #include "stmlib/stmlib.h"
  33:../eurorack/stmlib/dsp/units.h **** #include "stmlib/dsp/dsp.h"
  34:../eurorack/stmlib/dsp/units.h **** 
  35:../eurorack/stmlib/dsp/units.h **** namespace stmlib {
ARM GAS  /var/folders/y7/g6pkzsp12sx54x3s3mvyn15r0000gn/T//cceyOD7A.s 			page 9


  36:../eurorack/stmlib/dsp/units.h **** 
  37:../eurorack/stmlib/dsp/units.h **** extern const float lut_pitch_ratio_high[257];
  38:../eurorack/stmlib/dsp/units.h **** extern const float lut_pitch_ratio_low[257];
  39:../eurorack/stmlib/dsp/units.h **** 
  40:../eurorack/stmlib/dsp/units.h **** inline float SemitonesToRatio(float semitones) {
 186              		.loc 5 40 14 view .LVU39
 187              	.LBB52:
  41:../eurorack/stmlib/dsp/units.h ****   float pitch = semitones + 128.0f;
 188              		.loc 5 41 3 view .LVU40
 189              		.loc 5 41 9 is_stmt 0 view .LVU41
 190 008c 9FED3C7A 		vldr.32	s14, .L19+12
 191              	.LBE52:
 192              	.LBE51:
 193              	.LBE50:
 194              	.LBE49:
 195              	.LBB60:
 196              	.LBB61:
  55:../eurorack/plaits/dsp/physical_modelling/delay_line.h ****     write_ptr_ = (write_ptr_ - 1 + max_delay) % max_delay;
 197              		.loc 3 55 23 view .LVU42
 198 0090 01EB8501 		add	r1, r1, r5, lsl #2
 199              	.LBE61:
 200              	.LBE60:
 201              	.LBB64:
 202              	.LBB57:
 203              	.LBB55:
 204              	.LBB53:
  42:../eurorack/stmlib/dsp/units.h ****   MAKE_INTEGRAL_FRACTIONAL(pitch)
  43:../eurorack/stmlib/dsp/units.h **** 
  44:../eurorack/stmlib/dsp/units.h ****   return lut_pitch_ratio_high[pitch_integral] * \
  45:../eurorack/stmlib/dsp/units.h ****       lut_pitch_ratio_low[static_cast<int32_t>(pitch_fractional * 256.0f)];
 205              		.loc 5 45 74 view .LVU43
 206 0094 3B4A     		ldr	r2, .L19+16
  41:../eurorack/stmlib/dsp/units.h ****   MAKE_INTEGRAL_FRACTIONAL(pitch)
 207              		.loc 5 41 9 view .LVU44
 208 0096 77EE877A 		vadd.f32	s15, s15, s14
 209              	.LVL15:
  42:../eurorack/stmlib/dsp/units.h ****   MAKE_INTEGRAL_FRACTIONAL(pitch)
 210              		.loc 5 42 3 is_stmt 1 view .LVU45
 211 009a BDEEE77A 		vcvt.s32.f32	s14, s15
 212              	.LVL16:
  42:../eurorack/stmlib/dsp/units.h ****   MAKE_INTEGRAL_FRACTIONAL(pitch)
 213              		.loc 5 42 3 view .LVU46
  44:../eurorack/stmlib/dsp/units.h ****       lut_pitch_ratio_low[static_cast<int32_t>(pitch_fractional * 256.0f)];
 214              		.loc 5 44 3 view .LVU47
  42:../eurorack/stmlib/dsp/units.h ****   MAKE_INTEGRAL_FRACTIONAL(pitch)
 215              		.loc 5 42 3 is_stmt 0 view .LVU48
 216 009e F8EEC76A 		vcvt.f32.s32	s13, s14
  44:../eurorack/stmlib/dsp/units.h ****       lut_pitch_ratio_low[static_cast<int32_t>(pitch_fractional * 256.0f)];
 217              		.loc 5 44 45 view .LVU49
 218 00a2 17EE107A 		vmov	r7, s14	@ int
  42:../eurorack/stmlib/dsp/units.h ****   MAKE_INTEGRAL_FRACTIONAL(pitch)
 219              		.loc 5 42 3 view .LVU50
 220 00a6 77EEE67A 		vsub.f32	s15, s15, s13
 221              		.loc 5 45 27 view .LVU51
 222 00aa FEEECC7A 		vcvt.s32.f32	s15, s15, #8
 223              		.loc 5 45 74 view .LVU52
 224 00ae 17EE903A 		vmov	r3, s15	@ int
ARM GAS  /var/folders/y7/g6pkzsp12sx54x3s3mvyn15r0000gn/T//cceyOD7A.s 			page 10


 225 00b2 02EB8302 		add	r2, r2, r3, lsl #2
  44:../eurorack/stmlib/dsp/units.h ****       lut_pitch_ratio_low[static_cast<int32_t>(pitch_fractional * 256.0f)];
 226              		.loc 5 44 45 view .LVU53
 227 00b6 344B     		ldr	r3, .L19+20
 228 00b8 03EB8703 		add	r3, r3, r7, lsl #2
 229              		.loc 5 45 74 view .LVU54
 230 00bc D2ED007A 		vldr.32	s15, [r2]
 231 00c0 93ED007A 		vldr.32	s14, [r3]
 232              	.LBE53:
 233              	.LBE55:
 234              	.LBE57:
 235              	.LBE64:
  69:../eurorack/plaits/dsp/engine/string_engine.cc ****   f0_[active_string_] = f0;
 236              		.loc 1 69 23 view .LVU55
 237 00c4 D4F84431 		ldr	r3, [r4, #324]
 238              	.LBB65:
 239              	.LBB58:
 240              	.LBB56:
 241              	.LBB54:
 242              		.loc 5 45 74 view .LVU56
 243 00c8 67EE877A 		vmul.f32	s15, s15, s14
 244              	.LBE54:
 245              	.LBE56:
 246              		.loc 4 42 57 discriminator 1 view .LVU57
 247 00cc 9FED2F7A 		vldr.32	s14, .L19+24
 248              	.LBE58:
 249              	.LBE65:
 250              		.loc 1 69 23 view .LVU58
 251 00d0 04EB8303 		add	r3, r4, r3, lsl #2
 252              	.LBB66:
 253              	.LBB59:
 254              		.loc 4 42 57 discriminator 1 view .LVU59
 255 00d4 67EE877A 		vmul.f32	s15, s15, s14
 256              	.LVL17:
 257              		.loc 4 42 57 discriminator 1 view .LVU60
 258              	.LBE59:
 259              	.LBE66:
 260              		.loc 1 69 3 is_stmt 1 view .LVU61
 261              		.loc 1 69 23 is_stmt 0 view .LVU62
 262 00d8 C3ED4C7A 		vstr.32	s15, [r3, #304]
  70:../eurorack/plaits/dsp/engine/string_engine.cc ****   f0_delay_.Write(f0);
 263              		.loc 1 70 3 is_stmt 1 view .LVU63
 264              	.LVL18:
 265              	.LBB67:
 266              	.LBI60:
  54:../eurorack/plaits/dsp/physical_modelling/delay_line.h ****     line_[write_ptr_] = sample;
 267              		.loc 3 54 15 view .LVU64
 268              	.LBE67:
  71:../eurorack/plaits/dsp/engine/string_engine.cc ****   
  72:../eurorack/plaits/dsp/engine/string_engine.cc ****   fill(&out[0], &out[size], 0.0f);
 269              		.loc 1 72 26 is_stmt 0 view .LVU65
 270 00dc 0E9B     		ldr	r3, [sp, #56]
 271              	.LBB68:
 272              	.LBB62:
  55:../eurorack/plaits/dsp/physical_modelling/delay_line.h ****     write_ptr_ = (write_ptr_ - 1 + max_delay) % max_delay;
 273              		.loc 3 55 23 view .LVU66
 274 00de C1ED007A 		vstr.32	s15, [r1]
ARM GAS  /var/folders/y7/g6pkzsp12sx54x3s3mvyn15r0000gn/T//cceyOD7A.s 			page 11


 275              	.LBE62:
 276              	.LBE68:
 277              		.loc 1 72 26 view .LVU67
 278 00e2 9A00     		lsls	r2, r3, #2
 279              	.LBB69:
 280              	.LBB63:
  56:../eurorack/plaits/dsp/physical_modelling/delay_line.h ****   }
 281              		.loc 3 56 16 view .LVU68
 282 00e4 C4F83C01 		str	r0, [r4, #316]
 283              	.LVL19:
  56:../eurorack/plaits/dsp/physical_modelling/delay_line.h ****   }
 284              		.loc 3 56 16 view .LVU69
 285              	.LBE63:
 286              	.LBE69:
 287              		.loc 1 72 3 is_stmt 1 view .LVU70
 288              		.loc 1 72 7 is_stmt 0 view .LVU71
 289 00e8 08EB8301 		add	r1, r8, r3, lsl #2
 290              	.LVL20:
 291              	.LBB70:
 292              	.LBI70:
 293              		.file 6 "/Applications/ArmGNUToolchain/14.2.rel1/arm-none-eabi/arm-none-eabi/include/c++/14.2.1/bi
   1:/Applications/ArmGNUToolchain/14.2.rel1/arm-none-eabi/arm-none-eabi/include/c++/14.2.1/bits/stl_algobase.h **** // Core algorithmic facilities -*- C++ -*-
   2:/Applications/ArmGNUToolchain/14.2.rel1/arm-none-eabi/arm-none-eabi/include/c++/14.2.1/bits/stl_algobase.h **** 
   3:/Applications/ArmGNUToolchain/14.2.rel1/arm-none-eabi/arm-none-eabi/include/c++/14.2.1/bits/stl_algobase.h **** // Copyright (C) 2001-2024 Free Software Foundation, Inc.
   4:/Applications/ArmGNUToolchain/14.2.rel1/arm-none-eabi/arm-none-eabi/include/c++/14.2.1/bits/stl_algobase.h **** //
   5:/Applications/ArmGNUToolchain/14.2.rel1/arm-none-eabi/arm-none-eabi/include/c++/14.2.1/bits/stl_algobase.h **** // This file is part of the GNU ISO C++ Library.  This library is free
   6:/Applications/ArmGNUToolchain/14.2.rel1/arm-none-eabi/arm-none-eabi/include/c++/14.2.1/bits/stl_algobase.h **** // software; you can redistribute it and/or modify it under the
   7:/Applications/ArmGNUToolchain/14.2.rel1/arm-none-eabi/arm-none-eabi/include/c++/14.2.1/bits/stl_algobase.h **** // terms of the GNU General Public License as published by the
   8:/Applications/ArmGNUToolchain/14.2.rel1/arm-none-eabi/arm-none-eabi/include/c++/14.2.1/bits/stl_algobase.h **** // Free Software Foundation; either version 3, or (at your option)
   9:/Applications/ArmGNUToolchain/14.2.rel1/arm-none-eabi/arm-none-eabi/include/c++/14.2.1/bits/stl_algobase.h **** // any later version.
  10:/Applications/ArmGNUToolchain/14.2.rel1/arm-none-eabi/arm-none-eabi/include/c++/14.2.1/bits/stl_algobase.h **** 
  11:/Applications/ArmGNUToolchain/14.2.rel1/arm-none-eabi/arm-none-eabi/include/c++/14.2.1/bits/stl_algobase.h **** // This library is distributed in the hope that it will be useful,
  12:/Applications/ArmGNUToolchain/14.2.rel1/arm-none-eabi/arm-none-eabi/include/c++/14.2.1/bits/stl_algobase.h **** // but WITHOUT ANY WARRANTY; without even the implied warranty of
  13:/Applications/ArmGNUToolchain/14.2.rel1/arm-none-eabi/arm-none-eabi/include/c++/14.2.1/bits/stl_algobase.h **** // MERCHANTABILITY or FITNESS FOR A PARTICULAR PURPOSE.  See the
  14:/Applications/ArmGNUToolchain/14.2.rel1/arm-none-eabi/arm-none-eabi/include/c++/14.2.1/bits/stl_algobase.h **** // GNU General Public License for more details.
  15:/Applications/ArmGNUToolchain/14.2.rel1/arm-none-eabi/arm-none-eabi/include/c++/14.2.1/bits/stl_algobase.h **** 
  16:/Applications/ArmGNUToolchain/14.2.rel1/arm-none-eabi/arm-none-eabi/include/c++/14.2.1/bits/stl_algobase.h **** // Under Section 7 of GPL version 3, you are granted additional
  17:/Applications/ArmGNUToolchain/14.2.rel1/arm-none-eabi/arm-none-eabi/include/c++/14.2.1/bits/stl_algobase.h **** // permissions described in the GCC Runtime Library Exception, version
  18:/Applications/ArmGNUToolchain/14.2.rel1/arm-none-eabi/arm-none-eabi/include/c++/14.2.1/bits/stl_algobase.h **** // 3.1, as published by the Free Software Foundation.
  19:/Applications/ArmGNUToolchain/14.2.rel1/arm-none-eabi/arm-none-eabi/include/c++/14.2.1/bits/stl_algobase.h **** 
  20:/Applications/ArmGNUToolchain/14.2.rel1/arm-none-eabi/arm-none-eabi/include/c++/14.2.1/bits/stl_algobase.h **** // You should have received a copy of the GNU General Public License and
  21:/Applications/ArmGNUToolchain/14.2.rel1/arm-none-eabi/arm-none-eabi/include/c++/14.2.1/bits/stl_algobase.h **** // a copy of the GCC Runtime Library Exception along with this program;
  22:/Applications/ArmGNUToolchain/14.2.rel1/arm-none-eabi/arm-none-eabi/include/c++/14.2.1/bits/stl_algobase.h **** // see the files COPYING3 and COPYING.RUNTIME respectively.  If not, see
  23:/Applications/ArmGNUToolchain/14.2.rel1/arm-none-eabi/arm-none-eabi/include/c++/14.2.1/bits/stl_algobase.h **** // <http://www.gnu.org/licenses/>.
  24:/Applications/ArmGNUToolchain/14.2.rel1/arm-none-eabi/arm-none-eabi/include/c++/14.2.1/bits/stl_algobase.h **** 
  25:/Applications/ArmGNUToolchain/14.2.rel1/arm-none-eabi/arm-none-eabi/include/c++/14.2.1/bits/stl_algobase.h **** /*
  26:/Applications/ArmGNUToolchain/14.2.rel1/arm-none-eabi/arm-none-eabi/include/c++/14.2.1/bits/stl_algobase.h ****  *
  27:/Applications/ArmGNUToolchain/14.2.rel1/arm-none-eabi/arm-none-eabi/include/c++/14.2.1/bits/stl_algobase.h ****  * Copyright (c) 1994
  28:/Applications/ArmGNUToolchain/14.2.rel1/arm-none-eabi/arm-none-eabi/include/c++/14.2.1/bits/stl_algobase.h ****  * Hewlett-Packard Company
  29:/Applications/ArmGNUToolchain/14.2.rel1/arm-none-eabi/arm-none-eabi/include/c++/14.2.1/bits/stl_algobase.h ****  *
  30:/Applications/ArmGNUToolchain/14.2.rel1/arm-none-eabi/arm-none-eabi/include/c++/14.2.1/bits/stl_algobase.h ****  * Permission to use, copy, modify, distribute and sell this software
  31:/Applications/ArmGNUToolchain/14.2.rel1/arm-none-eabi/arm-none-eabi/include/c++/14.2.1/bits/stl_algobase.h ****  * and its documentation for any purpose is hereby granted without fee,
  32:/Applications/ArmGNUToolchain/14.2.rel1/arm-none-eabi/arm-none-eabi/include/c++/14.2.1/bits/stl_algobase.h ****  * provided that the above copyright notice appear in all copies and
  33:/Applications/ArmGNUToolchain/14.2.rel1/arm-none-eabi/arm-none-eabi/include/c++/14.2.1/bits/stl_algobase.h ****  * that both that copyright notice and this permission notice appear
  34:/Applications/ArmGNUToolchain/14.2.rel1/arm-none-eabi/arm-none-eabi/include/c++/14.2.1/bits/stl_algobase.h ****  * in supporting documentation.  Hewlett-Packard Company makes no
  35:/Applications/ArmGNUToolchain/14.2.rel1/arm-none-eabi/arm-none-eabi/include/c++/14.2.1/bits/stl_algobase.h ****  * representations about the suitability of this software for any
  36:/Applications/ArmGNUToolchain/14.2.rel1/arm-none-eabi/arm-none-eabi/include/c++/14.2.1/bits/stl_algobase.h ****  * purpose.  It is provided "as is" without express or implied warranty.
ARM GAS  /var/folders/y7/g6pkzsp12sx54x3s3mvyn15r0000gn/T//cceyOD7A.s 			page 12


  37:/Applications/ArmGNUToolchain/14.2.rel1/arm-none-eabi/arm-none-eabi/include/c++/14.2.1/bits/stl_algobase.h ****  *
  38:/Applications/ArmGNUToolchain/14.2.rel1/arm-none-eabi/arm-none-eabi/include/c++/14.2.1/bits/stl_algobase.h ****  *
  39:/Applications/ArmGNUToolchain/14.2.rel1/arm-none-eabi/arm-none-eabi/include/c++/14.2.1/bits/stl_algobase.h ****  * Copyright (c) 1996-1998
  40:/Applications/ArmGNUToolchain/14.2.rel1/arm-none-eabi/arm-none-eabi/include/c++/14.2.1/bits/stl_algobase.h ****  * Silicon Graphics Computer Systems, Inc.
  41:/Applications/ArmGNUToolchain/14.2.rel1/arm-none-eabi/arm-none-eabi/include/c++/14.2.1/bits/stl_algobase.h ****  *
  42:/Applications/ArmGNUToolchain/14.2.rel1/arm-none-eabi/arm-none-eabi/include/c++/14.2.1/bits/stl_algobase.h ****  * Permission to use, copy, modify, distribute and sell this software
  43:/Applications/ArmGNUToolchain/14.2.rel1/arm-none-eabi/arm-none-eabi/include/c++/14.2.1/bits/stl_algobase.h ****  * and its documentation for any purpose is hereby granted without fee,
  44:/Applications/ArmGNUToolchain/14.2.rel1/arm-none-eabi/arm-none-eabi/include/c++/14.2.1/bits/stl_algobase.h ****  * provided that the above copyright notice appear in all copies and
  45:/Applications/ArmGNUToolchain/14.2.rel1/arm-none-eabi/arm-none-eabi/include/c++/14.2.1/bits/stl_algobase.h ****  * that both that copyright notice and this permission notice appear
  46:/Applications/ArmGNUToolchain/14.2.rel1/arm-none-eabi/arm-none-eabi/include/c++/14.2.1/bits/stl_algobase.h ****  * in supporting documentation.  Silicon Graphics makes no
  47:/Applications/ArmGNUToolchain/14.2.rel1/arm-none-eabi/arm-none-eabi/include/c++/14.2.1/bits/stl_algobase.h ****  * representations about the suitability of this software for any
  48:/Applications/ArmGNUToolchain/14.2.rel1/arm-none-eabi/arm-none-eabi/include/c++/14.2.1/bits/stl_algobase.h ****  * purpose.  It is provided "as is" without express or implied warranty.
  49:/Applications/ArmGNUToolchain/14.2.rel1/arm-none-eabi/arm-none-eabi/include/c++/14.2.1/bits/stl_algobase.h ****  */
  50:/Applications/ArmGNUToolchain/14.2.rel1/arm-none-eabi/arm-none-eabi/include/c++/14.2.1/bits/stl_algobase.h **** 
  51:/Applications/ArmGNUToolchain/14.2.rel1/arm-none-eabi/arm-none-eabi/include/c++/14.2.1/bits/stl_algobase.h **** /** @file bits/stl_algobase.h
  52:/Applications/ArmGNUToolchain/14.2.rel1/arm-none-eabi/arm-none-eabi/include/c++/14.2.1/bits/stl_algobase.h ****  *  This is an internal header file, included by other library headers.
  53:/Applications/ArmGNUToolchain/14.2.rel1/arm-none-eabi/arm-none-eabi/include/c++/14.2.1/bits/stl_algobase.h ****  *  Do not attempt to use it directly. @headername{algorithm}
  54:/Applications/ArmGNUToolchain/14.2.rel1/arm-none-eabi/arm-none-eabi/include/c++/14.2.1/bits/stl_algobase.h ****  */
  55:/Applications/ArmGNUToolchain/14.2.rel1/arm-none-eabi/arm-none-eabi/include/c++/14.2.1/bits/stl_algobase.h **** 
  56:/Applications/ArmGNUToolchain/14.2.rel1/arm-none-eabi/arm-none-eabi/include/c++/14.2.1/bits/stl_algobase.h **** #ifndef _STL_ALGOBASE_H
  57:/Applications/ArmGNUToolchain/14.2.rel1/arm-none-eabi/arm-none-eabi/include/c++/14.2.1/bits/stl_algobase.h **** #define _STL_ALGOBASE_H 1
  58:/Applications/ArmGNUToolchain/14.2.rel1/arm-none-eabi/arm-none-eabi/include/c++/14.2.1/bits/stl_algobase.h **** 
  59:/Applications/ArmGNUToolchain/14.2.rel1/arm-none-eabi/arm-none-eabi/include/c++/14.2.1/bits/stl_algobase.h **** #include <bits/c++config.h>
  60:/Applications/ArmGNUToolchain/14.2.rel1/arm-none-eabi/arm-none-eabi/include/c++/14.2.1/bits/stl_algobase.h **** #include <bits/functexcept.h>
  61:/Applications/ArmGNUToolchain/14.2.rel1/arm-none-eabi/arm-none-eabi/include/c++/14.2.1/bits/stl_algobase.h **** #include <bits/cpp_type_traits.h>
  62:/Applications/ArmGNUToolchain/14.2.rel1/arm-none-eabi/arm-none-eabi/include/c++/14.2.1/bits/stl_algobase.h **** #include <ext/type_traits.h>
  63:/Applications/ArmGNUToolchain/14.2.rel1/arm-none-eabi/arm-none-eabi/include/c++/14.2.1/bits/stl_algobase.h **** #include <ext/numeric_traits.h>
  64:/Applications/ArmGNUToolchain/14.2.rel1/arm-none-eabi/arm-none-eabi/include/c++/14.2.1/bits/stl_algobase.h **** #include <bits/stl_pair.h>
  65:/Applications/ArmGNUToolchain/14.2.rel1/arm-none-eabi/arm-none-eabi/include/c++/14.2.1/bits/stl_algobase.h **** #include <bits/stl_iterator_base_types.h>
  66:/Applications/ArmGNUToolchain/14.2.rel1/arm-none-eabi/arm-none-eabi/include/c++/14.2.1/bits/stl_algobase.h **** #include <bits/stl_iterator_base_funcs.h>
  67:/Applications/ArmGNUToolchain/14.2.rel1/arm-none-eabi/arm-none-eabi/include/c++/14.2.1/bits/stl_algobase.h **** #include <bits/stl_iterator.h>
  68:/Applications/ArmGNUToolchain/14.2.rel1/arm-none-eabi/arm-none-eabi/include/c++/14.2.1/bits/stl_algobase.h **** #include <bits/concept_check.h>
  69:/Applications/ArmGNUToolchain/14.2.rel1/arm-none-eabi/arm-none-eabi/include/c++/14.2.1/bits/stl_algobase.h **** #include <debug/debug.h>
  70:/Applications/ArmGNUToolchain/14.2.rel1/arm-none-eabi/arm-none-eabi/include/c++/14.2.1/bits/stl_algobase.h **** #include <bits/move.h> // For std::swap
  71:/Applications/ArmGNUToolchain/14.2.rel1/arm-none-eabi/arm-none-eabi/include/c++/14.2.1/bits/stl_algobase.h **** #include <bits/predefined_ops.h>
  72:/Applications/ArmGNUToolchain/14.2.rel1/arm-none-eabi/arm-none-eabi/include/c++/14.2.1/bits/stl_algobase.h **** #if __cplusplus >= 201103L
  73:/Applications/ArmGNUToolchain/14.2.rel1/arm-none-eabi/arm-none-eabi/include/c++/14.2.1/bits/stl_algobase.h **** # include <type_traits>
  74:/Applications/ArmGNUToolchain/14.2.rel1/arm-none-eabi/arm-none-eabi/include/c++/14.2.1/bits/stl_algobase.h **** #endif
  75:/Applications/ArmGNUToolchain/14.2.rel1/arm-none-eabi/arm-none-eabi/include/c++/14.2.1/bits/stl_algobase.h **** #if __cplusplus >= 201402L
  76:/Applications/ArmGNUToolchain/14.2.rel1/arm-none-eabi/arm-none-eabi/include/c++/14.2.1/bits/stl_algobase.h **** # include <bit> // std::__bit_width
  77:/Applications/ArmGNUToolchain/14.2.rel1/arm-none-eabi/arm-none-eabi/include/c++/14.2.1/bits/stl_algobase.h **** #endif
  78:/Applications/ArmGNUToolchain/14.2.rel1/arm-none-eabi/arm-none-eabi/include/c++/14.2.1/bits/stl_algobase.h **** #if __cplusplus >= 202002L
  79:/Applications/ArmGNUToolchain/14.2.rel1/arm-none-eabi/arm-none-eabi/include/c++/14.2.1/bits/stl_algobase.h **** # include <compare>
  80:/Applications/ArmGNUToolchain/14.2.rel1/arm-none-eabi/arm-none-eabi/include/c++/14.2.1/bits/stl_algobase.h **** #endif
  81:/Applications/ArmGNUToolchain/14.2.rel1/arm-none-eabi/arm-none-eabi/include/c++/14.2.1/bits/stl_algobase.h **** 
  82:/Applications/ArmGNUToolchain/14.2.rel1/arm-none-eabi/arm-none-eabi/include/c++/14.2.1/bits/stl_algobase.h **** namespace std _GLIBCXX_VISIBILITY(default)
  83:/Applications/ArmGNUToolchain/14.2.rel1/arm-none-eabi/arm-none-eabi/include/c++/14.2.1/bits/stl_algobase.h **** {
  84:/Applications/ArmGNUToolchain/14.2.rel1/arm-none-eabi/arm-none-eabi/include/c++/14.2.1/bits/stl_algobase.h **** _GLIBCXX_BEGIN_NAMESPACE_VERSION
  85:/Applications/ArmGNUToolchain/14.2.rel1/arm-none-eabi/arm-none-eabi/include/c++/14.2.1/bits/stl_algobase.h **** 
  86:/Applications/ArmGNUToolchain/14.2.rel1/arm-none-eabi/arm-none-eabi/include/c++/14.2.1/bits/stl_algobase.h ****   /*
  87:/Applications/ArmGNUToolchain/14.2.rel1/arm-none-eabi/arm-none-eabi/include/c++/14.2.1/bits/stl_algobase.h ****    * A constexpr wrapper for __builtin_memcmp.
  88:/Applications/ArmGNUToolchain/14.2.rel1/arm-none-eabi/arm-none-eabi/include/c++/14.2.1/bits/stl_algobase.h ****    * @param __num The number of elements of type _Tp (not bytes).
  89:/Applications/ArmGNUToolchain/14.2.rel1/arm-none-eabi/arm-none-eabi/include/c++/14.2.1/bits/stl_algobase.h ****    */
  90:/Applications/ArmGNUToolchain/14.2.rel1/arm-none-eabi/arm-none-eabi/include/c++/14.2.1/bits/stl_algobase.h ****   template<typename _Tp, typename _Up>
  91:/Applications/ArmGNUToolchain/14.2.rel1/arm-none-eabi/arm-none-eabi/include/c++/14.2.1/bits/stl_algobase.h ****     _GLIBCXX14_CONSTEXPR
  92:/Applications/ArmGNUToolchain/14.2.rel1/arm-none-eabi/arm-none-eabi/include/c++/14.2.1/bits/stl_algobase.h ****     inline int
  93:/Applications/ArmGNUToolchain/14.2.rel1/arm-none-eabi/arm-none-eabi/include/c++/14.2.1/bits/stl_algobase.h ****     __memcmp(const _Tp* __first1, const _Up* __first2, size_t __num)
ARM GAS  /var/folders/y7/g6pkzsp12sx54x3s3mvyn15r0000gn/T//cceyOD7A.s 			page 13


  94:/Applications/ArmGNUToolchain/14.2.rel1/arm-none-eabi/arm-none-eabi/include/c++/14.2.1/bits/stl_algobase.h ****     {
  95:/Applications/ArmGNUToolchain/14.2.rel1/arm-none-eabi/arm-none-eabi/include/c++/14.2.1/bits/stl_algobase.h **** #if __cplusplus >= 201103L
  96:/Applications/ArmGNUToolchain/14.2.rel1/arm-none-eabi/arm-none-eabi/include/c++/14.2.1/bits/stl_algobase.h ****       static_assert(sizeof(_Tp) == sizeof(_Up), "can be compared with memcmp");
  97:/Applications/ArmGNUToolchain/14.2.rel1/arm-none-eabi/arm-none-eabi/include/c++/14.2.1/bits/stl_algobase.h **** #endif
  98:/Applications/ArmGNUToolchain/14.2.rel1/arm-none-eabi/arm-none-eabi/include/c++/14.2.1/bits/stl_algobase.h **** #ifdef __cpp_lib_is_constant_evaluated
  99:/Applications/ArmGNUToolchain/14.2.rel1/arm-none-eabi/arm-none-eabi/include/c++/14.2.1/bits/stl_algobase.h ****       if (std::is_constant_evaluated())
 100:/Applications/ArmGNUToolchain/14.2.rel1/arm-none-eabi/arm-none-eabi/include/c++/14.2.1/bits/stl_algobase.h **** 	{
 101:/Applications/ArmGNUToolchain/14.2.rel1/arm-none-eabi/arm-none-eabi/include/c++/14.2.1/bits/stl_algobase.h **** 	  for(; __num > 0; ++__first1, ++__first2, --__num)
 102:/Applications/ArmGNUToolchain/14.2.rel1/arm-none-eabi/arm-none-eabi/include/c++/14.2.1/bits/stl_algobase.h **** 	    if (*__first1 != *__first2)
 103:/Applications/ArmGNUToolchain/14.2.rel1/arm-none-eabi/arm-none-eabi/include/c++/14.2.1/bits/stl_algobase.h **** 	      return *__first1 < *__first2 ? -1 : 1;
 104:/Applications/ArmGNUToolchain/14.2.rel1/arm-none-eabi/arm-none-eabi/include/c++/14.2.1/bits/stl_algobase.h **** 	  return 0;
 105:/Applications/ArmGNUToolchain/14.2.rel1/arm-none-eabi/arm-none-eabi/include/c++/14.2.1/bits/stl_algobase.h **** 	}
 106:/Applications/ArmGNUToolchain/14.2.rel1/arm-none-eabi/arm-none-eabi/include/c++/14.2.1/bits/stl_algobase.h ****       else
 107:/Applications/ArmGNUToolchain/14.2.rel1/arm-none-eabi/arm-none-eabi/include/c++/14.2.1/bits/stl_algobase.h **** #endif
 108:/Applications/ArmGNUToolchain/14.2.rel1/arm-none-eabi/arm-none-eabi/include/c++/14.2.1/bits/stl_algobase.h **** 	return __builtin_memcmp(__first1, __first2, sizeof(_Tp) * __num);
 109:/Applications/ArmGNUToolchain/14.2.rel1/arm-none-eabi/arm-none-eabi/include/c++/14.2.1/bits/stl_algobase.h ****     }
 110:/Applications/ArmGNUToolchain/14.2.rel1/arm-none-eabi/arm-none-eabi/include/c++/14.2.1/bits/stl_algobase.h **** 
 111:/Applications/ArmGNUToolchain/14.2.rel1/arm-none-eabi/arm-none-eabi/include/c++/14.2.1/bits/stl_algobase.h **** #if __cplusplus < 201103L
 112:/Applications/ArmGNUToolchain/14.2.rel1/arm-none-eabi/arm-none-eabi/include/c++/14.2.1/bits/stl_algobase.h ****   // See http://gcc.gnu.org/ml/libstdc++/2004-08/msg00167.html: in a
 113:/Applications/ArmGNUToolchain/14.2.rel1/arm-none-eabi/arm-none-eabi/include/c++/14.2.1/bits/stl_algobase.h ****   // nutshell, we are partially implementing the resolution of DR 187,
 114:/Applications/ArmGNUToolchain/14.2.rel1/arm-none-eabi/arm-none-eabi/include/c++/14.2.1/bits/stl_algobase.h ****   // when it's safe, i.e., the value_types are equal.
 115:/Applications/ArmGNUToolchain/14.2.rel1/arm-none-eabi/arm-none-eabi/include/c++/14.2.1/bits/stl_algobase.h ****   template<bool _BoolType>
 116:/Applications/ArmGNUToolchain/14.2.rel1/arm-none-eabi/arm-none-eabi/include/c++/14.2.1/bits/stl_algobase.h ****     struct __iter_swap
 117:/Applications/ArmGNUToolchain/14.2.rel1/arm-none-eabi/arm-none-eabi/include/c++/14.2.1/bits/stl_algobase.h ****     {
 118:/Applications/ArmGNUToolchain/14.2.rel1/arm-none-eabi/arm-none-eabi/include/c++/14.2.1/bits/stl_algobase.h ****       template<typename _ForwardIterator1, typename _ForwardIterator2>
 119:/Applications/ArmGNUToolchain/14.2.rel1/arm-none-eabi/arm-none-eabi/include/c++/14.2.1/bits/stl_algobase.h **** 	static void
 120:/Applications/ArmGNUToolchain/14.2.rel1/arm-none-eabi/arm-none-eabi/include/c++/14.2.1/bits/stl_algobase.h **** 	iter_swap(_ForwardIterator1 __a, _ForwardIterator2 __b)
 121:/Applications/ArmGNUToolchain/14.2.rel1/arm-none-eabi/arm-none-eabi/include/c++/14.2.1/bits/stl_algobase.h **** 	{
 122:/Applications/ArmGNUToolchain/14.2.rel1/arm-none-eabi/arm-none-eabi/include/c++/14.2.1/bits/stl_algobase.h **** 	  typedef typename iterator_traits<_ForwardIterator1>::value_type
 123:/Applications/ArmGNUToolchain/14.2.rel1/arm-none-eabi/arm-none-eabi/include/c++/14.2.1/bits/stl_algobase.h **** 	    _ValueType1;
 124:/Applications/ArmGNUToolchain/14.2.rel1/arm-none-eabi/arm-none-eabi/include/c++/14.2.1/bits/stl_algobase.h **** 	  _ValueType1 __tmp = *__a;
 125:/Applications/ArmGNUToolchain/14.2.rel1/arm-none-eabi/arm-none-eabi/include/c++/14.2.1/bits/stl_algobase.h **** 	  *__a = *__b;
 126:/Applications/ArmGNUToolchain/14.2.rel1/arm-none-eabi/arm-none-eabi/include/c++/14.2.1/bits/stl_algobase.h **** 	  *__b = __tmp;
 127:/Applications/ArmGNUToolchain/14.2.rel1/arm-none-eabi/arm-none-eabi/include/c++/14.2.1/bits/stl_algobase.h **** 	}
 128:/Applications/ArmGNUToolchain/14.2.rel1/arm-none-eabi/arm-none-eabi/include/c++/14.2.1/bits/stl_algobase.h ****     };
 129:/Applications/ArmGNUToolchain/14.2.rel1/arm-none-eabi/arm-none-eabi/include/c++/14.2.1/bits/stl_algobase.h **** 
 130:/Applications/ArmGNUToolchain/14.2.rel1/arm-none-eabi/arm-none-eabi/include/c++/14.2.1/bits/stl_algobase.h ****   template<>
 131:/Applications/ArmGNUToolchain/14.2.rel1/arm-none-eabi/arm-none-eabi/include/c++/14.2.1/bits/stl_algobase.h ****     struct __iter_swap<true>
 132:/Applications/ArmGNUToolchain/14.2.rel1/arm-none-eabi/arm-none-eabi/include/c++/14.2.1/bits/stl_algobase.h ****     {
 133:/Applications/ArmGNUToolchain/14.2.rel1/arm-none-eabi/arm-none-eabi/include/c++/14.2.1/bits/stl_algobase.h ****       template<typename _ForwardIterator1, typename _ForwardIterator2>
 134:/Applications/ArmGNUToolchain/14.2.rel1/arm-none-eabi/arm-none-eabi/include/c++/14.2.1/bits/stl_algobase.h **** 	static void
 135:/Applications/ArmGNUToolchain/14.2.rel1/arm-none-eabi/arm-none-eabi/include/c++/14.2.1/bits/stl_algobase.h **** 	iter_swap(_ForwardIterator1 __a, _ForwardIterator2 __b)
 136:/Applications/ArmGNUToolchain/14.2.rel1/arm-none-eabi/arm-none-eabi/include/c++/14.2.1/bits/stl_algobase.h **** 	{
 137:/Applications/ArmGNUToolchain/14.2.rel1/arm-none-eabi/arm-none-eabi/include/c++/14.2.1/bits/stl_algobase.h **** 	  swap(*__a, *__b);
 138:/Applications/ArmGNUToolchain/14.2.rel1/arm-none-eabi/arm-none-eabi/include/c++/14.2.1/bits/stl_algobase.h **** 	}
 139:/Applications/ArmGNUToolchain/14.2.rel1/arm-none-eabi/arm-none-eabi/include/c++/14.2.1/bits/stl_algobase.h ****     };
 140:/Applications/ArmGNUToolchain/14.2.rel1/arm-none-eabi/arm-none-eabi/include/c++/14.2.1/bits/stl_algobase.h **** #endif // C++03
 141:/Applications/ArmGNUToolchain/14.2.rel1/arm-none-eabi/arm-none-eabi/include/c++/14.2.1/bits/stl_algobase.h **** 
 142:/Applications/ArmGNUToolchain/14.2.rel1/arm-none-eabi/arm-none-eabi/include/c++/14.2.1/bits/stl_algobase.h ****   /**
 143:/Applications/ArmGNUToolchain/14.2.rel1/arm-none-eabi/arm-none-eabi/include/c++/14.2.1/bits/stl_algobase.h ****    *  @brief Swaps the contents of two iterators.
 144:/Applications/ArmGNUToolchain/14.2.rel1/arm-none-eabi/arm-none-eabi/include/c++/14.2.1/bits/stl_algobase.h ****    *  @ingroup mutating_algorithms
 145:/Applications/ArmGNUToolchain/14.2.rel1/arm-none-eabi/arm-none-eabi/include/c++/14.2.1/bits/stl_algobase.h ****    *  @param  __a  An iterator.
 146:/Applications/ArmGNUToolchain/14.2.rel1/arm-none-eabi/arm-none-eabi/include/c++/14.2.1/bits/stl_algobase.h ****    *  @param  __b  Another iterator.
 147:/Applications/ArmGNUToolchain/14.2.rel1/arm-none-eabi/arm-none-eabi/include/c++/14.2.1/bits/stl_algobase.h ****    *  @return   Nothing.
 148:/Applications/ArmGNUToolchain/14.2.rel1/arm-none-eabi/arm-none-eabi/include/c++/14.2.1/bits/stl_algobase.h ****    *
 149:/Applications/ArmGNUToolchain/14.2.rel1/arm-none-eabi/arm-none-eabi/include/c++/14.2.1/bits/stl_algobase.h ****    *  This function swaps the values pointed to by two iterators, not the
 150:/Applications/ArmGNUToolchain/14.2.rel1/arm-none-eabi/arm-none-eabi/include/c++/14.2.1/bits/stl_algobase.h ****    *  iterators themselves.
ARM GAS  /var/folders/y7/g6pkzsp12sx54x3s3mvyn15r0000gn/T//cceyOD7A.s 			page 14


 151:/Applications/ArmGNUToolchain/14.2.rel1/arm-none-eabi/arm-none-eabi/include/c++/14.2.1/bits/stl_algobase.h ****   */
 152:/Applications/ArmGNUToolchain/14.2.rel1/arm-none-eabi/arm-none-eabi/include/c++/14.2.1/bits/stl_algobase.h ****   template<typename _ForwardIterator1, typename _ForwardIterator2>
 153:/Applications/ArmGNUToolchain/14.2.rel1/arm-none-eabi/arm-none-eabi/include/c++/14.2.1/bits/stl_algobase.h ****     _GLIBCXX20_CONSTEXPR
 154:/Applications/ArmGNUToolchain/14.2.rel1/arm-none-eabi/arm-none-eabi/include/c++/14.2.1/bits/stl_algobase.h ****     inline void
 155:/Applications/ArmGNUToolchain/14.2.rel1/arm-none-eabi/arm-none-eabi/include/c++/14.2.1/bits/stl_algobase.h ****     iter_swap(_ForwardIterator1 __a, _ForwardIterator2 __b)
 156:/Applications/ArmGNUToolchain/14.2.rel1/arm-none-eabi/arm-none-eabi/include/c++/14.2.1/bits/stl_algobase.h ****     {
 157:/Applications/ArmGNUToolchain/14.2.rel1/arm-none-eabi/arm-none-eabi/include/c++/14.2.1/bits/stl_algobase.h ****       // concept requirements
 158:/Applications/ArmGNUToolchain/14.2.rel1/arm-none-eabi/arm-none-eabi/include/c++/14.2.1/bits/stl_algobase.h ****       __glibcxx_function_requires(_Mutable_ForwardIteratorConcept<
 159:/Applications/ArmGNUToolchain/14.2.rel1/arm-none-eabi/arm-none-eabi/include/c++/14.2.1/bits/stl_algobase.h **** 				  _ForwardIterator1>)
 160:/Applications/ArmGNUToolchain/14.2.rel1/arm-none-eabi/arm-none-eabi/include/c++/14.2.1/bits/stl_algobase.h ****       __glibcxx_function_requires(_Mutable_ForwardIteratorConcept<
 161:/Applications/ArmGNUToolchain/14.2.rel1/arm-none-eabi/arm-none-eabi/include/c++/14.2.1/bits/stl_algobase.h **** 				  _ForwardIterator2>)
 162:/Applications/ArmGNUToolchain/14.2.rel1/arm-none-eabi/arm-none-eabi/include/c++/14.2.1/bits/stl_algobase.h **** 
 163:/Applications/ArmGNUToolchain/14.2.rel1/arm-none-eabi/arm-none-eabi/include/c++/14.2.1/bits/stl_algobase.h **** #if __cplusplus < 201103L
 164:/Applications/ArmGNUToolchain/14.2.rel1/arm-none-eabi/arm-none-eabi/include/c++/14.2.1/bits/stl_algobase.h ****       typedef typename iterator_traits<_ForwardIterator1>::value_type
 165:/Applications/ArmGNUToolchain/14.2.rel1/arm-none-eabi/arm-none-eabi/include/c++/14.2.1/bits/stl_algobase.h **** 	_ValueType1;
 166:/Applications/ArmGNUToolchain/14.2.rel1/arm-none-eabi/arm-none-eabi/include/c++/14.2.1/bits/stl_algobase.h ****       typedef typename iterator_traits<_ForwardIterator2>::value_type
 167:/Applications/ArmGNUToolchain/14.2.rel1/arm-none-eabi/arm-none-eabi/include/c++/14.2.1/bits/stl_algobase.h **** 	_ValueType2;
 168:/Applications/ArmGNUToolchain/14.2.rel1/arm-none-eabi/arm-none-eabi/include/c++/14.2.1/bits/stl_algobase.h **** 
 169:/Applications/ArmGNUToolchain/14.2.rel1/arm-none-eabi/arm-none-eabi/include/c++/14.2.1/bits/stl_algobase.h ****       __glibcxx_function_requires(_ConvertibleConcept<_ValueType1,
 170:/Applications/ArmGNUToolchain/14.2.rel1/arm-none-eabi/arm-none-eabi/include/c++/14.2.1/bits/stl_algobase.h **** 				  _ValueType2>)
 171:/Applications/ArmGNUToolchain/14.2.rel1/arm-none-eabi/arm-none-eabi/include/c++/14.2.1/bits/stl_algobase.h ****       __glibcxx_function_requires(_ConvertibleConcept<_ValueType2,
 172:/Applications/ArmGNUToolchain/14.2.rel1/arm-none-eabi/arm-none-eabi/include/c++/14.2.1/bits/stl_algobase.h **** 				  _ValueType1>)
 173:/Applications/ArmGNUToolchain/14.2.rel1/arm-none-eabi/arm-none-eabi/include/c++/14.2.1/bits/stl_algobase.h **** 
 174:/Applications/ArmGNUToolchain/14.2.rel1/arm-none-eabi/arm-none-eabi/include/c++/14.2.1/bits/stl_algobase.h ****       typedef typename iterator_traits<_ForwardIterator1>::reference
 175:/Applications/ArmGNUToolchain/14.2.rel1/arm-none-eabi/arm-none-eabi/include/c++/14.2.1/bits/stl_algobase.h **** 	_ReferenceType1;
 176:/Applications/ArmGNUToolchain/14.2.rel1/arm-none-eabi/arm-none-eabi/include/c++/14.2.1/bits/stl_algobase.h ****       typedef typename iterator_traits<_ForwardIterator2>::reference
 177:/Applications/ArmGNUToolchain/14.2.rel1/arm-none-eabi/arm-none-eabi/include/c++/14.2.1/bits/stl_algobase.h **** 	_ReferenceType2;
 178:/Applications/ArmGNUToolchain/14.2.rel1/arm-none-eabi/arm-none-eabi/include/c++/14.2.1/bits/stl_algobase.h ****       std::__iter_swap<__are_same<_ValueType1, _ValueType2>::__value
 179:/Applications/ArmGNUToolchain/14.2.rel1/arm-none-eabi/arm-none-eabi/include/c++/14.2.1/bits/stl_algobase.h **** 	&& __are_same<_ValueType1&, _ReferenceType1>::__value
 180:/Applications/ArmGNUToolchain/14.2.rel1/arm-none-eabi/arm-none-eabi/include/c++/14.2.1/bits/stl_algobase.h **** 	&& __are_same<_ValueType2&, _ReferenceType2>::__value>::
 181:/Applications/ArmGNUToolchain/14.2.rel1/arm-none-eabi/arm-none-eabi/include/c++/14.2.1/bits/stl_algobase.h **** 	iter_swap(__a, __b);
 182:/Applications/ArmGNUToolchain/14.2.rel1/arm-none-eabi/arm-none-eabi/include/c++/14.2.1/bits/stl_algobase.h **** #else
 183:/Applications/ArmGNUToolchain/14.2.rel1/arm-none-eabi/arm-none-eabi/include/c++/14.2.1/bits/stl_algobase.h ****       // _GLIBCXX_RESOLVE_LIB_DEFECTS
 184:/Applications/ArmGNUToolchain/14.2.rel1/arm-none-eabi/arm-none-eabi/include/c++/14.2.1/bits/stl_algobase.h ****       // 187. iter_swap underspecified
 185:/Applications/ArmGNUToolchain/14.2.rel1/arm-none-eabi/arm-none-eabi/include/c++/14.2.1/bits/stl_algobase.h ****       swap(*__a, *__b);
 186:/Applications/ArmGNUToolchain/14.2.rel1/arm-none-eabi/arm-none-eabi/include/c++/14.2.1/bits/stl_algobase.h **** #endif
 187:/Applications/ArmGNUToolchain/14.2.rel1/arm-none-eabi/arm-none-eabi/include/c++/14.2.1/bits/stl_algobase.h ****     }
 188:/Applications/ArmGNUToolchain/14.2.rel1/arm-none-eabi/arm-none-eabi/include/c++/14.2.1/bits/stl_algobase.h **** 
 189:/Applications/ArmGNUToolchain/14.2.rel1/arm-none-eabi/arm-none-eabi/include/c++/14.2.1/bits/stl_algobase.h ****   /**
 190:/Applications/ArmGNUToolchain/14.2.rel1/arm-none-eabi/arm-none-eabi/include/c++/14.2.1/bits/stl_algobase.h ****    *  @brief Swap the elements of two sequences.
 191:/Applications/ArmGNUToolchain/14.2.rel1/arm-none-eabi/arm-none-eabi/include/c++/14.2.1/bits/stl_algobase.h ****    *  @ingroup mutating_algorithms
 192:/Applications/ArmGNUToolchain/14.2.rel1/arm-none-eabi/arm-none-eabi/include/c++/14.2.1/bits/stl_algobase.h ****    *  @param  __first1  A forward iterator.
 193:/Applications/ArmGNUToolchain/14.2.rel1/arm-none-eabi/arm-none-eabi/include/c++/14.2.1/bits/stl_algobase.h ****    *  @param  __last1   A forward iterator.
 194:/Applications/ArmGNUToolchain/14.2.rel1/arm-none-eabi/arm-none-eabi/include/c++/14.2.1/bits/stl_algobase.h ****    *  @param  __first2  A forward iterator.
 195:/Applications/ArmGNUToolchain/14.2.rel1/arm-none-eabi/arm-none-eabi/include/c++/14.2.1/bits/stl_algobase.h ****    *  @return   An iterator equal to @p first2+(last1-first1).
 196:/Applications/ArmGNUToolchain/14.2.rel1/arm-none-eabi/arm-none-eabi/include/c++/14.2.1/bits/stl_algobase.h ****    *
 197:/Applications/ArmGNUToolchain/14.2.rel1/arm-none-eabi/arm-none-eabi/include/c++/14.2.1/bits/stl_algobase.h ****    *  Swaps each element in the range @p [first1,last1) with the
 198:/Applications/ArmGNUToolchain/14.2.rel1/arm-none-eabi/arm-none-eabi/include/c++/14.2.1/bits/stl_algobase.h ****    *  corresponding element in the range @p [first2,(last1-first1)).
 199:/Applications/ArmGNUToolchain/14.2.rel1/arm-none-eabi/arm-none-eabi/include/c++/14.2.1/bits/stl_algobase.h ****    *  The ranges must not overlap.
 200:/Applications/ArmGNUToolchain/14.2.rel1/arm-none-eabi/arm-none-eabi/include/c++/14.2.1/bits/stl_algobase.h ****   */
 201:/Applications/ArmGNUToolchain/14.2.rel1/arm-none-eabi/arm-none-eabi/include/c++/14.2.1/bits/stl_algobase.h ****   template<typename _ForwardIterator1, typename _ForwardIterator2>
 202:/Applications/ArmGNUToolchain/14.2.rel1/arm-none-eabi/arm-none-eabi/include/c++/14.2.1/bits/stl_algobase.h ****     _GLIBCXX20_CONSTEXPR
 203:/Applications/ArmGNUToolchain/14.2.rel1/arm-none-eabi/arm-none-eabi/include/c++/14.2.1/bits/stl_algobase.h ****     _ForwardIterator2
 204:/Applications/ArmGNUToolchain/14.2.rel1/arm-none-eabi/arm-none-eabi/include/c++/14.2.1/bits/stl_algobase.h ****     swap_ranges(_ForwardIterator1 __first1, _ForwardIterator1 __last1,
 205:/Applications/ArmGNUToolchain/14.2.rel1/arm-none-eabi/arm-none-eabi/include/c++/14.2.1/bits/stl_algobase.h **** 		_ForwardIterator2 __first2)
 206:/Applications/ArmGNUToolchain/14.2.rel1/arm-none-eabi/arm-none-eabi/include/c++/14.2.1/bits/stl_algobase.h ****     {
 207:/Applications/ArmGNUToolchain/14.2.rel1/arm-none-eabi/arm-none-eabi/include/c++/14.2.1/bits/stl_algobase.h ****       // concept requirements
ARM GAS  /var/folders/y7/g6pkzsp12sx54x3s3mvyn15r0000gn/T//cceyOD7A.s 			page 15


 208:/Applications/ArmGNUToolchain/14.2.rel1/arm-none-eabi/arm-none-eabi/include/c++/14.2.1/bits/stl_algobase.h ****       __glibcxx_function_requires(_Mutable_ForwardIteratorConcept<
 209:/Applications/ArmGNUToolchain/14.2.rel1/arm-none-eabi/arm-none-eabi/include/c++/14.2.1/bits/stl_algobase.h **** 				  _ForwardIterator1>)
 210:/Applications/ArmGNUToolchain/14.2.rel1/arm-none-eabi/arm-none-eabi/include/c++/14.2.1/bits/stl_algobase.h ****       __glibcxx_function_requires(_Mutable_ForwardIteratorConcept<
 211:/Applications/ArmGNUToolchain/14.2.rel1/arm-none-eabi/arm-none-eabi/include/c++/14.2.1/bits/stl_algobase.h **** 				  _ForwardIterator2>)
 212:/Applications/ArmGNUToolchain/14.2.rel1/arm-none-eabi/arm-none-eabi/include/c++/14.2.1/bits/stl_algobase.h ****       __glibcxx_requires_valid_range(__first1, __last1);
 213:/Applications/ArmGNUToolchain/14.2.rel1/arm-none-eabi/arm-none-eabi/include/c++/14.2.1/bits/stl_algobase.h **** 
 214:/Applications/ArmGNUToolchain/14.2.rel1/arm-none-eabi/arm-none-eabi/include/c++/14.2.1/bits/stl_algobase.h ****       for (; __first1 != __last1; ++__first1, (void)++__first2)
 215:/Applications/ArmGNUToolchain/14.2.rel1/arm-none-eabi/arm-none-eabi/include/c++/14.2.1/bits/stl_algobase.h **** 	std::iter_swap(__first1, __first2);
 216:/Applications/ArmGNUToolchain/14.2.rel1/arm-none-eabi/arm-none-eabi/include/c++/14.2.1/bits/stl_algobase.h ****       return __first2;
 217:/Applications/ArmGNUToolchain/14.2.rel1/arm-none-eabi/arm-none-eabi/include/c++/14.2.1/bits/stl_algobase.h ****     }
 218:/Applications/ArmGNUToolchain/14.2.rel1/arm-none-eabi/arm-none-eabi/include/c++/14.2.1/bits/stl_algobase.h **** 
 219:/Applications/ArmGNUToolchain/14.2.rel1/arm-none-eabi/arm-none-eabi/include/c++/14.2.1/bits/stl_algobase.h ****   /**
 220:/Applications/ArmGNUToolchain/14.2.rel1/arm-none-eabi/arm-none-eabi/include/c++/14.2.1/bits/stl_algobase.h ****    *  @brief This does what you think it does.
 221:/Applications/ArmGNUToolchain/14.2.rel1/arm-none-eabi/arm-none-eabi/include/c++/14.2.1/bits/stl_algobase.h ****    *  @ingroup sorting_algorithms
 222:/Applications/ArmGNUToolchain/14.2.rel1/arm-none-eabi/arm-none-eabi/include/c++/14.2.1/bits/stl_algobase.h ****    *  @param  __a  A thing of arbitrary type.
 223:/Applications/ArmGNUToolchain/14.2.rel1/arm-none-eabi/arm-none-eabi/include/c++/14.2.1/bits/stl_algobase.h ****    *  @param  __b  Another thing of arbitrary type.
 224:/Applications/ArmGNUToolchain/14.2.rel1/arm-none-eabi/arm-none-eabi/include/c++/14.2.1/bits/stl_algobase.h ****    *  @return   The lesser of the parameters.
 225:/Applications/ArmGNUToolchain/14.2.rel1/arm-none-eabi/arm-none-eabi/include/c++/14.2.1/bits/stl_algobase.h ****    *
 226:/Applications/ArmGNUToolchain/14.2.rel1/arm-none-eabi/arm-none-eabi/include/c++/14.2.1/bits/stl_algobase.h ****    *  This is the simple classic generic implementation.  It will work on
 227:/Applications/ArmGNUToolchain/14.2.rel1/arm-none-eabi/arm-none-eabi/include/c++/14.2.1/bits/stl_algobase.h ****    *  temporary expressions, since they are only evaluated once, unlike a
 228:/Applications/ArmGNUToolchain/14.2.rel1/arm-none-eabi/arm-none-eabi/include/c++/14.2.1/bits/stl_algobase.h ****    *  preprocessor macro.
 229:/Applications/ArmGNUToolchain/14.2.rel1/arm-none-eabi/arm-none-eabi/include/c++/14.2.1/bits/stl_algobase.h ****   */
 230:/Applications/ArmGNUToolchain/14.2.rel1/arm-none-eabi/arm-none-eabi/include/c++/14.2.1/bits/stl_algobase.h ****   template<typename _Tp>
 231:/Applications/ArmGNUToolchain/14.2.rel1/arm-none-eabi/arm-none-eabi/include/c++/14.2.1/bits/stl_algobase.h ****     _GLIBCXX_NODISCARD _GLIBCXX14_CONSTEXPR
 232:/Applications/ArmGNUToolchain/14.2.rel1/arm-none-eabi/arm-none-eabi/include/c++/14.2.1/bits/stl_algobase.h ****     inline const _Tp&
 233:/Applications/ArmGNUToolchain/14.2.rel1/arm-none-eabi/arm-none-eabi/include/c++/14.2.1/bits/stl_algobase.h ****     min(const _Tp& __a, const _Tp& __b)
 234:/Applications/ArmGNUToolchain/14.2.rel1/arm-none-eabi/arm-none-eabi/include/c++/14.2.1/bits/stl_algobase.h ****     {
 235:/Applications/ArmGNUToolchain/14.2.rel1/arm-none-eabi/arm-none-eabi/include/c++/14.2.1/bits/stl_algobase.h ****       // concept requirements
 236:/Applications/ArmGNUToolchain/14.2.rel1/arm-none-eabi/arm-none-eabi/include/c++/14.2.1/bits/stl_algobase.h ****       __glibcxx_function_requires(_LessThanComparableConcept<_Tp>)
 237:/Applications/ArmGNUToolchain/14.2.rel1/arm-none-eabi/arm-none-eabi/include/c++/14.2.1/bits/stl_algobase.h ****       //return __b < __a ? __b : __a;
 238:/Applications/ArmGNUToolchain/14.2.rel1/arm-none-eabi/arm-none-eabi/include/c++/14.2.1/bits/stl_algobase.h ****       if (__b < __a)
 239:/Applications/ArmGNUToolchain/14.2.rel1/arm-none-eabi/arm-none-eabi/include/c++/14.2.1/bits/stl_algobase.h **** 	return __b;
 240:/Applications/ArmGNUToolchain/14.2.rel1/arm-none-eabi/arm-none-eabi/include/c++/14.2.1/bits/stl_algobase.h ****       return __a;
 241:/Applications/ArmGNUToolchain/14.2.rel1/arm-none-eabi/arm-none-eabi/include/c++/14.2.1/bits/stl_algobase.h ****     }
 242:/Applications/ArmGNUToolchain/14.2.rel1/arm-none-eabi/arm-none-eabi/include/c++/14.2.1/bits/stl_algobase.h **** 
 243:/Applications/ArmGNUToolchain/14.2.rel1/arm-none-eabi/arm-none-eabi/include/c++/14.2.1/bits/stl_algobase.h ****   /**
 244:/Applications/ArmGNUToolchain/14.2.rel1/arm-none-eabi/arm-none-eabi/include/c++/14.2.1/bits/stl_algobase.h ****    *  @brief This does what you think it does.
 245:/Applications/ArmGNUToolchain/14.2.rel1/arm-none-eabi/arm-none-eabi/include/c++/14.2.1/bits/stl_algobase.h ****    *  @ingroup sorting_algorithms
 246:/Applications/ArmGNUToolchain/14.2.rel1/arm-none-eabi/arm-none-eabi/include/c++/14.2.1/bits/stl_algobase.h ****    *  @param  __a  A thing of arbitrary type.
 247:/Applications/ArmGNUToolchain/14.2.rel1/arm-none-eabi/arm-none-eabi/include/c++/14.2.1/bits/stl_algobase.h ****    *  @param  __b  Another thing of arbitrary type.
 248:/Applications/ArmGNUToolchain/14.2.rel1/arm-none-eabi/arm-none-eabi/include/c++/14.2.1/bits/stl_algobase.h ****    *  @return   The greater of the parameters.
 249:/Applications/ArmGNUToolchain/14.2.rel1/arm-none-eabi/arm-none-eabi/include/c++/14.2.1/bits/stl_algobase.h ****    *
 250:/Applications/ArmGNUToolchain/14.2.rel1/arm-none-eabi/arm-none-eabi/include/c++/14.2.1/bits/stl_algobase.h ****    *  This is the simple classic generic implementation.  It will work on
 251:/Applications/ArmGNUToolchain/14.2.rel1/arm-none-eabi/arm-none-eabi/include/c++/14.2.1/bits/stl_algobase.h ****    *  temporary expressions, since they are only evaluated once, unlike a
 252:/Applications/ArmGNUToolchain/14.2.rel1/arm-none-eabi/arm-none-eabi/include/c++/14.2.1/bits/stl_algobase.h ****    *  preprocessor macro.
 253:/Applications/ArmGNUToolchain/14.2.rel1/arm-none-eabi/arm-none-eabi/include/c++/14.2.1/bits/stl_algobase.h ****   */
 254:/Applications/ArmGNUToolchain/14.2.rel1/arm-none-eabi/arm-none-eabi/include/c++/14.2.1/bits/stl_algobase.h ****   template<typename _Tp>
 255:/Applications/ArmGNUToolchain/14.2.rel1/arm-none-eabi/arm-none-eabi/include/c++/14.2.1/bits/stl_algobase.h ****     _GLIBCXX_NODISCARD _GLIBCXX14_CONSTEXPR
 256:/Applications/ArmGNUToolchain/14.2.rel1/arm-none-eabi/arm-none-eabi/include/c++/14.2.1/bits/stl_algobase.h ****     inline const _Tp&
 257:/Applications/ArmGNUToolchain/14.2.rel1/arm-none-eabi/arm-none-eabi/include/c++/14.2.1/bits/stl_algobase.h ****     max(const _Tp& __a, const _Tp& __b)
 258:/Applications/ArmGNUToolchain/14.2.rel1/arm-none-eabi/arm-none-eabi/include/c++/14.2.1/bits/stl_algobase.h ****     {
 259:/Applications/ArmGNUToolchain/14.2.rel1/arm-none-eabi/arm-none-eabi/include/c++/14.2.1/bits/stl_algobase.h ****       // concept requirements
 260:/Applications/ArmGNUToolchain/14.2.rel1/arm-none-eabi/arm-none-eabi/include/c++/14.2.1/bits/stl_algobase.h ****       __glibcxx_function_requires(_LessThanComparableConcept<_Tp>)
 261:/Applications/ArmGNUToolchain/14.2.rel1/arm-none-eabi/arm-none-eabi/include/c++/14.2.1/bits/stl_algobase.h ****       //return  __a < __b ? __b : __a;
 262:/Applications/ArmGNUToolchain/14.2.rel1/arm-none-eabi/arm-none-eabi/include/c++/14.2.1/bits/stl_algobase.h ****       if (__a < __b)
 263:/Applications/ArmGNUToolchain/14.2.rel1/arm-none-eabi/arm-none-eabi/include/c++/14.2.1/bits/stl_algobase.h **** 	return __b;
 264:/Applications/ArmGNUToolchain/14.2.rel1/arm-none-eabi/arm-none-eabi/include/c++/14.2.1/bits/stl_algobase.h ****       return __a;
ARM GAS  /var/folders/y7/g6pkzsp12sx54x3s3mvyn15r0000gn/T//cceyOD7A.s 			page 16


 265:/Applications/ArmGNUToolchain/14.2.rel1/arm-none-eabi/arm-none-eabi/include/c++/14.2.1/bits/stl_algobase.h ****     }
 266:/Applications/ArmGNUToolchain/14.2.rel1/arm-none-eabi/arm-none-eabi/include/c++/14.2.1/bits/stl_algobase.h **** 
 267:/Applications/ArmGNUToolchain/14.2.rel1/arm-none-eabi/arm-none-eabi/include/c++/14.2.1/bits/stl_algobase.h ****   /**
 268:/Applications/ArmGNUToolchain/14.2.rel1/arm-none-eabi/arm-none-eabi/include/c++/14.2.1/bits/stl_algobase.h ****    *  @brief This does what you think it does.
 269:/Applications/ArmGNUToolchain/14.2.rel1/arm-none-eabi/arm-none-eabi/include/c++/14.2.1/bits/stl_algobase.h ****    *  @ingroup sorting_algorithms
 270:/Applications/ArmGNUToolchain/14.2.rel1/arm-none-eabi/arm-none-eabi/include/c++/14.2.1/bits/stl_algobase.h ****    *  @param  __a  A thing of arbitrary type.
 271:/Applications/ArmGNUToolchain/14.2.rel1/arm-none-eabi/arm-none-eabi/include/c++/14.2.1/bits/stl_algobase.h ****    *  @param  __b  Another thing of arbitrary type.
 272:/Applications/ArmGNUToolchain/14.2.rel1/arm-none-eabi/arm-none-eabi/include/c++/14.2.1/bits/stl_algobase.h ****    *  @param  __comp  A @link comparison_functors comparison functor@endlink.
 273:/Applications/ArmGNUToolchain/14.2.rel1/arm-none-eabi/arm-none-eabi/include/c++/14.2.1/bits/stl_algobase.h ****    *  @return   The lesser of the parameters.
 274:/Applications/ArmGNUToolchain/14.2.rel1/arm-none-eabi/arm-none-eabi/include/c++/14.2.1/bits/stl_algobase.h ****    *
 275:/Applications/ArmGNUToolchain/14.2.rel1/arm-none-eabi/arm-none-eabi/include/c++/14.2.1/bits/stl_algobase.h ****    *  This will work on temporary expressions, since they are only evaluated
 276:/Applications/ArmGNUToolchain/14.2.rel1/arm-none-eabi/arm-none-eabi/include/c++/14.2.1/bits/stl_algobase.h ****    *  once, unlike a preprocessor macro.
 277:/Applications/ArmGNUToolchain/14.2.rel1/arm-none-eabi/arm-none-eabi/include/c++/14.2.1/bits/stl_algobase.h ****   */
 278:/Applications/ArmGNUToolchain/14.2.rel1/arm-none-eabi/arm-none-eabi/include/c++/14.2.1/bits/stl_algobase.h ****   template<typename _Tp, typename _Compare>
 279:/Applications/ArmGNUToolchain/14.2.rel1/arm-none-eabi/arm-none-eabi/include/c++/14.2.1/bits/stl_algobase.h ****     _GLIBCXX_NODISCARD _GLIBCXX14_CONSTEXPR
 280:/Applications/ArmGNUToolchain/14.2.rel1/arm-none-eabi/arm-none-eabi/include/c++/14.2.1/bits/stl_algobase.h ****     inline const _Tp&
 281:/Applications/ArmGNUToolchain/14.2.rel1/arm-none-eabi/arm-none-eabi/include/c++/14.2.1/bits/stl_algobase.h ****     min(const _Tp& __a, const _Tp& __b, _Compare __comp)
 282:/Applications/ArmGNUToolchain/14.2.rel1/arm-none-eabi/arm-none-eabi/include/c++/14.2.1/bits/stl_algobase.h ****     {
 283:/Applications/ArmGNUToolchain/14.2.rel1/arm-none-eabi/arm-none-eabi/include/c++/14.2.1/bits/stl_algobase.h ****       //return __comp(__b, __a) ? __b : __a;
 284:/Applications/ArmGNUToolchain/14.2.rel1/arm-none-eabi/arm-none-eabi/include/c++/14.2.1/bits/stl_algobase.h ****       if (__comp(__b, __a))
 285:/Applications/ArmGNUToolchain/14.2.rel1/arm-none-eabi/arm-none-eabi/include/c++/14.2.1/bits/stl_algobase.h **** 	return __b;
 286:/Applications/ArmGNUToolchain/14.2.rel1/arm-none-eabi/arm-none-eabi/include/c++/14.2.1/bits/stl_algobase.h ****       return __a;
 287:/Applications/ArmGNUToolchain/14.2.rel1/arm-none-eabi/arm-none-eabi/include/c++/14.2.1/bits/stl_algobase.h ****     }
 288:/Applications/ArmGNUToolchain/14.2.rel1/arm-none-eabi/arm-none-eabi/include/c++/14.2.1/bits/stl_algobase.h **** 
 289:/Applications/ArmGNUToolchain/14.2.rel1/arm-none-eabi/arm-none-eabi/include/c++/14.2.1/bits/stl_algobase.h ****   /**
 290:/Applications/ArmGNUToolchain/14.2.rel1/arm-none-eabi/arm-none-eabi/include/c++/14.2.1/bits/stl_algobase.h ****    *  @brief This does what you think it does.
 291:/Applications/ArmGNUToolchain/14.2.rel1/arm-none-eabi/arm-none-eabi/include/c++/14.2.1/bits/stl_algobase.h ****    *  @ingroup sorting_algorithms
 292:/Applications/ArmGNUToolchain/14.2.rel1/arm-none-eabi/arm-none-eabi/include/c++/14.2.1/bits/stl_algobase.h ****    *  @param  __a  A thing of arbitrary type.
 293:/Applications/ArmGNUToolchain/14.2.rel1/arm-none-eabi/arm-none-eabi/include/c++/14.2.1/bits/stl_algobase.h ****    *  @param  __b  Another thing of arbitrary type.
 294:/Applications/ArmGNUToolchain/14.2.rel1/arm-none-eabi/arm-none-eabi/include/c++/14.2.1/bits/stl_algobase.h ****    *  @param  __comp  A @link comparison_functors comparison functor@endlink.
 295:/Applications/ArmGNUToolchain/14.2.rel1/arm-none-eabi/arm-none-eabi/include/c++/14.2.1/bits/stl_algobase.h ****    *  @return   The greater of the parameters.
 296:/Applications/ArmGNUToolchain/14.2.rel1/arm-none-eabi/arm-none-eabi/include/c++/14.2.1/bits/stl_algobase.h ****    *
 297:/Applications/ArmGNUToolchain/14.2.rel1/arm-none-eabi/arm-none-eabi/include/c++/14.2.1/bits/stl_algobase.h ****    *  This will work on temporary expressions, since they are only evaluated
 298:/Applications/ArmGNUToolchain/14.2.rel1/arm-none-eabi/arm-none-eabi/include/c++/14.2.1/bits/stl_algobase.h ****    *  once, unlike a preprocessor macro.
 299:/Applications/ArmGNUToolchain/14.2.rel1/arm-none-eabi/arm-none-eabi/include/c++/14.2.1/bits/stl_algobase.h ****   */
 300:/Applications/ArmGNUToolchain/14.2.rel1/arm-none-eabi/arm-none-eabi/include/c++/14.2.1/bits/stl_algobase.h ****   template<typename _Tp, typename _Compare>
 301:/Applications/ArmGNUToolchain/14.2.rel1/arm-none-eabi/arm-none-eabi/include/c++/14.2.1/bits/stl_algobase.h ****     _GLIBCXX_NODISCARD _GLIBCXX14_CONSTEXPR
 302:/Applications/ArmGNUToolchain/14.2.rel1/arm-none-eabi/arm-none-eabi/include/c++/14.2.1/bits/stl_algobase.h ****     inline const _Tp&
 303:/Applications/ArmGNUToolchain/14.2.rel1/arm-none-eabi/arm-none-eabi/include/c++/14.2.1/bits/stl_algobase.h ****     max(const _Tp& __a, const _Tp& __b, _Compare __comp)
 304:/Applications/ArmGNUToolchain/14.2.rel1/arm-none-eabi/arm-none-eabi/include/c++/14.2.1/bits/stl_algobase.h ****     {
 305:/Applications/ArmGNUToolchain/14.2.rel1/arm-none-eabi/arm-none-eabi/include/c++/14.2.1/bits/stl_algobase.h ****       //return __comp(__a, __b) ? __b : __a;
 306:/Applications/ArmGNUToolchain/14.2.rel1/arm-none-eabi/arm-none-eabi/include/c++/14.2.1/bits/stl_algobase.h ****       if (__comp(__a, __b))
 307:/Applications/ArmGNUToolchain/14.2.rel1/arm-none-eabi/arm-none-eabi/include/c++/14.2.1/bits/stl_algobase.h **** 	return __b;
 308:/Applications/ArmGNUToolchain/14.2.rel1/arm-none-eabi/arm-none-eabi/include/c++/14.2.1/bits/stl_algobase.h ****       return __a;
 309:/Applications/ArmGNUToolchain/14.2.rel1/arm-none-eabi/arm-none-eabi/include/c++/14.2.1/bits/stl_algobase.h ****     }
 310:/Applications/ArmGNUToolchain/14.2.rel1/arm-none-eabi/arm-none-eabi/include/c++/14.2.1/bits/stl_algobase.h **** 
 311:/Applications/ArmGNUToolchain/14.2.rel1/arm-none-eabi/arm-none-eabi/include/c++/14.2.1/bits/stl_algobase.h ****   // Fallback implementation of the function in bits/stl_iterator.h used to
 312:/Applications/ArmGNUToolchain/14.2.rel1/arm-none-eabi/arm-none-eabi/include/c++/14.2.1/bits/stl_algobase.h ****   // remove the __normal_iterator wrapper. See copy, fill, ...
 313:/Applications/ArmGNUToolchain/14.2.rel1/arm-none-eabi/arm-none-eabi/include/c++/14.2.1/bits/stl_algobase.h ****   template<typename _Iterator>
 314:/Applications/ArmGNUToolchain/14.2.rel1/arm-none-eabi/arm-none-eabi/include/c++/14.2.1/bits/stl_algobase.h ****     _GLIBCXX20_CONSTEXPR
 315:/Applications/ArmGNUToolchain/14.2.rel1/arm-none-eabi/arm-none-eabi/include/c++/14.2.1/bits/stl_algobase.h ****     inline _Iterator
 316:/Applications/ArmGNUToolchain/14.2.rel1/arm-none-eabi/arm-none-eabi/include/c++/14.2.1/bits/stl_algobase.h ****     __niter_base(_Iterator __it)
 317:/Applications/ArmGNUToolchain/14.2.rel1/arm-none-eabi/arm-none-eabi/include/c++/14.2.1/bits/stl_algobase.h ****     _GLIBCXX_NOEXCEPT_IF(std::is_nothrow_copy_constructible<_Iterator>::value)
 318:/Applications/ArmGNUToolchain/14.2.rel1/arm-none-eabi/arm-none-eabi/include/c++/14.2.1/bits/stl_algobase.h ****     { return __it; }
 319:/Applications/ArmGNUToolchain/14.2.rel1/arm-none-eabi/arm-none-eabi/include/c++/14.2.1/bits/stl_algobase.h **** 
 320:/Applications/ArmGNUToolchain/14.2.rel1/arm-none-eabi/arm-none-eabi/include/c++/14.2.1/bits/stl_algobase.h **** #if __cplusplus < 201103L
 321:/Applications/ArmGNUToolchain/14.2.rel1/arm-none-eabi/arm-none-eabi/include/c++/14.2.1/bits/stl_algobase.h ****   template<typename _Ite, typename _Seq>
ARM GAS  /var/folders/y7/g6pkzsp12sx54x3s3mvyn15r0000gn/T//cceyOD7A.s 			page 17


 322:/Applications/ArmGNUToolchain/14.2.rel1/arm-none-eabi/arm-none-eabi/include/c++/14.2.1/bits/stl_algobase.h ****     _Ite
 323:/Applications/ArmGNUToolchain/14.2.rel1/arm-none-eabi/arm-none-eabi/include/c++/14.2.1/bits/stl_algobase.h ****     __niter_base(const ::__gnu_debug::_Safe_iterator<_Ite, _Seq,
 324:/Applications/ArmGNUToolchain/14.2.rel1/arm-none-eabi/arm-none-eabi/include/c++/14.2.1/bits/stl_algobase.h **** 		 std::random_access_iterator_tag>&);
 325:/Applications/ArmGNUToolchain/14.2.rel1/arm-none-eabi/arm-none-eabi/include/c++/14.2.1/bits/stl_algobase.h **** 
 326:/Applications/ArmGNUToolchain/14.2.rel1/arm-none-eabi/arm-none-eabi/include/c++/14.2.1/bits/stl_algobase.h ****  template<typename _Ite, typename _Cont, typename _Seq>
 327:/Applications/ArmGNUToolchain/14.2.rel1/arm-none-eabi/arm-none-eabi/include/c++/14.2.1/bits/stl_algobase.h ****     _Ite
 328:/Applications/ArmGNUToolchain/14.2.rel1/arm-none-eabi/arm-none-eabi/include/c++/14.2.1/bits/stl_algobase.h ****     __niter_base(const ::__gnu_debug::_Safe_iterator<
 329:/Applications/ArmGNUToolchain/14.2.rel1/arm-none-eabi/arm-none-eabi/include/c++/14.2.1/bits/stl_algobase.h **** 		 ::__gnu_cxx::__normal_iterator<_Ite, _Cont>, _Seq,
 330:/Applications/ArmGNUToolchain/14.2.rel1/arm-none-eabi/arm-none-eabi/include/c++/14.2.1/bits/stl_algobase.h **** 		 std::random_access_iterator_tag>&);
 331:/Applications/ArmGNUToolchain/14.2.rel1/arm-none-eabi/arm-none-eabi/include/c++/14.2.1/bits/stl_algobase.h **** #else
 332:/Applications/ArmGNUToolchain/14.2.rel1/arm-none-eabi/arm-none-eabi/include/c++/14.2.1/bits/stl_algobase.h ****   template<typename _Ite, typename _Seq>
 333:/Applications/ArmGNUToolchain/14.2.rel1/arm-none-eabi/arm-none-eabi/include/c++/14.2.1/bits/stl_algobase.h ****     _GLIBCXX20_CONSTEXPR
 334:/Applications/ArmGNUToolchain/14.2.rel1/arm-none-eabi/arm-none-eabi/include/c++/14.2.1/bits/stl_algobase.h ****     decltype(std::__niter_base(std::declval<_Ite>()))
 335:/Applications/ArmGNUToolchain/14.2.rel1/arm-none-eabi/arm-none-eabi/include/c++/14.2.1/bits/stl_algobase.h ****     __niter_base(const ::__gnu_debug::_Safe_iterator<_Ite, _Seq,
 336:/Applications/ArmGNUToolchain/14.2.rel1/arm-none-eabi/arm-none-eabi/include/c++/14.2.1/bits/stl_algobase.h **** 		 std::random_access_iterator_tag>&)
 337:/Applications/ArmGNUToolchain/14.2.rel1/arm-none-eabi/arm-none-eabi/include/c++/14.2.1/bits/stl_algobase.h ****     noexcept(std::is_nothrow_copy_constructible<_Ite>::value);
 338:/Applications/ArmGNUToolchain/14.2.rel1/arm-none-eabi/arm-none-eabi/include/c++/14.2.1/bits/stl_algobase.h **** #endif
 339:/Applications/ArmGNUToolchain/14.2.rel1/arm-none-eabi/arm-none-eabi/include/c++/14.2.1/bits/stl_algobase.h **** 
 340:/Applications/ArmGNUToolchain/14.2.rel1/arm-none-eabi/arm-none-eabi/include/c++/14.2.1/bits/stl_algobase.h ****   // Reverse the __niter_base transformation to get a
 341:/Applications/ArmGNUToolchain/14.2.rel1/arm-none-eabi/arm-none-eabi/include/c++/14.2.1/bits/stl_algobase.h ****   // __normal_iterator back again (this assumes that __normal_iterator
 342:/Applications/ArmGNUToolchain/14.2.rel1/arm-none-eabi/arm-none-eabi/include/c++/14.2.1/bits/stl_algobase.h ****   // is only used to wrap random access iterators, like pointers).
 343:/Applications/ArmGNUToolchain/14.2.rel1/arm-none-eabi/arm-none-eabi/include/c++/14.2.1/bits/stl_algobase.h ****   template<typename _From, typename _To>
 344:/Applications/ArmGNUToolchain/14.2.rel1/arm-none-eabi/arm-none-eabi/include/c++/14.2.1/bits/stl_algobase.h ****     _GLIBCXX20_CONSTEXPR
 345:/Applications/ArmGNUToolchain/14.2.rel1/arm-none-eabi/arm-none-eabi/include/c++/14.2.1/bits/stl_algobase.h ****     inline _From
 346:/Applications/ArmGNUToolchain/14.2.rel1/arm-none-eabi/arm-none-eabi/include/c++/14.2.1/bits/stl_algobase.h ****     __niter_wrap(_From __from, _To __res)
 347:/Applications/ArmGNUToolchain/14.2.rel1/arm-none-eabi/arm-none-eabi/include/c++/14.2.1/bits/stl_algobase.h ****     { return __from + (std::__niter_base(__res) - std::__niter_base(__from)); }
 348:/Applications/ArmGNUToolchain/14.2.rel1/arm-none-eabi/arm-none-eabi/include/c++/14.2.1/bits/stl_algobase.h **** 
 349:/Applications/ArmGNUToolchain/14.2.rel1/arm-none-eabi/arm-none-eabi/include/c++/14.2.1/bits/stl_algobase.h ****   // No need to wrap, iterator already has the right type.
 350:/Applications/ArmGNUToolchain/14.2.rel1/arm-none-eabi/arm-none-eabi/include/c++/14.2.1/bits/stl_algobase.h ****   template<typename _Iterator>
 351:/Applications/ArmGNUToolchain/14.2.rel1/arm-none-eabi/arm-none-eabi/include/c++/14.2.1/bits/stl_algobase.h ****     _GLIBCXX20_CONSTEXPR
 352:/Applications/ArmGNUToolchain/14.2.rel1/arm-none-eabi/arm-none-eabi/include/c++/14.2.1/bits/stl_algobase.h ****     inline _Iterator
 353:/Applications/ArmGNUToolchain/14.2.rel1/arm-none-eabi/arm-none-eabi/include/c++/14.2.1/bits/stl_algobase.h ****     __niter_wrap(const _Iterator&, _Iterator __res)
 354:/Applications/ArmGNUToolchain/14.2.rel1/arm-none-eabi/arm-none-eabi/include/c++/14.2.1/bits/stl_algobase.h ****     { return __res; }
 355:/Applications/ArmGNUToolchain/14.2.rel1/arm-none-eabi/arm-none-eabi/include/c++/14.2.1/bits/stl_algobase.h **** 
 356:/Applications/ArmGNUToolchain/14.2.rel1/arm-none-eabi/arm-none-eabi/include/c++/14.2.1/bits/stl_algobase.h ****   // All of these auxiliary structs serve two purposes.  (1) Replace
 357:/Applications/ArmGNUToolchain/14.2.rel1/arm-none-eabi/arm-none-eabi/include/c++/14.2.1/bits/stl_algobase.h ****   // calls to copy with memmove whenever possible.  (Memmove, not memcpy,
 358:/Applications/ArmGNUToolchain/14.2.rel1/arm-none-eabi/arm-none-eabi/include/c++/14.2.1/bits/stl_algobase.h ****   // because the input and output ranges are permitted to overlap.)
 359:/Applications/ArmGNUToolchain/14.2.rel1/arm-none-eabi/arm-none-eabi/include/c++/14.2.1/bits/stl_algobase.h ****   // (2) If we're using random access iterators, then write the loop as
 360:/Applications/ArmGNUToolchain/14.2.rel1/arm-none-eabi/arm-none-eabi/include/c++/14.2.1/bits/stl_algobase.h ****   // a for loop with an explicit count.
 361:/Applications/ArmGNUToolchain/14.2.rel1/arm-none-eabi/arm-none-eabi/include/c++/14.2.1/bits/stl_algobase.h **** 
 362:/Applications/ArmGNUToolchain/14.2.rel1/arm-none-eabi/arm-none-eabi/include/c++/14.2.1/bits/stl_algobase.h ****   template<bool _IsMove, bool _IsSimple, typename _Category>
 363:/Applications/ArmGNUToolchain/14.2.rel1/arm-none-eabi/arm-none-eabi/include/c++/14.2.1/bits/stl_algobase.h ****     struct __copy_move
 364:/Applications/ArmGNUToolchain/14.2.rel1/arm-none-eabi/arm-none-eabi/include/c++/14.2.1/bits/stl_algobase.h ****     {
 365:/Applications/ArmGNUToolchain/14.2.rel1/arm-none-eabi/arm-none-eabi/include/c++/14.2.1/bits/stl_algobase.h ****       template<typename _II, typename _OI>
 366:/Applications/ArmGNUToolchain/14.2.rel1/arm-none-eabi/arm-none-eabi/include/c++/14.2.1/bits/stl_algobase.h **** 	_GLIBCXX20_CONSTEXPR
 367:/Applications/ArmGNUToolchain/14.2.rel1/arm-none-eabi/arm-none-eabi/include/c++/14.2.1/bits/stl_algobase.h **** 	static _OI
 368:/Applications/ArmGNUToolchain/14.2.rel1/arm-none-eabi/arm-none-eabi/include/c++/14.2.1/bits/stl_algobase.h **** 	__copy_m(_II __first, _II __last, _OI __result)
 369:/Applications/ArmGNUToolchain/14.2.rel1/arm-none-eabi/arm-none-eabi/include/c++/14.2.1/bits/stl_algobase.h **** 	{
 370:/Applications/ArmGNUToolchain/14.2.rel1/arm-none-eabi/arm-none-eabi/include/c++/14.2.1/bits/stl_algobase.h **** 	  for (; __first != __last; ++__result, (void)++__first)
 371:/Applications/ArmGNUToolchain/14.2.rel1/arm-none-eabi/arm-none-eabi/include/c++/14.2.1/bits/stl_algobase.h **** 	    *__result = *__first;
 372:/Applications/ArmGNUToolchain/14.2.rel1/arm-none-eabi/arm-none-eabi/include/c++/14.2.1/bits/stl_algobase.h **** 	  return __result;
 373:/Applications/ArmGNUToolchain/14.2.rel1/arm-none-eabi/arm-none-eabi/include/c++/14.2.1/bits/stl_algobase.h **** 	}
 374:/Applications/ArmGNUToolchain/14.2.rel1/arm-none-eabi/arm-none-eabi/include/c++/14.2.1/bits/stl_algobase.h ****     };
 375:/Applications/ArmGNUToolchain/14.2.rel1/arm-none-eabi/arm-none-eabi/include/c++/14.2.1/bits/stl_algobase.h **** 
 376:/Applications/ArmGNUToolchain/14.2.rel1/arm-none-eabi/arm-none-eabi/include/c++/14.2.1/bits/stl_algobase.h **** #if __cplusplus >= 201103L
 377:/Applications/ArmGNUToolchain/14.2.rel1/arm-none-eabi/arm-none-eabi/include/c++/14.2.1/bits/stl_algobase.h ****   template<typename _Category>
 378:/Applications/ArmGNUToolchain/14.2.rel1/arm-none-eabi/arm-none-eabi/include/c++/14.2.1/bits/stl_algobase.h ****     struct __copy_move<true, false, _Category>
ARM GAS  /var/folders/y7/g6pkzsp12sx54x3s3mvyn15r0000gn/T//cceyOD7A.s 			page 18


 379:/Applications/ArmGNUToolchain/14.2.rel1/arm-none-eabi/arm-none-eabi/include/c++/14.2.1/bits/stl_algobase.h ****     {
 380:/Applications/ArmGNUToolchain/14.2.rel1/arm-none-eabi/arm-none-eabi/include/c++/14.2.1/bits/stl_algobase.h ****       template<typename _II, typename _OI>
 381:/Applications/ArmGNUToolchain/14.2.rel1/arm-none-eabi/arm-none-eabi/include/c++/14.2.1/bits/stl_algobase.h **** 	_GLIBCXX20_CONSTEXPR
 382:/Applications/ArmGNUToolchain/14.2.rel1/arm-none-eabi/arm-none-eabi/include/c++/14.2.1/bits/stl_algobase.h **** 	static _OI
 383:/Applications/ArmGNUToolchain/14.2.rel1/arm-none-eabi/arm-none-eabi/include/c++/14.2.1/bits/stl_algobase.h **** 	__copy_m(_II __first, _II __last, _OI __result)
 384:/Applications/ArmGNUToolchain/14.2.rel1/arm-none-eabi/arm-none-eabi/include/c++/14.2.1/bits/stl_algobase.h **** 	{
 385:/Applications/ArmGNUToolchain/14.2.rel1/arm-none-eabi/arm-none-eabi/include/c++/14.2.1/bits/stl_algobase.h **** 	  for (; __first != __last; ++__result, (void)++__first)
 386:/Applications/ArmGNUToolchain/14.2.rel1/arm-none-eabi/arm-none-eabi/include/c++/14.2.1/bits/stl_algobase.h **** 	    *__result = std::move(*__first);
 387:/Applications/ArmGNUToolchain/14.2.rel1/arm-none-eabi/arm-none-eabi/include/c++/14.2.1/bits/stl_algobase.h **** 	  return __result;
 388:/Applications/ArmGNUToolchain/14.2.rel1/arm-none-eabi/arm-none-eabi/include/c++/14.2.1/bits/stl_algobase.h **** 	}
 389:/Applications/ArmGNUToolchain/14.2.rel1/arm-none-eabi/arm-none-eabi/include/c++/14.2.1/bits/stl_algobase.h ****     };
 390:/Applications/ArmGNUToolchain/14.2.rel1/arm-none-eabi/arm-none-eabi/include/c++/14.2.1/bits/stl_algobase.h **** #endif
 391:/Applications/ArmGNUToolchain/14.2.rel1/arm-none-eabi/arm-none-eabi/include/c++/14.2.1/bits/stl_algobase.h **** 
 392:/Applications/ArmGNUToolchain/14.2.rel1/arm-none-eabi/arm-none-eabi/include/c++/14.2.1/bits/stl_algobase.h ****   template<>
 393:/Applications/ArmGNUToolchain/14.2.rel1/arm-none-eabi/arm-none-eabi/include/c++/14.2.1/bits/stl_algobase.h ****     struct __copy_move<false, false, random_access_iterator_tag>
 394:/Applications/ArmGNUToolchain/14.2.rel1/arm-none-eabi/arm-none-eabi/include/c++/14.2.1/bits/stl_algobase.h ****     {
 395:/Applications/ArmGNUToolchain/14.2.rel1/arm-none-eabi/arm-none-eabi/include/c++/14.2.1/bits/stl_algobase.h ****       template<typename _II, typename _OI>
 396:/Applications/ArmGNUToolchain/14.2.rel1/arm-none-eabi/arm-none-eabi/include/c++/14.2.1/bits/stl_algobase.h **** 	_GLIBCXX20_CONSTEXPR
 397:/Applications/ArmGNUToolchain/14.2.rel1/arm-none-eabi/arm-none-eabi/include/c++/14.2.1/bits/stl_algobase.h **** 	static _OI
 398:/Applications/ArmGNUToolchain/14.2.rel1/arm-none-eabi/arm-none-eabi/include/c++/14.2.1/bits/stl_algobase.h **** 	__copy_m(_II __first, _II __last, _OI __result)
 399:/Applications/ArmGNUToolchain/14.2.rel1/arm-none-eabi/arm-none-eabi/include/c++/14.2.1/bits/stl_algobase.h **** 	{
 400:/Applications/ArmGNUToolchain/14.2.rel1/arm-none-eabi/arm-none-eabi/include/c++/14.2.1/bits/stl_algobase.h **** 	  typedef typename iterator_traits<_II>::difference_type _Distance;
 401:/Applications/ArmGNUToolchain/14.2.rel1/arm-none-eabi/arm-none-eabi/include/c++/14.2.1/bits/stl_algobase.h **** 	  for(_Distance __n = __last - __first; __n > 0; --__n)
 402:/Applications/ArmGNUToolchain/14.2.rel1/arm-none-eabi/arm-none-eabi/include/c++/14.2.1/bits/stl_algobase.h **** 	    {
 403:/Applications/ArmGNUToolchain/14.2.rel1/arm-none-eabi/arm-none-eabi/include/c++/14.2.1/bits/stl_algobase.h **** 	      *__result = *__first;
 404:/Applications/ArmGNUToolchain/14.2.rel1/arm-none-eabi/arm-none-eabi/include/c++/14.2.1/bits/stl_algobase.h **** 	      ++__first;
 405:/Applications/ArmGNUToolchain/14.2.rel1/arm-none-eabi/arm-none-eabi/include/c++/14.2.1/bits/stl_algobase.h **** 	      ++__result;
 406:/Applications/ArmGNUToolchain/14.2.rel1/arm-none-eabi/arm-none-eabi/include/c++/14.2.1/bits/stl_algobase.h **** 	    }
 407:/Applications/ArmGNUToolchain/14.2.rel1/arm-none-eabi/arm-none-eabi/include/c++/14.2.1/bits/stl_algobase.h **** 	  return __result;
 408:/Applications/ArmGNUToolchain/14.2.rel1/arm-none-eabi/arm-none-eabi/include/c++/14.2.1/bits/stl_algobase.h **** 	}
 409:/Applications/ArmGNUToolchain/14.2.rel1/arm-none-eabi/arm-none-eabi/include/c++/14.2.1/bits/stl_algobase.h **** 
 410:/Applications/ArmGNUToolchain/14.2.rel1/arm-none-eabi/arm-none-eabi/include/c++/14.2.1/bits/stl_algobase.h ****       template<typename _Tp, typename _Up>
 411:/Applications/ArmGNUToolchain/14.2.rel1/arm-none-eabi/arm-none-eabi/include/c++/14.2.1/bits/stl_algobase.h **** 	static void
 412:/Applications/ArmGNUToolchain/14.2.rel1/arm-none-eabi/arm-none-eabi/include/c++/14.2.1/bits/stl_algobase.h **** 	__assign_one(_Tp* __to, _Up* __from)
 413:/Applications/ArmGNUToolchain/14.2.rel1/arm-none-eabi/arm-none-eabi/include/c++/14.2.1/bits/stl_algobase.h **** 	{ *__to = *__from; }
 414:/Applications/ArmGNUToolchain/14.2.rel1/arm-none-eabi/arm-none-eabi/include/c++/14.2.1/bits/stl_algobase.h ****     };
 415:/Applications/ArmGNUToolchain/14.2.rel1/arm-none-eabi/arm-none-eabi/include/c++/14.2.1/bits/stl_algobase.h **** 
 416:/Applications/ArmGNUToolchain/14.2.rel1/arm-none-eabi/arm-none-eabi/include/c++/14.2.1/bits/stl_algobase.h **** #if __cplusplus >= 201103L
 417:/Applications/ArmGNUToolchain/14.2.rel1/arm-none-eabi/arm-none-eabi/include/c++/14.2.1/bits/stl_algobase.h ****   template<>
 418:/Applications/ArmGNUToolchain/14.2.rel1/arm-none-eabi/arm-none-eabi/include/c++/14.2.1/bits/stl_algobase.h ****     struct __copy_move<true, false, random_access_iterator_tag>
 419:/Applications/ArmGNUToolchain/14.2.rel1/arm-none-eabi/arm-none-eabi/include/c++/14.2.1/bits/stl_algobase.h ****     {
 420:/Applications/ArmGNUToolchain/14.2.rel1/arm-none-eabi/arm-none-eabi/include/c++/14.2.1/bits/stl_algobase.h ****       template<typename _II, typename _OI>
 421:/Applications/ArmGNUToolchain/14.2.rel1/arm-none-eabi/arm-none-eabi/include/c++/14.2.1/bits/stl_algobase.h **** 	_GLIBCXX20_CONSTEXPR
 422:/Applications/ArmGNUToolchain/14.2.rel1/arm-none-eabi/arm-none-eabi/include/c++/14.2.1/bits/stl_algobase.h **** 	static _OI
 423:/Applications/ArmGNUToolchain/14.2.rel1/arm-none-eabi/arm-none-eabi/include/c++/14.2.1/bits/stl_algobase.h **** 	__copy_m(_II __first, _II __last, _OI __result)
 424:/Applications/ArmGNUToolchain/14.2.rel1/arm-none-eabi/arm-none-eabi/include/c++/14.2.1/bits/stl_algobase.h **** 	{
 425:/Applications/ArmGNUToolchain/14.2.rel1/arm-none-eabi/arm-none-eabi/include/c++/14.2.1/bits/stl_algobase.h **** 	  typedef typename iterator_traits<_II>::difference_type _Distance;
 426:/Applications/ArmGNUToolchain/14.2.rel1/arm-none-eabi/arm-none-eabi/include/c++/14.2.1/bits/stl_algobase.h **** 	  for(_Distance __n = __last - __first; __n > 0; --__n)
 427:/Applications/ArmGNUToolchain/14.2.rel1/arm-none-eabi/arm-none-eabi/include/c++/14.2.1/bits/stl_algobase.h **** 	    {
 428:/Applications/ArmGNUToolchain/14.2.rel1/arm-none-eabi/arm-none-eabi/include/c++/14.2.1/bits/stl_algobase.h **** 	      *__result = std::move(*__first);
 429:/Applications/ArmGNUToolchain/14.2.rel1/arm-none-eabi/arm-none-eabi/include/c++/14.2.1/bits/stl_algobase.h **** 	      ++__first;
 430:/Applications/ArmGNUToolchain/14.2.rel1/arm-none-eabi/arm-none-eabi/include/c++/14.2.1/bits/stl_algobase.h **** 	      ++__result;
 431:/Applications/ArmGNUToolchain/14.2.rel1/arm-none-eabi/arm-none-eabi/include/c++/14.2.1/bits/stl_algobase.h **** 	    }
 432:/Applications/ArmGNUToolchain/14.2.rel1/arm-none-eabi/arm-none-eabi/include/c++/14.2.1/bits/stl_algobase.h **** 	  return __result;
 433:/Applications/ArmGNUToolchain/14.2.rel1/arm-none-eabi/arm-none-eabi/include/c++/14.2.1/bits/stl_algobase.h **** 	}
 434:/Applications/ArmGNUToolchain/14.2.rel1/arm-none-eabi/arm-none-eabi/include/c++/14.2.1/bits/stl_algobase.h **** 
 435:/Applications/ArmGNUToolchain/14.2.rel1/arm-none-eabi/arm-none-eabi/include/c++/14.2.1/bits/stl_algobase.h ****       template<typename _Tp, typename _Up>
ARM GAS  /var/folders/y7/g6pkzsp12sx54x3s3mvyn15r0000gn/T//cceyOD7A.s 			page 19


 436:/Applications/ArmGNUToolchain/14.2.rel1/arm-none-eabi/arm-none-eabi/include/c++/14.2.1/bits/stl_algobase.h **** 	static void
 437:/Applications/ArmGNUToolchain/14.2.rel1/arm-none-eabi/arm-none-eabi/include/c++/14.2.1/bits/stl_algobase.h **** 	__assign_one(_Tp* __to, _Up* __from)
 438:/Applications/ArmGNUToolchain/14.2.rel1/arm-none-eabi/arm-none-eabi/include/c++/14.2.1/bits/stl_algobase.h **** 	{ *__to = std::move(*__from); }
 439:/Applications/ArmGNUToolchain/14.2.rel1/arm-none-eabi/arm-none-eabi/include/c++/14.2.1/bits/stl_algobase.h ****     };
 440:/Applications/ArmGNUToolchain/14.2.rel1/arm-none-eabi/arm-none-eabi/include/c++/14.2.1/bits/stl_algobase.h **** #endif
 441:/Applications/ArmGNUToolchain/14.2.rel1/arm-none-eabi/arm-none-eabi/include/c++/14.2.1/bits/stl_algobase.h **** 
 442:/Applications/ArmGNUToolchain/14.2.rel1/arm-none-eabi/arm-none-eabi/include/c++/14.2.1/bits/stl_algobase.h ****   template<bool _IsMove>
 443:/Applications/ArmGNUToolchain/14.2.rel1/arm-none-eabi/arm-none-eabi/include/c++/14.2.1/bits/stl_algobase.h ****     struct __copy_move<_IsMove, true, random_access_iterator_tag>
 444:/Applications/ArmGNUToolchain/14.2.rel1/arm-none-eabi/arm-none-eabi/include/c++/14.2.1/bits/stl_algobase.h ****     {
 445:/Applications/ArmGNUToolchain/14.2.rel1/arm-none-eabi/arm-none-eabi/include/c++/14.2.1/bits/stl_algobase.h ****       template<typename _Tp, typename _Up>
 446:/Applications/ArmGNUToolchain/14.2.rel1/arm-none-eabi/arm-none-eabi/include/c++/14.2.1/bits/stl_algobase.h **** 	_GLIBCXX20_CONSTEXPR
 447:/Applications/ArmGNUToolchain/14.2.rel1/arm-none-eabi/arm-none-eabi/include/c++/14.2.1/bits/stl_algobase.h **** 	static _Up*
 448:/Applications/ArmGNUToolchain/14.2.rel1/arm-none-eabi/arm-none-eabi/include/c++/14.2.1/bits/stl_algobase.h **** 	__copy_m(_Tp* __first, _Tp* __last, _Up* __result)
 449:/Applications/ArmGNUToolchain/14.2.rel1/arm-none-eabi/arm-none-eabi/include/c++/14.2.1/bits/stl_algobase.h **** 	{
 450:/Applications/ArmGNUToolchain/14.2.rel1/arm-none-eabi/arm-none-eabi/include/c++/14.2.1/bits/stl_algobase.h **** 	  const ptrdiff_t _Num = __last - __first;
 451:/Applications/ArmGNUToolchain/14.2.rel1/arm-none-eabi/arm-none-eabi/include/c++/14.2.1/bits/stl_algobase.h **** 	  if (__builtin_expect(_Num > 1, true))
 452:/Applications/ArmGNUToolchain/14.2.rel1/arm-none-eabi/arm-none-eabi/include/c++/14.2.1/bits/stl_algobase.h **** 	    __builtin_memmove(__result, __first, sizeof(_Tp) * _Num);
 453:/Applications/ArmGNUToolchain/14.2.rel1/arm-none-eabi/arm-none-eabi/include/c++/14.2.1/bits/stl_algobase.h **** 	  else if (_Num == 1)
 454:/Applications/ArmGNUToolchain/14.2.rel1/arm-none-eabi/arm-none-eabi/include/c++/14.2.1/bits/stl_algobase.h **** 	    std::__copy_move<_IsMove, false, random_access_iterator_tag>::
 455:/Applications/ArmGNUToolchain/14.2.rel1/arm-none-eabi/arm-none-eabi/include/c++/14.2.1/bits/stl_algobase.h **** 	      __assign_one(__result, __first);
 456:/Applications/ArmGNUToolchain/14.2.rel1/arm-none-eabi/arm-none-eabi/include/c++/14.2.1/bits/stl_algobase.h **** 	  return __result + _Num;
 457:/Applications/ArmGNUToolchain/14.2.rel1/arm-none-eabi/arm-none-eabi/include/c++/14.2.1/bits/stl_algobase.h **** 	}
 458:/Applications/ArmGNUToolchain/14.2.rel1/arm-none-eabi/arm-none-eabi/include/c++/14.2.1/bits/stl_algobase.h ****     };
 459:/Applications/ArmGNUToolchain/14.2.rel1/arm-none-eabi/arm-none-eabi/include/c++/14.2.1/bits/stl_algobase.h **** 
 460:/Applications/ArmGNUToolchain/14.2.rel1/arm-none-eabi/arm-none-eabi/include/c++/14.2.1/bits/stl_algobase.h **** _GLIBCXX_BEGIN_NAMESPACE_CONTAINER
 461:/Applications/ArmGNUToolchain/14.2.rel1/arm-none-eabi/arm-none-eabi/include/c++/14.2.1/bits/stl_algobase.h **** 
 462:/Applications/ArmGNUToolchain/14.2.rel1/arm-none-eabi/arm-none-eabi/include/c++/14.2.1/bits/stl_algobase.h ****   template<typename _Tp, typename _Ref, typename _Ptr>
 463:/Applications/ArmGNUToolchain/14.2.rel1/arm-none-eabi/arm-none-eabi/include/c++/14.2.1/bits/stl_algobase.h ****     struct _Deque_iterator;
 464:/Applications/ArmGNUToolchain/14.2.rel1/arm-none-eabi/arm-none-eabi/include/c++/14.2.1/bits/stl_algobase.h **** 
 465:/Applications/ArmGNUToolchain/14.2.rel1/arm-none-eabi/arm-none-eabi/include/c++/14.2.1/bits/stl_algobase.h ****   struct _Bit_iterator;
 466:/Applications/ArmGNUToolchain/14.2.rel1/arm-none-eabi/arm-none-eabi/include/c++/14.2.1/bits/stl_algobase.h **** 
 467:/Applications/ArmGNUToolchain/14.2.rel1/arm-none-eabi/arm-none-eabi/include/c++/14.2.1/bits/stl_algobase.h **** _GLIBCXX_END_NAMESPACE_CONTAINER
 468:/Applications/ArmGNUToolchain/14.2.rel1/arm-none-eabi/arm-none-eabi/include/c++/14.2.1/bits/stl_algobase.h **** 
 469:/Applications/ArmGNUToolchain/14.2.rel1/arm-none-eabi/arm-none-eabi/include/c++/14.2.1/bits/stl_algobase.h **** #if _GLIBCXX_HOSTED
 470:/Applications/ArmGNUToolchain/14.2.rel1/arm-none-eabi/arm-none-eabi/include/c++/14.2.1/bits/stl_algobase.h ****   // Helpers for streambuf iterators (either istream or ostream).
 471:/Applications/ArmGNUToolchain/14.2.rel1/arm-none-eabi/arm-none-eabi/include/c++/14.2.1/bits/stl_algobase.h ****   // NB: avoid including <iosfwd>, relatively large.
 472:/Applications/ArmGNUToolchain/14.2.rel1/arm-none-eabi/arm-none-eabi/include/c++/14.2.1/bits/stl_algobase.h ****   template<typename _CharT>
 473:/Applications/ArmGNUToolchain/14.2.rel1/arm-none-eabi/arm-none-eabi/include/c++/14.2.1/bits/stl_algobase.h ****     struct char_traits;
 474:/Applications/ArmGNUToolchain/14.2.rel1/arm-none-eabi/arm-none-eabi/include/c++/14.2.1/bits/stl_algobase.h **** 
 475:/Applications/ArmGNUToolchain/14.2.rel1/arm-none-eabi/arm-none-eabi/include/c++/14.2.1/bits/stl_algobase.h ****   template<typename _CharT, typename _Traits>
 476:/Applications/ArmGNUToolchain/14.2.rel1/arm-none-eabi/arm-none-eabi/include/c++/14.2.1/bits/stl_algobase.h ****     class istreambuf_iterator;
 477:/Applications/ArmGNUToolchain/14.2.rel1/arm-none-eabi/arm-none-eabi/include/c++/14.2.1/bits/stl_algobase.h **** 
 478:/Applications/ArmGNUToolchain/14.2.rel1/arm-none-eabi/arm-none-eabi/include/c++/14.2.1/bits/stl_algobase.h ****   template<typename _CharT, typename _Traits>
 479:/Applications/ArmGNUToolchain/14.2.rel1/arm-none-eabi/arm-none-eabi/include/c++/14.2.1/bits/stl_algobase.h ****     class ostreambuf_iterator;
 480:/Applications/ArmGNUToolchain/14.2.rel1/arm-none-eabi/arm-none-eabi/include/c++/14.2.1/bits/stl_algobase.h **** 
 481:/Applications/ArmGNUToolchain/14.2.rel1/arm-none-eabi/arm-none-eabi/include/c++/14.2.1/bits/stl_algobase.h ****   template<bool _IsMove, typename _CharT>
 482:/Applications/ArmGNUToolchain/14.2.rel1/arm-none-eabi/arm-none-eabi/include/c++/14.2.1/bits/stl_algobase.h ****     typename __gnu_cxx::__enable_if<__is_char<_CharT>::__value,
 483:/Applications/ArmGNUToolchain/14.2.rel1/arm-none-eabi/arm-none-eabi/include/c++/14.2.1/bits/stl_algobase.h **** 	     ostreambuf_iterator<_CharT, char_traits<_CharT> > >::__type
 484:/Applications/ArmGNUToolchain/14.2.rel1/arm-none-eabi/arm-none-eabi/include/c++/14.2.1/bits/stl_algobase.h ****     __copy_move_a2(_CharT*, _CharT*,
 485:/Applications/ArmGNUToolchain/14.2.rel1/arm-none-eabi/arm-none-eabi/include/c++/14.2.1/bits/stl_algobase.h **** 		   ostreambuf_iterator<_CharT, char_traits<_CharT> >);
 486:/Applications/ArmGNUToolchain/14.2.rel1/arm-none-eabi/arm-none-eabi/include/c++/14.2.1/bits/stl_algobase.h **** 
 487:/Applications/ArmGNUToolchain/14.2.rel1/arm-none-eabi/arm-none-eabi/include/c++/14.2.1/bits/stl_algobase.h ****   template<bool _IsMove, typename _CharT>
 488:/Applications/ArmGNUToolchain/14.2.rel1/arm-none-eabi/arm-none-eabi/include/c++/14.2.1/bits/stl_algobase.h ****     typename __gnu_cxx::__enable_if<__is_char<_CharT>::__value,
 489:/Applications/ArmGNUToolchain/14.2.rel1/arm-none-eabi/arm-none-eabi/include/c++/14.2.1/bits/stl_algobase.h **** 	     ostreambuf_iterator<_CharT, char_traits<_CharT> > >::__type
 490:/Applications/ArmGNUToolchain/14.2.rel1/arm-none-eabi/arm-none-eabi/include/c++/14.2.1/bits/stl_algobase.h ****     __copy_move_a2(const _CharT*, const _CharT*,
 491:/Applications/ArmGNUToolchain/14.2.rel1/arm-none-eabi/arm-none-eabi/include/c++/14.2.1/bits/stl_algobase.h **** 		   ostreambuf_iterator<_CharT, char_traits<_CharT> >);
 492:/Applications/ArmGNUToolchain/14.2.rel1/arm-none-eabi/arm-none-eabi/include/c++/14.2.1/bits/stl_algobase.h **** 
ARM GAS  /var/folders/y7/g6pkzsp12sx54x3s3mvyn15r0000gn/T//cceyOD7A.s 			page 20


 493:/Applications/ArmGNUToolchain/14.2.rel1/arm-none-eabi/arm-none-eabi/include/c++/14.2.1/bits/stl_algobase.h ****   template<bool _IsMove, typename _CharT>
 494:/Applications/ArmGNUToolchain/14.2.rel1/arm-none-eabi/arm-none-eabi/include/c++/14.2.1/bits/stl_algobase.h ****     typename __gnu_cxx::__enable_if<__is_char<_CharT>::__value,
 495:/Applications/ArmGNUToolchain/14.2.rel1/arm-none-eabi/arm-none-eabi/include/c++/14.2.1/bits/stl_algobase.h **** 				    _CharT*>::__type
 496:/Applications/ArmGNUToolchain/14.2.rel1/arm-none-eabi/arm-none-eabi/include/c++/14.2.1/bits/stl_algobase.h ****     __copy_move_a2(istreambuf_iterator<_CharT, char_traits<_CharT> >,
 497:/Applications/ArmGNUToolchain/14.2.rel1/arm-none-eabi/arm-none-eabi/include/c++/14.2.1/bits/stl_algobase.h **** 		   istreambuf_iterator<_CharT, char_traits<_CharT> >, _CharT*);
 498:/Applications/ArmGNUToolchain/14.2.rel1/arm-none-eabi/arm-none-eabi/include/c++/14.2.1/bits/stl_algobase.h **** 
 499:/Applications/ArmGNUToolchain/14.2.rel1/arm-none-eabi/arm-none-eabi/include/c++/14.2.1/bits/stl_algobase.h ****   template<bool _IsMove, typename _CharT>
 500:/Applications/ArmGNUToolchain/14.2.rel1/arm-none-eabi/arm-none-eabi/include/c++/14.2.1/bits/stl_algobase.h ****     typename __gnu_cxx::__enable_if<
 501:/Applications/ArmGNUToolchain/14.2.rel1/arm-none-eabi/arm-none-eabi/include/c++/14.2.1/bits/stl_algobase.h ****       __is_char<_CharT>::__value,
 502:/Applications/ArmGNUToolchain/14.2.rel1/arm-none-eabi/arm-none-eabi/include/c++/14.2.1/bits/stl_algobase.h ****       _GLIBCXX_STD_C::_Deque_iterator<_CharT, _CharT&, _CharT*> >::__type
 503:/Applications/ArmGNUToolchain/14.2.rel1/arm-none-eabi/arm-none-eabi/include/c++/14.2.1/bits/stl_algobase.h ****     __copy_move_a2(
 504:/Applications/ArmGNUToolchain/14.2.rel1/arm-none-eabi/arm-none-eabi/include/c++/14.2.1/bits/stl_algobase.h **** 	istreambuf_iterator<_CharT, char_traits<_CharT> >,
 505:/Applications/ArmGNUToolchain/14.2.rel1/arm-none-eabi/arm-none-eabi/include/c++/14.2.1/bits/stl_algobase.h **** 	istreambuf_iterator<_CharT, char_traits<_CharT> >,
 506:/Applications/ArmGNUToolchain/14.2.rel1/arm-none-eabi/arm-none-eabi/include/c++/14.2.1/bits/stl_algobase.h **** 	_GLIBCXX_STD_C::_Deque_iterator<_CharT, _CharT&, _CharT*>);
 507:/Applications/ArmGNUToolchain/14.2.rel1/arm-none-eabi/arm-none-eabi/include/c++/14.2.1/bits/stl_algobase.h **** #endif // HOSTED
 508:/Applications/ArmGNUToolchain/14.2.rel1/arm-none-eabi/arm-none-eabi/include/c++/14.2.1/bits/stl_algobase.h **** 
 509:/Applications/ArmGNUToolchain/14.2.rel1/arm-none-eabi/arm-none-eabi/include/c++/14.2.1/bits/stl_algobase.h ****   template<bool _IsMove, typename _II, typename _OI>
 510:/Applications/ArmGNUToolchain/14.2.rel1/arm-none-eabi/arm-none-eabi/include/c++/14.2.1/bits/stl_algobase.h ****     _GLIBCXX20_CONSTEXPR
 511:/Applications/ArmGNUToolchain/14.2.rel1/arm-none-eabi/arm-none-eabi/include/c++/14.2.1/bits/stl_algobase.h ****     inline _OI
 512:/Applications/ArmGNUToolchain/14.2.rel1/arm-none-eabi/arm-none-eabi/include/c++/14.2.1/bits/stl_algobase.h ****     __copy_move_a2(_II __first, _II __last, _OI __result)
 513:/Applications/ArmGNUToolchain/14.2.rel1/arm-none-eabi/arm-none-eabi/include/c++/14.2.1/bits/stl_algobase.h ****     {
 514:/Applications/ArmGNUToolchain/14.2.rel1/arm-none-eabi/arm-none-eabi/include/c++/14.2.1/bits/stl_algobase.h ****       typedef typename iterator_traits<_II>::iterator_category _Category;
 515:/Applications/ArmGNUToolchain/14.2.rel1/arm-none-eabi/arm-none-eabi/include/c++/14.2.1/bits/stl_algobase.h **** #ifdef __cpp_lib_is_constant_evaluated
 516:/Applications/ArmGNUToolchain/14.2.rel1/arm-none-eabi/arm-none-eabi/include/c++/14.2.1/bits/stl_algobase.h ****       if (std::is_constant_evaluated())
 517:/Applications/ArmGNUToolchain/14.2.rel1/arm-none-eabi/arm-none-eabi/include/c++/14.2.1/bits/stl_algobase.h **** 	return std::__copy_move<_IsMove, false, _Category>::
 518:/Applications/ArmGNUToolchain/14.2.rel1/arm-none-eabi/arm-none-eabi/include/c++/14.2.1/bits/stl_algobase.h **** 	  __copy_m(__first, __last, __result);
 519:/Applications/ArmGNUToolchain/14.2.rel1/arm-none-eabi/arm-none-eabi/include/c++/14.2.1/bits/stl_algobase.h **** #endif
 520:/Applications/ArmGNUToolchain/14.2.rel1/arm-none-eabi/arm-none-eabi/include/c++/14.2.1/bits/stl_algobase.h ****       return std::__copy_move<_IsMove, __memcpyable<_OI, _II>::__value,
 521:/Applications/ArmGNUToolchain/14.2.rel1/arm-none-eabi/arm-none-eabi/include/c++/14.2.1/bits/stl_algobase.h **** 			      _Category>::__copy_m(__first, __last, __result);
 522:/Applications/ArmGNUToolchain/14.2.rel1/arm-none-eabi/arm-none-eabi/include/c++/14.2.1/bits/stl_algobase.h ****     }
 523:/Applications/ArmGNUToolchain/14.2.rel1/arm-none-eabi/arm-none-eabi/include/c++/14.2.1/bits/stl_algobase.h **** 
 524:/Applications/ArmGNUToolchain/14.2.rel1/arm-none-eabi/arm-none-eabi/include/c++/14.2.1/bits/stl_algobase.h ****   template<bool _IsMove,
 525:/Applications/ArmGNUToolchain/14.2.rel1/arm-none-eabi/arm-none-eabi/include/c++/14.2.1/bits/stl_algobase.h **** 	   typename _Tp, typename _Ref, typename _Ptr, typename _OI>
 526:/Applications/ArmGNUToolchain/14.2.rel1/arm-none-eabi/arm-none-eabi/include/c++/14.2.1/bits/stl_algobase.h ****     _OI
 527:/Applications/ArmGNUToolchain/14.2.rel1/arm-none-eabi/arm-none-eabi/include/c++/14.2.1/bits/stl_algobase.h ****     __copy_move_a1(_GLIBCXX_STD_C::_Deque_iterator<_Tp, _Ref, _Ptr>,
 528:/Applications/ArmGNUToolchain/14.2.rel1/arm-none-eabi/arm-none-eabi/include/c++/14.2.1/bits/stl_algobase.h **** 		   _GLIBCXX_STD_C::_Deque_iterator<_Tp, _Ref, _Ptr>,
 529:/Applications/ArmGNUToolchain/14.2.rel1/arm-none-eabi/arm-none-eabi/include/c++/14.2.1/bits/stl_algobase.h **** 		   _OI);
 530:/Applications/ArmGNUToolchain/14.2.rel1/arm-none-eabi/arm-none-eabi/include/c++/14.2.1/bits/stl_algobase.h **** 
 531:/Applications/ArmGNUToolchain/14.2.rel1/arm-none-eabi/arm-none-eabi/include/c++/14.2.1/bits/stl_algobase.h ****   template<bool _IsMove,
 532:/Applications/ArmGNUToolchain/14.2.rel1/arm-none-eabi/arm-none-eabi/include/c++/14.2.1/bits/stl_algobase.h **** 	   typename _ITp, typename _IRef, typename _IPtr, typename _OTp>
 533:/Applications/ArmGNUToolchain/14.2.rel1/arm-none-eabi/arm-none-eabi/include/c++/14.2.1/bits/stl_algobase.h ****     _GLIBCXX_STD_C::_Deque_iterator<_OTp, _OTp&, _OTp*>
 534:/Applications/ArmGNUToolchain/14.2.rel1/arm-none-eabi/arm-none-eabi/include/c++/14.2.1/bits/stl_algobase.h ****     __copy_move_a1(_GLIBCXX_STD_C::_Deque_iterator<_ITp, _IRef, _IPtr>,
 535:/Applications/ArmGNUToolchain/14.2.rel1/arm-none-eabi/arm-none-eabi/include/c++/14.2.1/bits/stl_algobase.h **** 		   _GLIBCXX_STD_C::_Deque_iterator<_ITp, _IRef, _IPtr>,
 536:/Applications/ArmGNUToolchain/14.2.rel1/arm-none-eabi/arm-none-eabi/include/c++/14.2.1/bits/stl_algobase.h **** 		   _GLIBCXX_STD_C::_Deque_iterator<_OTp, _OTp&, _OTp*>);
 537:/Applications/ArmGNUToolchain/14.2.rel1/arm-none-eabi/arm-none-eabi/include/c++/14.2.1/bits/stl_algobase.h **** 
 538:/Applications/ArmGNUToolchain/14.2.rel1/arm-none-eabi/arm-none-eabi/include/c++/14.2.1/bits/stl_algobase.h ****   template<bool _IsMove, typename _II, typename _Tp>
 539:/Applications/ArmGNUToolchain/14.2.rel1/arm-none-eabi/arm-none-eabi/include/c++/14.2.1/bits/stl_algobase.h ****     typename __gnu_cxx::__enable_if<
 540:/Applications/ArmGNUToolchain/14.2.rel1/arm-none-eabi/arm-none-eabi/include/c++/14.2.1/bits/stl_algobase.h ****       __is_random_access_iter<_II>::__value,
 541:/Applications/ArmGNUToolchain/14.2.rel1/arm-none-eabi/arm-none-eabi/include/c++/14.2.1/bits/stl_algobase.h ****       _GLIBCXX_STD_C::_Deque_iterator<_Tp, _Tp&, _Tp*> >::__type
 542:/Applications/ArmGNUToolchain/14.2.rel1/arm-none-eabi/arm-none-eabi/include/c++/14.2.1/bits/stl_algobase.h ****     __copy_move_a1(_II, _II, _GLIBCXX_STD_C::_Deque_iterator<_Tp, _Tp&, _Tp*>);
 543:/Applications/ArmGNUToolchain/14.2.rel1/arm-none-eabi/arm-none-eabi/include/c++/14.2.1/bits/stl_algobase.h **** 
 544:/Applications/ArmGNUToolchain/14.2.rel1/arm-none-eabi/arm-none-eabi/include/c++/14.2.1/bits/stl_algobase.h ****   template<bool _IsMove, typename _II, typename _OI>
 545:/Applications/ArmGNUToolchain/14.2.rel1/arm-none-eabi/arm-none-eabi/include/c++/14.2.1/bits/stl_algobase.h ****     _GLIBCXX20_CONSTEXPR
 546:/Applications/ArmGNUToolchain/14.2.rel1/arm-none-eabi/arm-none-eabi/include/c++/14.2.1/bits/stl_algobase.h ****     inline _OI
 547:/Applications/ArmGNUToolchain/14.2.rel1/arm-none-eabi/arm-none-eabi/include/c++/14.2.1/bits/stl_algobase.h ****     __copy_move_a1(_II __first, _II __last, _OI __result)
 548:/Applications/ArmGNUToolchain/14.2.rel1/arm-none-eabi/arm-none-eabi/include/c++/14.2.1/bits/stl_algobase.h ****     { return std::__copy_move_a2<_IsMove>(__first, __last, __result); }
 549:/Applications/ArmGNUToolchain/14.2.rel1/arm-none-eabi/arm-none-eabi/include/c++/14.2.1/bits/stl_algobase.h **** 
ARM GAS  /var/folders/y7/g6pkzsp12sx54x3s3mvyn15r0000gn/T//cceyOD7A.s 			page 21


 550:/Applications/ArmGNUToolchain/14.2.rel1/arm-none-eabi/arm-none-eabi/include/c++/14.2.1/bits/stl_algobase.h ****   template<bool _IsMove, typename _II, typename _OI>
 551:/Applications/ArmGNUToolchain/14.2.rel1/arm-none-eabi/arm-none-eabi/include/c++/14.2.1/bits/stl_algobase.h ****     _GLIBCXX20_CONSTEXPR
 552:/Applications/ArmGNUToolchain/14.2.rel1/arm-none-eabi/arm-none-eabi/include/c++/14.2.1/bits/stl_algobase.h ****     inline _OI
 553:/Applications/ArmGNUToolchain/14.2.rel1/arm-none-eabi/arm-none-eabi/include/c++/14.2.1/bits/stl_algobase.h ****     __copy_move_a(_II __first, _II __last, _OI __result)
 554:/Applications/ArmGNUToolchain/14.2.rel1/arm-none-eabi/arm-none-eabi/include/c++/14.2.1/bits/stl_algobase.h ****     {
 555:/Applications/ArmGNUToolchain/14.2.rel1/arm-none-eabi/arm-none-eabi/include/c++/14.2.1/bits/stl_algobase.h ****       return std::__niter_wrap(__result,
 556:/Applications/ArmGNUToolchain/14.2.rel1/arm-none-eabi/arm-none-eabi/include/c++/14.2.1/bits/stl_algobase.h **** 		std::__copy_move_a1<_IsMove>(std::__niter_base(__first),
 557:/Applications/ArmGNUToolchain/14.2.rel1/arm-none-eabi/arm-none-eabi/include/c++/14.2.1/bits/stl_algobase.h **** 					     std::__niter_base(__last),
 558:/Applications/ArmGNUToolchain/14.2.rel1/arm-none-eabi/arm-none-eabi/include/c++/14.2.1/bits/stl_algobase.h **** 					     std::__niter_base(__result)));
 559:/Applications/ArmGNUToolchain/14.2.rel1/arm-none-eabi/arm-none-eabi/include/c++/14.2.1/bits/stl_algobase.h ****     }
 560:/Applications/ArmGNUToolchain/14.2.rel1/arm-none-eabi/arm-none-eabi/include/c++/14.2.1/bits/stl_algobase.h **** 
 561:/Applications/ArmGNUToolchain/14.2.rel1/arm-none-eabi/arm-none-eabi/include/c++/14.2.1/bits/stl_algobase.h ****   template<bool _IsMove,
 562:/Applications/ArmGNUToolchain/14.2.rel1/arm-none-eabi/arm-none-eabi/include/c++/14.2.1/bits/stl_algobase.h **** 	   typename _Ite, typename _Seq, typename _Cat, typename _OI>
 563:/Applications/ArmGNUToolchain/14.2.rel1/arm-none-eabi/arm-none-eabi/include/c++/14.2.1/bits/stl_algobase.h ****     _GLIBCXX20_CONSTEXPR
 564:/Applications/ArmGNUToolchain/14.2.rel1/arm-none-eabi/arm-none-eabi/include/c++/14.2.1/bits/stl_algobase.h ****     _OI
 565:/Applications/ArmGNUToolchain/14.2.rel1/arm-none-eabi/arm-none-eabi/include/c++/14.2.1/bits/stl_algobase.h ****     __copy_move_a(const ::__gnu_debug::_Safe_iterator<_Ite, _Seq, _Cat>&,
 566:/Applications/ArmGNUToolchain/14.2.rel1/arm-none-eabi/arm-none-eabi/include/c++/14.2.1/bits/stl_algobase.h **** 		  const ::__gnu_debug::_Safe_iterator<_Ite, _Seq, _Cat>&,
 567:/Applications/ArmGNUToolchain/14.2.rel1/arm-none-eabi/arm-none-eabi/include/c++/14.2.1/bits/stl_algobase.h **** 		  _OI);
 568:/Applications/ArmGNUToolchain/14.2.rel1/arm-none-eabi/arm-none-eabi/include/c++/14.2.1/bits/stl_algobase.h **** 
 569:/Applications/ArmGNUToolchain/14.2.rel1/arm-none-eabi/arm-none-eabi/include/c++/14.2.1/bits/stl_algobase.h ****   template<bool _IsMove,
 570:/Applications/ArmGNUToolchain/14.2.rel1/arm-none-eabi/arm-none-eabi/include/c++/14.2.1/bits/stl_algobase.h **** 	   typename _II, typename _Ite, typename _Seq, typename _Cat>
 571:/Applications/ArmGNUToolchain/14.2.rel1/arm-none-eabi/arm-none-eabi/include/c++/14.2.1/bits/stl_algobase.h ****     _GLIBCXX20_CONSTEXPR
 572:/Applications/ArmGNUToolchain/14.2.rel1/arm-none-eabi/arm-none-eabi/include/c++/14.2.1/bits/stl_algobase.h ****     __gnu_debug::_Safe_iterator<_Ite, _Seq, _Cat>
 573:/Applications/ArmGNUToolchain/14.2.rel1/arm-none-eabi/arm-none-eabi/include/c++/14.2.1/bits/stl_algobase.h ****     __copy_move_a(_II, _II,
 574:/Applications/ArmGNUToolchain/14.2.rel1/arm-none-eabi/arm-none-eabi/include/c++/14.2.1/bits/stl_algobase.h **** 		  const ::__gnu_debug::_Safe_iterator<_Ite, _Seq, _Cat>&);
 575:/Applications/ArmGNUToolchain/14.2.rel1/arm-none-eabi/arm-none-eabi/include/c++/14.2.1/bits/stl_algobase.h **** 
 576:/Applications/ArmGNUToolchain/14.2.rel1/arm-none-eabi/arm-none-eabi/include/c++/14.2.1/bits/stl_algobase.h ****   template<bool _IsMove,
 577:/Applications/ArmGNUToolchain/14.2.rel1/arm-none-eabi/arm-none-eabi/include/c++/14.2.1/bits/stl_algobase.h **** 	   typename _IIte, typename _ISeq, typename _ICat,
 578:/Applications/ArmGNUToolchain/14.2.rel1/arm-none-eabi/arm-none-eabi/include/c++/14.2.1/bits/stl_algobase.h **** 	   typename _OIte, typename _OSeq, typename _OCat>
 579:/Applications/ArmGNUToolchain/14.2.rel1/arm-none-eabi/arm-none-eabi/include/c++/14.2.1/bits/stl_algobase.h ****     _GLIBCXX20_CONSTEXPR
 580:/Applications/ArmGNUToolchain/14.2.rel1/arm-none-eabi/arm-none-eabi/include/c++/14.2.1/bits/stl_algobase.h ****     ::__gnu_debug::_Safe_iterator<_OIte, _OSeq, _OCat>
 581:/Applications/ArmGNUToolchain/14.2.rel1/arm-none-eabi/arm-none-eabi/include/c++/14.2.1/bits/stl_algobase.h ****     __copy_move_a(const ::__gnu_debug::_Safe_iterator<_IIte, _ISeq, _ICat>&,
 582:/Applications/ArmGNUToolchain/14.2.rel1/arm-none-eabi/arm-none-eabi/include/c++/14.2.1/bits/stl_algobase.h **** 		  const ::__gnu_debug::_Safe_iterator<_IIte, _ISeq, _ICat>&,
 583:/Applications/ArmGNUToolchain/14.2.rel1/arm-none-eabi/arm-none-eabi/include/c++/14.2.1/bits/stl_algobase.h **** 		  const ::__gnu_debug::_Safe_iterator<_OIte, _OSeq, _OCat>&);
 584:/Applications/ArmGNUToolchain/14.2.rel1/arm-none-eabi/arm-none-eabi/include/c++/14.2.1/bits/stl_algobase.h **** 
 585:/Applications/ArmGNUToolchain/14.2.rel1/arm-none-eabi/arm-none-eabi/include/c++/14.2.1/bits/stl_algobase.h ****   template<typename _InputIterator, typename _Size, typename _OutputIterator>
 586:/Applications/ArmGNUToolchain/14.2.rel1/arm-none-eabi/arm-none-eabi/include/c++/14.2.1/bits/stl_algobase.h ****     _GLIBCXX20_CONSTEXPR
 587:/Applications/ArmGNUToolchain/14.2.rel1/arm-none-eabi/arm-none-eabi/include/c++/14.2.1/bits/stl_algobase.h ****     _OutputIterator
 588:/Applications/ArmGNUToolchain/14.2.rel1/arm-none-eabi/arm-none-eabi/include/c++/14.2.1/bits/stl_algobase.h ****     __copy_n_a(_InputIterator __first, _Size __n, _OutputIterator __result,
 589:/Applications/ArmGNUToolchain/14.2.rel1/arm-none-eabi/arm-none-eabi/include/c++/14.2.1/bits/stl_algobase.h **** 	       bool)
 590:/Applications/ArmGNUToolchain/14.2.rel1/arm-none-eabi/arm-none-eabi/include/c++/14.2.1/bits/stl_algobase.h ****     {
 591:/Applications/ArmGNUToolchain/14.2.rel1/arm-none-eabi/arm-none-eabi/include/c++/14.2.1/bits/stl_algobase.h ****       if (__n > 0)
 592:/Applications/ArmGNUToolchain/14.2.rel1/arm-none-eabi/arm-none-eabi/include/c++/14.2.1/bits/stl_algobase.h **** 	{
 593:/Applications/ArmGNUToolchain/14.2.rel1/arm-none-eabi/arm-none-eabi/include/c++/14.2.1/bits/stl_algobase.h **** 	  while (true)
 594:/Applications/ArmGNUToolchain/14.2.rel1/arm-none-eabi/arm-none-eabi/include/c++/14.2.1/bits/stl_algobase.h **** 	    {
 595:/Applications/ArmGNUToolchain/14.2.rel1/arm-none-eabi/arm-none-eabi/include/c++/14.2.1/bits/stl_algobase.h **** 	      *__result = *__first;
 596:/Applications/ArmGNUToolchain/14.2.rel1/arm-none-eabi/arm-none-eabi/include/c++/14.2.1/bits/stl_algobase.h **** 	      ++__result;
 597:/Applications/ArmGNUToolchain/14.2.rel1/arm-none-eabi/arm-none-eabi/include/c++/14.2.1/bits/stl_algobase.h **** 	      if (--__n > 0)
 598:/Applications/ArmGNUToolchain/14.2.rel1/arm-none-eabi/arm-none-eabi/include/c++/14.2.1/bits/stl_algobase.h **** 		++__first;
 599:/Applications/ArmGNUToolchain/14.2.rel1/arm-none-eabi/arm-none-eabi/include/c++/14.2.1/bits/stl_algobase.h **** 	      else
 600:/Applications/ArmGNUToolchain/14.2.rel1/arm-none-eabi/arm-none-eabi/include/c++/14.2.1/bits/stl_algobase.h **** 		break;
 601:/Applications/ArmGNUToolchain/14.2.rel1/arm-none-eabi/arm-none-eabi/include/c++/14.2.1/bits/stl_algobase.h **** 	    }
 602:/Applications/ArmGNUToolchain/14.2.rel1/arm-none-eabi/arm-none-eabi/include/c++/14.2.1/bits/stl_algobase.h **** 	}
 603:/Applications/ArmGNUToolchain/14.2.rel1/arm-none-eabi/arm-none-eabi/include/c++/14.2.1/bits/stl_algobase.h ****       return __result;
 604:/Applications/ArmGNUToolchain/14.2.rel1/arm-none-eabi/arm-none-eabi/include/c++/14.2.1/bits/stl_algobase.h ****     }
 605:/Applications/ArmGNUToolchain/14.2.rel1/arm-none-eabi/arm-none-eabi/include/c++/14.2.1/bits/stl_algobase.h **** 
 606:/Applications/ArmGNUToolchain/14.2.rel1/arm-none-eabi/arm-none-eabi/include/c++/14.2.1/bits/stl_algobase.h **** #if _GLIBCXX_HOSTED
ARM GAS  /var/folders/y7/g6pkzsp12sx54x3s3mvyn15r0000gn/T//cceyOD7A.s 			page 22


 607:/Applications/ArmGNUToolchain/14.2.rel1/arm-none-eabi/arm-none-eabi/include/c++/14.2.1/bits/stl_algobase.h ****   template<typename _CharT, typename _Size>
 608:/Applications/ArmGNUToolchain/14.2.rel1/arm-none-eabi/arm-none-eabi/include/c++/14.2.1/bits/stl_algobase.h ****     typename __gnu_cxx::__enable_if<
 609:/Applications/ArmGNUToolchain/14.2.rel1/arm-none-eabi/arm-none-eabi/include/c++/14.2.1/bits/stl_algobase.h ****       __is_char<_CharT>::__value, _CharT*>::__type
 610:/Applications/ArmGNUToolchain/14.2.rel1/arm-none-eabi/arm-none-eabi/include/c++/14.2.1/bits/stl_algobase.h ****     __copy_n_a(istreambuf_iterator<_CharT, char_traits<_CharT> >,
 611:/Applications/ArmGNUToolchain/14.2.rel1/arm-none-eabi/arm-none-eabi/include/c++/14.2.1/bits/stl_algobase.h **** 	       _Size, _CharT*, bool);
 612:/Applications/ArmGNUToolchain/14.2.rel1/arm-none-eabi/arm-none-eabi/include/c++/14.2.1/bits/stl_algobase.h **** 
 613:/Applications/ArmGNUToolchain/14.2.rel1/arm-none-eabi/arm-none-eabi/include/c++/14.2.1/bits/stl_algobase.h ****   template<typename _CharT, typename _Size>
 614:/Applications/ArmGNUToolchain/14.2.rel1/arm-none-eabi/arm-none-eabi/include/c++/14.2.1/bits/stl_algobase.h ****     typename __gnu_cxx::__enable_if<
 615:/Applications/ArmGNUToolchain/14.2.rel1/arm-none-eabi/arm-none-eabi/include/c++/14.2.1/bits/stl_algobase.h ****       __is_char<_CharT>::__value,
 616:/Applications/ArmGNUToolchain/14.2.rel1/arm-none-eabi/arm-none-eabi/include/c++/14.2.1/bits/stl_algobase.h ****       _GLIBCXX_STD_C::_Deque_iterator<_CharT, _CharT&, _CharT*> >::__type
 617:/Applications/ArmGNUToolchain/14.2.rel1/arm-none-eabi/arm-none-eabi/include/c++/14.2.1/bits/stl_algobase.h ****     __copy_n_a(istreambuf_iterator<_CharT, char_traits<_CharT> >, _Size,
 618:/Applications/ArmGNUToolchain/14.2.rel1/arm-none-eabi/arm-none-eabi/include/c++/14.2.1/bits/stl_algobase.h **** 	       _GLIBCXX_STD_C::_Deque_iterator<_CharT, _CharT&, _CharT*>,
 619:/Applications/ArmGNUToolchain/14.2.rel1/arm-none-eabi/arm-none-eabi/include/c++/14.2.1/bits/stl_algobase.h **** 	       bool);
 620:/Applications/ArmGNUToolchain/14.2.rel1/arm-none-eabi/arm-none-eabi/include/c++/14.2.1/bits/stl_algobase.h **** #endif
 621:/Applications/ArmGNUToolchain/14.2.rel1/arm-none-eabi/arm-none-eabi/include/c++/14.2.1/bits/stl_algobase.h **** 
 622:/Applications/ArmGNUToolchain/14.2.rel1/arm-none-eabi/arm-none-eabi/include/c++/14.2.1/bits/stl_algobase.h ****   /**
 623:/Applications/ArmGNUToolchain/14.2.rel1/arm-none-eabi/arm-none-eabi/include/c++/14.2.1/bits/stl_algobase.h ****    *  @brief Copies the range [first,last) into result.
 624:/Applications/ArmGNUToolchain/14.2.rel1/arm-none-eabi/arm-none-eabi/include/c++/14.2.1/bits/stl_algobase.h ****    *  @ingroup mutating_algorithms
 625:/Applications/ArmGNUToolchain/14.2.rel1/arm-none-eabi/arm-none-eabi/include/c++/14.2.1/bits/stl_algobase.h ****    *  @param  __first  An input iterator.
 626:/Applications/ArmGNUToolchain/14.2.rel1/arm-none-eabi/arm-none-eabi/include/c++/14.2.1/bits/stl_algobase.h ****    *  @param  __last   An input iterator.
 627:/Applications/ArmGNUToolchain/14.2.rel1/arm-none-eabi/arm-none-eabi/include/c++/14.2.1/bits/stl_algobase.h ****    *  @param  __result An output iterator.
 628:/Applications/ArmGNUToolchain/14.2.rel1/arm-none-eabi/arm-none-eabi/include/c++/14.2.1/bits/stl_algobase.h ****    *  @return   result + (last - first)
 629:/Applications/ArmGNUToolchain/14.2.rel1/arm-none-eabi/arm-none-eabi/include/c++/14.2.1/bits/stl_algobase.h ****    *
 630:/Applications/ArmGNUToolchain/14.2.rel1/arm-none-eabi/arm-none-eabi/include/c++/14.2.1/bits/stl_algobase.h ****    *  This inline function will boil down to a call to @c memmove whenever
 631:/Applications/ArmGNUToolchain/14.2.rel1/arm-none-eabi/arm-none-eabi/include/c++/14.2.1/bits/stl_algobase.h ****    *  possible.  Failing that, if random access iterators are passed, then the
 632:/Applications/ArmGNUToolchain/14.2.rel1/arm-none-eabi/arm-none-eabi/include/c++/14.2.1/bits/stl_algobase.h ****    *  loop count will be known (and therefore a candidate for compiler
 633:/Applications/ArmGNUToolchain/14.2.rel1/arm-none-eabi/arm-none-eabi/include/c++/14.2.1/bits/stl_algobase.h ****    *  optimizations such as unrolling).  Result may not be contained within
 634:/Applications/ArmGNUToolchain/14.2.rel1/arm-none-eabi/arm-none-eabi/include/c++/14.2.1/bits/stl_algobase.h ****    *  [first,last); the copy_backward function should be used instead.
 635:/Applications/ArmGNUToolchain/14.2.rel1/arm-none-eabi/arm-none-eabi/include/c++/14.2.1/bits/stl_algobase.h ****    *
 636:/Applications/ArmGNUToolchain/14.2.rel1/arm-none-eabi/arm-none-eabi/include/c++/14.2.1/bits/stl_algobase.h ****    *  Note that the end of the output range is permitted to be contained
 637:/Applications/ArmGNUToolchain/14.2.rel1/arm-none-eabi/arm-none-eabi/include/c++/14.2.1/bits/stl_algobase.h ****    *  within [first,last).
 638:/Applications/ArmGNUToolchain/14.2.rel1/arm-none-eabi/arm-none-eabi/include/c++/14.2.1/bits/stl_algobase.h ****   */
 639:/Applications/ArmGNUToolchain/14.2.rel1/arm-none-eabi/arm-none-eabi/include/c++/14.2.1/bits/stl_algobase.h ****   template<typename _II, typename _OI>
 640:/Applications/ArmGNUToolchain/14.2.rel1/arm-none-eabi/arm-none-eabi/include/c++/14.2.1/bits/stl_algobase.h ****     _GLIBCXX20_CONSTEXPR
 641:/Applications/ArmGNUToolchain/14.2.rel1/arm-none-eabi/arm-none-eabi/include/c++/14.2.1/bits/stl_algobase.h ****     inline _OI
 642:/Applications/ArmGNUToolchain/14.2.rel1/arm-none-eabi/arm-none-eabi/include/c++/14.2.1/bits/stl_algobase.h ****     copy(_II __first, _II __last, _OI __result)
 643:/Applications/ArmGNUToolchain/14.2.rel1/arm-none-eabi/arm-none-eabi/include/c++/14.2.1/bits/stl_algobase.h ****     {
 644:/Applications/ArmGNUToolchain/14.2.rel1/arm-none-eabi/arm-none-eabi/include/c++/14.2.1/bits/stl_algobase.h ****       // concept requirements
 645:/Applications/ArmGNUToolchain/14.2.rel1/arm-none-eabi/arm-none-eabi/include/c++/14.2.1/bits/stl_algobase.h ****       __glibcxx_function_requires(_InputIteratorConcept<_II>)
 646:/Applications/ArmGNUToolchain/14.2.rel1/arm-none-eabi/arm-none-eabi/include/c++/14.2.1/bits/stl_algobase.h ****       __glibcxx_function_requires(_OutputIteratorConcept<_OI,
 647:/Applications/ArmGNUToolchain/14.2.rel1/arm-none-eabi/arm-none-eabi/include/c++/14.2.1/bits/stl_algobase.h **** 	    typename iterator_traits<_II>::reference>)
 648:/Applications/ArmGNUToolchain/14.2.rel1/arm-none-eabi/arm-none-eabi/include/c++/14.2.1/bits/stl_algobase.h ****       __glibcxx_requires_can_increment_range(__first, __last, __result);
 649:/Applications/ArmGNUToolchain/14.2.rel1/arm-none-eabi/arm-none-eabi/include/c++/14.2.1/bits/stl_algobase.h **** 
 650:/Applications/ArmGNUToolchain/14.2.rel1/arm-none-eabi/arm-none-eabi/include/c++/14.2.1/bits/stl_algobase.h ****       return std::__copy_move_a<__is_move_iterator<_II>::__value>
 651:/Applications/ArmGNUToolchain/14.2.rel1/arm-none-eabi/arm-none-eabi/include/c++/14.2.1/bits/stl_algobase.h **** 	     (std::__miter_base(__first), std::__miter_base(__last), __result);
 652:/Applications/ArmGNUToolchain/14.2.rel1/arm-none-eabi/arm-none-eabi/include/c++/14.2.1/bits/stl_algobase.h ****     }
 653:/Applications/ArmGNUToolchain/14.2.rel1/arm-none-eabi/arm-none-eabi/include/c++/14.2.1/bits/stl_algobase.h **** 
 654:/Applications/ArmGNUToolchain/14.2.rel1/arm-none-eabi/arm-none-eabi/include/c++/14.2.1/bits/stl_algobase.h **** #if __cplusplus >= 201103L
 655:/Applications/ArmGNUToolchain/14.2.rel1/arm-none-eabi/arm-none-eabi/include/c++/14.2.1/bits/stl_algobase.h ****   /**
 656:/Applications/ArmGNUToolchain/14.2.rel1/arm-none-eabi/arm-none-eabi/include/c++/14.2.1/bits/stl_algobase.h ****    *  @brief Moves the range [first,last) into result.
 657:/Applications/ArmGNUToolchain/14.2.rel1/arm-none-eabi/arm-none-eabi/include/c++/14.2.1/bits/stl_algobase.h ****    *  @ingroup mutating_algorithms
 658:/Applications/ArmGNUToolchain/14.2.rel1/arm-none-eabi/arm-none-eabi/include/c++/14.2.1/bits/stl_algobase.h ****    *  @param  __first  An input iterator.
 659:/Applications/ArmGNUToolchain/14.2.rel1/arm-none-eabi/arm-none-eabi/include/c++/14.2.1/bits/stl_algobase.h ****    *  @param  __last   An input iterator.
 660:/Applications/ArmGNUToolchain/14.2.rel1/arm-none-eabi/arm-none-eabi/include/c++/14.2.1/bits/stl_algobase.h ****    *  @param  __result An output iterator.
 661:/Applications/ArmGNUToolchain/14.2.rel1/arm-none-eabi/arm-none-eabi/include/c++/14.2.1/bits/stl_algobase.h ****    *  @return   result + (last - first)
 662:/Applications/ArmGNUToolchain/14.2.rel1/arm-none-eabi/arm-none-eabi/include/c++/14.2.1/bits/stl_algobase.h ****    *
 663:/Applications/ArmGNUToolchain/14.2.rel1/arm-none-eabi/arm-none-eabi/include/c++/14.2.1/bits/stl_algobase.h ****    *  This inline function will boil down to a call to @c memmove whenever
ARM GAS  /var/folders/y7/g6pkzsp12sx54x3s3mvyn15r0000gn/T//cceyOD7A.s 			page 23


 664:/Applications/ArmGNUToolchain/14.2.rel1/arm-none-eabi/arm-none-eabi/include/c++/14.2.1/bits/stl_algobase.h ****    *  possible.  Failing that, if random access iterators are passed, then the
 665:/Applications/ArmGNUToolchain/14.2.rel1/arm-none-eabi/arm-none-eabi/include/c++/14.2.1/bits/stl_algobase.h ****    *  loop count will be known (and therefore a candidate for compiler
 666:/Applications/ArmGNUToolchain/14.2.rel1/arm-none-eabi/arm-none-eabi/include/c++/14.2.1/bits/stl_algobase.h ****    *  optimizations such as unrolling).  Result may not be contained within
 667:/Applications/ArmGNUToolchain/14.2.rel1/arm-none-eabi/arm-none-eabi/include/c++/14.2.1/bits/stl_algobase.h ****    *  [first,last); the move_backward function should be used instead.
 668:/Applications/ArmGNUToolchain/14.2.rel1/arm-none-eabi/arm-none-eabi/include/c++/14.2.1/bits/stl_algobase.h ****    *
 669:/Applications/ArmGNUToolchain/14.2.rel1/arm-none-eabi/arm-none-eabi/include/c++/14.2.1/bits/stl_algobase.h ****    *  Note that the end of the output range is permitted to be contained
 670:/Applications/ArmGNUToolchain/14.2.rel1/arm-none-eabi/arm-none-eabi/include/c++/14.2.1/bits/stl_algobase.h ****    *  within [first,last).
 671:/Applications/ArmGNUToolchain/14.2.rel1/arm-none-eabi/arm-none-eabi/include/c++/14.2.1/bits/stl_algobase.h ****   */
 672:/Applications/ArmGNUToolchain/14.2.rel1/arm-none-eabi/arm-none-eabi/include/c++/14.2.1/bits/stl_algobase.h ****   template<typename _II, typename _OI>
 673:/Applications/ArmGNUToolchain/14.2.rel1/arm-none-eabi/arm-none-eabi/include/c++/14.2.1/bits/stl_algobase.h ****     _GLIBCXX20_CONSTEXPR
 674:/Applications/ArmGNUToolchain/14.2.rel1/arm-none-eabi/arm-none-eabi/include/c++/14.2.1/bits/stl_algobase.h ****     inline _OI
 675:/Applications/ArmGNUToolchain/14.2.rel1/arm-none-eabi/arm-none-eabi/include/c++/14.2.1/bits/stl_algobase.h ****     move(_II __first, _II __last, _OI __result)
 676:/Applications/ArmGNUToolchain/14.2.rel1/arm-none-eabi/arm-none-eabi/include/c++/14.2.1/bits/stl_algobase.h ****     {
 677:/Applications/ArmGNUToolchain/14.2.rel1/arm-none-eabi/arm-none-eabi/include/c++/14.2.1/bits/stl_algobase.h ****       // concept requirements
 678:/Applications/ArmGNUToolchain/14.2.rel1/arm-none-eabi/arm-none-eabi/include/c++/14.2.1/bits/stl_algobase.h ****       __glibcxx_function_requires(_InputIteratorConcept<_II>)
 679:/Applications/ArmGNUToolchain/14.2.rel1/arm-none-eabi/arm-none-eabi/include/c++/14.2.1/bits/stl_algobase.h ****       __glibcxx_function_requires(_OutputIteratorConcept<_OI,
 680:/Applications/ArmGNUToolchain/14.2.rel1/arm-none-eabi/arm-none-eabi/include/c++/14.2.1/bits/stl_algobase.h **** 	    typename iterator_traits<_II>::value_type&&>)
 681:/Applications/ArmGNUToolchain/14.2.rel1/arm-none-eabi/arm-none-eabi/include/c++/14.2.1/bits/stl_algobase.h ****       __glibcxx_requires_can_increment_range(__first, __last, __result);
 682:/Applications/ArmGNUToolchain/14.2.rel1/arm-none-eabi/arm-none-eabi/include/c++/14.2.1/bits/stl_algobase.h **** 
 683:/Applications/ArmGNUToolchain/14.2.rel1/arm-none-eabi/arm-none-eabi/include/c++/14.2.1/bits/stl_algobase.h ****       return std::__copy_move_a<true>(std::__miter_base(__first),
 684:/Applications/ArmGNUToolchain/14.2.rel1/arm-none-eabi/arm-none-eabi/include/c++/14.2.1/bits/stl_algobase.h **** 				      std::__miter_base(__last), __result);
 685:/Applications/ArmGNUToolchain/14.2.rel1/arm-none-eabi/arm-none-eabi/include/c++/14.2.1/bits/stl_algobase.h ****     }
 686:/Applications/ArmGNUToolchain/14.2.rel1/arm-none-eabi/arm-none-eabi/include/c++/14.2.1/bits/stl_algobase.h **** 
 687:/Applications/ArmGNUToolchain/14.2.rel1/arm-none-eabi/arm-none-eabi/include/c++/14.2.1/bits/stl_algobase.h **** #define _GLIBCXX_MOVE3(_Tp, _Up, _Vp) std::move(_Tp, _Up, _Vp)
 688:/Applications/ArmGNUToolchain/14.2.rel1/arm-none-eabi/arm-none-eabi/include/c++/14.2.1/bits/stl_algobase.h **** #else
 689:/Applications/ArmGNUToolchain/14.2.rel1/arm-none-eabi/arm-none-eabi/include/c++/14.2.1/bits/stl_algobase.h **** #define _GLIBCXX_MOVE3(_Tp, _Up, _Vp) std::copy(_Tp, _Up, _Vp)
 690:/Applications/ArmGNUToolchain/14.2.rel1/arm-none-eabi/arm-none-eabi/include/c++/14.2.1/bits/stl_algobase.h **** #endif
 691:/Applications/ArmGNUToolchain/14.2.rel1/arm-none-eabi/arm-none-eabi/include/c++/14.2.1/bits/stl_algobase.h **** 
 692:/Applications/ArmGNUToolchain/14.2.rel1/arm-none-eabi/arm-none-eabi/include/c++/14.2.1/bits/stl_algobase.h ****   template<bool _IsMove, bool _IsSimple, typename _Category>
 693:/Applications/ArmGNUToolchain/14.2.rel1/arm-none-eabi/arm-none-eabi/include/c++/14.2.1/bits/stl_algobase.h ****     struct __copy_move_backward
 694:/Applications/ArmGNUToolchain/14.2.rel1/arm-none-eabi/arm-none-eabi/include/c++/14.2.1/bits/stl_algobase.h ****     {
 695:/Applications/ArmGNUToolchain/14.2.rel1/arm-none-eabi/arm-none-eabi/include/c++/14.2.1/bits/stl_algobase.h ****       template<typename _BI1, typename _BI2>
 696:/Applications/ArmGNUToolchain/14.2.rel1/arm-none-eabi/arm-none-eabi/include/c++/14.2.1/bits/stl_algobase.h **** 	_GLIBCXX20_CONSTEXPR
 697:/Applications/ArmGNUToolchain/14.2.rel1/arm-none-eabi/arm-none-eabi/include/c++/14.2.1/bits/stl_algobase.h **** 	static _BI2
 698:/Applications/ArmGNUToolchain/14.2.rel1/arm-none-eabi/arm-none-eabi/include/c++/14.2.1/bits/stl_algobase.h **** 	__copy_move_b(_BI1 __first, _BI1 __last, _BI2 __result)
 699:/Applications/ArmGNUToolchain/14.2.rel1/arm-none-eabi/arm-none-eabi/include/c++/14.2.1/bits/stl_algobase.h **** 	{
 700:/Applications/ArmGNUToolchain/14.2.rel1/arm-none-eabi/arm-none-eabi/include/c++/14.2.1/bits/stl_algobase.h **** 	  while (__first != __last)
 701:/Applications/ArmGNUToolchain/14.2.rel1/arm-none-eabi/arm-none-eabi/include/c++/14.2.1/bits/stl_algobase.h **** 	    *--__result = *--__last;
 702:/Applications/ArmGNUToolchain/14.2.rel1/arm-none-eabi/arm-none-eabi/include/c++/14.2.1/bits/stl_algobase.h **** 	  return __result;
 703:/Applications/ArmGNUToolchain/14.2.rel1/arm-none-eabi/arm-none-eabi/include/c++/14.2.1/bits/stl_algobase.h **** 	}
 704:/Applications/ArmGNUToolchain/14.2.rel1/arm-none-eabi/arm-none-eabi/include/c++/14.2.1/bits/stl_algobase.h ****     };
 705:/Applications/ArmGNUToolchain/14.2.rel1/arm-none-eabi/arm-none-eabi/include/c++/14.2.1/bits/stl_algobase.h **** 
 706:/Applications/ArmGNUToolchain/14.2.rel1/arm-none-eabi/arm-none-eabi/include/c++/14.2.1/bits/stl_algobase.h **** #if __cplusplus >= 201103L
 707:/Applications/ArmGNUToolchain/14.2.rel1/arm-none-eabi/arm-none-eabi/include/c++/14.2.1/bits/stl_algobase.h ****   template<typename _Category>
 708:/Applications/ArmGNUToolchain/14.2.rel1/arm-none-eabi/arm-none-eabi/include/c++/14.2.1/bits/stl_algobase.h ****     struct __copy_move_backward<true, false, _Category>
 709:/Applications/ArmGNUToolchain/14.2.rel1/arm-none-eabi/arm-none-eabi/include/c++/14.2.1/bits/stl_algobase.h ****     {
 710:/Applications/ArmGNUToolchain/14.2.rel1/arm-none-eabi/arm-none-eabi/include/c++/14.2.1/bits/stl_algobase.h ****       template<typename _BI1, typename _BI2>
 711:/Applications/ArmGNUToolchain/14.2.rel1/arm-none-eabi/arm-none-eabi/include/c++/14.2.1/bits/stl_algobase.h **** 	_GLIBCXX20_CONSTEXPR
 712:/Applications/ArmGNUToolchain/14.2.rel1/arm-none-eabi/arm-none-eabi/include/c++/14.2.1/bits/stl_algobase.h **** 	static _BI2
 713:/Applications/ArmGNUToolchain/14.2.rel1/arm-none-eabi/arm-none-eabi/include/c++/14.2.1/bits/stl_algobase.h **** 	__copy_move_b(_BI1 __first, _BI1 __last, _BI2 __result)
 714:/Applications/ArmGNUToolchain/14.2.rel1/arm-none-eabi/arm-none-eabi/include/c++/14.2.1/bits/stl_algobase.h **** 	{
 715:/Applications/ArmGNUToolchain/14.2.rel1/arm-none-eabi/arm-none-eabi/include/c++/14.2.1/bits/stl_algobase.h **** 	  while (__first != __last)
 716:/Applications/ArmGNUToolchain/14.2.rel1/arm-none-eabi/arm-none-eabi/include/c++/14.2.1/bits/stl_algobase.h **** 	    *--__result = std::move(*--__last);
 717:/Applications/ArmGNUToolchain/14.2.rel1/arm-none-eabi/arm-none-eabi/include/c++/14.2.1/bits/stl_algobase.h **** 	  return __result;
 718:/Applications/ArmGNUToolchain/14.2.rel1/arm-none-eabi/arm-none-eabi/include/c++/14.2.1/bits/stl_algobase.h **** 	}
 719:/Applications/ArmGNUToolchain/14.2.rel1/arm-none-eabi/arm-none-eabi/include/c++/14.2.1/bits/stl_algobase.h ****     };
 720:/Applications/ArmGNUToolchain/14.2.rel1/arm-none-eabi/arm-none-eabi/include/c++/14.2.1/bits/stl_algobase.h **** #endif
ARM GAS  /var/folders/y7/g6pkzsp12sx54x3s3mvyn15r0000gn/T//cceyOD7A.s 			page 24


 721:/Applications/ArmGNUToolchain/14.2.rel1/arm-none-eabi/arm-none-eabi/include/c++/14.2.1/bits/stl_algobase.h **** 
 722:/Applications/ArmGNUToolchain/14.2.rel1/arm-none-eabi/arm-none-eabi/include/c++/14.2.1/bits/stl_algobase.h ****   template<>
 723:/Applications/ArmGNUToolchain/14.2.rel1/arm-none-eabi/arm-none-eabi/include/c++/14.2.1/bits/stl_algobase.h ****     struct __copy_move_backward<false, false, random_access_iterator_tag>
 724:/Applications/ArmGNUToolchain/14.2.rel1/arm-none-eabi/arm-none-eabi/include/c++/14.2.1/bits/stl_algobase.h ****     {
 725:/Applications/ArmGNUToolchain/14.2.rel1/arm-none-eabi/arm-none-eabi/include/c++/14.2.1/bits/stl_algobase.h ****       template<typename _BI1, typename _BI2>
 726:/Applications/ArmGNUToolchain/14.2.rel1/arm-none-eabi/arm-none-eabi/include/c++/14.2.1/bits/stl_algobase.h **** 	_GLIBCXX20_CONSTEXPR
 727:/Applications/ArmGNUToolchain/14.2.rel1/arm-none-eabi/arm-none-eabi/include/c++/14.2.1/bits/stl_algobase.h **** 	static _BI2
 728:/Applications/ArmGNUToolchain/14.2.rel1/arm-none-eabi/arm-none-eabi/include/c++/14.2.1/bits/stl_algobase.h **** 	__copy_move_b(_BI1 __first, _BI1 __last, _BI2 __result)
 729:/Applications/ArmGNUToolchain/14.2.rel1/arm-none-eabi/arm-none-eabi/include/c++/14.2.1/bits/stl_algobase.h **** 	{
 730:/Applications/ArmGNUToolchain/14.2.rel1/arm-none-eabi/arm-none-eabi/include/c++/14.2.1/bits/stl_algobase.h **** 	  typename iterator_traits<_BI1>::difference_type
 731:/Applications/ArmGNUToolchain/14.2.rel1/arm-none-eabi/arm-none-eabi/include/c++/14.2.1/bits/stl_algobase.h **** 	    __n = __last - __first;
 732:/Applications/ArmGNUToolchain/14.2.rel1/arm-none-eabi/arm-none-eabi/include/c++/14.2.1/bits/stl_algobase.h **** 	  for (; __n > 0; --__n)
 733:/Applications/ArmGNUToolchain/14.2.rel1/arm-none-eabi/arm-none-eabi/include/c++/14.2.1/bits/stl_algobase.h **** 	    *--__result = *--__last;
 734:/Applications/ArmGNUToolchain/14.2.rel1/arm-none-eabi/arm-none-eabi/include/c++/14.2.1/bits/stl_algobase.h **** 	  return __result;
 735:/Applications/ArmGNUToolchain/14.2.rel1/arm-none-eabi/arm-none-eabi/include/c++/14.2.1/bits/stl_algobase.h **** 	}
 736:/Applications/ArmGNUToolchain/14.2.rel1/arm-none-eabi/arm-none-eabi/include/c++/14.2.1/bits/stl_algobase.h ****     };
 737:/Applications/ArmGNUToolchain/14.2.rel1/arm-none-eabi/arm-none-eabi/include/c++/14.2.1/bits/stl_algobase.h **** 
 738:/Applications/ArmGNUToolchain/14.2.rel1/arm-none-eabi/arm-none-eabi/include/c++/14.2.1/bits/stl_algobase.h **** #if __cplusplus >= 201103L
 739:/Applications/ArmGNUToolchain/14.2.rel1/arm-none-eabi/arm-none-eabi/include/c++/14.2.1/bits/stl_algobase.h ****   template<>
 740:/Applications/ArmGNUToolchain/14.2.rel1/arm-none-eabi/arm-none-eabi/include/c++/14.2.1/bits/stl_algobase.h ****     struct __copy_move_backward<true, false, random_access_iterator_tag>
 741:/Applications/ArmGNUToolchain/14.2.rel1/arm-none-eabi/arm-none-eabi/include/c++/14.2.1/bits/stl_algobase.h ****     {
 742:/Applications/ArmGNUToolchain/14.2.rel1/arm-none-eabi/arm-none-eabi/include/c++/14.2.1/bits/stl_algobase.h ****       template<typename _BI1, typename _BI2>
 743:/Applications/ArmGNUToolchain/14.2.rel1/arm-none-eabi/arm-none-eabi/include/c++/14.2.1/bits/stl_algobase.h **** 	_GLIBCXX20_CONSTEXPR
 744:/Applications/ArmGNUToolchain/14.2.rel1/arm-none-eabi/arm-none-eabi/include/c++/14.2.1/bits/stl_algobase.h **** 	static _BI2
 745:/Applications/ArmGNUToolchain/14.2.rel1/arm-none-eabi/arm-none-eabi/include/c++/14.2.1/bits/stl_algobase.h **** 	__copy_move_b(_BI1 __first, _BI1 __last, _BI2 __result)
 746:/Applications/ArmGNUToolchain/14.2.rel1/arm-none-eabi/arm-none-eabi/include/c++/14.2.1/bits/stl_algobase.h **** 	{
 747:/Applications/ArmGNUToolchain/14.2.rel1/arm-none-eabi/arm-none-eabi/include/c++/14.2.1/bits/stl_algobase.h **** 	  typename iterator_traits<_BI1>::difference_type
 748:/Applications/ArmGNUToolchain/14.2.rel1/arm-none-eabi/arm-none-eabi/include/c++/14.2.1/bits/stl_algobase.h **** 	    __n = __last - __first;
 749:/Applications/ArmGNUToolchain/14.2.rel1/arm-none-eabi/arm-none-eabi/include/c++/14.2.1/bits/stl_algobase.h **** 	  for (; __n > 0; --__n)
 750:/Applications/ArmGNUToolchain/14.2.rel1/arm-none-eabi/arm-none-eabi/include/c++/14.2.1/bits/stl_algobase.h **** 	    *--__result = std::move(*--__last);
 751:/Applications/ArmGNUToolchain/14.2.rel1/arm-none-eabi/arm-none-eabi/include/c++/14.2.1/bits/stl_algobase.h **** 	  return __result;
 752:/Applications/ArmGNUToolchain/14.2.rel1/arm-none-eabi/arm-none-eabi/include/c++/14.2.1/bits/stl_algobase.h **** 	}
 753:/Applications/ArmGNUToolchain/14.2.rel1/arm-none-eabi/arm-none-eabi/include/c++/14.2.1/bits/stl_algobase.h ****     };
 754:/Applications/ArmGNUToolchain/14.2.rel1/arm-none-eabi/arm-none-eabi/include/c++/14.2.1/bits/stl_algobase.h **** #endif
 755:/Applications/ArmGNUToolchain/14.2.rel1/arm-none-eabi/arm-none-eabi/include/c++/14.2.1/bits/stl_algobase.h **** 
 756:/Applications/ArmGNUToolchain/14.2.rel1/arm-none-eabi/arm-none-eabi/include/c++/14.2.1/bits/stl_algobase.h ****   template<bool _IsMove>
 757:/Applications/ArmGNUToolchain/14.2.rel1/arm-none-eabi/arm-none-eabi/include/c++/14.2.1/bits/stl_algobase.h ****     struct __copy_move_backward<_IsMove, true, random_access_iterator_tag>
 758:/Applications/ArmGNUToolchain/14.2.rel1/arm-none-eabi/arm-none-eabi/include/c++/14.2.1/bits/stl_algobase.h ****     {
 759:/Applications/ArmGNUToolchain/14.2.rel1/arm-none-eabi/arm-none-eabi/include/c++/14.2.1/bits/stl_algobase.h ****       template<typename _Tp, typename _Up>
 760:/Applications/ArmGNUToolchain/14.2.rel1/arm-none-eabi/arm-none-eabi/include/c++/14.2.1/bits/stl_algobase.h **** 	_GLIBCXX20_CONSTEXPR
 761:/Applications/ArmGNUToolchain/14.2.rel1/arm-none-eabi/arm-none-eabi/include/c++/14.2.1/bits/stl_algobase.h **** 	static _Up*
 762:/Applications/ArmGNUToolchain/14.2.rel1/arm-none-eabi/arm-none-eabi/include/c++/14.2.1/bits/stl_algobase.h **** 	__copy_move_b(_Tp* __first, _Tp* __last, _Up* __result)
 763:/Applications/ArmGNUToolchain/14.2.rel1/arm-none-eabi/arm-none-eabi/include/c++/14.2.1/bits/stl_algobase.h **** 	{
 764:/Applications/ArmGNUToolchain/14.2.rel1/arm-none-eabi/arm-none-eabi/include/c++/14.2.1/bits/stl_algobase.h **** 	  const ptrdiff_t _Num = __last - __first;
 765:/Applications/ArmGNUToolchain/14.2.rel1/arm-none-eabi/arm-none-eabi/include/c++/14.2.1/bits/stl_algobase.h **** 	  if (__builtin_expect(_Num > 1, true))
 766:/Applications/ArmGNUToolchain/14.2.rel1/arm-none-eabi/arm-none-eabi/include/c++/14.2.1/bits/stl_algobase.h **** 	    __builtin_memmove(__result - _Num, __first, sizeof(_Tp) * _Num);
 767:/Applications/ArmGNUToolchain/14.2.rel1/arm-none-eabi/arm-none-eabi/include/c++/14.2.1/bits/stl_algobase.h **** 	  else if (_Num == 1)
 768:/Applications/ArmGNUToolchain/14.2.rel1/arm-none-eabi/arm-none-eabi/include/c++/14.2.1/bits/stl_algobase.h **** 	    std::__copy_move<_IsMove, false, random_access_iterator_tag>::
 769:/Applications/ArmGNUToolchain/14.2.rel1/arm-none-eabi/arm-none-eabi/include/c++/14.2.1/bits/stl_algobase.h **** 	      __assign_one(__result - 1, __first);
 770:/Applications/ArmGNUToolchain/14.2.rel1/arm-none-eabi/arm-none-eabi/include/c++/14.2.1/bits/stl_algobase.h **** 	  return __result - _Num;
 771:/Applications/ArmGNUToolchain/14.2.rel1/arm-none-eabi/arm-none-eabi/include/c++/14.2.1/bits/stl_algobase.h **** 	}
 772:/Applications/ArmGNUToolchain/14.2.rel1/arm-none-eabi/arm-none-eabi/include/c++/14.2.1/bits/stl_algobase.h ****     };
 773:/Applications/ArmGNUToolchain/14.2.rel1/arm-none-eabi/arm-none-eabi/include/c++/14.2.1/bits/stl_algobase.h **** 
 774:/Applications/ArmGNUToolchain/14.2.rel1/arm-none-eabi/arm-none-eabi/include/c++/14.2.1/bits/stl_algobase.h ****   template<bool _IsMove, typename _BI1, typename _BI2>
 775:/Applications/ArmGNUToolchain/14.2.rel1/arm-none-eabi/arm-none-eabi/include/c++/14.2.1/bits/stl_algobase.h ****     _GLIBCXX20_CONSTEXPR
 776:/Applications/ArmGNUToolchain/14.2.rel1/arm-none-eabi/arm-none-eabi/include/c++/14.2.1/bits/stl_algobase.h ****     inline _BI2
 777:/Applications/ArmGNUToolchain/14.2.rel1/arm-none-eabi/arm-none-eabi/include/c++/14.2.1/bits/stl_algobase.h ****     __copy_move_backward_a2(_BI1 __first, _BI1 __last, _BI2 __result)
ARM GAS  /var/folders/y7/g6pkzsp12sx54x3s3mvyn15r0000gn/T//cceyOD7A.s 			page 25


 778:/Applications/ArmGNUToolchain/14.2.rel1/arm-none-eabi/arm-none-eabi/include/c++/14.2.1/bits/stl_algobase.h ****     {
 779:/Applications/ArmGNUToolchain/14.2.rel1/arm-none-eabi/arm-none-eabi/include/c++/14.2.1/bits/stl_algobase.h ****       typedef typename iterator_traits<_BI1>::iterator_category _Category;
 780:/Applications/ArmGNUToolchain/14.2.rel1/arm-none-eabi/arm-none-eabi/include/c++/14.2.1/bits/stl_algobase.h **** #ifdef __cpp_lib_is_constant_evaluated
 781:/Applications/ArmGNUToolchain/14.2.rel1/arm-none-eabi/arm-none-eabi/include/c++/14.2.1/bits/stl_algobase.h ****       if (std::is_constant_evaluated())
 782:/Applications/ArmGNUToolchain/14.2.rel1/arm-none-eabi/arm-none-eabi/include/c++/14.2.1/bits/stl_algobase.h **** 	return std::__copy_move_backward<_IsMove, false, _Category>::
 783:/Applications/ArmGNUToolchain/14.2.rel1/arm-none-eabi/arm-none-eabi/include/c++/14.2.1/bits/stl_algobase.h **** 	  __copy_move_b(__first, __last, __result);
 784:/Applications/ArmGNUToolchain/14.2.rel1/arm-none-eabi/arm-none-eabi/include/c++/14.2.1/bits/stl_algobase.h **** #endif
 785:/Applications/ArmGNUToolchain/14.2.rel1/arm-none-eabi/arm-none-eabi/include/c++/14.2.1/bits/stl_algobase.h ****       return std::__copy_move_backward<_IsMove,
 786:/Applications/ArmGNUToolchain/14.2.rel1/arm-none-eabi/arm-none-eabi/include/c++/14.2.1/bits/stl_algobase.h **** 				       __memcpyable<_BI2, _BI1>::__value,
 787:/Applications/ArmGNUToolchain/14.2.rel1/arm-none-eabi/arm-none-eabi/include/c++/14.2.1/bits/stl_algobase.h **** 				       _Category>::__copy_move_b(__first,
 788:/Applications/ArmGNUToolchain/14.2.rel1/arm-none-eabi/arm-none-eabi/include/c++/14.2.1/bits/stl_algobase.h **** 								 __last,
 789:/Applications/ArmGNUToolchain/14.2.rel1/arm-none-eabi/arm-none-eabi/include/c++/14.2.1/bits/stl_algobase.h **** 								 __result);
 790:/Applications/ArmGNUToolchain/14.2.rel1/arm-none-eabi/arm-none-eabi/include/c++/14.2.1/bits/stl_algobase.h ****     }
 791:/Applications/ArmGNUToolchain/14.2.rel1/arm-none-eabi/arm-none-eabi/include/c++/14.2.1/bits/stl_algobase.h **** 
 792:/Applications/ArmGNUToolchain/14.2.rel1/arm-none-eabi/arm-none-eabi/include/c++/14.2.1/bits/stl_algobase.h ****   template<bool _IsMove, typename _BI1, typename _BI2>
 793:/Applications/ArmGNUToolchain/14.2.rel1/arm-none-eabi/arm-none-eabi/include/c++/14.2.1/bits/stl_algobase.h ****     _GLIBCXX20_CONSTEXPR
 794:/Applications/ArmGNUToolchain/14.2.rel1/arm-none-eabi/arm-none-eabi/include/c++/14.2.1/bits/stl_algobase.h ****     inline _BI2
 795:/Applications/ArmGNUToolchain/14.2.rel1/arm-none-eabi/arm-none-eabi/include/c++/14.2.1/bits/stl_algobase.h ****     __copy_move_backward_a1(_BI1 __first, _BI1 __last, _BI2 __result)
 796:/Applications/ArmGNUToolchain/14.2.rel1/arm-none-eabi/arm-none-eabi/include/c++/14.2.1/bits/stl_algobase.h ****     { return std::__copy_move_backward_a2<_IsMove>(__first, __last, __result); }
 797:/Applications/ArmGNUToolchain/14.2.rel1/arm-none-eabi/arm-none-eabi/include/c++/14.2.1/bits/stl_algobase.h **** 
 798:/Applications/ArmGNUToolchain/14.2.rel1/arm-none-eabi/arm-none-eabi/include/c++/14.2.1/bits/stl_algobase.h ****   template<bool _IsMove,
 799:/Applications/ArmGNUToolchain/14.2.rel1/arm-none-eabi/arm-none-eabi/include/c++/14.2.1/bits/stl_algobase.h **** 	   typename _Tp, typename _Ref, typename _Ptr, typename _OI>
 800:/Applications/ArmGNUToolchain/14.2.rel1/arm-none-eabi/arm-none-eabi/include/c++/14.2.1/bits/stl_algobase.h ****     _OI
 801:/Applications/ArmGNUToolchain/14.2.rel1/arm-none-eabi/arm-none-eabi/include/c++/14.2.1/bits/stl_algobase.h ****     __copy_move_backward_a1(_GLIBCXX_STD_C::_Deque_iterator<_Tp, _Ref, _Ptr>,
 802:/Applications/ArmGNUToolchain/14.2.rel1/arm-none-eabi/arm-none-eabi/include/c++/14.2.1/bits/stl_algobase.h **** 			    _GLIBCXX_STD_C::_Deque_iterator<_Tp, _Ref, _Ptr>,
 803:/Applications/ArmGNUToolchain/14.2.rel1/arm-none-eabi/arm-none-eabi/include/c++/14.2.1/bits/stl_algobase.h **** 			    _OI);
 804:/Applications/ArmGNUToolchain/14.2.rel1/arm-none-eabi/arm-none-eabi/include/c++/14.2.1/bits/stl_algobase.h **** 
 805:/Applications/ArmGNUToolchain/14.2.rel1/arm-none-eabi/arm-none-eabi/include/c++/14.2.1/bits/stl_algobase.h ****   template<bool _IsMove,
 806:/Applications/ArmGNUToolchain/14.2.rel1/arm-none-eabi/arm-none-eabi/include/c++/14.2.1/bits/stl_algobase.h **** 	   typename _ITp, typename _IRef, typename _IPtr, typename _OTp>
 807:/Applications/ArmGNUToolchain/14.2.rel1/arm-none-eabi/arm-none-eabi/include/c++/14.2.1/bits/stl_algobase.h ****     _GLIBCXX_STD_C::_Deque_iterator<_OTp, _OTp&, _OTp*>
 808:/Applications/ArmGNUToolchain/14.2.rel1/arm-none-eabi/arm-none-eabi/include/c++/14.2.1/bits/stl_algobase.h ****     __copy_move_backward_a1(
 809:/Applications/ArmGNUToolchain/14.2.rel1/arm-none-eabi/arm-none-eabi/include/c++/14.2.1/bits/stl_algobase.h **** 			_GLIBCXX_STD_C::_Deque_iterator<_ITp, _IRef, _IPtr>,
 810:/Applications/ArmGNUToolchain/14.2.rel1/arm-none-eabi/arm-none-eabi/include/c++/14.2.1/bits/stl_algobase.h **** 			_GLIBCXX_STD_C::_Deque_iterator<_ITp, _IRef, _IPtr>,
 811:/Applications/ArmGNUToolchain/14.2.rel1/arm-none-eabi/arm-none-eabi/include/c++/14.2.1/bits/stl_algobase.h **** 			_GLIBCXX_STD_C::_Deque_iterator<_OTp, _OTp&, _OTp*>);
 812:/Applications/ArmGNUToolchain/14.2.rel1/arm-none-eabi/arm-none-eabi/include/c++/14.2.1/bits/stl_algobase.h **** 
 813:/Applications/ArmGNUToolchain/14.2.rel1/arm-none-eabi/arm-none-eabi/include/c++/14.2.1/bits/stl_algobase.h ****   template<bool _IsMove, typename _II, typename _Tp>
 814:/Applications/ArmGNUToolchain/14.2.rel1/arm-none-eabi/arm-none-eabi/include/c++/14.2.1/bits/stl_algobase.h ****     typename __gnu_cxx::__enable_if<
 815:/Applications/ArmGNUToolchain/14.2.rel1/arm-none-eabi/arm-none-eabi/include/c++/14.2.1/bits/stl_algobase.h ****       __is_random_access_iter<_II>::__value,
 816:/Applications/ArmGNUToolchain/14.2.rel1/arm-none-eabi/arm-none-eabi/include/c++/14.2.1/bits/stl_algobase.h ****       _GLIBCXX_STD_C::_Deque_iterator<_Tp, _Tp&, _Tp*> >::__type
 817:/Applications/ArmGNUToolchain/14.2.rel1/arm-none-eabi/arm-none-eabi/include/c++/14.2.1/bits/stl_algobase.h ****     __copy_move_backward_a1(_II, _II,
 818:/Applications/ArmGNUToolchain/14.2.rel1/arm-none-eabi/arm-none-eabi/include/c++/14.2.1/bits/stl_algobase.h **** 			    _GLIBCXX_STD_C::_Deque_iterator<_Tp, _Tp&, _Tp*>);
 819:/Applications/ArmGNUToolchain/14.2.rel1/arm-none-eabi/arm-none-eabi/include/c++/14.2.1/bits/stl_algobase.h **** 
 820:/Applications/ArmGNUToolchain/14.2.rel1/arm-none-eabi/arm-none-eabi/include/c++/14.2.1/bits/stl_algobase.h ****   template<bool _IsMove, typename _II, typename _OI>
 821:/Applications/ArmGNUToolchain/14.2.rel1/arm-none-eabi/arm-none-eabi/include/c++/14.2.1/bits/stl_algobase.h ****     _GLIBCXX20_CONSTEXPR
 822:/Applications/ArmGNUToolchain/14.2.rel1/arm-none-eabi/arm-none-eabi/include/c++/14.2.1/bits/stl_algobase.h ****     inline _OI
 823:/Applications/ArmGNUToolchain/14.2.rel1/arm-none-eabi/arm-none-eabi/include/c++/14.2.1/bits/stl_algobase.h ****     __copy_move_backward_a(_II __first, _II __last, _OI __result)
 824:/Applications/ArmGNUToolchain/14.2.rel1/arm-none-eabi/arm-none-eabi/include/c++/14.2.1/bits/stl_algobase.h ****     {
 825:/Applications/ArmGNUToolchain/14.2.rel1/arm-none-eabi/arm-none-eabi/include/c++/14.2.1/bits/stl_algobase.h ****       return std::__niter_wrap(__result,
 826:/Applications/ArmGNUToolchain/14.2.rel1/arm-none-eabi/arm-none-eabi/include/c++/14.2.1/bits/stl_algobase.h **** 		std::__copy_move_backward_a1<_IsMove>
 827:/Applications/ArmGNUToolchain/14.2.rel1/arm-none-eabi/arm-none-eabi/include/c++/14.2.1/bits/stl_algobase.h **** 		  (std::__niter_base(__first), std::__niter_base(__last),
 828:/Applications/ArmGNUToolchain/14.2.rel1/arm-none-eabi/arm-none-eabi/include/c++/14.2.1/bits/stl_algobase.h **** 		   std::__niter_base(__result)));
 829:/Applications/ArmGNUToolchain/14.2.rel1/arm-none-eabi/arm-none-eabi/include/c++/14.2.1/bits/stl_algobase.h ****     }
 830:/Applications/ArmGNUToolchain/14.2.rel1/arm-none-eabi/arm-none-eabi/include/c++/14.2.1/bits/stl_algobase.h **** 
 831:/Applications/ArmGNUToolchain/14.2.rel1/arm-none-eabi/arm-none-eabi/include/c++/14.2.1/bits/stl_algobase.h ****   template<bool _IsMove,
 832:/Applications/ArmGNUToolchain/14.2.rel1/arm-none-eabi/arm-none-eabi/include/c++/14.2.1/bits/stl_algobase.h **** 	   typename _Ite, typename _Seq, typename _Cat, typename _OI>
 833:/Applications/ArmGNUToolchain/14.2.rel1/arm-none-eabi/arm-none-eabi/include/c++/14.2.1/bits/stl_algobase.h ****     _GLIBCXX20_CONSTEXPR
 834:/Applications/ArmGNUToolchain/14.2.rel1/arm-none-eabi/arm-none-eabi/include/c++/14.2.1/bits/stl_algobase.h ****     _OI
ARM GAS  /var/folders/y7/g6pkzsp12sx54x3s3mvyn15r0000gn/T//cceyOD7A.s 			page 26


 835:/Applications/ArmGNUToolchain/14.2.rel1/arm-none-eabi/arm-none-eabi/include/c++/14.2.1/bits/stl_algobase.h ****     __copy_move_backward_a(
 836:/Applications/ArmGNUToolchain/14.2.rel1/arm-none-eabi/arm-none-eabi/include/c++/14.2.1/bits/stl_algobase.h **** 		const ::__gnu_debug::_Safe_iterator<_Ite, _Seq, _Cat>&,
 837:/Applications/ArmGNUToolchain/14.2.rel1/arm-none-eabi/arm-none-eabi/include/c++/14.2.1/bits/stl_algobase.h **** 		const ::__gnu_debug::_Safe_iterator<_Ite, _Seq, _Cat>&,
 838:/Applications/ArmGNUToolchain/14.2.rel1/arm-none-eabi/arm-none-eabi/include/c++/14.2.1/bits/stl_algobase.h **** 		_OI);
 839:/Applications/ArmGNUToolchain/14.2.rel1/arm-none-eabi/arm-none-eabi/include/c++/14.2.1/bits/stl_algobase.h **** 
 840:/Applications/ArmGNUToolchain/14.2.rel1/arm-none-eabi/arm-none-eabi/include/c++/14.2.1/bits/stl_algobase.h ****   template<bool _IsMove,
 841:/Applications/ArmGNUToolchain/14.2.rel1/arm-none-eabi/arm-none-eabi/include/c++/14.2.1/bits/stl_algobase.h **** 	   typename _II, typename _Ite, typename _Seq, typename _Cat>
 842:/Applications/ArmGNUToolchain/14.2.rel1/arm-none-eabi/arm-none-eabi/include/c++/14.2.1/bits/stl_algobase.h ****     _GLIBCXX20_CONSTEXPR
 843:/Applications/ArmGNUToolchain/14.2.rel1/arm-none-eabi/arm-none-eabi/include/c++/14.2.1/bits/stl_algobase.h ****     __gnu_debug::_Safe_iterator<_Ite, _Seq, _Cat>
 844:/Applications/ArmGNUToolchain/14.2.rel1/arm-none-eabi/arm-none-eabi/include/c++/14.2.1/bits/stl_algobase.h ****     __copy_move_backward_a(_II, _II,
 845:/Applications/ArmGNUToolchain/14.2.rel1/arm-none-eabi/arm-none-eabi/include/c++/14.2.1/bits/stl_algobase.h **** 		const ::__gnu_debug::_Safe_iterator<_Ite, _Seq, _Cat>&);
 846:/Applications/ArmGNUToolchain/14.2.rel1/arm-none-eabi/arm-none-eabi/include/c++/14.2.1/bits/stl_algobase.h **** 
 847:/Applications/ArmGNUToolchain/14.2.rel1/arm-none-eabi/arm-none-eabi/include/c++/14.2.1/bits/stl_algobase.h ****   template<bool _IsMove,
 848:/Applications/ArmGNUToolchain/14.2.rel1/arm-none-eabi/arm-none-eabi/include/c++/14.2.1/bits/stl_algobase.h **** 	   typename _IIte, typename _ISeq, typename _ICat,
 849:/Applications/ArmGNUToolchain/14.2.rel1/arm-none-eabi/arm-none-eabi/include/c++/14.2.1/bits/stl_algobase.h **** 	   typename _OIte, typename _OSeq, typename _OCat>
 850:/Applications/ArmGNUToolchain/14.2.rel1/arm-none-eabi/arm-none-eabi/include/c++/14.2.1/bits/stl_algobase.h ****     _GLIBCXX20_CONSTEXPR
 851:/Applications/ArmGNUToolchain/14.2.rel1/arm-none-eabi/arm-none-eabi/include/c++/14.2.1/bits/stl_algobase.h ****     ::__gnu_debug::_Safe_iterator<_OIte, _OSeq, _OCat>
 852:/Applications/ArmGNUToolchain/14.2.rel1/arm-none-eabi/arm-none-eabi/include/c++/14.2.1/bits/stl_algobase.h ****     __copy_move_backward_a(
 853:/Applications/ArmGNUToolchain/14.2.rel1/arm-none-eabi/arm-none-eabi/include/c++/14.2.1/bits/stl_algobase.h **** 		const ::__gnu_debug::_Safe_iterator<_IIte, _ISeq, _ICat>&,
 854:/Applications/ArmGNUToolchain/14.2.rel1/arm-none-eabi/arm-none-eabi/include/c++/14.2.1/bits/stl_algobase.h **** 		const ::__gnu_debug::_Safe_iterator<_IIte, _ISeq, _ICat>&,
 855:/Applications/ArmGNUToolchain/14.2.rel1/arm-none-eabi/arm-none-eabi/include/c++/14.2.1/bits/stl_algobase.h **** 		const ::__gnu_debug::_Safe_iterator<_OIte, _OSeq, _OCat>&);
 856:/Applications/ArmGNUToolchain/14.2.rel1/arm-none-eabi/arm-none-eabi/include/c++/14.2.1/bits/stl_algobase.h **** 
 857:/Applications/ArmGNUToolchain/14.2.rel1/arm-none-eabi/arm-none-eabi/include/c++/14.2.1/bits/stl_algobase.h ****   /**
 858:/Applications/ArmGNUToolchain/14.2.rel1/arm-none-eabi/arm-none-eabi/include/c++/14.2.1/bits/stl_algobase.h ****    *  @brief Copies the range [first,last) into result.
 859:/Applications/ArmGNUToolchain/14.2.rel1/arm-none-eabi/arm-none-eabi/include/c++/14.2.1/bits/stl_algobase.h ****    *  @ingroup mutating_algorithms
 860:/Applications/ArmGNUToolchain/14.2.rel1/arm-none-eabi/arm-none-eabi/include/c++/14.2.1/bits/stl_algobase.h ****    *  @param  __first  A bidirectional iterator.
 861:/Applications/ArmGNUToolchain/14.2.rel1/arm-none-eabi/arm-none-eabi/include/c++/14.2.1/bits/stl_algobase.h ****    *  @param  __last   A bidirectional iterator.
 862:/Applications/ArmGNUToolchain/14.2.rel1/arm-none-eabi/arm-none-eabi/include/c++/14.2.1/bits/stl_algobase.h ****    *  @param  __result A bidirectional iterator.
 863:/Applications/ArmGNUToolchain/14.2.rel1/arm-none-eabi/arm-none-eabi/include/c++/14.2.1/bits/stl_algobase.h ****    *  @return   result - (last - first)
 864:/Applications/ArmGNUToolchain/14.2.rel1/arm-none-eabi/arm-none-eabi/include/c++/14.2.1/bits/stl_algobase.h ****    *
 865:/Applications/ArmGNUToolchain/14.2.rel1/arm-none-eabi/arm-none-eabi/include/c++/14.2.1/bits/stl_algobase.h ****    *  The function has the same effect as copy, but starts at the end of the
 866:/Applications/ArmGNUToolchain/14.2.rel1/arm-none-eabi/arm-none-eabi/include/c++/14.2.1/bits/stl_algobase.h ****    *  range and works its way to the start, returning the start of the result.
 867:/Applications/ArmGNUToolchain/14.2.rel1/arm-none-eabi/arm-none-eabi/include/c++/14.2.1/bits/stl_algobase.h ****    *  This inline function will boil down to a call to @c memmove whenever
 868:/Applications/ArmGNUToolchain/14.2.rel1/arm-none-eabi/arm-none-eabi/include/c++/14.2.1/bits/stl_algobase.h ****    *  possible.  Failing that, if random access iterators are passed, then the
 869:/Applications/ArmGNUToolchain/14.2.rel1/arm-none-eabi/arm-none-eabi/include/c++/14.2.1/bits/stl_algobase.h ****    *  loop count will be known (and therefore a candidate for compiler
 870:/Applications/ArmGNUToolchain/14.2.rel1/arm-none-eabi/arm-none-eabi/include/c++/14.2.1/bits/stl_algobase.h ****    *  optimizations such as unrolling).
 871:/Applications/ArmGNUToolchain/14.2.rel1/arm-none-eabi/arm-none-eabi/include/c++/14.2.1/bits/stl_algobase.h ****    *
 872:/Applications/ArmGNUToolchain/14.2.rel1/arm-none-eabi/arm-none-eabi/include/c++/14.2.1/bits/stl_algobase.h ****    *  Result may not be in the range (first,last].  Use copy instead.  Note
 873:/Applications/ArmGNUToolchain/14.2.rel1/arm-none-eabi/arm-none-eabi/include/c++/14.2.1/bits/stl_algobase.h ****    *  that the start of the output range may overlap [first,last).
 874:/Applications/ArmGNUToolchain/14.2.rel1/arm-none-eabi/arm-none-eabi/include/c++/14.2.1/bits/stl_algobase.h ****   */
 875:/Applications/ArmGNUToolchain/14.2.rel1/arm-none-eabi/arm-none-eabi/include/c++/14.2.1/bits/stl_algobase.h ****   template<typename _BI1, typename _BI2>
 876:/Applications/ArmGNUToolchain/14.2.rel1/arm-none-eabi/arm-none-eabi/include/c++/14.2.1/bits/stl_algobase.h ****     _GLIBCXX20_CONSTEXPR
 877:/Applications/ArmGNUToolchain/14.2.rel1/arm-none-eabi/arm-none-eabi/include/c++/14.2.1/bits/stl_algobase.h ****     inline _BI2
 878:/Applications/ArmGNUToolchain/14.2.rel1/arm-none-eabi/arm-none-eabi/include/c++/14.2.1/bits/stl_algobase.h ****     copy_backward(_BI1 __first, _BI1 __last, _BI2 __result)
 879:/Applications/ArmGNUToolchain/14.2.rel1/arm-none-eabi/arm-none-eabi/include/c++/14.2.1/bits/stl_algobase.h ****     {
 880:/Applications/ArmGNUToolchain/14.2.rel1/arm-none-eabi/arm-none-eabi/include/c++/14.2.1/bits/stl_algobase.h ****       // concept requirements
 881:/Applications/ArmGNUToolchain/14.2.rel1/arm-none-eabi/arm-none-eabi/include/c++/14.2.1/bits/stl_algobase.h ****       __glibcxx_function_requires(_BidirectionalIteratorConcept<_BI1>)
 882:/Applications/ArmGNUToolchain/14.2.rel1/arm-none-eabi/arm-none-eabi/include/c++/14.2.1/bits/stl_algobase.h ****       __glibcxx_function_requires(_Mutable_BidirectionalIteratorConcept<_BI2>)
 883:/Applications/ArmGNUToolchain/14.2.rel1/arm-none-eabi/arm-none-eabi/include/c++/14.2.1/bits/stl_algobase.h ****       __glibcxx_function_requires(_OutputIteratorConcept<_BI2,
 884:/Applications/ArmGNUToolchain/14.2.rel1/arm-none-eabi/arm-none-eabi/include/c++/14.2.1/bits/stl_algobase.h **** 	    typename iterator_traits<_BI1>::reference>)
 885:/Applications/ArmGNUToolchain/14.2.rel1/arm-none-eabi/arm-none-eabi/include/c++/14.2.1/bits/stl_algobase.h ****       __glibcxx_requires_can_decrement_range(__first, __last, __result);
 886:/Applications/ArmGNUToolchain/14.2.rel1/arm-none-eabi/arm-none-eabi/include/c++/14.2.1/bits/stl_algobase.h **** 
 887:/Applications/ArmGNUToolchain/14.2.rel1/arm-none-eabi/arm-none-eabi/include/c++/14.2.1/bits/stl_algobase.h ****       return std::__copy_move_backward_a<__is_move_iterator<_BI1>::__value>
 888:/Applications/ArmGNUToolchain/14.2.rel1/arm-none-eabi/arm-none-eabi/include/c++/14.2.1/bits/stl_algobase.h **** 	     (std::__miter_base(__first), std::__miter_base(__last), __result);
 889:/Applications/ArmGNUToolchain/14.2.rel1/arm-none-eabi/arm-none-eabi/include/c++/14.2.1/bits/stl_algobase.h ****     }
 890:/Applications/ArmGNUToolchain/14.2.rel1/arm-none-eabi/arm-none-eabi/include/c++/14.2.1/bits/stl_algobase.h **** 
 891:/Applications/ArmGNUToolchain/14.2.rel1/arm-none-eabi/arm-none-eabi/include/c++/14.2.1/bits/stl_algobase.h **** #if __cplusplus >= 201103L
ARM GAS  /var/folders/y7/g6pkzsp12sx54x3s3mvyn15r0000gn/T//cceyOD7A.s 			page 27


 892:/Applications/ArmGNUToolchain/14.2.rel1/arm-none-eabi/arm-none-eabi/include/c++/14.2.1/bits/stl_algobase.h ****   /**
 893:/Applications/ArmGNUToolchain/14.2.rel1/arm-none-eabi/arm-none-eabi/include/c++/14.2.1/bits/stl_algobase.h ****    *  @brief Moves the range [first,last) into result.
 894:/Applications/ArmGNUToolchain/14.2.rel1/arm-none-eabi/arm-none-eabi/include/c++/14.2.1/bits/stl_algobase.h ****    *  @ingroup mutating_algorithms
 895:/Applications/ArmGNUToolchain/14.2.rel1/arm-none-eabi/arm-none-eabi/include/c++/14.2.1/bits/stl_algobase.h ****    *  @param  __first  A bidirectional iterator.
 896:/Applications/ArmGNUToolchain/14.2.rel1/arm-none-eabi/arm-none-eabi/include/c++/14.2.1/bits/stl_algobase.h ****    *  @param  __last   A bidirectional iterator.
 897:/Applications/ArmGNUToolchain/14.2.rel1/arm-none-eabi/arm-none-eabi/include/c++/14.2.1/bits/stl_algobase.h ****    *  @param  __result A bidirectional iterator.
 898:/Applications/ArmGNUToolchain/14.2.rel1/arm-none-eabi/arm-none-eabi/include/c++/14.2.1/bits/stl_algobase.h ****    *  @return   result - (last - first)
 899:/Applications/ArmGNUToolchain/14.2.rel1/arm-none-eabi/arm-none-eabi/include/c++/14.2.1/bits/stl_algobase.h ****    *
 900:/Applications/ArmGNUToolchain/14.2.rel1/arm-none-eabi/arm-none-eabi/include/c++/14.2.1/bits/stl_algobase.h ****    *  The function has the same effect as move, but starts at the end of the
 901:/Applications/ArmGNUToolchain/14.2.rel1/arm-none-eabi/arm-none-eabi/include/c++/14.2.1/bits/stl_algobase.h ****    *  range and works its way to the start, returning the start of the result.
 902:/Applications/ArmGNUToolchain/14.2.rel1/arm-none-eabi/arm-none-eabi/include/c++/14.2.1/bits/stl_algobase.h ****    *  This inline function will boil down to a call to @c memmove whenever
 903:/Applications/ArmGNUToolchain/14.2.rel1/arm-none-eabi/arm-none-eabi/include/c++/14.2.1/bits/stl_algobase.h ****    *  possible.  Failing that, if random access iterators are passed, then the
 904:/Applications/ArmGNUToolchain/14.2.rel1/arm-none-eabi/arm-none-eabi/include/c++/14.2.1/bits/stl_algobase.h ****    *  loop count will be known (and therefore a candidate for compiler
 905:/Applications/ArmGNUToolchain/14.2.rel1/arm-none-eabi/arm-none-eabi/include/c++/14.2.1/bits/stl_algobase.h ****    *  optimizations such as unrolling).
 906:/Applications/ArmGNUToolchain/14.2.rel1/arm-none-eabi/arm-none-eabi/include/c++/14.2.1/bits/stl_algobase.h ****    *
 907:/Applications/ArmGNUToolchain/14.2.rel1/arm-none-eabi/arm-none-eabi/include/c++/14.2.1/bits/stl_algobase.h ****    *  Result may not be in the range (first,last].  Use move instead.  Note
 908:/Applications/ArmGNUToolchain/14.2.rel1/arm-none-eabi/arm-none-eabi/include/c++/14.2.1/bits/stl_algobase.h ****    *  that the start of the output range may overlap [first,last).
 909:/Applications/ArmGNUToolchain/14.2.rel1/arm-none-eabi/arm-none-eabi/include/c++/14.2.1/bits/stl_algobase.h ****   */
 910:/Applications/ArmGNUToolchain/14.2.rel1/arm-none-eabi/arm-none-eabi/include/c++/14.2.1/bits/stl_algobase.h ****   template<typename _BI1, typename _BI2>
 911:/Applications/ArmGNUToolchain/14.2.rel1/arm-none-eabi/arm-none-eabi/include/c++/14.2.1/bits/stl_algobase.h ****     _GLIBCXX20_CONSTEXPR
 912:/Applications/ArmGNUToolchain/14.2.rel1/arm-none-eabi/arm-none-eabi/include/c++/14.2.1/bits/stl_algobase.h ****     inline _BI2
 913:/Applications/ArmGNUToolchain/14.2.rel1/arm-none-eabi/arm-none-eabi/include/c++/14.2.1/bits/stl_algobase.h ****     move_backward(_BI1 __first, _BI1 __last, _BI2 __result)
 914:/Applications/ArmGNUToolchain/14.2.rel1/arm-none-eabi/arm-none-eabi/include/c++/14.2.1/bits/stl_algobase.h ****     {
 915:/Applications/ArmGNUToolchain/14.2.rel1/arm-none-eabi/arm-none-eabi/include/c++/14.2.1/bits/stl_algobase.h ****       // concept requirements
 916:/Applications/ArmGNUToolchain/14.2.rel1/arm-none-eabi/arm-none-eabi/include/c++/14.2.1/bits/stl_algobase.h ****       __glibcxx_function_requires(_BidirectionalIteratorConcept<_BI1>)
 917:/Applications/ArmGNUToolchain/14.2.rel1/arm-none-eabi/arm-none-eabi/include/c++/14.2.1/bits/stl_algobase.h ****       __glibcxx_function_requires(_Mutable_BidirectionalIteratorConcept<_BI2>)
 918:/Applications/ArmGNUToolchain/14.2.rel1/arm-none-eabi/arm-none-eabi/include/c++/14.2.1/bits/stl_algobase.h ****       __glibcxx_function_requires(_OutputIteratorConcept<_BI2,
 919:/Applications/ArmGNUToolchain/14.2.rel1/arm-none-eabi/arm-none-eabi/include/c++/14.2.1/bits/stl_algobase.h **** 	    typename iterator_traits<_BI1>::value_type&&>)
 920:/Applications/ArmGNUToolchain/14.2.rel1/arm-none-eabi/arm-none-eabi/include/c++/14.2.1/bits/stl_algobase.h ****       __glibcxx_requires_can_decrement_range(__first, __last, __result);
 921:/Applications/ArmGNUToolchain/14.2.rel1/arm-none-eabi/arm-none-eabi/include/c++/14.2.1/bits/stl_algobase.h **** 
 922:/Applications/ArmGNUToolchain/14.2.rel1/arm-none-eabi/arm-none-eabi/include/c++/14.2.1/bits/stl_algobase.h ****       return std::__copy_move_backward_a<true>(std::__miter_base(__first),
 923:/Applications/ArmGNUToolchain/14.2.rel1/arm-none-eabi/arm-none-eabi/include/c++/14.2.1/bits/stl_algobase.h **** 					       std::__miter_base(__last),
 924:/Applications/ArmGNUToolchain/14.2.rel1/arm-none-eabi/arm-none-eabi/include/c++/14.2.1/bits/stl_algobase.h **** 					       __result);
 925:/Applications/ArmGNUToolchain/14.2.rel1/arm-none-eabi/arm-none-eabi/include/c++/14.2.1/bits/stl_algobase.h ****     }
 926:/Applications/ArmGNUToolchain/14.2.rel1/arm-none-eabi/arm-none-eabi/include/c++/14.2.1/bits/stl_algobase.h **** 
 927:/Applications/ArmGNUToolchain/14.2.rel1/arm-none-eabi/arm-none-eabi/include/c++/14.2.1/bits/stl_algobase.h **** #define _GLIBCXX_MOVE_BACKWARD3(_Tp, _Up, _Vp) std::move_backward(_Tp, _Up, _Vp)
 928:/Applications/ArmGNUToolchain/14.2.rel1/arm-none-eabi/arm-none-eabi/include/c++/14.2.1/bits/stl_algobase.h **** #else
 929:/Applications/ArmGNUToolchain/14.2.rel1/arm-none-eabi/arm-none-eabi/include/c++/14.2.1/bits/stl_algobase.h **** #define _GLIBCXX_MOVE_BACKWARD3(_Tp, _Up, _Vp) std::copy_backward(_Tp, _Up, _Vp)
 930:/Applications/ArmGNUToolchain/14.2.rel1/arm-none-eabi/arm-none-eabi/include/c++/14.2.1/bits/stl_algobase.h **** #endif
 931:/Applications/ArmGNUToolchain/14.2.rel1/arm-none-eabi/arm-none-eabi/include/c++/14.2.1/bits/stl_algobase.h **** 
 932:/Applications/ArmGNUToolchain/14.2.rel1/arm-none-eabi/arm-none-eabi/include/c++/14.2.1/bits/stl_algobase.h ****   template<typename _ForwardIterator, typename _Tp>
 933:/Applications/ArmGNUToolchain/14.2.rel1/arm-none-eabi/arm-none-eabi/include/c++/14.2.1/bits/stl_algobase.h ****     _GLIBCXX20_CONSTEXPR
 934:/Applications/ArmGNUToolchain/14.2.rel1/arm-none-eabi/arm-none-eabi/include/c++/14.2.1/bits/stl_algobase.h ****     inline typename
 935:/Applications/ArmGNUToolchain/14.2.rel1/arm-none-eabi/arm-none-eabi/include/c++/14.2.1/bits/stl_algobase.h ****     __gnu_cxx::__enable_if<!__is_scalar<_Tp>::__value, void>::__type
 936:/Applications/ArmGNUToolchain/14.2.rel1/arm-none-eabi/arm-none-eabi/include/c++/14.2.1/bits/stl_algobase.h ****     __fill_a1(_ForwardIterator __first, _ForwardIterator __last,
 937:/Applications/ArmGNUToolchain/14.2.rel1/arm-none-eabi/arm-none-eabi/include/c++/14.2.1/bits/stl_algobase.h **** 	      const _Tp& __value)
 938:/Applications/ArmGNUToolchain/14.2.rel1/arm-none-eabi/arm-none-eabi/include/c++/14.2.1/bits/stl_algobase.h ****     {
 939:/Applications/ArmGNUToolchain/14.2.rel1/arm-none-eabi/arm-none-eabi/include/c++/14.2.1/bits/stl_algobase.h ****       for (; __first != __last; ++__first)
 940:/Applications/ArmGNUToolchain/14.2.rel1/arm-none-eabi/arm-none-eabi/include/c++/14.2.1/bits/stl_algobase.h **** 	*__first = __value;
 941:/Applications/ArmGNUToolchain/14.2.rel1/arm-none-eabi/arm-none-eabi/include/c++/14.2.1/bits/stl_algobase.h ****     }
 942:/Applications/ArmGNUToolchain/14.2.rel1/arm-none-eabi/arm-none-eabi/include/c++/14.2.1/bits/stl_algobase.h **** 
 943:/Applications/ArmGNUToolchain/14.2.rel1/arm-none-eabi/arm-none-eabi/include/c++/14.2.1/bits/stl_algobase.h ****   template<typename _ForwardIterator, typename _Tp>
 944:/Applications/ArmGNUToolchain/14.2.rel1/arm-none-eabi/arm-none-eabi/include/c++/14.2.1/bits/stl_algobase.h ****     _GLIBCXX20_CONSTEXPR
 945:/Applications/ArmGNUToolchain/14.2.rel1/arm-none-eabi/arm-none-eabi/include/c++/14.2.1/bits/stl_algobase.h ****     inline typename
 946:/Applications/ArmGNUToolchain/14.2.rel1/arm-none-eabi/arm-none-eabi/include/c++/14.2.1/bits/stl_algobase.h ****     __gnu_cxx::__enable_if<__is_scalar<_Tp>::__value, void>::__type
 947:/Applications/ArmGNUToolchain/14.2.rel1/arm-none-eabi/arm-none-eabi/include/c++/14.2.1/bits/stl_algobase.h ****     __fill_a1(_ForwardIterator __first, _ForwardIterator __last,
 948:/Applications/ArmGNUToolchain/14.2.rel1/arm-none-eabi/arm-none-eabi/include/c++/14.2.1/bits/stl_algobase.h **** 	      const _Tp& __value)
ARM GAS  /var/folders/y7/g6pkzsp12sx54x3s3mvyn15r0000gn/T//cceyOD7A.s 			page 28


 949:/Applications/ArmGNUToolchain/14.2.rel1/arm-none-eabi/arm-none-eabi/include/c++/14.2.1/bits/stl_algobase.h ****     {
 950:/Applications/ArmGNUToolchain/14.2.rel1/arm-none-eabi/arm-none-eabi/include/c++/14.2.1/bits/stl_algobase.h ****       const _Tp __tmp = __value;
 951:/Applications/ArmGNUToolchain/14.2.rel1/arm-none-eabi/arm-none-eabi/include/c++/14.2.1/bits/stl_algobase.h ****       for (; __first != __last; ++__first)
 952:/Applications/ArmGNUToolchain/14.2.rel1/arm-none-eabi/arm-none-eabi/include/c++/14.2.1/bits/stl_algobase.h **** 	*__first = __tmp;
 953:/Applications/ArmGNUToolchain/14.2.rel1/arm-none-eabi/arm-none-eabi/include/c++/14.2.1/bits/stl_algobase.h ****     }
 954:/Applications/ArmGNUToolchain/14.2.rel1/arm-none-eabi/arm-none-eabi/include/c++/14.2.1/bits/stl_algobase.h **** 
 955:/Applications/ArmGNUToolchain/14.2.rel1/arm-none-eabi/arm-none-eabi/include/c++/14.2.1/bits/stl_algobase.h ****   // Specialization: for char types we can use memset.
 956:/Applications/ArmGNUToolchain/14.2.rel1/arm-none-eabi/arm-none-eabi/include/c++/14.2.1/bits/stl_algobase.h ****   template<typename _Tp>
 957:/Applications/ArmGNUToolchain/14.2.rel1/arm-none-eabi/arm-none-eabi/include/c++/14.2.1/bits/stl_algobase.h ****     _GLIBCXX20_CONSTEXPR
 958:/Applications/ArmGNUToolchain/14.2.rel1/arm-none-eabi/arm-none-eabi/include/c++/14.2.1/bits/stl_algobase.h ****     inline typename
 959:/Applications/ArmGNUToolchain/14.2.rel1/arm-none-eabi/arm-none-eabi/include/c++/14.2.1/bits/stl_algobase.h ****     __gnu_cxx::__enable_if<__is_byte<_Tp>::__value, void>::__type
 960:/Applications/ArmGNUToolchain/14.2.rel1/arm-none-eabi/arm-none-eabi/include/c++/14.2.1/bits/stl_algobase.h ****     __fill_a1(_Tp* __first, _Tp* __last, const _Tp& __c)
 961:/Applications/ArmGNUToolchain/14.2.rel1/arm-none-eabi/arm-none-eabi/include/c++/14.2.1/bits/stl_algobase.h ****     {
 962:/Applications/ArmGNUToolchain/14.2.rel1/arm-none-eabi/arm-none-eabi/include/c++/14.2.1/bits/stl_algobase.h ****       const _Tp __tmp = __c;
 963:/Applications/ArmGNUToolchain/14.2.rel1/arm-none-eabi/arm-none-eabi/include/c++/14.2.1/bits/stl_algobase.h **** #if __cpp_lib_is_constant_evaluated
 964:/Applications/ArmGNUToolchain/14.2.rel1/arm-none-eabi/arm-none-eabi/include/c++/14.2.1/bits/stl_algobase.h ****       if (std::is_constant_evaluated())
 965:/Applications/ArmGNUToolchain/14.2.rel1/arm-none-eabi/arm-none-eabi/include/c++/14.2.1/bits/stl_algobase.h **** 	{
 966:/Applications/ArmGNUToolchain/14.2.rel1/arm-none-eabi/arm-none-eabi/include/c++/14.2.1/bits/stl_algobase.h **** 	  for (; __first != __last; ++__first)
 967:/Applications/ArmGNUToolchain/14.2.rel1/arm-none-eabi/arm-none-eabi/include/c++/14.2.1/bits/stl_algobase.h **** 	    *__first = __tmp;
 968:/Applications/ArmGNUToolchain/14.2.rel1/arm-none-eabi/arm-none-eabi/include/c++/14.2.1/bits/stl_algobase.h **** 	  return;
 969:/Applications/ArmGNUToolchain/14.2.rel1/arm-none-eabi/arm-none-eabi/include/c++/14.2.1/bits/stl_algobase.h **** 	}
 970:/Applications/ArmGNUToolchain/14.2.rel1/arm-none-eabi/arm-none-eabi/include/c++/14.2.1/bits/stl_algobase.h **** #endif
 971:/Applications/ArmGNUToolchain/14.2.rel1/arm-none-eabi/arm-none-eabi/include/c++/14.2.1/bits/stl_algobase.h ****       if (const size_t __len = __last - __first)
 972:/Applications/ArmGNUToolchain/14.2.rel1/arm-none-eabi/arm-none-eabi/include/c++/14.2.1/bits/stl_algobase.h **** 	__builtin_memset(__first, static_cast<unsigned char>(__tmp), __len);
 973:/Applications/ArmGNUToolchain/14.2.rel1/arm-none-eabi/arm-none-eabi/include/c++/14.2.1/bits/stl_algobase.h ****     }
 974:/Applications/ArmGNUToolchain/14.2.rel1/arm-none-eabi/arm-none-eabi/include/c++/14.2.1/bits/stl_algobase.h **** 
 975:/Applications/ArmGNUToolchain/14.2.rel1/arm-none-eabi/arm-none-eabi/include/c++/14.2.1/bits/stl_algobase.h ****   template<typename _Ite, typename _Cont, typename _Tp>
 976:/Applications/ArmGNUToolchain/14.2.rel1/arm-none-eabi/arm-none-eabi/include/c++/14.2.1/bits/stl_algobase.h ****     _GLIBCXX20_CONSTEXPR
 977:/Applications/ArmGNUToolchain/14.2.rel1/arm-none-eabi/arm-none-eabi/include/c++/14.2.1/bits/stl_algobase.h ****     inline void
 978:/Applications/ArmGNUToolchain/14.2.rel1/arm-none-eabi/arm-none-eabi/include/c++/14.2.1/bits/stl_algobase.h ****     __fill_a1(::__gnu_cxx::__normal_iterator<_Ite, _Cont> __first,
 979:/Applications/ArmGNUToolchain/14.2.rel1/arm-none-eabi/arm-none-eabi/include/c++/14.2.1/bits/stl_algobase.h **** 	      ::__gnu_cxx::__normal_iterator<_Ite, _Cont> __last,
 980:/Applications/ArmGNUToolchain/14.2.rel1/arm-none-eabi/arm-none-eabi/include/c++/14.2.1/bits/stl_algobase.h **** 	      const _Tp& __value)
 981:/Applications/ArmGNUToolchain/14.2.rel1/arm-none-eabi/arm-none-eabi/include/c++/14.2.1/bits/stl_algobase.h ****     { std::__fill_a1(__first.base(), __last.base(), __value); }
 982:/Applications/ArmGNUToolchain/14.2.rel1/arm-none-eabi/arm-none-eabi/include/c++/14.2.1/bits/stl_algobase.h **** 
 983:/Applications/ArmGNUToolchain/14.2.rel1/arm-none-eabi/arm-none-eabi/include/c++/14.2.1/bits/stl_algobase.h ****   template<typename _Tp, typename _VTp>
 984:/Applications/ArmGNUToolchain/14.2.rel1/arm-none-eabi/arm-none-eabi/include/c++/14.2.1/bits/stl_algobase.h ****     void
 985:/Applications/ArmGNUToolchain/14.2.rel1/arm-none-eabi/arm-none-eabi/include/c++/14.2.1/bits/stl_algobase.h ****     __fill_a1(const _GLIBCXX_STD_C::_Deque_iterator<_Tp, _Tp&, _Tp*>&,
 986:/Applications/ArmGNUToolchain/14.2.rel1/arm-none-eabi/arm-none-eabi/include/c++/14.2.1/bits/stl_algobase.h **** 	      const _GLIBCXX_STD_C::_Deque_iterator<_Tp, _Tp&, _Tp*>&,
 987:/Applications/ArmGNUToolchain/14.2.rel1/arm-none-eabi/arm-none-eabi/include/c++/14.2.1/bits/stl_algobase.h **** 	      const _VTp&);
 988:/Applications/ArmGNUToolchain/14.2.rel1/arm-none-eabi/arm-none-eabi/include/c++/14.2.1/bits/stl_algobase.h **** 
 989:/Applications/ArmGNUToolchain/14.2.rel1/arm-none-eabi/arm-none-eabi/include/c++/14.2.1/bits/stl_algobase.h ****   _GLIBCXX20_CONSTEXPR
 990:/Applications/ArmGNUToolchain/14.2.rel1/arm-none-eabi/arm-none-eabi/include/c++/14.2.1/bits/stl_algobase.h ****   void
 991:/Applications/ArmGNUToolchain/14.2.rel1/arm-none-eabi/arm-none-eabi/include/c++/14.2.1/bits/stl_algobase.h ****   __fill_a1(_GLIBCXX_STD_C::_Bit_iterator, _GLIBCXX_STD_C::_Bit_iterator,
 992:/Applications/ArmGNUToolchain/14.2.rel1/arm-none-eabi/arm-none-eabi/include/c++/14.2.1/bits/stl_algobase.h **** 	    const bool&);
 993:/Applications/ArmGNUToolchain/14.2.rel1/arm-none-eabi/arm-none-eabi/include/c++/14.2.1/bits/stl_algobase.h **** 
 994:/Applications/ArmGNUToolchain/14.2.rel1/arm-none-eabi/arm-none-eabi/include/c++/14.2.1/bits/stl_algobase.h ****   template<typename _FIte, typename _Tp>
 995:/Applications/ArmGNUToolchain/14.2.rel1/arm-none-eabi/arm-none-eabi/include/c++/14.2.1/bits/stl_algobase.h ****     _GLIBCXX20_CONSTEXPR
 996:/Applications/ArmGNUToolchain/14.2.rel1/arm-none-eabi/arm-none-eabi/include/c++/14.2.1/bits/stl_algobase.h ****     inline void
 997:/Applications/ArmGNUToolchain/14.2.rel1/arm-none-eabi/arm-none-eabi/include/c++/14.2.1/bits/stl_algobase.h ****     __fill_a(_FIte __first, _FIte __last, const _Tp& __value)
 998:/Applications/ArmGNUToolchain/14.2.rel1/arm-none-eabi/arm-none-eabi/include/c++/14.2.1/bits/stl_algobase.h ****     { std::__fill_a1(__first, __last, __value); }
 999:/Applications/ArmGNUToolchain/14.2.rel1/arm-none-eabi/arm-none-eabi/include/c++/14.2.1/bits/stl_algobase.h **** 
1000:/Applications/ArmGNUToolchain/14.2.rel1/arm-none-eabi/arm-none-eabi/include/c++/14.2.1/bits/stl_algobase.h ****   template<typename _Ite, typename _Seq, typename _Cat, typename _Tp>
1001:/Applications/ArmGNUToolchain/14.2.rel1/arm-none-eabi/arm-none-eabi/include/c++/14.2.1/bits/stl_algobase.h ****     _GLIBCXX20_CONSTEXPR
1002:/Applications/ArmGNUToolchain/14.2.rel1/arm-none-eabi/arm-none-eabi/include/c++/14.2.1/bits/stl_algobase.h ****     void
1003:/Applications/ArmGNUToolchain/14.2.rel1/arm-none-eabi/arm-none-eabi/include/c++/14.2.1/bits/stl_algobase.h ****     __fill_a(const ::__gnu_debug::_Safe_iterator<_Ite, _Seq, _Cat>&,
1004:/Applications/ArmGNUToolchain/14.2.rel1/arm-none-eabi/arm-none-eabi/include/c++/14.2.1/bits/stl_algobase.h **** 	     const ::__gnu_debug::_Safe_iterator<_Ite, _Seq, _Cat>&,
1005:/Applications/ArmGNUToolchain/14.2.rel1/arm-none-eabi/arm-none-eabi/include/c++/14.2.1/bits/stl_algobase.h **** 	     const _Tp&);
ARM GAS  /var/folders/y7/g6pkzsp12sx54x3s3mvyn15r0000gn/T//cceyOD7A.s 			page 29


1006:/Applications/ArmGNUToolchain/14.2.rel1/arm-none-eabi/arm-none-eabi/include/c++/14.2.1/bits/stl_algobase.h **** 
1007:/Applications/ArmGNUToolchain/14.2.rel1/arm-none-eabi/arm-none-eabi/include/c++/14.2.1/bits/stl_algobase.h ****   /**
1008:/Applications/ArmGNUToolchain/14.2.rel1/arm-none-eabi/arm-none-eabi/include/c++/14.2.1/bits/stl_algobase.h ****    *  @brief Fills the range [first,last) with copies of value.
1009:/Applications/ArmGNUToolchain/14.2.rel1/arm-none-eabi/arm-none-eabi/include/c++/14.2.1/bits/stl_algobase.h ****    *  @ingroup mutating_algorithms
1010:/Applications/ArmGNUToolchain/14.2.rel1/arm-none-eabi/arm-none-eabi/include/c++/14.2.1/bits/stl_algobase.h ****    *  @param  __first  A forward iterator.
1011:/Applications/ArmGNUToolchain/14.2.rel1/arm-none-eabi/arm-none-eabi/include/c++/14.2.1/bits/stl_algobase.h ****    *  @param  __last   A forward iterator.
1012:/Applications/ArmGNUToolchain/14.2.rel1/arm-none-eabi/arm-none-eabi/include/c++/14.2.1/bits/stl_algobase.h ****    *  @param  __value  A reference-to-const of arbitrary type.
1013:/Applications/ArmGNUToolchain/14.2.rel1/arm-none-eabi/arm-none-eabi/include/c++/14.2.1/bits/stl_algobase.h ****    *  @return   Nothing.
1014:/Applications/ArmGNUToolchain/14.2.rel1/arm-none-eabi/arm-none-eabi/include/c++/14.2.1/bits/stl_algobase.h ****    *
1015:/Applications/ArmGNUToolchain/14.2.rel1/arm-none-eabi/arm-none-eabi/include/c++/14.2.1/bits/stl_algobase.h ****    *  This function fills a range with copies of the same value.  For char
1016:/Applications/ArmGNUToolchain/14.2.rel1/arm-none-eabi/arm-none-eabi/include/c++/14.2.1/bits/stl_algobase.h ****    *  types filling contiguous areas of memory, this becomes an inline call
1017:/Applications/ArmGNUToolchain/14.2.rel1/arm-none-eabi/arm-none-eabi/include/c++/14.2.1/bits/stl_algobase.h ****    *  to @c memset or @c wmemset.
1018:/Applications/ArmGNUToolchain/14.2.rel1/arm-none-eabi/arm-none-eabi/include/c++/14.2.1/bits/stl_algobase.h ****   */
1019:/Applications/ArmGNUToolchain/14.2.rel1/arm-none-eabi/arm-none-eabi/include/c++/14.2.1/bits/stl_algobase.h ****   template<typename _ForwardIterator, typename _Tp>
1020:/Applications/ArmGNUToolchain/14.2.rel1/arm-none-eabi/arm-none-eabi/include/c++/14.2.1/bits/stl_algobase.h ****     _GLIBCXX20_CONSTEXPR
1021:/Applications/ArmGNUToolchain/14.2.rel1/arm-none-eabi/arm-none-eabi/include/c++/14.2.1/bits/stl_algobase.h ****     inline void
1022:/Applications/ArmGNUToolchain/14.2.rel1/arm-none-eabi/arm-none-eabi/include/c++/14.2.1/bits/stl_algobase.h ****     fill(_ForwardIterator __first, _ForwardIterator __last, const _Tp& __value)
 294              		.loc 6 1022 5 is_stmt 1 view .LVU72
 295              	.LBB71:
 296              	.LBI71:
 997:/Applications/ArmGNUToolchain/14.2.rel1/arm-none-eabi/arm-none-eabi/include/c++/14.2.1/bits/stl_algobase.h ****     { std::__fill_a1(__first, __last, __value); }
 297              		.loc 6 997 5 view .LVU73
 298              	.LBB72:
 299              	.LBI72:
 947:/Applications/ArmGNUToolchain/14.2.rel1/arm-none-eabi/arm-none-eabi/include/c++/14.2.1/bits/stl_algobase.h **** 	      const _Tp& __value)
 300              		.loc 6 947 5 view .LVU74
 301              	.LBB73:
 951:/Applications/ArmGNUToolchain/14.2.rel1/arm-none-eabi/arm-none-eabi/include/c++/14.2.1/bits/stl_algobase.h **** 	*__first = __tmp;
 302              		.loc 6 951 7 is_stmt 0 view .LVU75
 303 00ec 4346     		mov	r3, r8
 304              	.LVL21:
 305              	.L5:
 951:/Applications/ArmGNUToolchain/14.2.rel1/arm-none-eabi/arm-none-eabi/include/c++/14.2.1/bits/stl_algobase.h **** 	*__first = __tmp;
 306              		.loc 6 951 22 is_stmt 1 discriminator 1 view .LVU76
 307 00ee 9942     		cmp	r1, r3
 308 00f0 37D1     		bne	.L6
 309              	.LVL22:
 951:/Applications/ArmGNUToolchain/14.2.rel1/arm-none-eabi/arm-none-eabi/include/c++/14.2.1/bits/stl_algobase.h **** 	*__first = __tmp;
 310              		.loc 6 951 22 is_stmt 0 discriminator 1 view .LVU77
 311              	.LBE73:
 312              	.LBE72:
 313              	.LBE71:
 314              	.LBE70:
  73:../eurorack/plaits/dsp/engine/string_engine.cc ****   fill(&aux[0], &aux[size], 0.0f);
 315              		.loc 1 73 3 is_stmt 1 view .LVU78
 316              		.loc 1 73 7 is_stmt 0 view .LVU79
 317 00f2 4A44     		add	r2, r2, r9
 318              	.LVL23:
 319              	.LBB77:
 320              	.LBI77:
 321              		.loc 6 1022 5 is_stmt 1 view .LVU80
 322              	.LBB78:
 323              	.LBI78:
 997:/Applications/ArmGNUToolchain/14.2.rel1/arm-none-eabi/arm-none-eabi/include/c++/14.2.1/bits/stl_algobase.h ****     { std::__fill_a1(__first, __last, __value); }
 324              		.loc 6 997 5 view .LVU81
 325              	.LBB79:
 326              	.LBI79:
ARM GAS  /var/folders/y7/g6pkzsp12sx54x3s3mvyn15r0000gn/T//cceyOD7A.s 			page 30


 947:/Applications/ArmGNUToolchain/14.2.rel1/arm-none-eabi/arm-none-eabi/include/c++/14.2.1/bits/stl_algobase.h **** 	      const _Tp& __value)
 327              		.loc 6 947 5 view .LVU82
 328              	.LBB80:
 951:/Applications/ArmGNUToolchain/14.2.rel1/arm-none-eabi/arm-none-eabi/include/c++/14.2.1/bits/stl_algobase.h **** 	*__first = __tmp;
 329              		.loc 6 951 7 is_stmt 0 view .LVU83
 330 00f4 4B46     		mov	r3, r9
 331              	.LVL24:
 332              	.L7:
 951:/Applications/ArmGNUToolchain/14.2.rel1/arm-none-eabi/arm-none-eabi/include/c++/14.2.1/bits/stl_algobase.h **** 	*__first = __tmp;
 333              		.loc 6 951 22 is_stmt 1 discriminator 1 view .LVU84
 334 00f6 9A42     		cmp	r2, r3
 335 00f8 37D1     		bne	.L8
 336 00fa 04F5987B 		add	fp, r4, #304
 337 00fe 04F1100A 		add	r10, r4, #16
 338              	.LBE80:
 339              	.LBE79:
 340              	.LBE78:
 341              	.LBE77:
 342              	.LBB84:
  74:../eurorack/plaits/dsp/engine/string_engine.cc ****   
  75:../eurorack/plaits/dsp/engine/string_engine.cc ****   for (int i = 0; i < kNumStrings; ++i) {
 343              		.loc 1 75 12 is_stmt 0 view .LVU85
 344 0102 0027     		movs	r7, #0
 345              	.LVL25:
 346              	.L11:
  76:../eurorack/plaits/dsp/engine/string_engine.cc ****     voice_[i].Render(
 347              		.loc 1 76 5 is_stmt 1 view .LVU86
  77:../eurorack/plaits/dsp/engine/string_engine.cc ****         parameters.trigger & TRIGGER_UNPATCHED && i == active_string_,
 348              		.loc 1 77 20 is_stmt 0 view .LVU87
 349 0104 3268     		ldr	r2, [r6]
  76:../eurorack/plaits/dsp/engine/string_engine.cc ****     voice_[i].Render(
 350              		.loc 1 76 21 view .LVU88
 351 0106 12F00201 		ands	r1, r2, #2
 352 010a 04D0     		beq	.L9
  76:../eurorack/plaits/dsp/engine/string_engine.cc ****     voice_[i].Render(
 353              		.loc 1 76 21 discriminator 1 view .LVU89
 354 010c D4F84411 		ldr	r1, [r4, #324]
 355 0110 C81B     		subs	r0, r1, r7
 356 0112 4142     		rsbs	r1, r0, #0
 357 0114 4141     		adcs	r1, r1, r0
 358              	.L9:
  76:../eurorack/plaits/dsp/engine/string_engine.cc ****     voice_[i].Render(
 359              		.loc 1 76 21 discriminator 6 view .LVU90
 360 0116 12F00102 		ands	r2, r2, #1
 361 011a 04D0     		beq	.L10
  76:../eurorack/plaits/dsp/engine/string_engine.cc ****     voice_[i].Render(
 362              		.loc 1 76 21 discriminator 7 view .LVU91
 363 011c D4F84421 		ldr	r2, [r4, #324]
 364 0120 D31B     		subs	r3, r2, r7
 365 0122 5A42     		rsbs	r2, r3, #0
 366 0124 5A41     		adcs	r2, r2, r3
 367              	.L10:
  78:../eurorack/plaits/dsp/engine/string_engine.cc ****         parameters.trigger & TRIGGER_RISING_EDGE && i == active_string_,
  79:../eurorack/plaits/dsp/engine/string_engine.cc ****         parameters.accent,
  80:../eurorack/plaits/dsp/engine/string_engine.cc ****         f0_[i],
  81:../eurorack/plaits/dsp/engine/string_engine.cc ****         parameters.harmonics,
  82:../eurorack/plaits/dsp/engine/string_engine.cc ****         parameters.timbre * parameters.timbre,
ARM GAS  /var/folders/y7/g6pkzsp12sx54x3s3mvyn15r0000gn/T//cceyOD7A.s 			page 31


 368              		.loc 1 82 20 view .LVU92
 369 0126 D6ED021A 		vldr.32	s3, [r6, #8]
  75:../eurorack/plaits/dsp/engine/string_engine.cc ****     voice_[i].Render(
 370              		.loc 1 75 3 discriminator 2 view .LVU93
 371 012a 0137     		adds	r7, r7, #1
 372              	.LVL26:
  76:../eurorack/plaits/dsp/engine/string_engine.cc ****         parameters.trigger & TRIGGER_UNPATCHED && i == active_string_,
 373              		.loc 1 76 21 view .LVU94
 374 012c 0E9B     		ldr	r3, [sp, #56]
 375 012e 5046     		mov	r0, r10
 376 0130 CDF80080 		str	r8, [sp]
 377 0134 61EEA11A 		vmul.f32	s3, s3, s3
  75:../eurorack/plaits/dsp/engine/string_engine.cc ****     voice_[i].Render(
 378              		.loc 1 75 21 discriminator 1 view .LVU95
 379 0138 0AF1600A 		add	r10, r10, #96
  76:../eurorack/plaits/dsp/engine/string_engine.cc ****         parameters.trigger & TRIGGER_UNPATCHED && i == active_string_,
 380              		.loc 1 76 21 view .LVU96
 381 013c CDE90193 		strd	r9, r3, [sp, #4]
 382 0140 D4F84831 		ldr	r3, [r4, #328]
 383 0144 96ED032A 		vldr.32	s4, [r6, #12]
 384 0148 96ED041A 		vldr.32	s2, [r6, #16]
 385 014c FBEC010A 		vldmia.32	fp!, {s1}
 386 0150 96ED050A 		vldr.32	s0, [r6, #20]
 387 0154 FFF7FEFF 		bl	_ZN6plaits11StringVoice6RenderEbbfffffPfS1_S1_j
 388              	.LVL27:
  75:../eurorack/plaits/dsp/engine/string_engine.cc ****     voice_[i].Render(
 389              		.loc 1 75 3 is_stmt 1 discriminator 2 view .LVU97
  75:../eurorack/plaits/dsp/engine/string_engine.cc ****     voice_[i].Render(
 390              		.loc 1 75 21 discriminator 1 view .LVU98
 391 0158 032F     		cmp	r7, #3
 392 015a D3D1     		bne	.L11
 393              	.LBE84:
  83:../eurorack/plaits/dsp/engine/string_engine.cc ****         parameters.morph,
  84:../eurorack/plaits/dsp/engine/string_engine.cc ****         temp_buffer_,
  85:../eurorack/plaits/dsp/engine/string_engine.cc ****         out,
  86:../eurorack/plaits/dsp/engine/string_engine.cc ****         aux,
  87:../eurorack/plaits/dsp/engine/string_engine.cc ****         size);
  88:../eurorack/plaits/dsp/engine/string_engine.cc ****   }
  89:../eurorack/plaits/dsp/engine/string_engine.cc **** }
 394              		.loc 1 89 1 is_stmt 0 view .LVU99
 395 015c 05B0     		add	sp, sp, #20
 396              		.cfi_remember_state
 397              		.cfi_def_cfa_offset 36
 398              		@ sp needed
 399 015e BDE8F08F 		pop	{r4, r5, r6, r7, r8, r9, r10, fp, pc}
 400              	.LVL28:
 401              	.L6:
 402              		.cfi_restore_state
 403              	.LBB85:
 404              	.LBB76:
 405              	.LBB75:
 406              	.LBB74:
 952:/Applications/ArmGNUToolchain/14.2.rel1/arm-none-eabi/arm-none-eabi/include/c++/14.2.1/bits/stl_algobase.h ****     }
 407              		.loc 6 952 11 view .LVU100
 408 0162 0020     		movs	r0, #0
 409 0164 43F8040B 		str	r0, [r3], #4	@ float
 410              	.LVL29:
ARM GAS  /var/folders/y7/g6pkzsp12sx54x3s3mvyn15r0000gn/T//cceyOD7A.s 			page 32


 951:/Applications/ArmGNUToolchain/14.2.rel1/arm-none-eabi/arm-none-eabi/include/c++/14.2.1/bits/stl_algobase.h **** 	*__first = __tmp;
 411              		.loc 6 951 7 is_stmt 1 discriminator 2 view .LVU101
 412 0168 C1E7     		b	.L5
 413              	.LVL30:
 414              	.L8:
 951:/Applications/ArmGNUToolchain/14.2.rel1/arm-none-eabi/arm-none-eabi/include/c++/14.2.1/bits/stl_algobase.h **** 	*__first = __tmp;
 415              		.loc 6 951 7 is_stmt 0 discriminator 2 view .LVU102
 416              	.LBE74:
 417              	.LBE75:
 418              	.LBE76:
 419              	.LBE85:
 420              	.LBB86:
 421              	.LBB83:
 422              	.LBB82:
 423              	.LBB81:
 952:/Applications/ArmGNUToolchain/14.2.rel1/arm-none-eabi/arm-none-eabi/include/c++/14.2.1/bits/stl_algobase.h ****     }
 424              		.loc 6 952 11 view .LVU103
 425 016a 0021     		movs	r1, #0
 426 016c 43F8041B 		str	r1, [r3], #4	@ float
 427              	.LVL31:
 951:/Applications/ArmGNUToolchain/14.2.rel1/arm-none-eabi/arm-none-eabi/include/c++/14.2.1/bits/stl_algobase.h **** 	*__first = __tmp;
 428              		.loc 6 951 7 is_stmt 1 discriminator 2 view .LVU104
 429 0170 C1E7     		b	.L7
 430              	.L20:
 431 0172 00BF     		.align	2
 432              	.L19:
 433 0174 00000000 		.word	0
 434 0178 000000C3 		.word	-1023410176
 435 017c 0000FE42 		.word	1123942400
 436 0180 00000043 		.word	1124073472
 437 0184 00000000 		.word	_ZN6stmlib19lut_pitch_ratio_lowE
 438 0188 00000000 		.word	_ZN6stmlib20lut_pitch_ratio_highE
 439 018c 51969639 		.word	966170193
 440              	.LBE81:
 441              	.LBE82:
 442              	.LBE83:
 443              	.LBE86:
 444              		.cfi_endproc
 445              	.LFE1355:
 447              		.section	.text._ZN6plaits9DelayLineIfLj16EE5ResetEv,"axG",%progbits,_ZN6plaits9DelayLineIfLj16EE5R
 448              		.align	1
 449              		.weak	_ZN6plaits9DelayLineIfLj16EE5ResetEv
 450              		.syntax unified
 451              		.thumb
 452              		.thumb_func
 454              	_ZN6plaits9DelayLineIfLj16EE5ResetEv:
 455              	.LVL32:
 456              	.LFB1381:
  49:../eurorack/plaits/dsp/physical_modelling/delay_line.h ****     std::fill(&line_[0], &line_[max_delay], T(0));
 457              		.loc 3 49 8 view -0
 458              		.cfi_startproc
 459              		@ args = 0, pretend = 0, frame = 0
 460              		@ frame_needed = 0, uses_anonymous_args = 0
 461              		@ link register save eliminated.
  50:../eurorack/plaits/dsp/physical_modelling/delay_line.h ****     write_ptr_ = 0;
 462              		.loc 3 50 16 is_stmt 0 view .LVU106
 463 0000 4368     		ldr	r3, [r0, #4]
ARM GAS  /var/folders/y7/g6pkzsp12sx54x3s3mvyn15r0000gn/T//cceyOD7A.s 			page 33


  50:../eurorack/plaits/dsp/physical_modelling/delay_line.h ****     write_ptr_ = 0;
 464              		.loc 3 50 14 view .LVU107
 465 0002 03F14002 		add	r2, r3, #64
 466              	.LVL33:
 467              	.LBB92:
 468              	.LBI92:
 469              		.loc 6 1022 5 is_stmt 1 view .LVU108
 470              	.LBB93:
 471              	.LBI93:
 997:/Applications/ArmGNUToolchain/14.2.rel1/arm-none-eabi/arm-none-eabi/include/c++/14.2.1/bits/stl_algobase.h ****     { std::__fill_a1(__first, __last, __value); }
 472              		.loc 6 997 5 view .LVU109
 473              	.LBB94:
 474              	.LBI94:
 947:/Applications/ArmGNUToolchain/14.2.rel1/arm-none-eabi/arm-none-eabi/include/c++/14.2.1/bits/stl_algobase.h **** 	      const _Tp& __value)
 475              		.loc 6 947 5 view .LVU110
 476              	.L22:
 477              	.LBB95:
 951:/Applications/ArmGNUToolchain/14.2.rel1/arm-none-eabi/arm-none-eabi/include/c++/14.2.1/bits/stl_algobase.h **** 	*__first = __tmp;
 478              		.loc 6 951 22 discriminator 1 view .LVU111
 479 0006 9A42     		cmp	r2, r3
 480 0008 02D1     		bne	.L23
 481              	.LVL34:
 951:/Applications/ArmGNUToolchain/14.2.rel1/arm-none-eabi/arm-none-eabi/include/c++/14.2.1/bits/stl_algobase.h **** 	*__first = __tmp;
 482              		.loc 6 951 22 is_stmt 0 discriminator 1 view .LVU112
 483              	.LBE95:
 484              	.LBE94:
 485              	.LBE93:
 486              	.LBE92:
  51:../eurorack/plaits/dsp/physical_modelling/delay_line.h ****   }
 487              		.loc 3 51 16 view .LVU113
 488 000a 0023     		movs	r3, #0
 489 000c 0360     		str	r3, [r0]
  52:../eurorack/plaits/dsp/physical_modelling/delay_line.h ****   
 490              		.loc 3 52 3 view .LVU114
 491 000e 7047     		bx	lr
 492              	.LVL35:
 493              	.L23:
 494              	.LBB99:
 495              	.LBB98:
 496              	.LBB97:
 497              	.LBB96:
 952:/Applications/ArmGNUToolchain/14.2.rel1/arm-none-eabi/arm-none-eabi/include/c++/14.2.1/bits/stl_algobase.h ****     }
 498              		.loc 6 952 11 view .LVU115
 499 0010 0021     		movs	r1, #0
 500 0012 43F8041B 		str	r1, [r3], #4	@ float
 501              	.LVL36:
 951:/Applications/ArmGNUToolchain/14.2.rel1/arm-none-eabi/arm-none-eabi/include/c++/14.2.1/bits/stl_algobase.h **** 	*__first = __tmp;
 502              		.loc 6 951 7 is_stmt 1 discriminator 2 view .LVU116
 503 0016 F6E7     		b	.L22
 504              	.LBE96:
 505              	.LBE97:
 506              	.LBE98:
 507              	.LBE99:
 508              		.cfi_endproc
 509              	.LFE1381:
 511              		.section	.text._ZN6plaits12StringEngine4InitEPN6stmlib15BufferAllocatorE,"ax",%progbits
 512              		.align	1
ARM GAS  /var/folders/y7/g6pkzsp12sx54x3s3mvyn15r0000gn/T//cceyOD7A.s 			page 34


 513              		.global	_ZN6plaits12StringEngine4InitEPN6stmlib15BufferAllocatorE
 514              		.syntax unified
 515              		.thumb
 516              		.thumb_func
 518              	_ZN6plaits12StringEngine4InitEPN6stmlib15BufferAllocatorE:
 519              	.LVL37:
 520              	.LFB1353:
  38:../eurorack/plaits/dsp/engine/string_engine.cc ****   temp_buffer_ = allocator->Allocate<float>(kMaxBlockSize);
 521              		.loc 1 38 53 view -0
 522              		.cfi_startproc
 523              		@ args = 0, pretend = 0, frame = 0
 524              		@ frame_needed = 0, uses_anonymous_args = 0
  39:../eurorack/plaits/dsp/engine/string_engine.cc ****   for (int i = 0; i < kNumStrings; ++i) {
 525              		.loc 1 39 3 view .LVU118
 526              	.LBB111:
 527              	.LBI111:
 528              		.file 7 "../eurorack/stmlib/utils/buffer_allocator.h"
   1:../eurorack/stmlib/utils/buffer_allocator.h **** // Copyright 2014 Emilie Gillet.
   2:../eurorack/stmlib/utils/buffer_allocator.h **** //
   3:../eurorack/stmlib/utils/buffer_allocator.h **** // Author: Emilie Gillet (emilie.o.gillet@gmail.com)
   4:../eurorack/stmlib/utils/buffer_allocator.h **** //
   5:../eurorack/stmlib/utils/buffer_allocator.h **** // Permission is hereby granted, free of charge, to any person obtaining a copy
   6:../eurorack/stmlib/utils/buffer_allocator.h **** // of this software and associated documentation files (the "Software"), to deal
   7:../eurorack/stmlib/utils/buffer_allocator.h **** // in the Software without restriction, including without limitation the rights
   8:../eurorack/stmlib/utils/buffer_allocator.h **** // to use, copy, modify, merge, publish, distribute, sublicense, and/or sell
   9:../eurorack/stmlib/utils/buffer_allocator.h **** // copies of the Software, and to permit persons to whom the Software is
  10:../eurorack/stmlib/utils/buffer_allocator.h **** // furnished to do so, subject to the following conditions:
  11:../eurorack/stmlib/utils/buffer_allocator.h **** // 
  12:../eurorack/stmlib/utils/buffer_allocator.h **** // The above copyright notice and this permission notice shall be included in
  13:../eurorack/stmlib/utils/buffer_allocator.h **** // all copies or substantial portions of the Software.
  14:../eurorack/stmlib/utils/buffer_allocator.h **** // 
  15:../eurorack/stmlib/utils/buffer_allocator.h **** // THE SOFTWARE IS PROVIDED "AS IS", WITHOUT WARRANTY OF ANY KIND, EXPRESS OR
  16:../eurorack/stmlib/utils/buffer_allocator.h **** // IMPLIED, INCLUDING BUT NOT LIMITED TO THE WARRANTIES OF MERCHANTABILITY,
  17:../eurorack/stmlib/utils/buffer_allocator.h **** // FITNESS FOR A PARTICULAR PURPOSE AND NONINFRINGEMENT. IN NO EVENT SHALL THE
  18:../eurorack/stmlib/utils/buffer_allocator.h **** // AUTHORS OR COPYRIGHT HOLDERS BE LIABLE FOR ANY CLAIM, DAMAGES OR OTHER
  19:../eurorack/stmlib/utils/buffer_allocator.h **** // LIABILITY, WHETHER IN AN ACTION OF CONTRACT, TORT OR OTHERWISE, ARISING FROM,
  20:../eurorack/stmlib/utils/buffer_allocator.h **** // OUT OF OR IN CONNECTION WITH THE SOFTWARE OR THE USE OR OTHER DEALINGS IN
  21:../eurorack/stmlib/utils/buffer_allocator.h **** // THE SOFTWARE.
  22:../eurorack/stmlib/utils/buffer_allocator.h **** // 
  23:../eurorack/stmlib/utils/buffer_allocator.h **** // See http://creativecommons.org/licenses/MIT/ for more information.
  24:../eurorack/stmlib/utils/buffer_allocator.h **** //
  25:../eurorack/stmlib/utils/buffer_allocator.h **** // -----------------------------------------------------------------------------
  26:../eurorack/stmlib/utils/buffer_allocator.h **** //
  27:../eurorack/stmlib/utils/buffer_allocator.h **** // Stream buffer for serialization.
  28:../eurorack/stmlib/utils/buffer_allocator.h **** 
  29:../eurorack/stmlib/utils/buffer_allocator.h **** #ifndef STMLIB_UTILS_BUFFER_ALLOCATOR_H_
  30:../eurorack/stmlib/utils/buffer_allocator.h **** #define STMLIB_UTILS_BUFFER_ALLOCATOR_H_
  31:../eurorack/stmlib/utils/buffer_allocator.h **** 
  32:../eurorack/stmlib/utils/buffer_allocator.h **** #include "stmlib/stmlib.h"
  33:../eurorack/stmlib/utils/buffer_allocator.h **** 
  34:../eurorack/stmlib/utils/buffer_allocator.h **** namespace stmlib {
  35:../eurorack/stmlib/utils/buffer_allocator.h **** 
  36:../eurorack/stmlib/utils/buffer_allocator.h **** class BufferAllocator {
  37:../eurorack/stmlib/utils/buffer_allocator.h ****  public:
  38:../eurorack/stmlib/utils/buffer_allocator.h ****   BufferAllocator() { }
  39:../eurorack/stmlib/utils/buffer_allocator.h ****   ~BufferAllocator() { }
  40:../eurorack/stmlib/utils/buffer_allocator.h ****   
ARM GAS  /var/folders/y7/g6pkzsp12sx54x3s3mvyn15r0000gn/T//cceyOD7A.s 			page 35


  41:../eurorack/stmlib/utils/buffer_allocator.h ****   BufferAllocator(void* buffer, size_t size) {
  42:../eurorack/stmlib/utils/buffer_allocator.h ****     Init(buffer, size);
  43:../eurorack/stmlib/utils/buffer_allocator.h ****   }
  44:../eurorack/stmlib/utils/buffer_allocator.h ****   
  45:../eurorack/stmlib/utils/buffer_allocator.h ****   inline void Init(void* buffer, size_t size) {
  46:../eurorack/stmlib/utils/buffer_allocator.h ****     buffer_ = static_cast<uint8_t*>(buffer);
  47:../eurorack/stmlib/utils/buffer_allocator.h ****     size_ = size;
  48:../eurorack/stmlib/utils/buffer_allocator.h ****     Free();
  49:../eurorack/stmlib/utils/buffer_allocator.h ****   }
  50:../eurorack/stmlib/utils/buffer_allocator.h **** 
  51:../eurorack/stmlib/utils/buffer_allocator.h ****   template<typename T>
  52:../eurorack/stmlib/utils/buffer_allocator.h ****   inline T* Allocate() {
  53:../eurorack/stmlib/utils/buffer_allocator.h ****     return Allocate<T>(1);
  54:../eurorack/stmlib/utils/buffer_allocator.h ****   }
  55:../eurorack/stmlib/utils/buffer_allocator.h ****   
  56:../eurorack/stmlib/utils/buffer_allocator.h ****   template<typename T>
  57:../eurorack/stmlib/utils/buffer_allocator.h ****   inline T* Allocate(size_t size) {
 529              		.loc 7 57 13 view .LVU119
 530              	.LBB112:
 531              	.LBB113:
  58:../eurorack/stmlib/utils/buffer_allocator.h ****     size_t size_bytes = sizeof(T) * size;
  59:../eurorack/stmlib/utils/buffer_allocator.h ****     if (size_bytes <= free_) {
 532              		.loc 7 59 23 is_stmt 0 view .LVU120
 533 0000 8B68     		ldr	r3, [r1, #8]
 534              		.loc 7 59 5 view .LVU121
 535 0002 5F2B     		cmp	r3, #95
 536              	.LBB114:
  60:../eurorack/stmlib/utils/buffer_allocator.h ****       T* start = static_cast<T*>(static_cast<void*>(next_));
 537              		.loc 7 60 10 view .LVU122
 538 0004 8ABF     		itet	hi
 539 0006 0A68     		ldrhi	r2, [r1]
 540              	.LVL38:
 541              		.loc 7 60 10 view .LVU123
 542              	.LBE114:
  61:../eurorack/stmlib/utils/buffer_allocator.h ****       next_ += size_bytes;
  62:../eurorack/stmlib/utils/buffer_allocator.h ****       free_ -= size_bytes;
  63:../eurorack/stmlib/utils/buffer_allocator.h ****       return start;
  64:../eurorack/stmlib/utils/buffer_allocator.h ****     } else {
  65:../eurorack/stmlib/utils/buffer_allocator.h ****       return NULL;
 543              		.loc 7 65 14 view .LVU124
 544 0008 0022     		movls	r2, #0
 545              	.LVL39:
 546              	.LBB115:
  62:../eurorack/stmlib/utils/buffer_allocator.h ****       return start;
 547              		.loc 7 62 13 view .LVU125
 548 000a 603B     		subhi	r3, r3, #96
 549              	.LBE115:
 550              	.LBE113:
 551              	.LBE112:
 552              	.LBE111:
  38:../eurorack/plaits/dsp/engine/string_engine.cc ****   temp_buffer_ = allocator->Allocate<float>(kMaxBlockSize);
 553              		.loc 1 38 53 view .LVU126
 554 000c 70B5     		push	{r4, r5, r6, lr}
 555              		.cfi_def_cfa_offset 16
 556              		.cfi_offset 4, -16
 557              		.cfi_offset 5, -12
 558              		.cfi_offset 6, -8
ARM GAS  /var/folders/y7/g6pkzsp12sx54x3s3mvyn15r0000gn/T//cceyOD7A.s 			page 36


 559              		.cfi_offset 14, -4
  38:../eurorack/plaits/dsp/engine/string_engine.cc ****   temp_buffer_ = allocator->Allocate<float>(kMaxBlockSize);
 560              		.loc 1 38 53 view .LVU127
 561 000e 0C46     		mov	r4, r1
 562              	.LBB125:
 563              	.LBB122:
 564              	.LBB119:
 565              	.LBB116:
  61:../eurorack/stmlib/utils/buffer_allocator.h ****       next_ += size_bytes;
 566              		.loc 7 61 13 view .LVU128
 567 0010 88BF     		it	hi
 568 0012 02F16001 		addhi	r1, r2, #96
 569              	.LVL40:
  61:../eurorack/stmlib/utils/buffer_allocator.h ****       next_ += size_bytes;
 570              		.loc 7 61 13 view .LVU129
 571              	.LBE116:
 572              	.LBE119:
 573              	.LBE122:
 574              	.LBE125:
  38:../eurorack/plaits/dsp/engine/string_engine.cc ****   temp_buffer_ = allocator->Allocate<float>(kMaxBlockSize);
 575              		.loc 1 38 53 view .LVU130
 576 0016 0546     		mov	r5, r0
 577              	.LBB126:
  42:../eurorack/plaits/dsp/engine/string_engine.cc ****   }
 578              		.loc 1 42 12 view .LVU131
 579 0018 184E     		ldr	r6, .L29
 580              	.LBE126:
 581              	.LBB127:
 582              	.LBB123:
 583              	.LBB120:
 584              	.LBB117:
  61:../eurorack/stmlib/utils/buffer_allocator.h ****       free_ -= size_bytes;
 585              		.loc 7 61 13 view .LVU132
 586 001a 88BF     		it	hi
 587 001c 2160     		strhi	r1, [r4]
 588              	.LBE117:
 589              	.LBE120:
 590              	.LBE123:
 591              	.LBE127:
 592              	.LBB128:
  41:../eurorack/plaits/dsp/engine/string_engine.cc ****     f0_[i] = 0.01f;
 593              		.loc 1 41 19 view .LVU133
 594 001e 00F11000 		add	r0, r0, #16
 595              	.LVL41:
  41:../eurorack/plaits/dsp/engine/string_engine.cc ****     f0_[i] = 0.01f;
 596              		.loc 1 41 19 view .LVU134
 597              	.LBE128:
 598              	.LBB129:
 599              	.LBB124:
 600              	.LBB121:
 601              	.LBB118:
  62:../eurorack/stmlib/utils/buffer_allocator.h ****       return start;
 602              		.loc 7 62 13 view .LVU135
 603 0022 88BF     		it	hi
 604 0024 A360     		strhi	r3, [r4, #8]
 605              	.LBE118:
 606              	.LBE121:
ARM GAS  /var/folders/y7/g6pkzsp12sx54x3s3mvyn15r0000gn/T//cceyOD7A.s 			page 37


 607              	.LBE124:
 608              	.LBE129:
 609              	.LBB130:
  41:../eurorack/plaits/dsp/engine/string_engine.cc ****     f0_[i] = 0.01f;
 610              		.loc 1 41 19 view .LVU136
 611 0026 2146     		mov	r1, r4
 612              	.LBE130:
  39:../eurorack/plaits/dsp/engine/string_engine.cc ****   for (int i = 0; i < kNumStrings; ++i) {
 613              		.loc 1 39 16 discriminator 1 view .LVU137
 614 0028 C0F83821 		str	r2, [r0, #312]
  40:../eurorack/plaits/dsp/engine/string_engine.cc ****     voice_[i].Init(allocator);
 615              		.loc 1 40 3 is_stmt 1 view .LVU138
 616              	.LVL42:
 617              	.LBB131:
  40:../eurorack/plaits/dsp/engine/string_engine.cc ****     voice_[i].Init(allocator);
 618              		.loc 1 40 21 discriminator 1 view .LVU139
  41:../eurorack/plaits/dsp/engine/string_engine.cc ****     f0_[i] = 0.01f;
 619              		.loc 1 41 5 view .LVU140
  41:../eurorack/plaits/dsp/engine/string_engine.cc ****     f0_[i] = 0.01f;
 620              		.loc 1 41 19 is_stmt 0 view .LVU141
 621 002c FFF7FEFF 		bl	_ZN6plaits11StringVoice4InitEPN6stmlib15BufferAllocatorE
 622              	.LVL43:
  42:../eurorack/plaits/dsp/engine/string_engine.cc ****   }
 623              		.loc 1 42 5 is_stmt 1 view .LVU142
  41:../eurorack/plaits/dsp/engine/string_engine.cc ****     f0_[i] = 0.01f;
 624              		.loc 1 41 19 is_stmt 0 view .LVU143
 625 0030 2146     		mov	r1, r4
 626 0032 05F17000 		add	r0, r5, #112
  42:../eurorack/plaits/dsp/engine/string_engine.cc ****   }
 627              		.loc 1 42 12 view .LVU144
 628 0036 C5F83061 		str	r6, [r5, #304]	@ float
  40:../eurorack/plaits/dsp/engine/string_engine.cc ****     voice_[i].Init(allocator);
 629              		.loc 1 40 3 is_stmt 1 discriminator 3 view .LVU145
 630              	.LVL44:
  40:../eurorack/plaits/dsp/engine/string_engine.cc ****     voice_[i].Init(allocator);
 631              		.loc 1 40 21 discriminator 1 view .LVU146
  41:../eurorack/plaits/dsp/engine/string_engine.cc ****     f0_[i] = 0.01f;
 632              		.loc 1 41 5 view .LVU147
  41:../eurorack/plaits/dsp/engine/string_engine.cc ****     f0_[i] = 0.01f;
 633              		.loc 1 41 19 is_stmt 0 view .LVU148
 634 003a FFF7FEFF 		bl	_ZN6plaits11StringVoice4InitEPN6stmlib15BufferAllocatorE
 635              	.LVL45:
  42:../eurorack/plaits/dsp/engine/string_engine.cc ****   }
 636              		.loc 1 42 5 is_stmt 1 view .LVU149
  41:../eurorack/plaits/dsp/engine/string_engine.cc ****     f0_[i] = 0.01f;
 637              		.loc 1 41 19 is_stmt 0 view .LVU150
 638 003e 2146     		mov	r1, r4
 639 0040 05F1D000 		add	r0, r5, #208
  42:../eurorack/plaits/dsp/engine/string_engine.cc ****   }
 640              		.loc 1 42 12 view .LVU151
 641 0044 C5F83461 		str	r6, [r5, #308]	@ float
  40:../eurorack/plaits/dsp/engine/string_engine.cc ****     voice_[i].Init(allocator);
 642              		.loc 1 40 3 is_stmt 1 discriminator 3 view .LVU152
 643              	.LVL46:
  40:../eurorack/plaits/dsp/engine/string_engine.cc ****     voice_[i].Init(allocator);
 644              		.loc 1 40 21 discriminator 1 view .LVU153
  41:../eurorack/plaits/dsp/engine/string_engine.cc ****     f0_[i] = 0.01f;
ARM GAS  /var/folders/y7/g6pkzsp12sx54x3s3mvyn15r0000gn/T//cceyOD7A.s 			page 38


 645              		.loc 1 41 5 view .LVU154
  41:../eurorack/plaits/dsp/engine/string_engine.cc ****     f0_[i] = 0.01f;
 646              		.loc 1 41 19 is_stmt 0 view .LVU155
 647 0048 FFF7FEFF 		bl	_ZN6plaits11StringVoice4InitEPN6stmlib15BufferAllocatorE
 648              	.LVL47:
  42:../eurorack/plaits/dsp/engine/string_engine.cc ****   }
 649              		.loc 1 42 5 is_stmt 1 view .LVU156
 650              	.LBE131:
  44:../eurorack/plaits/dsp/engine/string_engine.cc ****   f0_delay_.Init(allocator->Allocate<float>(16));
 651              		.loc 1 44 18 is_stmt 0 view .LVU157
 652 004c 0223     		movs	r3, #2
 653              	.LBB132:
  42:../eurorack/plaits/dsp/engine/string_engine.cc ****   }
 654              		.loc 1 42 12 view .LVU158
 655 004e C5F83861 		str	r6, [r5, #312]	@ float
  40:../eurorack/plaits/dsp/engine/string_engine.cc ****     voice_[i].Init(allocator);
 656              		.loc 1 40 3 is_stmt 1 discriminator 3 view .LVU159
 657              	.LVL48:
  40:../eurorack/plaits/dsp/engine/string_engine.cc ****     voice_[i].Init(allocator);
 658              		.loc 1 40 21 discriminator 1 view .LVU160
 659              	.LBE132:
  44:../eurorack/plaits/dsp/engine/string_engine.cc ****   f0_delay_.Init(allocator->Allocate<float>(16));
 660              		.loc 1 44 3 view .LVU161
  45:../eurorack/plaits/dsp/engine/string_engine.cc **** }
 661              		.loc 1 45 17 is_stmt 0 view .LVU162
 662 0052 05F59E70 		add	r0, r5, #316
  44:../eurorack/plaits/dsp/engine/string_engine.cc ****   f0_delay_.Init(allocator->Allocate<float>(16));
 663              		.loc 1 44 18 view .LVU163
 664 0056 C5F84431 		str	r3, [r5, #324]
  45:../eurorack/plaits/dsp/engine/string_engine.cc **** }
 665              		.loc 1 45 3 is_stmt 1 view .LVU164
 666              	.LVL49:
 667              	.LBB133:
 668              	.LBI133:
  57:../eurorack/stmlib/utils/buffer_allocator.h ****     size_t size_bytes = sizeof(T) * size;
 669              		.loc 7 57 13 view .LVU165
 670              	.LBB134:
 671              	.LBB135:
  59:../eurorack/stmlib/utils/buffer_allocator.h ****       T* start = static_cast<T*>(static_cast<void*>(next_));
 672              		.loc 7 59 23 is_stmt 0 view .LVU166
 673 005a A368     		ldr	r3, [r4, #8]
  59:../eurorack/stmlib/utils/buffer_allocator.h ****       T* start = static_cast<T*>(static_cast<void*>(next_));
 674              		.loc 7 59 5 view .LVU167
 675 005c 3F2B     		cmp	r3, #63
 676              	.LBB136:
  60:../eurorack/stmlib/utils/buffer_allocator.h ****       next_ += size_bytes;
 677              		.loc 7 60 10 view .LVU168
 678 005e 85BF     		ittet	hi
 679 0060 2268     		ldrhi	r2, [r4]
 680              	.LVL50:
  62:../eurorack/stmlib/utils/buffer_allocator.h ****       return start;
 681              		.loc 7 62 13 view .LVU169
 682 0062 403B     		subhi	r3, r3, #64
 683              	.LBE136:
 684              		.loc 7 65 14 view .LVU170
 685 0064 0022     		movls	r2, #0
 686              	.LVL51:
ARM GAS  /var/folders/y7/g6pkzsp12sx54x3s3mvyn15r0000gn/T//cceyOD7A.s 			page 39


 687              		.loc 7 65 14 view .LVU171
 688              	.LBE135:
 689              	.LBE134:
 690              	.LBE133:
 691              	.LBB140:
 692              	.LBI140:
  44:../eurorack/plaits/dsp/physical_modelling/delay_line.h ****     line_ = buffer;
 693              		.loc 3 44 8 is_stmt 1 view .LVU172
 694              	.LBE140:
 695              	.LBB142:
 696              	.LBB139:
 697              	.LBB138:
 698              	.LBB137:
  61:../eurorack/stmlib/utils/buffer_allocator.h ****       free_ -= size_bytes;
 699              		.loc 7 61 13 is_stmt 0 view .LVU173
 700 0066 02F14001 		addhi	r1, r2, #64
  62:../eurorack/stmlib/utils/buffer_allocator.h ****       return start;
 701              		.loc 7 62 13 view .LVU174
 702 006a 84BF     		itt	hi
 703 006c A360     		strhi	r3, [r4, #8]
  61:../eurorack/stmlib/utils/buffer_allocator.h ****       free_ -= size_bytes;
 704              		.loc 7 61 13 view .LVU175
 705 006e 2160     		strhi	r1, [r4]
 706              	.LBE137:
 707              	.LBE138:
 708              	.LBE139:
 709              	.LBE142:
 710              	.LBB143:
 711              	.LBB141:
  45:../eurorack/plaits/dsp/physical_modelling/delay_line.h ****     Reset();
 712              		.loc 3 45 11 view .LVU176
 713 0070 C5F84021 		str	r2, [r5, #320]
  46:../eurorack/plaits/dsp/physical_modelling/delay_line.h ****   }
 714              		.loc 3 46 10 view .LVU177
 715 0074 FFF7FEFF 		bl	_ZN6plaits9DelayLineIfLj16EE5ResetEv
 716              	.LVL52:
  46:../eurorack/plaits/dsp/physical_modelling/delay_line.h ****   }
 717              		.loc 3 46 10 view .LVU178
 718              	.LBE141:
 719              	.LBE143:
  46:../eurorack/plaits/dsp/engine/string_engine.cc **** 
 720              		.loc 1 46 1 view .LVU179
 721 0078 70BD     		pop	{r4, r5, r6, pc}
 722              	.LVL53:
 723              	.L30:
  46:../eurorack/plaits/dsp/engine/string_engine.cc **** 
 724              		.loc 1 46 1 view .LVU180
 725 007a 00BF     		.align	2
 726              	.L29:
 727 007c 0AD7233C 		.word	1008981770
 728              		.cfi_endproc
 729              	.LFE1353:
 731              		.section	.text._ZN6plaits12StringEngine5ResetEv,"ax",%progbits
 732              		.align	1
 733              		.global	_ZN6plaits12StringEngine5ResetEv
 734              		.syntax unified
 735              		.thumb
ARM GAS  /var/folders/y7/g6pkzsp12sx54x3s3mvyn15r0000gn/T//cceyOD7A.s 			page 40


 736              		.thumb_func
 738              	_ZN6plaits12StringEngine5ResetEv:
 739              	.LVL54:
 740              	.LFB1354:
  48:../eurorack/plaits/dsp/engine/string_engine.cc ****   f0_delay_.Reset();
 741              		.loc 1 48 28 is_stmt 1 view -0
 742              		.cfi_startproc
 743              		@ args = 0, pretend = 0, frame = 0
 744              		@ frame_needed = 0, uses_anonymous_args = 0
  49:../eurorack/plaits/dsp/engine/string_engine.cc ****   for (int i = 0; i < kNumStrings; ++i) {
 745              		.loc 1 49 3 view .LVU182
  48:../eurorack/plaits/dsp/engine/string_engine.cc ****   f0_delay_.Reset();
 746              		.loc 1 48 28 is_stmt 0 view .LVU183
 747 0000 10B5     		push	{r4, lr}
 748              		.cfi_def_cfa_offset 8
 749              		.cfi_offset 4, -8
 750              		.cfi_offset 14, -4
  48:../eurorack/plaits/dsp/engine/string_engine.cc ****   f0_delay_.Reset();
 751              		.loc 1 48 28 view .LVU184
 752 0002 0446     		mov	r4, r0
  49:../eurorack/plaits/dsp/engine/string_engine.cc ****   for (int i = 0; i < kNumStrings; ++i) {
 753              		.loc 1 49 18 view .LVU185
 754 0004 00F59E70 		add	r0, r0, #316
 755              	.LVL55:
  49:../eurorack/plaits/dsp/engine/string_engine.cc ****   for (int i = 0; i < kNumStrings; ++i) {
 756              		.loc 1 49 18 view .LVU186
 757 0008 FFF7FEFF 		bl	_ZN6plaits9DelayLineIfLj16EE5ResetEv
 758              	.LVL56:
  50:../eurorack/plaits/dsp/engine/string_engine.cc ****     voice_[i].Reset();
 759              		.loc 1 50 3 is_stmt 1 view .LVU187
 760              	.LBB144:
  50:../eurorack/plaits/dsp/engine/string_engine.cc ****     voice_[i].Reset();
 761              		.loc 1 50 21 discriminator 1 view .LVU188
  51:../eurorack/plaits/dsp/engine/string_engine.cc ****   }
 762              		.loc 1 51 5 view .LVU189
  51:../eurorack/plaits/dsp/engine/string_engine.cc ****   }
 763              		.loc 1 51 20 is_stmt 0 view .LVU190
 764 000c 04F11000 		add	r0, r4, #16
 765 0010 FFF7FEFF 		bl	_ZN6plaits11StringVoice5ResetEv
 766              	.LVL57:
  50:../eurorack/plaits/dsp/engine/string_engine.cc ****     voice_[i].Reset();
 767              		.loc 1 50 3 is_stmt 1 discriminator 3 view .LVU191
  50:../eurorack/plaits/dsp/engine/string_engine.cc ****     voice_[i].Reset();
 768              		.loc 1 50 21 discriminator 1 view .LVU192
  51:../eurorack/plaits/dsp/engine/string_engine.cc ****   }
 769              		.loc 1 51 5 view .LVU193
  51:../eurorack/plaits/dsp/engine/string_engine.cc ****   }
 770              		.loc 1 51 20 is_stmt 0 view .LVU194
 771 0014 04F17000 		add	r0, r4, #112
 772 0018 FFF7FEFF 		bl	_ZN6plaits11StringVoice5ResetEv
 773              	.LVL58:
  50:../eurorack/plaits/dsp/engine/string_engine.cc ****     voice_[i].Reset();
 774              		.loc 1 50 3 is_stmt 1 discriminator 3 view .LVU195
  50:../eurorack/plaits/dsp/engine/string_engine.cc ****     voice_[i].Reset();
 775              		.loc 1 50 21 discriminator 1 view .LVU196
  51:../eurorack/plaits/dsp/engine/string_engine.cc ****   }
 776              		.loc 1 51 5 view .LVU197
ARM GAS  /var/folders/y7/g6pkzsp12sx54x3s3mvyn15r0000gn/T//cceyOD7A.s 			page 41


  51:../eurorack/plaits/dsp/engine/string_engine.cc ****   }
 777              		.loc 1 51 20 is_stmt 0 view .LVU198
 778 001c 04F1D000 		add	r0, r4, #208
 779              	.LBE144:
  53:../eurorack/plaits/dsp/engine/string_engine.cc **** 
 780              		.loc 1 53 1 view .LVU199
 781 0020 BDE81040 		pop	{r4, lr}
 782              		.cfi_restore 14
 783              		.cfi_restore 4
 784              		.cfi_def_cfa_offset 0
 785              	.LVL59:
 786              	.LBB145:
  51:../eurorack/plaits/dsp/engine/string_engine.cc ****   }
 787              		.loc 1 51 20 view .LVU200
 788 0024 FFF7FEBF 		b	_ZN6plaits11StringVoice5ResetEv
 789              	.LVL60:
  51:../eurorack/plaits/dsp/engine/string_engine.cc ****   }
 790              		.loc 1 51 20 view .LVU201
 791              	.LBE145:
 792              		.cfi_endproc
 793              	.LFE1354:
 795              		.global	_ZTVN6plaits12StringEngineE
 796              		.section	.rodata._ZTVN6plaits12StringEngineE,"a"
 797              		.align	2
 800              	_ZTVN6plaits12StringEngineE:
 801 0000 00000000 		.word	0
 802 0004 00000000 		.word	0
 803 0008 00000000 		.word	_ZN6plaits12StringEngine4InitEPN6stmlib15BufferAllocatorE
 804 000c 00000000 		.word	_ZN6plaits12StringEngine5ResetEv
 805 0010 00000000 		.word	_ZN6plaits12StringEngine12LoadUserDataEPKh
 806 0014 00000000 		.word	_ZN6plaits12StringEngine6RenderERKNS_16EngineParametersEPfS4_jPb
 807              		.text
 808              	.Letext0:
 809              		.file 8 "/Applications/ArmGNUToolchain/14.2.rel1/arm-none-eabi/arm-none-eabi/include/machine/_defa
 810              		.file 9 "/Applications/ArmGNUToolchain/14.2.rel1/arm-none-eabi/arm-none-eabi/include/sys/_stdint.h
 811              		.file 10 "/Applications/ArmGNUToolchain/14.2.rel1/arm-none-eabi/lib/gcc/arm-none-eabi/14.2.1/inclu
 812              		.file 11 "/Applications/ArmGNUToolchain/14.2.rel1/arm-none-eabi/arm-none-eabi/include/c++/14.2.1/c
 813              		.file 12 "/Applications/ArmGNUToolchain/14.2.rel1/arm-none-eabi/arm-none-eabi/include/c++/14.2.1/b
 814              		.file 13 "/Applications/ArmGNUToolchain/14.2.rel1/arm-none-eabi/arm-none-eabi/include/c++/14.2.1/t
 815              		.file 14 "/Applications/ArmGNUToolchain/14.2.rel1/arm-none-eabi/arm-none-eabi/include/c++/14.2.1/d
 816              		.file 15 "/Applications/ArmGNUToolchain/14.2.rel1/arm-none-eabi/arm-none-eabi/include/c++/14.2.1/c
 817              		.file 16 "/Applications/ArmGNUToolchain/14.2.rel1/arm-none-eabi/arm-none-eabi/include/c++/14.2.1/b
 818              		.file 17 "/Applications/ArmGNUToolchain/14.2.rel1/arm-none-eabi/arm-none-eabi/include/math.h"
 819              		.file 18 "/Applications/ArmGNUToolchain/14.2.rel1/arm-none-eabi/arm-none-eabi/include/stdlib.h"
 820              		.file 19 "/Applications/ArmGNUToolchain/14.2.rel1/arm-none-eabi/arm-none-eabi/include/c++/14.2.1/m
 821              		.file 20 "../eurorack/stmlib/stmlib.h"
 822              		.file 21 "/Applications/ArmGNUToolchain/14.2.rel1/arm-none-eabi/arm-none-eabi/include/c++/14.2.1/a
 823              		.file 22 "/Applications/ArmGNUToolchain/14.2.rel1/arm-none-eabi/arm-none-eabi/include/c++/14.2.1/b
 824              		.file 23 "../eurorack/stmlib/dsp/filter.h"
 825              		.file 24 "../eurorack/plaits/dsp/dsp.h"
 826              		.file 25 "../eurorack/plaits/dsp/physical_modelling/string.h"
 827              		.file 26 "../eurorack/plaits/dsp/physical_modelling/string_voice.h"
ARM GAS  /var/folders/y7/g6pkzsp12sx54x3s3mvyn15r0000gn/T//cceyOD7A.s 			page 42

