ARM GAS  /var/folders/y7/g6pkzsp12sx54x3s3mvyn15r0000gn/T//ccLQFW5y.s 			page 1


   1              		.cpu cortex-m7
   2              		.arch armv7e-m
   3              		.fpu fpv5-d16
   4              		.eabi_attribute 28, 1
   5              		.eabi_attribute 20, 1
   6              		.eabi_attribute 21, 1
   7              		.eabi_attribute 23, 3
   8              		.eabi_attribute 24, 1
   9              		.eabi_attribute 25, 1
  10              		.eabi_attribute 26, 1
  11              		.eabi_attribute 30, 4
  12              		.eabi_attribute 34, 1
  13              		.eabi_attribute 18, 4
  14              		.file	"virtual_analog_engine.cc"
  15              		.text
  16              	.Ltext0:
  17              		.cfi_sections	.debug_frame
  18              		.file 1 "../eurorack/plaits/dsp/engine/virtual_analog_engine.cc"
  19              		.section	.text._ZN6plaits19VirtualAnalogEngine12LoadUserDataEPKh,"axG",%progbits,_ZN6plaits19Virtu
  20              		.align	1
  21              		.weak	_ZN6plaits19VirtualAnalogEngine12LoadUserDataEPKh
  22              		.syntax unified
  23              		.thumb
  24              		.thumb_func
  26              	_ZN6plaits19VirtualAnalogEngine12LoadUserDataEPKh:
  27              	.LVL0:
  28              	.LFB1302:
  29              		.file 2 "../eurorack/plaits/dsp/engine/virtual_analog_engine.h"
   1:../eurorack/plaits/dsp/engine/virtual_analog_engine.h **** // Copyright 2016 Emilie Gillet.
   2:../eurorack/plaits/dsp/engine/virtual_analog_engine.h **** //
   3:../eurorack/plaits/dsp/engine/virtual_analog_engine.h **** // Author: Emilie Gillet (emilie.o.gillet@gmail.com)
   4:../eurorack/plaits/dsp/engine/virtual_analog_engine.h **** //
   5:../eurorack/plaits/dsp/engine/virtual_analog_engine.h **** // Permission is hereby granted, free of charge, to any person obtaining a copy
   6:../eurorack/plaits/dsp/engine/virtual_analog_engine.h **** // of this software and associated documentation files (the "Software"), to deal
   7:../eurorack/plaits/dsp/engine/virtual_analog_engine.h **** // in the Software without restriction, including without limitation the rights
   8:../eurorack/plaits/dsp/engine/virtual_analog_engine.h **** // to use, copy, modify, merge, publish, distribute, sublicense, and/or sell
   9:../eurorack/plaits/dsp/engine/virtual_analog_engine.h **** // copies of the Software, and to permit persons to whom the Software is
  10:../eurorack/plaits/dsp/engine/virtual_analog_engine.h **** // furnished to do so, subject to the following conditions:
  11:../eurorack/plaits/dsp/engine/virtual_analog_engine.h **** // 
  12:../eurorack/plaits/dsp/engine/virtual_analog_engine.h **** // The above copyright notice and this permission notice shall be included in
  13:../eurorack/plaits/dsp/engine/virtual_analog_engine.h **** // all copies or substantial portions of the Software.
  14:../eurorack/plaits/dsp/engine/virtual_analog_engine.h **** // 
  15:../eurorack/plaits/dsp/engine/virtual_analog_engine.h **** // THE SOFTWARE IS PROVIDED "AS IS", WITHOUT WARRANTY OF ANY KIND, EXPRESS OR
  16:../eurorack/plaits/dsp/engine/virtual_analog_engine.h **** // IMPLIED, INCLUDING BUT NOT LIMITED TO THE WARRANTIES OF MERCHANTABILITY,
  17:../eurorack/plaits/dsp/engine/virtual_analog_engine.h **** // FITNESS FOR A PARTICULAR PURPOSE AND NONINFRINGEMENT. IN NO EVENT SHALL THE
  18:../eurorack/plaits/dsp/engine/virtual_analog_engine.h **** // AUTHORS OR COPYRIGHT HOLDERS BE LIABLE FOR ANY CLAIM, DAMAGES OR OTHER
  19:../eurorack/plaits/dsp/engine/virtual_analog_engine.h **** // LIABILITY, WHETHER IN AN ACTION OF CONTRACT, TORT OR OTHERWISE, ARISING FROM,
  20:../eurorack/plaits/dsp/engine/virtual_analog_engine.h **** // OUT OF OR IN CONNECTION WITH THE SOFTWARE OR THE USE OR OTHER DEALINGS IN
  21:../eurorack/plaits/dsp/engine/virtual_analog_engine.h **** // THE SOFTWARE.
  22:../eurorack/plaits/dsp/engine/virtual_analog_engine.h **** // 
  23:../eurorack/plaits/dsp/engine/virtual_analog_engine.h **** // See http://creativecommons.org/licenses/MIT/ for more information.
  24:../eurorack/plaits/dsp/engine/virtual_analog_engine.h **** //
  25:../eurorack/plaits/dsp/engine/virtual_analog_engine.h **** // -----------------------------------------------------------------------------
  26:../eurorack/plaits/dsp/engine/virtual_analog_engine.h **** //
  27:../eurorack/plaits/dsp/engine/virtual_analog_engine.h **** // 2 variable shape oscillators with sync and crossfading.
  28:../eurorack/plaits/dsp/engine/virtual_analog_engine.h **** 
  29:../eurorack/plaits/dsp/engine/virtual_analog_engine.h **** #ifndef PLAITS_DSP_ENGINE_VIRTUAL_ANALOG_ENGINE_H_
ARM GAS  /var/folders/y7/g6pkzsp12sx54x3s3mvyn15r0000gn/T//ccLQFW5y.s 			page 2


  30:../eurorack/plaits/dsp/engine/virtual_analog_engine.h **** #define PLAITS_DSP_ENGINE_VIRTUAL_ANALOG_ENGINE_H_
  31:../eurorack/plaits/dsp/engine/virtual_analog_engine.h **** 
  32:../eurorack/plaits/dsp/engine/virtual_analog_engine.h **** #include "plaits/dsp/engine/engine.h"
  33:../eurorack/plaits/dsp/engine/virtual_analog_engine.h **** #include "plaits/dsp/oscillator/variable_saw_oscillator.h"
  34:../eurorack/plaits/dsp/engine/virtual_analog_engine.h **** #include "plaits/dsp/oscillator/variable_shape_oscillator.h"
  35:../eurorack/plaits/dsp/engine/virtual_analog_engine.h **** 
  36:../eurorack/plaits/dsp/engine/virtual_analog_engine.h **** #define VA_VARIANT 2
  37:../eurorack/plaits/dsp/engine/virtual_analog_engine.h **** 
  38:../eurorack/plaits/dsp/engine/virtual_analog_engine.h **** namespace plaits {
  39:../eurorack/plaits/dsp/engine/virtual_analog_engine.h ****   
  40:../eurorack/plaits/dsp/engine/virtual_analog_engine.h **** class VirtualAnalogEngine : public Engine {
  41:../eurorack/plaits/dsp/engine/virtual_analog_engine.h ****  public:
  42:../eurorack/plaits/dsp/engine/virtual_analog_engine.h ****   VirtualAnalogEngine() { }
  43:../eurorack/plaits/dsp/engine/virtual_analog_engine.h ****   ~VirtualAnalogEngine() { }
  44:../eurorack/plaits/dsp/engine/virtual_analog_engine.h ****   
  45:../eurorack/plaits/dsp/engine/virtual_analog_engine.h ****   virtual void Init(stmlib::BufferAllocator* allocator);
  46:../eurorack/plaits/dsp/engine/virtual_analog_engine.h ****   virtual void Reset();
  47:../eurorack/plaits/dsp/engine/virtual_analog_engine.h ****   virtual void LoadUserData(const uint8_t* user_data) { }
  30              		.loc 2 47 16 view -0
  31              		.cfi_startproc
  32              		@ args = 0, pretend = 0, frame = 0
  33              		@ frame_needed = 0, uses_anonymous_args = 0
  34              		@ link register save eliminated.
  35              		.loc 2 47 57 is_stmt 0 view .LVU1
  36 0000 7047     		bx	lr
  37              		.cfi_endproc
  38              	.LFE1302:
  40              		.section	.text._ZN6plaits19VirtualAnalogEngine5ResetEv,"ax",%progbits
  41              		.align	1
  42              		.global	_ZN6plaits19VirtualAnalogEngine5ResetEv
  43              		.syntax unified
  44              		.thumb
  45              		.thumb_func
  47              	_ZN6plaits19VirtualAnalogEngine5ResetEv:
  48              	.LVL1:
  49              	.LFB1304:
   1:../eurorack/plaits/dsp/engine/virtual_analog_engine.cc **** // Copyright 2016 Emilie Gillet.
   2:../eurorack/plaits/dsp/engine/virtual_analog_engine.cc **** //
   3:../eurorack/plaits/dsp/engine/virtual_analog_engine.cc **** // Author: Emilie Gillet (emilie.o.gillet@gmail.com)
   4:../eurorack/plaits/dsp/engine/virtual_analog_engine.cc **** //
   5:../eurorack/plaits/dsp/engine/virtual_analog_engine.cc **** // Permission is hereby granted, free of charge, to any person obtaining a copy
   6:../eurorack/plaits/dsp/engine/virtual_analog_engine.cc **** // of this software and associated documentation files (the "Software"), to deal
   7:../eurorack/plaits/dsp/engine/virtual_analog_engine.cc **** // in the Software without restriction, including without limitation the rights
   8:../eurorack/plaits/dsp/engine/virtual_analog_engine.cc **** // to use, copy, modify, merge, publish, distribute, sublicense, and/or sell
   9:../eurorack/plaits/dsp/engine/virtual_analog_engine.cc **** // copies of the Software, and to permit persons to whom the Software is
  10:../eurorack/plaits/dsp/engine/virtual_analog_engine.cc **** // furnished to do so, subject to the following conditions:
  11:../eurorack/plaits/dsp/engine/virtual_analog_engine.cc **** // 
  12:../eurorack/plaits/dsp/engine/virtual_analog_engine.cc **** // The above copyright notice and this permission notice shall be included in
  13:../eurorack/plaits/dsp/engine/virtual_analog_engine.cc **** // all copies or substantial portions of the Software.
  14:../eurorack/plaits/dsp/engine/virtual_analog_engine.cc **** // 
  15:../eurorack/plaits/dsp/engine/virtual_analog_engine.cc **** // THE SOFTWARE IS PROVIDED "AS IS", WITHOUT WARRANTY OF ANY KIND, EXPRESS OR
  16:../eurorack/plaits/dsp/engine/virtual_analog_engine.cc **** // IMPLIED, INCLUDING BUT NOT LIMITED TO THE WARRANTIES OF MERCHANTABILITY,
  17:../eurorack/plaits/dsp/engine/virtual_analog_engine.cc **** // FITNESS FOR A PARTICULAR PURPOSE AND NONINFRINGEMENT. IN NO EVENT SHALL THE
  18:../eurorack/plaits/dsp/engine/virtual_analog_engine.cc **** // AUTHORS OR COPYRIGHT HOLDERS BE LIABLE FOR ANY CLAIM, DAMAGES OR OTHER
  19:../eurorack/plaits/dsp/engine/virtual_analog_engine.cc **** // LIABILITY, WHETHER IN AN ACTION OF CONTRACT, TORT OR OTHERWISE, ARISING FROM,
  20:../eurorack/plaits/dsp/engine/virtual_analog_engine.cc **** // OUT OF OR IN CONNECTION WITH THE SOFTWARE OR THE USE OR OTHER DEALINGS IN
  21:../eurorack/plaits/dsp/engine/virtual_analog_engine.cc **** // THE SOFTWARE.
ARM GAS  /var/folders/y7/g6pkzsp12sx54x3s3mvyn15r0000gn/T//ccLQFW5y.s 			page 3


  22:../eurorack/plaits/dsp/engine/virtual_analog_engine.cc **** // 
  23:../eurorack/plaits/dsp/engine/virtual_analog_engine.cc **** // See http://creativecommons.org/licenses/MIT/ for more information.
  24:../eurorack/plaits/dsp/engine/virtual_analog_engine.cc **** //
  25:../eurorack/plaits/dsp/engine/virtual_analog_engine.cc **** // -----------------------------------------------------------------------------
  26:../eurorack/plaits/dsp/engine/virtual_analog_engine.cc **** //
  27:../eurorack/plaits/dsp/engine/virtual_analog_engine.cc **** // 2 variable shape oscillators with sync, FM and crossfading.
  28:../eurorack/plaits/dsp/engine/virtual_analog_engine.cc **** 
  29:../eurorack/plaits/dsp/engine/virtual_analog_engine.cc **** #include "plaits/dsp/engine/virtual_analog_engine.h"
  30:../eurorack/plaits/dsp/engine/virtual_analog_engine.cc **** 
  31:../eurorack/plaits/dsp/engine/virtual_analog_engine.cc **** #include <algorithm>
  32:../eurorack/plaits/dsp/engine/virtual_analog_engine.cc **** 
  33:../eurorack/plaits/dsp/engine/virtual_analog_engine.cc **** #include "stmlib/dsp/parameter_interpolator.h"
  34:../eurorack/plaits/dsp/engine/virtual_analog_engine.cc **** 
  35:../eurorack/plaits/dsp/engine/virtual_analog_engine.cc **** namespace plaits {
  36:../eurorack/plaits/dsp/engine/virtual_analog_engine.cc **** 
  37:../eurorack/plaits/dsp/engine/virtual_analog_engine.cc **** using namespace std;
  38:../eurorack/plaits/dsp/engine/virtual_analog_engine.cc **** using namespace stmlib;
  39:../eurorack/plaits/dsp/engine/virtual_analog_engine.cc **** 
  40:../eurorack/plaits/dsp/engine/virtual_analog_engine.cc **** void VirtualAnalogEngine::Init(BufferAllocator* allocator) {
  41:../eurorack/plaits/dsp/engine/virtual_analog_engine.cc ****   primary_.Init();
  42:../eurorack/plaits/dsp/engine/virtual_analog_engine.cc ****   auxiliary_.Init();
  43:../eurorack/plaits/dsp/engine/virtual_analog_engine.cc ****   auxiliary_.set_master_phase(0.25f);
  44:../eurorack/plaits/dsp/engine/virtual_analog_engine.cc ****   sync_.Init();
  45:../eurorack/plaits/dsp/engine/virtual_analog_engine.cc ****   variable_saw_.Init();
  46:../eurorack/plaits/dsp/engine/virtual_analog_engine.cc ****   
  47:../eurorack/plaits/dsp/engine/virtual_analog_engine.cc ****   auxiliary_amount_ = 0.0f;
  48:../eurorack/plaits/dsp/engine/virtual_analog_engine.cc ****   xmod_amount_ = 0.0f;
  49:../eurorack/plaits/dsp/engine/virtual_analog_engine.cc ****   
  50:../eurorack/plaits/dsp/engine/virtual_analog_engine.cc ****   temp_buffer_ = allocator->Allocate<float>(kMaxBlockSize);
  51:../eurorack/plaits/dsp/engine/virtual_analog_engine.cc **** }
  52:../eurorack/plaits/dsp/engine/virtual_analog_engine.cc **** 
  53:../eurorack/plaits/dsp/engine/virtual_analog_engine.cc **** void VirtualAnalogEngine::Reset() {
  50              		.loc 1 53 35 is_stmt 1 view -0
  51              		.cfi_startproc
  52              		@ args = 0, pretend = 0, frame = 0
  53              		@ frame_needed = 0, uses_anonymous_args = 0
  54              		@ link register save eliminated.
  54:../eurorack/plaits/dsp/engine/virtual_analog_engine.cc ****   
  55:../eurorack/plaits/dsp/engine/virtual_analog_engine.cc **** }
  55              		.loc 1 55 1 is_stmt 0 view .LVU3
  56 0000 7047     		bx	lr
  57              		.cfi_endproc
  58              	.LFE1304:
  60              		.section	.text._ZN6plaits19VirtualAnalogEngine4InitEPN6stmlib15BufferAllocatorE,"ax",%progbits
  61              		.align	1
  62              		.global	_ZN6plaits19VirtualAnalogEngine4InitEPN6stmlib15BufferAllocatorE
  63              		.syntax unified
  64              		.thumb
  65              		.thumb_func
  67              	_ZN6plaits19VirtualAnalogEngine4InitEPN6stmlib15BufferAllocatorE:
  68              	.LVL2:
  69              	.LFB1303:
  40:../eurorack/plaits/dsp/engine/virtual_analog_engine.cc ****   primary_.Init();
  70              		.loc 1 40 60 is_stmt 1 view -0
  71              		.cfi_startproc
  72              		@ args = 0, pretend = 0, frame = 0
  73              		@ frame_needed = 0, uses_anonymous_args = 0
ARM GAS  /var/folders/y7/g6pkzsp12sx54x3s3mvyn15r0000gn/T//ccLQFW5y.s 			page 4


  41:../eurorack/plaits/dsp/engine/virtual_analog_engine.cc ****   auxiliary_.Init();
  74              		.loc 1 41 3 view .LVU5
  75              	.LBB153:
  76              	.LBI153:
  77              		.file 3 "../eurorack/plaits/dsp/oscillator/variable_shape_oscillator.h"
   1:../eurorack/plaits/dsp/oscillator/variable_shape_oscillator.h **** // Copyright 2016 Emilie Gillet.
   2:../eurorack/plaits/dsp/oscillator/variable_shape_oscillator.h **** //
   3:../eurorack/plaits/dsp/oscillator/variable_shape_oscillator.h **** // Author: Emilie Gillet (emilie.o.gillet@gmail.com)
   4:../eurorack/plaits/dsp/oscillator/variable_shape_oscillator.h **** //
   5:../eurorack/plaits/dsp/oscillator/variable_shape_oscillator.h **** // Permission is hereby granted, free of charge, to any person obtaining a copy
   6:../eurorack/plaits/dsp/oscillator/variable_shape_oscillator.h **** // of this software and associated documentation files (the "Software"), to deal
   7:../eurorack/plaits/dsp/oscillator/variable_shape_oscillator.h **** // in the Software without restriction, including without limitation the rights
   8:../eurorack/plaits/dsp/oscillator/variable_shape_oscillator.h **** // to use, copy, modify, merge, publish, distribute, sublicense, and/or sell
   9:../eurorack/plaits/dsp/oscillator/variable_shape_oscillator.h **** // copies of the Software, and to permit persons to whom the Software is
  10:../eurorack/plaits/dsp/oscillator/variable_shape_oscillator.h **** // furnished to do so, subject to the following conditions:
  11:../eurorack/plaits/dsp/oscillator/variable_shape_oscillator.h **** // 
  12:../eurorack/plaits/dsp/oscillator/variable_shape_oscillator.h **** // The above copyright notice and this permission notice shall be included in
  13:../eurorack/plaits/dsp/oscillator/variable_shape_oscillator.h **** // all copies or substantial portions of the Software.
  14:../eurorack/plaits/dsp/oscillator/variable_shape_oscillator.h **** // 
  15:../eurorack/plaits/dsp/oscillator/variable_shape_oscillator.h **** // THE SOFTWARE IS PROVIDED "AS IS", WITHOUT WARRANTY OF ANY KIND, EXPRESS OR
  16:../eurorack/plaits/dsp/oscillator/variable_shape_oscillator.h **** // IMPLIED, INCLUDING BUT NOT LIMITED TO THE WARRANTIES OF MERCHANTABILITY,
  17:../eurorack/plaits/dsp/oscillator/variable_shape_oscillator.h **** // FITNESS FOR A PARTICULAR PURPOSE AND NONINFRINGEMENT. IN NO EVENT SHALL THE
  18:../eurorack/plaits/dsp/oscillator/variable_shape_oscillator.h **** // AUTHORS OR COPYRIGHT HOLDERS BE LIABLE FOR ANY CLAIM, DAMAGES OR OTHER
  19:../eurorack/plaits/dsp/oscillator/variable_shape_oscillator.h **** // LIABILITY, WHETHER IN AN ACTION OF CONTRACT, TORT OR OTHERWISE, ARISING FROM,
  20:../eurorack/plaits/dsp/oscillator/variable_shape_oscillator.h **** // OUT OF OR IN CONNECTION WITH THE SOFTWARE OR THE USE OR OTHER DEALINGS IN
  21:../eurorack/plaits/dsp/oscillator/variable_shape_oscillator.h **** // THE SOFTWARE.
  22:../eurorack/plaits/dsp/oscillator/variable_shape_oscillator.h **** // 
  23:../eurorack/plaits/dsp/oscillator/variable_shape_oscillator.h **** // See http://creativecommons.org/licenses/MIT/ for more information.
  24:../eurorack/plaits/dsp/oscillator/variable_shape_oscillator.h **** //
  25:../eurorack/plaits/dsp/oscillator/variable_shape_oscillator.h **** // -----------------------------------------------------------------------------
  26:../eurorack/plaits/dsp/oscillator/variable_shape_oscillator.h **** //
  27:../eurorack/plaits/dsp/oscillator/variable_shape_oscillator.h **** // Continuously variable waveform: triangle > saw > square. Both square and
  28:../eurorack/plaits/dsp/oscillator/variable_shape_oscillator.h **** // triangle have variable slope / pulse-width. Additionally, the phase resets
  29:../eurorack/plaits/dsp/oscillator/variable_shape_oscillator.h **** // can be locked to a master frequency.
  30:../eurorack/plaits/dsp/oscillator/variable_shape_oscillator.h **** //
  31:../eurorack/plaits/dsp/oscillator/variable_shape_oscillator.h **** // A template parameter allows the generation of a master + slave signal,
  32:../eurorack/plaits/dsp/oscillator/variable_shape_oscillator.h **** // which can be used as the phase for phase distortion or modulation synthesis.
  33:../eurorack/plaits/dsp/oscillator/variable_shape_oscillator.h **** 
  34:../eurorack/plaits/dsp/oscillator/variable_shape_oscillator.h **** #ifndef PLAITS_DSP_OSCILLATOR_VARIABLE_SHAPE_OSCILLATOR_H_
  35:../eurorack/plaits/dsp/oscillator/variable_shape_oscillator.h **** #define PLAITS_DSP_OSCILLATOR_VARIABLE_SHAPE_OSCILLATOR_H_
  36:../eurorack/plaits/dsp/oscillator/variable_shape_oscillator.h **** 
  37:../eurorack/plaits/dsp/oscillator/variable_shape_oscillator.h **** #include "stmlib/dsp/dsp.h"
  38:../eurorack/plaits/dsp/oscillator/variable_shape_oscillator.h **** #include "stmlib/dsp/parameter_interpolator.h"
  39:../eurorack/plaits/dsp/oscillator/variable_shape_oscillator.h **** #include "stmlib/dsp/polyblep.h"
  40:../eurorack/plaits/dsp/oscillator/variable_shape_oscillator.h **** 
  41:../eurorack/plaits/dsp/oscillator/variable_shape_oscillator.h **** #include "plaits/dsp/oscillator/oscillator.h"
  42:../eurorack/plaits/dsp/oscillator/variable_shape_oscillator.h **** 
  43:../eurorack/plaits/dsp/oscillator/variable_shape_oscillator.h **** #include <algorithm>
  44:../eurorack/plaits/dsp/oscillator/variable_shape_oscillator.h **** 
  45:../eurorack/plaits/dsp/oscillator/variable_shape_oscillator.h **** namespace plaits {
  46:../eurorack/plaits/dsp/oscillator/variable_shape_oscillator.h **** 
  47:../eurorack/plaits/dsp/oscillator/variable_shape_oscillator.h **** class VariableShapeOscillator {
  48:../eurorack/plaits/dsp/oscillator/variable_shape_oscillator.h ****  public:
  49:../eurorack/plaits/dsp/oscillator/variable_shape_oscillator.h ****   VariableShapeOscillator() { }
  50:../eurorack/plaits/dsp/oscillator/variable_shape_oscillator.h ****   ~VariableShapeOscillator() { }
  51:../eurorack/plaits/dsp/oscillator/variable_shape_oscillator.h **** 
  52:../eurorack/plaits/dsp/oscillator/variable_shape_oscillator.h ****   void Init() {
ARM GAS  /var/folders/y7/g6pkzsp12sx54x3s3mvyn15r0000gn/T//ccLQFW5y.s 			page 5


  78              		.loc 3 52 8 view .LVU6
  79              	.LBB154:
  53:../eurorack/plaits/dsp/oscillator/variable_shape_oscillator.h ****     master_phase_ = 0.0f;
  80              		.loc 3 53 5 view .LVU7
  81              	.LBE154:
  82              	.LBE153:
  40:../eurorack/plaits/dsp/engine/virtual_analog_engine.cc ****   primary_.Init();
  83              		.loc 1 40 60 is_stmt 0 view .LVU8
  84 0000 70B5     		push	{r4, r5, r6, lr}
  85              		.cfi_def_cfa_offset 16
  86              		.cfi_offset 4, -16
  87              		.cfi_offset 5, -12
  88              		.cfi_offset 6, -8
  89              		.cfi_offset 14, -4
  90              	.LBB158:
  91              	.LBB155:
  92              		.loc 3 53 19 view .LVU9
  93 0002 0023     		movs	r3, #0
  54:../eurorack/plaits/dsp/oscillator/variable_shape_oscillator.h ****     slave_phase_ = 0.0f;
  55:../eurorack/plaits/dsp/oscillator/variable_shape_oscillator.h ****     next_sample_ = 0.0f;
  56:../eurorack/plaits/dsp/oscillator/variable_shape_oscillator.h ****     previous_pw_ = 0.5f;
  94              		.loc 3 56 18 view .LVU10
  95 0004 4FF07C54 		mov	r4, #1056964608
  57:../eurorack/plaits/dsp/oscillator/variable_shape_oscillator.h ****     high_ = false;
  96              		.loc 3 57 11 view .LVU11
  97 0008 0022     		movs	r2, #0
  58:../eurorack/plaits/dsp/oscillator/variable_shape_oscillator.h ****   
  59:../eurorack/plaits/dsp/oscillator/variable_shape_oscillator.h ****     master_frequency_ = 0.0f;
  60:../eurorack/plaits/dsp/oscillator/variable_shape_oscillator.h ****     slave_frequency_ = 0.01f;
  98              		.loc 3 60 22 view .LVU12
  99 000a 224D     		ldr	r5, .L6
 100              	.LBE155:
 101              	.LBE158:
 102              	.LBB159:
 103              	.LBB160:
  61:../eurorack/plaits/dsp/oscillator/variable_shape_oscillator.h ****     pw_ = 0.5f;
  62:../eurorack/plaits/dsp/oscillator/variable_shape_oscillator.h ****     waveshape_ = 0.0f;
  63:../eurorack/plaits/dsp/oscillator/variable_shape_oscillator.h ****     phase_modulation_ = 0.0f;
  64:../eurorack/plaits/dsp/oscillator/variable_shape_oscillator.h ****   }
  65:../eurorack/plaits/dsp/oscillator/variable_shape_oscillator.h **** 
  66:../eurorack/plaits/dsp/oscillator/variable_shape_oscillator.h ****   void Render(
  67:../eurorack/plaits/dsp/oscillator/variable_shape_oscillator.h ****       float frequency,
  68:../eurorack/plaits/dsp/oscillator/variable_shape_oscillator.h ****       float pw,
  69:../eurorack/plaits/dsp/oscillator/variable_shape_oscillator.h ****       float waveshape,
  70:../eurorack/plaits/dsp/oscillator/variable_shape_oscillator.h ****       float* out,
  71:../eurorack/plaits/dsp/oscillator/variable_shape_oscillator.h ****       size_t size) {
  72:../eurorack/plaits/dsp/oscillator/variable_shape_oscillator.h ****     Render<false, false>(0.0f, frequency, pw, waveshape, 0.0f, out, size);
  73:../eurorack/plaits/dsp/oscillator/variable_shape_oscillator.h ****   }
  74:../eurorack/plaits/dsp/oscillator/variable_shape_oscillator.h ****   
  75:../eurorack/plaits/dsp/oscillator/variable_shape_oscillator.h ****   void Render(
  76:../eurorack/plaits/dsp/oscillator/variable_shape_oscillator.h ****       float master_frequency,
  77:../eurorack/plaits/dsp/oscillator/variable_shape_oscillator.h ****       float frequency,
  78:../eurorack/plaits/dsp/oscillator/variable_shape_oscillator.h ****       float pw,
  79:../eurorack/plaits/dsp/oscillator/variable_shape_oscillator.h ****       float waveshape,
  80:../eurorack/plaits/dsp/oscillator/variable_shape_oscillator.h ****       float* out,
  81:../eurorack/plaits/dsp/oscillator/variable_shape_oscillator.h ****       size_t size) {
  82:../eurorack/plaits/dsp/oscillator/variable_shape_oscillator.h ****     Render<true, false>(
ARM GAS  /var/folders/y7/g6pkzsp12sx54x3s3mvyn15r0000gn/T//ccLQFW5y.s 			page 6


  83:../eurorack/plaits/dsp/oscillator/variable_shape_oscillator.h ****         master_frequency,
  84:../eurorack/plaits/dsp/oscillator/variable_shape_oscillator.h ****         frequency,
  85:../eurorack/plaits/dsp/oscillator/variable_shape_oscillator.h ****         pw,
  86:../eurorack/plaits/dsp/oscillator/variable_shape_oscillator.h ****         waveshape,
  87:../eurorack/plaits/dsp/oscillator/variable_shape_oscillator.h ****         0.0f,
  88:../eurorack/plaits/dsp/oscillator/variable_shape_oscillator.h ****         out, size);
  89:../eurorack/plaits/dsp/oscillator/variable_shape_oscillator.h ****   }
  90:../eurorack/plaits/dsp/oscillator/variable_shape_oscillator.h ****   
  91:../eurorack/plaits/dsp/oscillator/variable_shape_oscillator.h ****   template<bool enable_sync, bool output_phase>
  92:../eurorack/plaits/dsp/oscillator/variable_shape_oscillator.h ****   void Render(
  93:../eurorack/plaits/dsp/oscillator/variable_shape_oscillator.h ****       float master_frequency,
  94:../eurorack/plaits/dsp/oscillator/variable_shape_oscillator.h ****       float frequency,
  95:../eurorack/plaits/dsp/oscillator/variable_shape_oscillator.h ****       float pw,
  96:../eurorack/plaits/dsp/oscillator/variable_shape_oscillator.h ****       float waveshape,
  97:../eurorack/plaits/dsp/oscillator/variable_shape_oscillator.h ****       float phase_modulation_amount,
  98:../eurorack/plaits/dsp/oscillator/variable_shape_oscillator.h ****       float* out,
  99:../eurorack/plaits/dsp/oscillator/variable_shape_oscillator.h ****       size_t size) {
 100:../eurorack/plaits/dsp/oscillator/variable_shape_oscillator.h ****     if (master_frequency >= kMaxFrequency) {
 101:../eurorack/plaits/dsp/oscillator/variable_shape_oscillator.h ****       master_frequency = kMaxFrequency;
 102:../eurorack/plaits/dsp/oscillator/variable_shape_oscillator.h ****     }
 103:../eurorack/plaits/dsp/oscillator/variable_shape_oscillator.h ****     if (frequency >= kMaxFrequency) {
 104:../eurorack/plaits/dsp/oscillator/variable_shape_oscillator.h ****       frequency = kMaxFrequency;
 105:../eurorack/plaits/dsp/oscillator/variable_shape_oscillator.h ****     }
 106:../eurorack/plaits/dsp/oscillator/variable_shape_oscillator.h ****     
 107:../eurorack/plaits/dsp/oscillator/variable_shape_oscillator.h ****     if (frequency >= 0.25f) {
 108:../eurorack/plaits/dsp/oscillator/variable_shape_oscillator.h ****       pw = 0.5f;
 109:../eurorack/plaits/dsp/oscillator/variable_shape_oscillator.h ****     } else {
 110:../eurorack/plaits/dsp/oscillator/variable_shape_oscillator.h ****       CONSTRAIN(pw, frequency * 2.0f, 1.0f - 2.0f * frequency);
 111:../eurorack/plaits/dsp/oscillator/variable_shape_oscillator.h ****     }
 112:../eurorack/plaits/dsp/oscillator/variable_shape_oscillator.h ****     
 113:../eurorack/plaits/dsp/oscillator/variable_shape_oscillator.h ****     stmlib::ParameterInterpolator master_fm(
 114:../eurorack/plaits/dsp/oscillator/variable_shape_oscillator.h ****         &master_frequency_, master_frequency, size);
 115:../eurorack/plaits/dsp/oscillator/variable_shape_oscillator.h ****     stmlib::ParameterInterpolator fm(&slave_frequency_, frequency, size);
 116:../eurorack/plaits/dsp/oscillator/variable_shape_oscillator.h ****     stmlib::ParameterInterpolator pwm(&pw_, pw, size);
 117:../eurorack/plaits/dsp/oscillator/variable_shape_oscillator.h ****     stmlib::ParameterInterpolator waveshape_modulation(
 118:../eurorack/plaits/dsp/oscillator/variable_shape_oscillator.h ****         &waveshape_, waveshape, size);
 119:../eurorack/plaits/dsp/oscillator/variable_shape_oscillator.h ****     stmlib::ParameterInterpolator phase_modulation(
 120:../eurorack/plaits/dsp/oscillator/variable_shape_oscillator.h ****         &phase_modulation_, phase_modulation_amount, size);
 121:../eurorack/plaits/dsp/oscillator/variable_shape_oscillator.h **** 
 122:../eurorack/plaits/dsp/oscillator/variable_shape_oscillator.h ****     float next_sample = next_sample_;
 123:../eurorack/plaits/dsp/oscillator/variable_shape_oscillator.h ****     
 124:../eurorack/plaits/dsp/oscillator/variable_shape_oscillator.h ****     while (size--) {
 125:../eurorack/plaits/dsp/oscillator/variable_shape_oscillator.h ****       bool reset = false;
 126:../eurorack/plaits/dsp/oscillator/variable_shape_oscillator.h ****       bool transition_during_reset = false;
 127:../eurorack/plaits/dsp/oscillator/variable_shape_oscillator.h ****       float reset_time = 0.0f;
 128:../eurorack/plaits/dsp/oscillator/variable_shape_oscillator.h **** 
 129:../eurorack/plaits/dsp/oscillator/variable_shape_oscillator.h ****       float this_sample = next_sample;
 130:../eurorack/plaits/dsp/oscillator/variable_shape_oscillator.h ****       next_sample = 0.0f;
 131:../eurorack/plaits/dsp/oscillator/variable_shape_oscillator.h ****     
 132:../eurorack/plaits/dsp/oscillator/variable_shape_oscillator.h ****       const float master_frequency = master_fm.Next();
 133:../eurorack/plaits/dsp/oscillator/variable_shape_oscillator.h ****       const float slave_frequency = fm.Next();
 134:../eurorack/plaits/dsp/oscillator/variable_shape_oscillator.h ****       const float pw = pwm.Next();
 135:../eurorack/plaits/dsp/oscillator/variable_shape_oscillator.h ****       const float waveshape = waveshape_modulation.Next();
 136:../eurorack/plaits/dsp/oscillator/variable_shape_oscillator.h ****       
 137:../eurorack/plaits/dsp/oscillator/variable_shape_oscillator.h ****       const float square_amount = std::max(waveshape - 0.5f, 0.0f) * 2.0f;
 138:../eurorack/plaits/dsp/oscillator/variable_shape_oscillator.h ****       const float triangle_amount = std::max(1.0f - waveshape * 2.0f, 0.0f);
 139:../eurorack/plaits/dsp/oscillator/variable_shape_oscillator.h ****       
ARM GAS  /var/folders/y7/g6pkzsp12sx54x3s3mvyn15r0000gn/T//ccLQFW5y.s 			page 7


 140:../eurorack/plaits/dsp/oscillator/variable_shape_oscillator.h ****       const float slope_up = 1.0f / (pw);
 141:../eurorack/plaits/dsp/oscillator/variable_shape_oscillator.h ****       const float slope_down = 1.0f / (1.0f - pw);
 142:../eurorack/plaits/dsp/oscillator/variable_shape_oscillator.h **** 
 143:../eurorack/plaits/dsp/oscillator/variable_shape_oscillator.h ****       if (enable_sync) {
 144:../eurorack/plaits/dsp/oscillator/variable_shape_oscillator.h ****         master_phase_ += master_frequency;
 145:../eurorack/plaits/dsp/oscillator/variable_shape_oscillator.h ****         if (master_phase_ >= 1.0f) {
 146:../eurorack/plaits/dsp/oscillator/variable_shape_oscillator.h ****           master_phase_ -= 1.0f;
 147:../eurorack/plaits/dsp/oscillator/variable_shape_oscillator.h ****           reset_time = master_phase_ / master_frequency;
 148:../eurorack/plaits/dsp/oscillator/variable_shape_oscillator.h ****       
 149:../eurorack/plaits/dsp/oscillator/variable_shape_oscillator.h ****           float slave_phase_at_reset = slave_phase_ + \
 150:../eurorack/plaits/dsp/oscillator/variable_shape_oscillator.h ****               (1.0f - reset_time) * slave_frequency;
 151:../eurorack/plaits/dsp/oscillator/variable_shape_oscillator.h ****           reset = true;
 152:../eurorack/plaits/dsp/oscillator/variable_shape_oscillator.h ****           if (slave_phase_at_reset >= 1.0f) {
 153:../eurorack/plaits/dsp/oscillator/variable_shape_oscillator.h ****             slave_phase_at_reset -= 1.0f;
 154:../eurorack/plaits/dsp/oscillator/variable_shape_oscillator.h ****             transition_during_reset = true;
 155:../eurorack/plaits/dsp/oscillator/variable_shape_oscillator.h ****           }
 156:../eurorack/plaits/dsp/oscillator/variable_shape_oscillator.h ****           if (!high_ && slave_phase_at_reset >= pw) {
 157:../eurorack/plaits/dsp/oscillator/variable_shape_oscillator.h ****             transition_during_reset = true;
 158:../eurorack/plaits/dsp/oscillator/variable_shape_oscillator.h ****           }
 159:../eurorack/plaits/dsp/oscillator/variable_shape_oscillator.h ****           float value = ComputeNaiveSample(
 160:../eurorack/plaits/dsp/oscillator/variable_shape_oscillator.h ****               slave_phase_at_reset,
 161:../eurorack/plaits/dsp/oscillator/variable_shape_oscillator.h ****               pw,
 162:../eurorack/plaits/dsp/oscillator/variable_shape_oscillator.h ****               slope_up,
 163:../eurorack/plaits/dsp/oscillator/variable_shape_oscillator.h ****               slope_down,
 164:../eurorack/plaits/dsp/oscillator/variable_shape_oscillator.h ****               triangle_amount,
 165:../eurorack/plaits/dsp/oscillator/variable_shape_oscillator.h ****               square_amount);
 166:../eurorack/plaits/dsp/oscillator/variable_shape_oscillator.h ****           this_sample -= value * stmlib::ThisBlepSample(reset_time);
 167:../eurorack/plaits/dsp/oscillator/variable_shape_oscillator.h ****           next_sample -= value * stmlib::NextBlepSample(reset_time);
 168:../eurorack/plaits/dsp/oscillator/variable_shape_oscillator.h ****         }
 169:../eurorack/plaits/dsp/oscillator/variable_shape_oscillator.h ****       } else if (output_phase) {
 170:../eurorack/plaits/dsp/oscillator/variable_shape_oscillator.h ****         master_phase_ += master_frequency;
 171:../eurorack/plaits/dsp/oscillator/variable_shape_oscillator.h ****         if (master_phase_ >= 1.0f) {
 172:../eurorack/plaits/dsp/oscillator/variable_shape_oscillator.h ****           master_phase_ -= 1.0f;
 173:../eurorack/plaits/dsp/oscillator/variable_shape_oscillator.h ****         }
 174:../eurorack/plaits/dsp/oscillator/variable_shape_oscillator.h ****       }
 175:../eurorack/plaits/dsp/oscillator/variable_shape_oscillator.h ****       
 176:../eurorack/plaits/dsp/oscillator/variable_shape_oscillator.h ****       slave_phase_ += slave_frequency;
 177:../eurorack/plaits/dsp/oscillator/variable_shape_oscillator.h ****       while (transition_during_reset || !reset) {
 178:../eurorack/plaits/dsp/oscillator/variable_shape_oscillator.h ****         if (!high_) {
 179:../eurorack/plaits/dsp/oscillator/variable_shape_oscillator.h ****           if (slave_phase_ < pw) {
 180:../eurorack/plaits/dsp/oscillator/variable_shape_oscillator.h ****             break;
 181:../eurorack/plaits/dsp/oscillator/variable_shape_oscillator.h ****           }
 182:../eurorack/plaits/dsp/oscillator/variable_shape_oscillator.h ****           float t = (slave_phase_ - pw) / (previous_pw_ - pw + slave_frequency);
 183:../eurorack/plaits/dsp/oscillator/variable_shape_oscillator.h ****           float triangle_step = (slope_up + slope_down) * slave_frequency;
 184:../eurorack/plaits/dsp/oscillator/variable_shape_oscillator.h ****           triangle_step *= triangle_amount;
 185:../eurorack/plaits/dsp/oscillator/variable_shape_oscillator.h ****           
 186:../eurorack/plaits/dsp/oscillator/variable_shape_oscillator.h ****           this_sample += square_amount * stmlib::ThisBlepSample(t);
 187:../eurorack/plaits/dsp/oscillator/variable_shape_oscillator.h ****           next_sample += square_amount * stmlib::NextBlepSample(t);
 188:../eurorack/plaits/dsp/oscillator/variable_shape_oscillator.h ****           this_sample -= triangle_step * stmlib::ThisIntegratedBlepSample(t);
 189:../eurorack/plaits/dsp/oscillator/variable_shape_oscillator.h ****           next_sample -= triangle_step * stmlib::NextIntegratedBlepSample(t);
 190:../eurorack/plaits/dsp/oscillator/variable_shape_oscillator.h ****           high_ = true;
 191:../eurorack/plaits/dsp/oscillator/variable_shape_oscillator.h ****         }
 192:../eurorack/plaits/dsp/oscillator/variable_shape_oscillator.h ****       
 193:../eurorack/plaits/dsp/oscillator/variable_shape_oscillator.h ****         if (high_) {
 194:../eurorack/plaits/dsp/oscillator/variable_shape_oscillator.h ****           if (slave_phase_ < 1.0f) {
 195:../eurorack/plaits/dsp/oscillator/variable_shape_oscillator.h ****             break;
 196:../eurorack/plaits/dsp/oscillator/variable_shape_oscillator.h ****           }
ARM GAS  /var/folders/y7/g6pkzsp12sx54x3s3mvyn15r0000gn/T//ccLQFW5y.s 			page 8


 197:../eurorack/plaits/dsp/oscillator/variable_shape_oscillator.h ****           slave_phase_ -= 1.0f;
 198:../eurorack/plaits/dsp/oscillator/variable_shape_oscillator.h ****           float t = slave_phase_ / slave_frequency;
 199:../eurorack/plaits/dsp/oscillator/variable_shape_oscillator.h ****           float triangle_step = (slope_up + slope_down) * slave_frequency;
 200:../eurorack/plaits/dsp/oscillator/variable_shape_oscillator.h ****           triangle_step *= triangle_amount;
 201:../eurorack/plaits/dsp/oscillator/variable_shape_oscillator.h **** 
 202:../eurorack/plaits/dsp/oscillator/variable_shape_oscillator.h ****           this_sample -= (1.0f - triangle_amount) * stmlib::ThisBlepSample(t);
 203:../eurorack/plaits/dsp/oscillator/variable_shape_oscillator.h ****           next_sample -= (1.0f - triangle_amount) * stmlib::NextBlepSample(t);
 204:../eurorack/plaits/dsp/oscillator/variable_shape_oscillator.h ****           this_sample += triangle_step * stmlib::ThisIntegratedBlepSample(t);
 205:../eurorack/plaits/dsp/oscillator/variable_shape_oscillator.h ****           next_sample += triangle_step * stmlib::NextIntegratedBlepSample(t);
 206:../eurorack/plaits/dsp/oscillator/variable_shape_oscillator.h ****           high_ = false;
 207:../eurorack/plaits/dsp/oscillator/variable_shape_oscillator.h ****         }
 208:../eurorack/plaits/dsp/oscillator/variable_shape_oscillator.h ****       }
 209:../eurorack/plaits/dsp/oscillator/variable_shape_oscillator.h ****     
 210:../eurorack/plaits/dsp/oscillator/variable_shape_oscillator.h ****       if (enable_sync && reset) {
 211:../eurorack/plaits/dsp/oscillator/variable_shape_oscillator.h ****         slave_phase_ = reset_time * slave_frequency;
 212:../eurorack/plaits/dsp/oscillator/variable_shape_oscillator.h ****         high_ = false;
 213:../eurorack/plaits/dsp/oscillator/variable_shape_oscillator.h ****       }
 214:../eurorack/plaits/dsp/oscillator/variable_shape_oscillator.h ****     
 215:../eurorack/plaits/dsp/oscillator/variable_shape_oscillator.h ****       next_sample += ComputeNaiveSample(
 216:../eurorack/plaits/dsp/oscillator/variable_shape_oscillator.h ****           slave_phase_,
 217:../eurorack/plaits/dsp/oscillator/variable_shape_oscillator.h ****           pw,
 218:../eurorack/plaits/dsp/oscillator/variable_shape_oscillator.h ****           slope_up,
 219:../eurorack/plaits/dsp/oscillator/variable_shape_oscillator.h ****           slope_down,
 220:../eurorack/plaits/dsp/oscillator/variable_shape_oscillator.h ****           triangle_amount,
 221:../eurorack/plaits/dsp/oscillator/variable_shape_oscillator.h ****           square_amount);
 222:../eurorack/plaits/dsp/oscillator/variable_shape_oscillator.h ****       previous_pw_ = pw;
 223:../eurorack/plaits/dsp/oscillator/variable_shape_oscillator.h ****       
 224:../eurorack/plaits/dsp/oscillator/variable_shape_oscillator.h ****       if (output_phase) {
 225:../eurorack/plaits/dsp/oscillator/variable_shape_oscillator.h ****         float phasor = master_phase_;
 226:../eurorack/plaits/dsp/oscillator/variable_shape_oscillator.h ****         if (enable_sync) {
 227:../eurorack/plaits/dsp/oscillator/variable_shape_oscillator.h ****           // A trick to prevent discontinuities when the phase wraps around.
 228:../eurorack/plaits/dsp/oscillator/variable_shape_oscillator.h ****           const float w = 4.0f * (1.0f - master_phase_) * master_phase_;
 229:../eurorack/plaits/dsp/oscillator/variable_shape_oscillator.h ****           this_sample *= w * (2.0f - w);
 230:../eurorack/plaits/dsp/oscillator/variable_shape_oscillator.h ****           
 231:../eurorack/plaits/dsp/oscillator/variable_shape_oscillator.h ****           // Apply some asymmetry on the main phasor too.
 232:../eurorack/plaits/dsp/oscillator/variable_shape_oscillator.h ****           const float p2 = phasor * phasor;
 233:../eurorack/plaits/dsp/oscillator/variable_shape_oscillator.h ****           phasor += (p2 * p2 - phasor) * fabsf(pw - 0.5f) * 2.0f;
 234:../eurorack/plaits/dsp/oscillator/variable_shape_oscillator.h ****         }
 235:../eurorack/plaits/dsp/oscillator/variable_shape_oscillator.h ****         *out++ = phasor + phase_modulation.Next() * this_sample;
 236:../eurorack/plaits/dsp/oscillator/variable_shape_oscillator.h ****       } else {
 237:../eurorack/plaits/dsp/oscillator/variable_shape_oscillator.h ****         *out++ = (2.0f * this_sample - 1.0f);
 238:../eurorack/plaits/dsp/oscillator/variable_shape_oscillator.h ****       }
 239:../eurorack/plaits/dsp/oscillator/variable_shape_oscillator.h ****     }
 240:../eurorack/plaits/dsp/oscillator/variable_shape_oscillator.h ****     
 241:../eurorack/plaits/dsp/oscillator/variable_shape_oscillator.h ****     next_sample_ = next_sample;
 242:../eurorack/plaits/dsp/oscillator/variable_shape_oscillator.h ****   }
 243:../eurorack/plaits/dsp/oscillator/variable_shape_oscillator.h ****   
 244:../eurorack/plaits/dsp/oscillator/variable_shape_oscillator.h ****   inline void set_master_phase(float master_phase) {
 245:../eurorack/plaits/dsp/oscillator/variable_shape_oscillator.h ****     master_phase_ = master_phase;
 104              		.loc 3 245 19 view .LVU13
 105 000c 4FF07A56 		mov	r6, #1048576000
 106              	.LBE160:
 107              	.LBE159:
 108              	.LBB162:
 109              	.LBB156:
  53:../eurorack/plaits/dsp/oscillator/variable_shape_oscillator.h ****     slave_phase_ = 0.0f;
 110              		.loc 3 53 19 view .LVU14
ARM GAS  /var/folders/y7/g6pkzsp12sx54x3s3mvyn15r0000gn/T//ccLQFW5y.s 			page 9


 111 0010 0361     		str	r3, [r0, #16]	@ float
  54:../eurorack/plaits/dsp/oscillator/variable_shape_oscillator.h ****     next_sample_ = 0.0f;
 112              		.loc 3 54 5 is_stmt 1 view .LVU15
  54:../eurorack/plaits/dsp/oscillator/variable_shape_oscillator.h ****     next_sample_ = 0.0f;
 113              		.loc 3 54 18 is_stmt 0 view .LVU16
 114 0012 4361     		str	r3, [r0, #20]	@ float
  55:../eurorack/plaits/dsp/oscillator/variable_shape_oscillator.h ****     previous_pw_ = 0.5f;
 115              		.loc 3 55 5 is_stmt 1 view .LVU17
  55:../eurorack/plaits/dsp/oscillator/variable_shape_oscillator.h ****     previous_pw_ = 0.5f;
 116              		.loc 3 55 18 is_stmt 0 view .LVU18
 117 0014 8361     		str	r3, [r0, #24]	@ float
  56:../eurorack/plaits/dsp/oscillator/variable_shape_oscillator.h ****     high_ = false;
 118              		.loc 3 56 5 is_stmt 1 view .LVU19
  59:../eurorack/plaits/dsp/oscillator/variable_shape_oscillator.h ****     slave_frequency_ = 0.01f;
 119              		.loc 3 59 23 is_stmt 0 view .LVU20
 120 0016 4362     		str	r3, [r0, #36]	@ float
  62:../eurorack/plaits/dsp/oscillator/variable_shape_oscillator.h ****     phase_modulation_ = 0.0f;
 121              		.loc 3 62 16 view .LVU21
 122 0018 0363     		str	r3, [r0, #48]	@ float
  63:../eurorack/plaits/dsp/oscillator/variable_shape_oscillator.h ****   }
 123              		.loc 3 63 23 view .LVU22
 124 001a 4363     		str	r3, [r0, #52]	@ float
 125              	.LBE156:
 126              	.LBE162:
 127              	.LBB163:
 128              	.LBB164:
  54:../eurorack/plaits/dsp/oscillator/variable_shape_oscillator.h ****     next_sample_ = 0.0f;
 129              		.loc 3 54 18 view .LVU23
 130 001c C363     		str	r3, [r0, #60]	@ float
  55:../eurorack/plaits/dsp/oscillator/variable_shape_oscillator.h ****     previous_pw_ = 0.5f;
 131              		.loc 3 55 18 view .LVU24
 132 001e 0364     		str	r3, [r0, #64]	@ float
  59:../eurorack/plaits/dsp/oscillator/variable_shape_oscillator.h ****     slave_frequency_ = 0.01f;
 133              		.loc 3 59 23 view .LVU25
 134 0020 C364     		str	r3, [r0, #76]	@ float
  62:../eurorack/plaits/dsp/oscillator/variable_shape_oscillator.h ****     phase_modulation_ = 0.0f;
 135              		.loc 3 62 16 view .LVU26
 136 0022 8365     		str	r3, [r0, #88]	@ float
  63:../eurorack/plaits/dsp/oscillator/variable_shape_oscillator.h ****   }
 137              		.loc 3 63 23 view .LVU27
 138 0024 C365     		str	r3, [r0, #92]	@ float
 139              	.LBE164:
 140              	.LBE163:
 141              	.LBB166:
 142              	.LBB167:
  53:../eurorack/plaits/dsp/oscillator/variable_shape_oscillator.h ****     slave_phase_ = 0.0f;
 143              		.loc 3 53 19 view .LVU28
 144 0026 0366     		str	r3, [r0, #96]	@ float
  54:../eurorack/plaits/dsp/oscillator/variable_shape_oscillator.h ****     next_sample_ = 0.0f;
 145              		.loc 3 54 18 view .LVU29
 146 0028 4366     		str	r3, [r0, #100]	@ float
  55:../eurorack/plaits/dsp/oscillator/variable_shape_oscillator.h ****     previous_pw_ = 0.5f;
 147              		.loc 3 55 18 view .LVU30
 148 002a 8366     		str	r3, [r0, #104]	@ float
  59:../eurorack/plaits/dsp/oscillator/variable_shape_oscillator.h ****     slave_frequency_ = 0.01f;
 149              		.loc 3 59 23 view .LVU31
 150 002c 4367     		str	r3, [r0, #116]	@ float
ARM GAS  /var/folders/y7/g6pkzsp12sx54x3s3mvyn15r0000gn/T//ccLQFW5y.s 			page 10


  62:../eurorack/plaits/dsp/oscillator/variable_shape_oscillator.h ****     phase_modulation_ = 0.0f;
 151              		.loc 3 62 16 view .LVU32
 152 002e C0F88030 		str	r3, [r0, #128]	@ float
  63:../eurorack/plaits/dsp/oscillator/variable_shape_oscillator.h ****   }
 153              		.loc 3 63 23 view .LVU33
 154 0032 C0F88430 		str	r3, [r0, #132]	@ float
 155              	.LBE167:
 156              	.LBE166:
 157              	.LBB169:
 158              	.LBB157:
  56:../eurorack/plaits/dsp/oscillator/variable_shape_oscillator.h ****     high_ = false;
 159              		.loc 3 56 18 view .LVU34
 160 0036 C461     		str	r4, [r0, #28]	@ float
  57:../eurorack/plaits/dsp/oscillator/variable_shape_oscillator.h ****   
 161              		.loc 3 57 5 is_stmt 1 view .LVU35
  57:../eurorack/plaits/dsp/oscillator/variable_shape_oscillator.h ****   
 162              		.loc 3 57 11 is_stmt 0 view .LVU36
 163 0038 80F82020 		strb	r2, [r0, #32]
  59:../eurorack/plaits/dsp/oscillator/variable_shape_oscillator.h ****     slave_frequency_ = 0.01f;
 164              		.loc 3 59 5 is_stmt 1 view .LVU37
  60:../eurorack/plaits/dsp/oscillator/variable_shape_oscillator.h ****     pw_ = 0.5f;
 165              		.loc 3 60 5 view .LVU38
  60:../eurorack/plaits/dsp/oscillator/variable_shape_oscillator.h ****     pw_ = 0.5f;
 166              		.loc 3 60 22 is_stmt 0 view .LVU39
 167 003c 8562     		str	r5, [r0, #40]	@ float
  61:../eurorack/plaits/dsp/oscillator/variable_shape_oscillator.h ****     waveshape_ = 0.0f;
 168              		.loc 3 61 5 is_stmt 1 view .LVU40
  61:../eurorack/plaits/dsp/oscillator/variable_shape_oscillator.h ****     waveshape_ = 0.0f;
 169              		.loc 3 61 9 is_stmt 0 view .LVU41
 170 003e C462     		str	r4, [r0, #44]	@ float
  62:../eurorack/plaits/dsp/oscillator/variable_shape_oscillator.h ****     phase_modulation_ = 0.0f;
 171              		.loc 3 62 5 is_stmt 1 view .LVU42
  63:../eurorack/plaits/dsp/oscillator/variable_shape_oscillator.h ****   }
 172              		.loc 3 63 5 view .LVU43
 173              	.LVL3:
  63:../eurorack/plaits/dsp/oscillator/variable_shape_oscillator.h ****   }
 174              		.loc 3 63 5 is_stmt 0 view .LVU44
 175              	.LBE157:
 176              	.LBE169:
  42:../eurorack/plaits/dsp/engine/virtual_analog_engine.cc ****   auxiliary_.set_master_phase(0.25f);
 177              		.loc 1 42 3 is_stmt 1 view .LVU45
 178              	.LBB170:
 179              	.LBI163:
  52:../eurorack/plaits/dsp/oscillator/variable_shape_oscillator.h ****     master_phase_ = 0.0f;
 180              		.loc 3 52 8 view .LVU46
 181              	.LBB165:
  53:../eurorack/plaits/dsp/oscillator/variable_shape_oscillator.h ****     slave_phase_ = 0.0f;
 182              		.loc 3 53 5 view .LVU47
  54:../eurorack/plaits/dsp/oscillator/variable_shape_oscillator.h ****     next_sample_ = 0.0f;
 183              		.loc 3 54 5 view .LVU48
  55:../eurorack/plaits/dsp/oscillator/variable_shape_oscillator.h ****     previous_pw_ = 0.5f;
 184              		.loc 3 55 5 view .LVU49
  56:../eurorack/plaits/dsp/oscillator/variable_shape_oscillator.h ****     high_ = false;
 185              		.loc 3 56 5 view .LVU50
  56:../eurorack/plaits/dsp/oscillator/variable_shape_oscillator.h ****     high_ = false;
 186              		.loc 3 56 18 is_stmt 0 view .LVU51
 187 0040 4464     		str	r4, [r0, #68]	@ float
ARM GAS  /var/folders/y7/g6pkzsp12sx54x3s3mvyn15r0000gn/T//ccLQFW5y.s 			page 11


  57:../eurorack/plaits/dsp/oscillator/variable_shape_oscillator.h ****   
 188              		.loc 3 57 5 is_stmt 1 view .LVU52
  57:../eurorack/plaits/dsp/oscillator/variable_shape_oscillator.h ****   
 189              		.loc 3 57 11 is_stmt 0 view .LVU53
 190 0042 80F84820 		strb	r2, [r0, #72]
  59:../eurorack/plaits/dsp/oscillator/variable_shape_oscillator.h ****     slave_frequency_ = 0.01f;
 191              		.loc 3 59 5 is_stmt 1 view .LVU54
  60:../eurorack/plaits/dsp/oscillator/variable_shape_oscillator.h ****     pw_ = 0.5f;
 192              		.loc 3 60 5 view .LVU55
  60:../eurorack/plaits/dsp/oscillator/variable_shape_oscillator.h ****     pw_ = 0.5f;
 193              		.loc 3 60 22 is_stmt 0 view .LVU56
 194 0046 0565     		str	r5, [r0, #80]	@ float
  61:../eurorack/plaits/dsp/oscillator/variable_shape_oscillator.h ****     waveshape_ = 0.0f;
 195              		.loc 3 61 5 is_stmt 1 view .LVU57
  61:../eurorack/plaits/dsp/oscillator/variable_shape_oscillator.h ****     waveshape_ = 0.0f;
 196              		.loc 3 61 9 is_stmt 0 view .LVU58
 197 0048 4465     		str	r4, [r0, #84]	@ float
  62:../eurorack/plaits/dsp/oscillator/variable_shape_oscillator.h ****     phase_modulation_ = 0.0f;
 198              		.loc 3 62 5 is_stmt 1 view .LVU59
  63:../eurorack/plaits/dsp/oscillator/variable_shape_oscillator.h ****   }
 199              		.loc 3 63 5 view .LVU60
 200              	.LVL4:
  63:../eurorack/plaits/dsp/oscillator/variable_shape_oscillator.h ****   }
 201              		.loc 3 63 5 is_stmt 0 view .LVU61
 202              	.LBE165:
 203              	.LBE170:
  43:../eurorack/plaits/dsp/engine/virtual_analog_engine.cc ****   sync_.Init();
 204              		.loc 1 43 3 is_stmt 1 view .LVU62
 205              	.LBB171:
 206              	.LBI159:
 244:../eurorack/plaits/dsp/oscillator/variable_shape_oscillator.h ****     master_phase_ = master_phase;
 207              		.loc 3 244 15 view .LVU63
 208              	.LBB161:
 209              		.loc 3 245 5 view .LVU64
 210              		.loc 3 245 19 is_stmt 0 view .LVU65
 211 004a 8663     		str	r6, [r0, #56]	@ float
 212              	.LVL5:
 213              		.loc 3 245 19 view .LVU66
 214              	.LBE161:
 215              	.LBE171:
  44:../eurorack/plaits/dsp/engine/virtual_analog_engine.cc ****   variable_saw_.Init();
 216              		.loc 1 44 3 is_stmt 1 view .LVU67
 217              	.LBB172:
 218              	.LBI166:
  52:../eurorack/plaits/dsp/oscillator/variable_shape_oscillator.h ****     master_phase_ = 0.0f;
 219              		.loc 3 52 8 view .LVU68
 220              	.LBB168:
  53:../eurorack/plaits/dsp/oscillator/variable_shape_oscillator.h ****     slave_phase_ = 0.0f;
 221              		.loc 3 53 5 view .LVU69
  54:../eurorack/plaits/dsp/oscillator/variable_shape_oscillator.h ****     next_sample_ = 0.0f;
 222              		.loc 3 54 5 view .LVU70
  55:../eurorack/plaits/dsp/oscillator/variable_shape_oscillator.h ****     previous_pw_ = 0.5f;
 223              		.loc 3 55 5 view .LVU71
  56:../eurorack/plaits/dsp/oscillator/variable_shape_oscillator.h ****     high_ = false;
 224              		.loc 3 56 5 view .LVU72
  56:../eurorack/plaits/dsp/oscillator/variable_shape_oscillator.h ****     high_ = false;
 225              		.loc 3 56 18 is_stmt 0 view .LVU73
ARM GAS  /var/folders/y7/g6pkzsp12sx54x3s3mvyn15r0000gn/T//ccLQFW5y.s 			page 12


 226 004c C466     		str	r4, [r0, #108]	@ float
  57:../eurorack/plaits/dsp/oscillator/variable_shape_oscillator.h ****   
 227              		.loc 3 57 5 is_stmt 1 view .LVU74
  57:../eurorack/plaits/dsp/oscillator/variable_shape_oscillator.h ****   
 228              		.loc 3 57 11 is_stmt 0 view .LVU75
 229 004e 80F87020 		strb	r2, [r0, #112]
  59:../eurorack/plaits/dsp/oscillator/variable_shape_oscillator.h ****     slave_frequency_ = 0.01f;
 230              		.loc 3 59 5 is_stmt 1 view .LVU76
  60:../eurorack/plaits/dsp/oscillator/variable_shape_oscillator.h ****     pw_ = 0.5f;
 231              		.loc 3 60 5 view .LVU77
  60:../eurorack/plaits/dsp/oscillator/variable_shape_oscillator.h ****     pw_ = 0.5f;
 232              		.loc 3 60 22 is_stmt 0 view .LVU78
 233 0052 8567     		str	r5, [r0, #120]	@ float
  61:../eurorack/plaits/dsp/oscillator/variable_shape_oscillator.h ****     waveshape_ = 0.0f;
 234              		.loc 3 61 5 is_stmt 1 view .LVU79
  61:../eurorack/plaits/dsp/oscillator/variable_shape_oscillator.h ****     waveshape_ = 0.0f;
 235              		.loc 3 61 9 is_stmt 0 view .LVU80
 236 0054 C467     		str	r4, [r0, #124]	@ float
  62:../eurorack/plaits/dsp/oscillator/variable_shape_oscillator.h ****     phase_modulation_ = 0.0f;
 237              		.loc 3 62 5 is_stmt 1 view .LVU81
  63:../eurorack/plaits/dsp/oscillator/variable_shape_oscillator.h ****   }
 238              		.loc 3 63 5 view .LVU82
 239              	.LVL6:
  63:../eurorack/plaits/dsp/oscillator/variable_shape_oscillator.h ****   }
 240              		.loc 3 63 5 is_stmt 0 view .LVU83
 241              	.LBE168:
 242              	.LBE172:
  45:../eurorack/plaits/dsp/engine/virtual_analog_engine.cc ****   
 243              		.loc 1 45 3 is_stmt 1 view .LVU84
 244              	.LBB173:
 245              	.LBI173:
 246              		.file 4 "../eurorack/plaits/dsp/oscillator/variable_saw_oscillator.h"
   1:../eurorack/plaits/dsp/oscillator/variable_saw_oscillator.h **** // Copyright 2016 Emilie Gillet.
   2:../eurorack/plaits/dsp/oscillator/variable_saw_oscillator.h **** //
   3:../eurorack/plaits/dsp/oscillator/variable_saw_oscillator.h **** // Author: Emilie Gillet (emilie.o.gillet@gmail.com)
   4:../eurorack/plaits/dsp/oscillator/variable_saw_oscillator.h **** //
   5:../eurorack/plaits/dsp/oscillator/variable_saw_oscillator.h **** // Permission is hereby granted, free of charge, to any person obtaining a copy
   6:../eurorack/plaits/dsp/oscillator/variable_saw_oscillator.h **** // of this software and associated documentation files (the "Software"), to deal
   7:../eurorack/plaits/dsp/oscillator/variable_saw_oscillator.h **** // in the Software without restriction, including without limitation the rights
   8:../eurorack/plaits/dsp/oscillator/variable_saw_oscillator.h **** // to use, copy, modify, merge, publish, distribute, sublicense, and/or sell
   9:../eurorack/plaits/dsp/oscillator/variable_saw_oscillator.h **** // copies of the Software, and to permit persons to whom the Software is
  10:../eurorack/plaits/dsp/oscillator/variable_saw_oscillator.h **** // furnished to do so, subject to the following conditions:
  11:../eurorack/plaits/dsp/oscillator/variable_saw_oscillator.h **** // 
  12:../eurorack/plaits/dsp/oscillator/variable_saw_oscillator.h **** // The above copyright notice and this permission notice shall be included in
  13:../eurorack/plaits/dsp/oscillator/variable_saw_oscillator.h **** // all copies or substantial portions of the Software.
  14:../eurorack/plaits/dsp/oscillator/variable_saw_oscillator.h **** // 
  15:../eurorack/plaits/dsp/oscillator/variable_saw_oscillator.h **** // THE SOFTWARE IS PROVIDED "AS IS", WITHOUT WARRANTY OF ANY KIND, EXPRESS OR
  16:../eurorack/plaits/dsp/oscillator/variable_saw_oscillator.h **** // IMPLIED, INCLUDING BUT NOT LIMITED TO THE WARRANTIES OF MERCHANTABILITY,
  17:../eurorack/plaits/dsp/oscillator/variable_saw_oscillator.h **** // FITNESS FOR A PARTICULAR PURPOSE AND NONINFRINGEMENT. IN NO EVENT SHALL THE
  18:../eurorack/plaits/dsp/oscillator/variable_saw_oscillator.h **** // AUTHORS OR COPYRIGHT HOLDERS BE LIABLE FOR ANY CLAIM, DAMAGES OR OTHER
  19:../eurorack/plaits/dsp/oscillator/variable_saw_oscillator.h **** // LIABILITY, WHETHER IN AN ACTION OF CONTRACT, TORT OR OTHERWISE, ARISING FROM,
  20:../eurorack/plaits/dsp/oscillator/variable_saw_oscillator.h **** // OUT OF OR IN CONNECTION WITH THE SOFTWARE OR THE USE OR OTHER DEALINGS IN
  21:../eurorack/plaits/dsp/oscillator/variable_saw_oscillator.h **** // THE SOFTWARE.
  22:../eurorack/plaits/dsp/oscillator/variable_saw_oscillator.h **** // 
  23:../eurorack/plaits/dsp/oscillator/variable_saw_oscillator.h **** // See http://creativecommons.org/licenses/MIT/ for more information.
  24:../eurorack/plaits/dsp/oscillator/variable_saw_oscillator.h **** //
  25:../eurorack/plaits/dsp/oscillator/variable_saw_oscillator.h **** // -----------------------------------------------------------------------------
ARM GAS  /var/folders/y7/g6pkzsp12sx54x3s3mvyn15r0000gn/T//ccLQFW5y.s 			page 13


  26:../eurorack/plaits/dsp/oscillator/variable_saw_oscillator.h **** //
  27:../eurorack/plaits/dsp/oscillator/variable_saw_oscillator.h **** // Saw with variable slope or notch
  28:../eurorack/plaits/dsp/oscillator/variable_saw_oscillator.h **** 
  29:../eurorack/plaits/dsp/oscillator/variable_saw_oscillator.h **** #ifndef PLAITS_DSP_OSCILLATOR_VARIABLE_SAW_OSCILLATOR_H_
  30:../eurorack/plaits/dsp/oscillator/variable_saw_oscillator.h **** #define PLAITS_DSP_OSCILLATOR_VARIABLE_SAW_OSCILLATOR_H_
  31:../eurorack/plaits/dsp/oscillator/variable_saw_oscillator.h **** 
  32:../eurorack/plaits/dsp/oscillator/variable_saw_oscillator.h **** #include "stmlib/dsp/dsp.h"
  33:../eurorack/plaits/dsp/oscillator/variable_saw_oscillator.h **** #include "stmlib/dsp/parameter_interpolator.h"
  34:../eurorack/plaits/dsp/oscillator/variable_saw_oscillator.h **** #include "stmlib/dsp/polyblep.h"
  35:../eurorack/plaits/dsp/oscillator/variable_saw_oscillator.h **** 
  36:../eurorack/plaits/dsp/oscillator/variable_saw_oscillator.h **** #include <algorithm>
  37:../eurorack/plaits/dsp/oscillator/variable_saw_oscillator.h **** 
  38:../eurorack/plaits/dsp/oscillator/variable_saw_oscillator.h **** #include "plaits/dsp/oscillator/oscillator.h"
  39:../eurorack/plaits/dsp/oscillator/variable_saw_oscillator.h **** 
  40:../eurorack/plaits/dsp/oscillator/variable_saw_oscillator.h **** namespace plaits {
  41:../eurorack/plaits/dsp/oscillator/variable_saw_oscillator.h **** 
  42:../eurorack/plaits/dsp/oscillator/variable_saw_oscillator.h **** const float kVariableSawNotchDepth = 0.2f;
  43:../eurorack/plaits/dsp/oscillator/variable_saw_oscillator.h **** 
  44:../eurorack/plaits/dsp/oscillator/variable_saw_oscillator.h **** class VariableSawOscillator {
  45:../eurorack/plaits/dsp/oscillator/variable_saw_oscillator.h ****  public:
  46:../eurorack/plaits/dsp/oscillator/variable_saw_oscillator.h ****   VariableSawOscillator() { }
  47:../eurorack/plaits/dsp/oscillator/variable_saw_oscillator.h ****   ~VariableSawOscillator() { }
  48:../eurorack/plaits/dsp/oscillator/variable_saw_oscillator.h **** 
  49:../eurorack/plaits/dsp/oscillator/variable_saw_oscillator.h ****   void Init() {
 247              		.loc 4 49 8 view .LVU85
 248              	.LBB174:
  50:../eurorack/plaits/dsp/oscillator/variable_saw_oscillator.h ****     phase_ = 0.0f;
 249              		.loc 4 50 5 view .LVU86
 250              		.loc 4 50 12 is_stmt 0 view .LVU87
 251 0056 C0F88830 		str	r3, [r0, #136]	@ float
  51:../eurorack/plaits/dsp/oscillator/variable_saw_oscillator.h ****     next_sample_ = 0.0f;
 252              		.loc 4 51 5 is_stmt 1 view .LVU88
 253              		.loc 4 51 18 is_stmt 0 view .LVU89
 254 005a C0F88C30 		str	r3, [r0, #140]	@ float
  52:../eurorack/plaits/dsp/oscillator/variable_saw_oscillator.h ****     previous_pw_ = 0.5f;
 255              		.loc 4 52 5 is_stmt 1 view .LVU90
  53:../eurorack/plaits/dsp/oscillator/variable_saw_oscillator.h ****     high_ = false;
  54:../eurorack/plaits/dsp/oscillator/variable_saw_oscillator.h ****   
  55:../eurorack/plaits/dsp/oscillator/variable_saw_oscillator.h ****     frequency_ = 0.01f;
  56:../eurorack/plaits/dsp/oscillator/variable_saw_oscillator.h ****     pw_ = 0.5f;
  57:../eurorack/plaits/dsp/oscillator/variable_saw_oscillator.h ****     waveshape_ = 0.0f;
 256              		.loc 4 57 16 is_stmt 0 view .LVU91
 257 005e C0F8A030 		str	r3, [r0, #160]	@ float
 258              	.LBE174:
 259              	.LBE173:
  47:../eurorack/plaits/dsp/engine/virtual_analog_engine.cc ****   xmod_amount_ = 0.0f;
 260              		.loc 1 47 21 view .LVU92
 261 0062 C0F8A430 		str	r3, [r0, #164]	@ float
  48:../eurorack/plaits/dsp/engine/virtual_analog_engine.cc ****   
 262              		.loc 1 48 16 view .LVU93
 263 0066 C0F8A830 		str	r3, [r0, #168]	@ float
 264              	.LBB177:
 265              	.LBB178:
 266              	.LBB179:
 267              		.file 5 "../eurorack/stmlib/utils/buffer_allocator.h"
   1:../eurorack/stmlib/utils/buffer_allocator.h **** // Copyright 2014 Emilie Gillet.
   2:../eurorack/stmlib/utils/buffer_allocator.h **** //
ARM GAS  /var/folders/y7/g6pkzsp12sx54x3s3mvyn15r0000gn/T//ccLQFW5y.s 			page 14


   3:../eurorack/stmlib/utils/buffer_allocator.h **** // Author: Emilie Gillet (emilie.o.gillet@gmail.com)
   4:../eurorack/stmlib/utils/buffer_allocator.h **** //
   5:../eurorack/stmlib/utils/buffer_allocator.h **** // Permission is hereby granted, free of charge, to any person obtaining a copy
   6:../eurorack/stmlib/utils/buffer_allocator.h **** // of this software and associated documentation files (the "Software"), to deal
   7:../eurorack/stmlib/utils/buffer_allocator.h **** // in the Software without restriction, including without limitation the rights
   8:../eurorack/stmlib/utils/buffer_allocator.h **** // to use, copy, modify, merge, publish, distribute, sublicense, and/or sell
   9:../eurorack/stmlib/utils/buffer_allocator.h **** // copies of the Software, and to permit persons to whom the Software is
  10:../eurorack/stmlib/utils/buffer_allocator.h **** // furnished to do so, subject to the following conditions:
  11:../eurorack/stmlib/utils/buffer_allocator.h **** // 
  12:../eurorack/stmlib/utils/buffer_allocator.h **** // The above copyright notice and this permission notice shall be included in
  13:../eurorack/stmlib/utils/buffer_allocator.h **** // all copies or substantial portions of the Software.
  14:../eurorack/stmlib/utils/buffer_allocator.h **** // 
  15:../eurorack/stmlib/utils/buffer_allocator.h **** // THE SOFTWARE IS PROVIDED "AS IS", WITHOUT WARRANTY OF ANY KIND, EXPRESS OR
  16:../eurorack/stmlib/utils/buffer_allocator.h **** // IMPLIED, INCLUDING BUT NOT LIMITED TO THE WARRANTIES OF MERCHANTABILITY,
  17:../eurorack/stmlib/utils/buffer_allocator.h **** // FITNESS FOR A PARTICULAR PURPOSE AND NONINFRINGEMENT. IN NO EVENT SHALL THE
  18:../eurorack/stmlib/utils/buffer_allocator.h **** // AUTHORS OR COPYRIGHT HOLDERS BE LIABLE FOR ANY CLAIM, DAMAGES OR OTHER
  19:../eurorack/stmlib/utils/buffer_allocator.h **** // LIABILITY, WHETHER IN AN ACTION OF CONTRACT, TORT OR OTHERWISE, ARISING FROM,
  20:../eurorack/stmlib/utils/buffer_allocator.h **** // OUT OF OR IN CONNECTION WITH THE SOFTWARE OR THE USE OR OTHER DEALINGS IN
  21:../eurorack/stmlib/utils/buffer_allocator.h **** // THE SOFTWARE.
  22:../eurorack/stmlib/utils/buffer_allocator.h **** // 
  23:../eurorack/stmlib/utils/buffer_allocator.h **** // See http://creativecommons.org/licenses/MIT/ for more information.
  24:../eurorack/stmlib/utils/buffer_allocator.h **** //
  25:../eurorack/stmlib/utils/buffer_allocator.h **** // -----------------------------------------------------------------------------
  26:../eurorack/stmlib/utils/buffer_allocator.h **** //
  27:../eurorack/stmlib/utils/buffer_allocator.h **** // Stream buffer for serialization.
  28:../eurorack/stmlib/utils/buffer_allocator.h **** 
  29:../eurorack/stmlib/utils/buffer_allocator.h **** #ifndef STMLIB_UTILS_BUFFER_ALLOCATOR_H_
  30:../eurorack/stmlib/utils/buffer_allocator.h **** #define STMLIB_UTILS_BUFFER_ALLOCATOR_H_
  31:../eurorack/stmlib/utils/buffer_allocator.h **** 
  32:../eurorack/stmlib/utils/buffer_allocator.h **** #include "stmlib/stmlib.h"
  33:../eurorack/stmlib/utils/buffer_allocator.h **** 
  34:../eurorack/stmlib/utils/buffer_allocator.h **** namespace stmlib {
  35:../eurorack/stmlib/utils/buffer_allocator.h **** 
  36:../eurorack/stmlib/utils/buffer_allocator.h **** class BufferAllocator {
  37:../eurorack/stmlib/utils/buffer_allocator.h ****  public:
  38:../eurorack/stmlib/utils/buffer_allocator.h ****   BufferAllocator() { }
  39:../eurorack/stmlib/utils/buffer_allocator.h ****   ~BufferAllocator() { }
  40:../eurorack/stmlib/utils/buffer_allocator.h ****   
  41:../eurorack/stmlib/utils/buffer_allocator.h ****   BufferAllocator(void* buffer, size_t size) {
  42:../eurorack/stmlib/utils/buffer_allocator.h ****     Init(buffer, size);
  43:../eurorack/stmlib/utils/buffer_allocator.h ****   }
  44:../eurorack/stmlib/utils/buffer_allocator.h ****   
  45:../eurorack/stmlib/utils/buffer_allocator.h ****   inline void Init(void* buffer, size_t size) {
  46:../eurorack/stmlib/utils/buffer_allocator.h ****     buffer_ = static_cast<uint8_t*>(buffer);
  47:../eurorack/stmlib/utils/buffer_allocator.h ****     size_ = size;
  48:../eurorack/stmlib/utils/buffer_allocator.h ****     Free();
  49:../eurorack/stmlib/utils/buffer_allocator.h ****   }
  50:../eurorack/stmlib/utils/buffer_allocator.h **** 
  51:../eurorack/stmlib/utils/buffer_allocator.h ****   template<typename T>
  52:../eurorack/stmlib/utils/buffer_allocator.h ****   inline T* Allocate() {
  53:../eurorack/stmlib/utils/buffer_allocator.h ****     return Allocate<T>(1);
  54:../eurorack/stmlib/utils/buffer_allocator.h ****   }
  55:../eurorack/stmlib/utils/buffer_allocator.h ****   
  56:../eurorack/stmlib/utils/buffer_allocator.h ****   template<typename T>
  57:../eurorack/stmlib/utils/buffer_allocator.h ****   inline T* Allocate(size_t size) {
  58:../eurorack/stmlib/utils/buffer_allocator.h ****     size_t size_bytes = sizeof(T) * size;
  59:../eurorack/stmlib/utils/buffer_allocator.h ****     if (size_bytes <= free_) {
ARM GAS  /var/folders/y7/g6pkzsp12sx54x3s3mvyn15r0000gn/T//ccLQFW5y.s 			page 15


 268              		.loc 5 59 23 view .LVU94
 269 006a 8B68     		ldr	r3, [r1, #8]
 270              	.LBE179:
 271              	.LBE178:
 272              	.LBE177:
 273              	.LBB185:
 274              	.LBB175:
  52:../eurorack/plaits/dsp/oscillator/variable_saw_oscillator.h ****     high_ = false;
 275              		.loc 4 52 18 view .LVU95
 276 006c C0F89040 		str	r4, [r0, #144]	@ float
  53:../eurorack/plaits/dsp/oscillator/variable_saw_oscillator.h ****   
 277              		.loc 4 53 5 is_stmt 1 view .LVU96
 278              	.LBE175:
 279              	.LBE185:
 280              	.LBB186:
 281              	.LBB183:
 282              	.LBB181:
 283              		.loc 5 59 5 is_stmt 0 view .LVU97
 284 0070 5F2B     		cmp	r3, #95
 285              	.LBE181:
 286              	.LBE183:
 287              	.LBE186:
 288              	.LBB187:
 289              	.LBB176:
  53:../eurorack/plaits/dsp/oscillator/variable_saw_oscillator.h ****   
 290              		.loc 4 53 11 view .LVU98
 291 0072 80F89420 		strb	r2, [r0, #148]
  55:../eurorack/plaits/dsp/oscillator/variable_saw_oscillator.h ****     pw_ = 0.5f;
 292              		.loc 4 55 5 is_stmt 1 view .LVU99
  55:../eurorack/plaits/dsp/oscillator/variable_saw_oscillator.h ****     pw_ = 0.5f;
 293              		.loc 4 55 16 is_stmt 0 view .LVU100
 294 0076 C0F89850 		str	r5, [r0, #152]	@ float
  56:../eurorack/plaits/dsp/oscillator/variable_saw_oscillator.h ****     waveshape_ = 0.0f;
 295              		.loc 4 56 5 is_stmt 1 view .LVU101
  56:../eurorack/plaits/dsp/oscillator/variable_saw_oscillator.h ****     waveshape_ = 0.0f;
 296              		.loc 4 56 9 is_stmt 0 view .LVU102
 297 007a C0F89C40 		str	r4, [r0, #156]	@ float
 298              		.loc 4 57 5 is_stmt 1 view .LVU103
 299              	.LVL7:
 300              		.loc 4 57 5 is_stmt 0 view .LVU104
 301              	.LBE176:
 302              	.LBE187:
  47:../eurorack/plaits/dsp/engine/virtual_analog_engine.cc ****   xmod_amount_ = 0.0f;
 303              		.loc 1 47 3 is_stmt 1 view .LVU105
  48:../eurorack/plaits/dsp/engine/virtual_analog_engine.cc ****   
 304              		.loc 1 48 3 view .LVU106
  50:../eurorack/plaits/dsp/engine/virtual_analog_engine.cc **** }
 305              		.loc 1 50 3 view .LVU107
 306              	.LBB188:
 307              	.LBI177:
  57:../eurorack/stmlib/utils/buffer_allocator.h ****     size_t size_bytes = sizeof(T) * size;
 308              		.loc 5 57 13 view .LVU108
 309              	.LBB184:
 310              	.LBB182:
 311              		.loc 5 59 5 is_stmt 0 view .LVU109
 312 007e 05D9     		bls	.L4
 313              	.LBB180:
ARM GAS  /var/folders/y7/g6pkzsp12sx54x3s3mvyn15r0000gn/T//ccLQFW5y.s 			page 16


  60:../eurorack/stmlib/utils/buffer_allocator.h ****       T* start = static_cast<T*>(static_cast<void*>(next_));
 314              		.loc 5 60 10 view .LVU110
 315 0080 0A68     		ldr	r2, [r1]
 316              	.LVL8:
  61:../eurorack/stmlib/utils/buffer_allocator.h ****       next_ += size_bytes;
  62:../eurorack/stmlib/utils/buffer_allocator.h ****       free_ -= size_bytes;
 317              		.loc 5 62 13 view .LVU111
 318 0082 603B     		subs	r3, r3, #96
  61:../eurorack/stmlib/utils/buffer_allocator.h ****       next_ += size_bytes;
 319              		.loc 5 61 13 view .LVU112
 320 0084 02F16004 		add	r4, r2, #96
 321              		.loc 5 62 13 view .LVU113
 322 0088 8B60     		str	r3, [r1, #8]
  61:../eurorack/stmlib/utils/buffer_allocator.h ****       next_ += size_bytes;
 323              		.loc 5 61 13 view .LVU114
 324 008a 0C60     		str	r4, [r1]
 325              	.LVL9:
 326              	.L4:
  61:../eurorack/stmlib/utils/buffer_allocator.h ****       next_ += size_bytes;
 327              		.loc 5 61 13 view .LVU115
 328              	.LBE180:
 329              	.LBE182:
 330              	.LBE184:
 331              	.LBE188:
  50:../eurorack/plaits/dsp/engine/virtual_analog_engine.cc **** }
 332              		.loc 1 50 16 discriminator 1 view .LVU116
 333 008c C0F8AC20 		str	r2, [r0, #172]
  51:../eurorack/plaits/dsp/engine/virtual_analog_engine.cc **** 
 334              		.loc 1 51 1 view .LVU117
 335 0090 70BD     		pop	{r4, r5, r6, pc}
 336              	.L7:
 337 0092 00BF     		.align	2
 338              	.L6:
 339 0094 0AD7233C 		.word	1008981770
 340              		.cfi_endproc
 341              	.LFE1303:
 343              		.section	.text._ZN6plaits15NoteToFrequencyEf,"axG",%progbits,_ZN6plaits15NoteToFrequencyEf,comdat
 344              		.align	1
 345              		.weak	_ZN6plaits15NoteToFrequencyEf
 346              		.syntax unified
 347              		.thumb
 348              		.thumb_func
 350              	_ZN6plaits15NoteToFrequencyEf:
 351              	.LVL10:
 352              	.LFB593:
 353              		.file 6 "../eurorack/plaits/dsp/engine/engine.h"
   1:../eurorack/plaits/dsp/engine/engine.h **** // Copyright 2016 Emilie Gillet.
   2:../eurorack/plaits/dsp/engine/engine.h **** //
   3:../eurorack/plaits/dsp/engine/engine.h **** // Author: Emilie Gillet (emilie.o.gillet@gmail.com)
   4:../eurorack/plaits/dsp/engine/engine.h **** //
   5:../eurorack/plaits/dsp/engine/engine.h **** // Permission is hereby granted, free of charge, to any person obtaining a copy
   6:../eurorack/plaits/dsp/engine/engine.h **** // of this software and associated documentation files (the "Software"), to deal
   7:../eurorack/plaits/dsp/engine/engine.h **** // in the Software without restriction, including without limitation the rights
   8:../eurorack/plaits/dsp/engine/engine.h **** // to use, copy, modify, merge, publish, distribute, sublicense, and/or sell
   9:../eurorack/plaits/dsp/engine/engine.h **** // copies of the Software, and to permit persons to whom the Software is
  10:../eurorack/plaits/dsp/engine/engine.h **** // furnished to do so, subject to the following conditions:
  11:../eurorack/plaits/dsp/engine/engine.h **** // 
ARM GAS  /var/folders/y7/g6pkzsp12sx54x3s3mvyn15r0000gn/T//ccLQFW5y.s 			page 17


  12:../eurorack/plaits/dsp/engine/engine.h **** // The above copyright notice and this permission notice shall be included in
  13:../eurorack/plaits/dsp/engine/engine.h **** // all copies or substantial portions of the Software.
  14:../eurorack/plaits/dsp/engine/engine.h **** // 
  15:../eurorack/plaits/dsp/engine/engine.h **** // THE SOFTWARE IS PROVIDED "AS IS", WITHOUT WARRANTY OF ANY KIND, EXPRESS OR
  16:../eurorack/plaits/dsp/engine/engine.h **** // IMPLIED, INCLUDING BUT NOT LIMITED TO THE WARRANTIES OF MERCHANTABILITY,
  17:../eurorack/plaits/dsp/engine/engine.h **** // FITNESS FOR A PARTICULAR PURPOSE AND NONINFRINGEMENT. IN NO EVENT SHALL THE
  18:../eurorack/plaits/dsp/engine/engine.h **** // AUTHORS OR COPYRIGHT HOLDERS BE LIABLE FOR ANY CLAIM, DAMAGES OR OTHER
  19:../eurorack/plaits/dsp/engine/engine.h **** // LIABILITY, WHETHER IN AN ACTION OF CONTRACT, TORT OR OTHERWISE, ARISING FROM,
  20:../eurorack/plaits/dsp/engine/engine.h **** // OUT OF OR IN CONNECTION WITH THE SOFTWARE OR THE USE OR OTHER DEALINGS IN
  21:../eurorack/plaits/dsp/engine/engine.h **** // THE SOFTWARE.
  22:../eurorack/plaits/dsp/engine/engine.h **** // 
  23:../eurorack/plaits/dsp/engine/engine.h **** // See http://creativecommons.org/licenses/MIT/ for more information.
  24:../eurorack/plaits/dsp/engine/engine.h **** //
  25:../eurorack/plaits/dsp/engine/engine.h **** // -----------------------------------------------------------------------------
  26:../eurorack/plaits/dsp/engine/engine.h **** //
  27:../eurorack/plaits/dsp/engine/engine.h **** // Base class for all engines.
  28:../eurorack/plaits/dsp/engine/engine.h **** 
  29:../eurorack/plaits/dsp/engine/engine.h **** #ifndef PLAITS_DSP_ENGINE_ENGINE_H_
  30:../eurorack/plaits/dsp/engine/engine.h **** #define PLAITS_DSP_ENGINE_ENGINE_H_
  31:../eurorack/plaits/dsp/engine/engine.h **** 
  32:../eurorack/plaits/dsp/engine/engine.h **** #include "plaits/dsp/dsp.h"
  33:../eurorack/plaits/dsp/engine/engine.h **** 
  34:../eurorack/plaits/dsp/engine/engine.h **** #include "stmlib/dsp/units.h"
  35:../eurorack/plaits/dsp/engine/engine.h **** #include "stmlib/utils/buffer_allocator.h"
  36:../eurorack/plaits/dsp/engine/engine.h **** 
  37:../eurorack/plaits/dsp/engine/engine.h **** namespace plaits {
  38:../eurorack/plaits/dsp/engine/engine.h **** 
  39:../eurorack/plaits/dsp/engine/engine.h **** inline float NoteToFrequency(float midi_note) {
 354              		.loc 6 39 47 is_stmt 1 view -0
 355              		.cfi_startproc
 356              		@ args = 0, pretend = 0, frame = 0
 357              		@ frame_needed = 0, uses_anonymous_args = 0
 358              		@ link register save eliminated.
  40:../eurorack/plaits/dsp/engine/engine.h ****   midi_note -= 9.0f;
 359              		.loc 6 40 3 view .LVU119
 360              		.loc 6 40 13 is_stmt 0 view .LVU120
 361 0000 F2EE027A 		vmov.f32	s15, #9.0e+0
 362 0004 30EE670A 		vsub.f32	s0, s0, s15
 363              	.LVL11:
  41:../eurorack/plaits/dsp/engine/engine.h ****   CONSTRAIN(midi_note, -128.0f, 127.0f);
 364              		.loc 6 41 3 is_stmt 1 view .LVU121
 365 0008 DFED177A 		vldr.32	s15, .L11
 366 000c B4EEE70A 		vcmpe.f32	s0, s15
 367 0010 F1EE10FA 		vmrs	APSR_nzcv, FPSCR
 368 0014 07D4     		bmi	.L9
 369              		.loc 6 41 3 discriminator 2 view .LVU122
 370 0016 DFED157A 		vldr.32	s15, .L11+4
 371 001a B4EEE70A 		vcmpe.f32	s0, s15
 372 001e F1EE10FA 		vmrs	APSR_nzcv, FPSCR
 373 0022 77FE807A 		vselgt.f32	s15, s15, s0
 374              	.L9:
 375              	.LVL12:
 376              		.loc 6 41 40 discriminator 6 view .LVU123
  42:../eurorack/plaits/dsp/engine/engine.h ****   return a0 * 0.25f * stmlib::SemitonesToRatio(midi_note);
 377              		.loc 6 42 3 view .LVU124
 378              	.LBB191:
 379              	.LBI191:
ARM GAS  /var/folders/y7/g6pkzsp12sx54x3s3mvyn15r0000gn/T//ccLQFW5y.s 			page 18


 380              		.file 7 "../eurorack/stmlib/dsp/units.h"
   1:../eurorack/stmlib/dsp/units.h **** // Copyright 2014 Emilie Gillet.
   2:../eurorack/stmlib/dsp/units.h **** //
   3:../eurorack/stmlib/dsp/units.h **** // Author: Emilie Gillet (emilie.o.gillet@gmail.com)
   4:../eurorack/stmlib/dsp/units.h **** //
   5:../eurorack/stmlib/dsp/units.h **** // Permission is hereby granted, free of charge, to any person obtaining a copy
   6:../eurorack/stmlib/dsp/units.h **** // of this software and associated documentation files (the "Software"), to deal
   7:../eurorack/stmlib/dsp/units.h **** // in the Software without restriction, including without limitation the rights
   8:../eurorack/stmlib/dsp/units.h **** // to use, copy, modify, merge, publish, distribute, sublicense, and/or sell
   9:../eurorack/stmlib/dsp/units.h **** // copies of the Software, and to permit persons to whom the Software is
  10:../eurorack/stmlib/dsp/units.h **** // furnished to do so, subject to the following conditions:
  11:../eurorack/stmlib/dsp/units.h **** // 
  12:../eurorack/stmlib/dsp/units.h **** // The above copyright notice and this permission notice shall be included in
  13:../eurorack/stmlib/dsp/units.h **** // all copies or substantial portions of the Software.
  14:../eurorack/stmlib/dsp/units.h **** // 
  15:../eurorack/stmlib/dsp/units.h **** // THE SOFTWARE IS PROVIDED "AS IS", WITHOUT WARRANTY OF ANY KIND, EXPRESS OR
  16:../eurorack/stmlib/dsp/units.h **** // IMPLIED, INCLUDING BUT NOT LIMITED TO THE WARRANTIES OF MERCHANTABILITY,
  17:../eurorack/stmlib/dsp/units.h **** // FITNESS FOR A PARTICULAR PURPOSE AND NONINFRINGEMENT. IN NO EVENT SHALL THE
  18:../eurorack/stmlib/dsp/units.h **** // AUTHORS OR COPYRIGHT HOLDERS BE LIABLE FOR ANY CLAIM, DAMAGES OR OTHER
  19:../eurorack/stmlib/dsp/units.h **** // LIABILITY, WHETHER IN AN ACTION OF CONTRACT, TORT OR OTHERWISE, ARISING FROM,
  20:../eurorack/stmlib/dsp/units.h **** // OUT OF OR IN CONNECTION WITH THE SOFTWARE OR THE USE OR OTHER DEALINGS IN
  21:../eurorack/stmlib/dsp/units.h **** // THE SOFTWARE.
  22:../eurorack/stmlib/dsp/units.h **** // 
  23:../eurorack/stmlib/dsp/units.h **** // See http://creativecommons.org/licenses/MIT/ for more information.
  24:../eurorack/stmlib/dsp/units.h **** //
  25:../eurorack/stmlib/dsp/units.h **** // -----------------------------------------------------------------------------
  26:../eurorack/stmlib/dsp/units.h **** //
  27:../eurorack/stmlib/dsp/units.h **** // Conversion from semitones to frequency ratio.
  28:../eurorack/stmlib/dsp/units.h **** 
  29:../eurorack/stmlib/dsp/units.h **** #ifndef STMLIB_DSP_UNITS_H_
  30:../eurorack/stmlib/dsp/units.h **** #define STMLIB_DSP_UNITS_H_
  31:../eurorack/stmlib/dsp/units.h **** 
  32:../eurorack/stmlib/dsp/units.h **** #include "stmlib/stmlib.h"
  33:../eurorack/stmlib/dsp/units.h **** #include "stmlib/dsp/dsp.h"
  34:../eurorack/stmlib/dsp/units.h **** 
  35:../eurorack/stmlib/dsp/units.h **** namespace stmlib {
  36:../eurorack/stmlib/dsp/units.h **** 
  37:../eurorack/stmlib/dsp/units.h **** extern const float lut_pitch_ratio_high[257];
  38:../eurorack/stmlib/dsp/units.h **** extern const float lut_pitch_ratio_low[257];
  39:../eurorack/stmlib/dsp/units.h **** 
  40:../eurorack/stmlib/dsp/units.h **** inline float SemitonesToRatio(float semitones) {
 381              		.loc 7 40 14 view .LVU125
 382              	.LBB192:
  41:../eurorack/stmlib/dsp/units.h ****   float pitch = semitones + 128.0f;
 383              		.loc 7 41 3 view .LVU126
 384              		.loc 7 41 9 is_stmt 0 view .LVU127
 385 0026 9FED127A 		vldr.32	s14, .L11+8
  42:../eurorack/stmlib/dsp/units.h ****   MAKE_INTEGRAL_FRACTIONAL(pitch)
  43:../eurorack/stmlib/dsp/units.h **** 
  44:../eurorack/stmlib/dsp/units.h ****   return lut_pitch_ratio_high[pitch_integral] * \
  45:../eurorack/stmlib/dsp/units.h ****       lut_pitch_ratio_low[static_cast<int32_t>(pitch_fractional * 256.0f)];
 386              		.loc 7 45 74 view .LVU128
 387 002a 124A     		ldr	r2, .L11+12
  41:../eurorack/stmlib/dsp/units.h ****   float pitch = semitones + 128.0f;
 388              		.loc 7 41 9 view .LVU129
 389 002c 77EE877A 		vadd.f32	s15, s15, s14
 390              	.LVL13:
ARM GAS  /var/folders/y7/g6pkzsp12sx54x3s3mvyn15r0000gn/T//ccLQFW5y.s 			page 19


  42:../eurorack/stmlib/dsp/units.h ****   MAKE_INTEGRAL_FRACTIONAL(pitch)
 391              		.loc 7 42 3 is_stmt 1 view .LVU130
 392              	.LBE192:
 393              	.LBE191:
  43:../eurorack/plaits/dsp/engine/engine.h **** }
 394              		.loc 6 43 1 is_stmt 0 view .LVU131
 395 0030 9FED110A 		vldr.32	s0, .L11+16
 396              	.LBB194:
 397              	.LBB193:
  42:../eurorack/stmlib/dsp/units.h ****   MAKE_INTEGRAL_FRACTIONAL(pitch)
 398              		.loc 7 42 3 view .LVU132
 399 0034 BDEEE77A 		vcvt.s32.f32	s14, s15
 400              	.LVL14:
  42:../eurorack/stmlib/dsp/units.h ****   MAKE_INTEGRAL_FRACTIONAL(pitch)
 401              		.loc 7 42 3 is_stmt 1 view .LVU133
  44:../eurorack/stmlib/dsp/units.h ****       lut_pitch_ratio_low[static_cast<int32_t>(pitch_fractional * 256.0f)];
 402              		.loc 7 44 3 view .LVU134
  42:../eurorack/stmlib/dsp/units.h ****   MAKE_INTEGRAL_FRACTIONAL(pitch)
 403              		.loc 7 42 3 is_stmt 0 view .LVU135
 404 0038 F8EEC76A 		vcvt.f32.s32	s13, s14
  44:../eurorack/stmlib/dsp/units.h ****       lut_pitch_ratio_low[static_cast<int32_t>(pitch_fractional * 256.0f)];
 405              		.loc 7 44 45 view .LVU136
 406 003c 17EE101A 		vmov	r1, s14	@ int
  42:../eurorack/stmlib/dsp/units.h ****   MAKE_INTEGRAL_FRACTIONAL(pitch)
 407              		.loc 7 42 3 view .LVU137
 408 0040 77EEE67A 		vsub.f32	s15, s15, s13
 409              		.loc 7 45 27 view .LVU138
 410 0044 FEEECC7A 		vcvt.s32.f32	s15, s15, #8
 411              		.loc 7 45 74 view .LVU139
 412 0048 17EE903A 		vmov	r3, s15	@ int
 413 004c 02EB8302 		add	r2, r2, r3, lsl #2
  44:../eurorack/stmlib/dsp/units.h ****       lut_pitch_ratio_low[static_cast<int32_t>(pitch_fractional * 256.0f)];
 414              		.loc 7 44 45 view .LVU140
 415 0050 0A4B     		ldr	r3, .L11+20
 416 0052 03EB8103 		add	r3, r3, r1, lsl #2
 417              		.loc 7 45 74 view .LVU141
 418 0056 D2ED007A 		vldr.32	s15, [r2]
 419 005a 93ED007A 		vldr.32	s14, [r3]
 420 005e 67EE877A 		vmul.f32	s15, s15, s14
 421              	.LBE193:
 422              	.LBE194:
 423              		.loc 6 43 1 view .LVU142
 424 0062 27EE800A 		vmul.f32	s0, s15, s0
 425 0066 7047     		bx	lr
 426              	.L12:
 427              		.align	2
 428              	.L11:
 429 0068 000000C3 		.word	-1023410176
 430 006c 0000FE42 		.word	1123942400
 431 0070 00000043 		.word	1124073472
 432 0074 00000000 		.word	_ZN6stmlib19lut_pitch_ratio_lowE
 433 0078 51969639 		.word	966170193
 434 007c 00000000 		.word	_ZN6stmlib20lut_pitch_ratio_highE
 435              		.cfi_endproc
 436              	.LFE593:
 438              		.section	.text._ZN6stmlib24NextIntegratedBlepSampleEf,"axG",%progbits,_ZN6stmlib24NextIntegratedBl
 439              		.align	1
ARM GAS  /var/folders/y7/g6pkzsp12sx54x3s3mvyn15r0000gn/T//ccLQFW5y.s 			page 20


 440              		.weak	_ZN6stmlib24NextIntegratedBlepSampleEf
 441              		.syntax unified
 442              		.thumb
 443              		.thumb_func
 445              	_ZN6stmlib24NextIntegratedBlepSampleEf:
 446              	.LVL15:
 447              	.LFB623:
 448              		.file 8 "../eurorack/stmlib/dsp/polyblep.h"
   1:../eurorack/stmlib/dsp/polyblep.h **** // Copyright 2017 Emilie Gillet.
   2:../eurorack/stmlib/dsp/polyblep.h **** //
   3:../eurorack/stmlib/dsp/polyblep.h **** // Author: Emilie Gillet (emilie.o.gillet@gmail.com)
   4:../eurorack/stmlib/dsp/polyblep.h **** //
   5:../eurorack/stmlib/dsp/polyblep.h **** // Permission is hereby granted, free of charge, to any person obtaining a copy
   6:../eurorack/stmlib/dsp/polyblep.h **** // of this software and associated documentation files (the "Software"), to deal
   7:../eurorack/stmlib/dsp/polyblep.h **** // in the Software without restriction, including without limitation the rights
   8:../eurorack/stmlib/dsp/polyblep.h **** // to use, copy, modify, merge, publish, distribute, sublicense, and/or sell
   9:../eurorack/stmlib/dsp/polyblep.h **** // copies of the Software, and to permit persons to whom the Software is
  10:../eurorack/stmlib/dsp/polyblep.h **** // furnished to do so, subject to the following conditions:
  11:../eurorack/stmlib/dsp/polyblep.h **** // 
  12:../eurorack/stmlib/dsp/polyblep.h **** // The above copyright notice and this permission notice shall be included in
  13:../eurorack/stmlib/dsp/polyblep.h **** // all copies or substantial portions of the Software.
  14:../eurorack/stmlib/dsp/polyblep.h **** // 
  15:../eurorack/stmlib/dsp/polyblep.h **** // THE SOFTWARE IS PROVIDED "AS IS", WITHOUT WARRANTY OF ANY KIND, EXPRESS OR
  16:../eurorack/stmlib/dsp/polyblep.h **** // IMPLIED, INCLUDING BUT NOT LIMITED TO THE WARRANTIES OF MERCHANTABILITY,
  17:../eurorack/stmlib/dsp/polyblep.h **** // FITNESS FOR A PARTICULAR PURPOSE AND NONINFRINGEMENT. IN NO EVENT SHALL THE
  18:../eurorack/stmlib/dsp/polyblep.h **** // AUTHORS OR COPYRIGHT HOLDERS BE LIABLE FOR ANY CLAIM, DAMAGES OR OTHER
  19:../eurorack/stmlib/dsp/polyblep.h **** // LIABILITY, WHETHER IN AN ACTION OF CONTRACT, TORT OR OTHERWISE, ARISING FROM,
  20:../eurorack/stmlib/dsp/polyblep.h **** // OUT OF OR IN CONNECTION WITH THE SOFTWARE OR THE USE OR OTHER DEALINGS IN
  21:../eurorack/stmlib/dsp/polyblep.h **** // THE SOFTWARE.
  22:../eurorack/stmlib/dsp/polyblep.h **** // 
  23:../eurorack/stmlib/dsp/polyblep.h **** // See http://creativecommons.org/licenses/MIT/ for more information.
  24:../eurorack/stmlib/dsp/polyblep.h **** //
  25:../eurorack/stmlib/dsp/polyblep.h **** // -----------------------------------------------------------------------------
  26:../eurorack/stmlib/dsp/polyblep.h **** //
  27:../eurorack/stmlib/dsp/polyblep.h **** // Polynomial approximation of band-limited step for band-limited waveform
  28:../eurorack/stmlib/dsp/polyblep.h **** // synthesis.
  29:../eurorack/stmlib/dsp/polyblep.h **** 
  30:../eurorack/stmlib/dsp/polyblep.h **** #ifndef STMLIB_DSP_POLYBLEP_H_
  31:../eurorack/stmlib/dsp/polyblep.h **** #define STMLIB_DSP_POLYBLEP_H_
  32:../eurorack/stmlib/dsp/polyblep.h **** 
  33:../eurorack/stmlib/dsp/polyblep.h **** #include "stmlib/stmlib.h"
  34:../eurorack/stmlib/dsp/polyblep.h **** 
  35:../eurorack/stmlib/dsp/polyblep.h **** namespace stmlib {
  36:../eurorack/stmlib/dsp/polyblep.h **** 
  37:../eurorack/stmlib/dsp/polyblep.h **** inline float ThisBlepSample(float t) {
  38:../eurorack/stmlib/dsp/polyblep.h ****   return 0.5f * t * t;
  39:../eurorack/stmlib/dsp/polyblep.h **** }
  40:../eurorack/stmlib/dsp/polyblep.h **** 
  41:../eurorack/stmlib/dsp/polyblep.h **** inline float NextBlepSample(float t) {
  42:../eurorack/stmlib/dsp/polyblep.h ****   t = 1.0f - t;
  43:../eurorack/stmlib/dsp/polyblep.h ****   return -0.5f * t * t;
  44:../eurorack/stmlib/dsp/polyblep.h **** }
  45:../eurorack/stmlib/dsp/polyblep.h **** 
  46:../eurorack/stmlib/dsp/polyblep.h **** inline float NextIntegratedBlepSample(float t) {
 449              		.loc 8 46 48 is_stmt 1 view -0
 450              		.cfi_startproc
 451              		@ args = 0, pretend = 0, frame = 0
ARM GAS  /var/folders/y7/g6pkzsp12sx54x3s3mvyn15r0000gn/T//ccLQFW5y.s 			page 21


 452              		@ frame_needed = 0, uses_anonymous_args = 0
 453              		@ link register save eliminated.
  47:../eurorack/stmlib/dsp/polyblep.h ****   const float t1 = 0.5f * t;
 454              		.loc 8 47 3 view .LVU144
 455              		.loc 8 47 15 is_stmt 0 view .LVU145
 456 0000 F6EE007A 		vmov.f32	s15, #5.0e-1
 457 0004 60EE277A 		vmul.f32	s15, s0, s15
 458              	.LVL16:
  48:../eurorack/stmlib/dsp/polyblep.h ****   const float t2 = t1 * t1;
 459              		.loc 8 48 3 is_stmt 1 view .LVU146
  49:../eurorack/stmlib/dsp/polyblep.h ****   const float t4 = t2 * t2;
  50:../eurorack/stmlib/dsp/polyblep.h ****   return 0.1875f - t1 + 1.5f * t2 - t4;
 460              		.loc 8 50 18 is_stmt 0 view .LVU147
 461 0008 B4EE080A 		vmov.f32	s0, #1.875e-1
 462              	.LVL17:
  48:../eurorack/stmlib/dsp/polyblep.h ****   const float t2 = t1 * t1;
 463              		.loc 8 48 15 view .LVU148
 464 000c 27EEA77A 		vmul.f32	s14, s15, s15
 465              	.LVL18:
  49:../eurorack/stmlib/dsp/polyblep.h ****   const float t4 = t2 * t2;
 466              		.loc 8 49 3 is_stmt 1 view .LVU149
 467              		.loc 8 50 3 view .LVU150
 468              		.loc 8 50 18 is_stmt 0 view .LVU151
 469 0010 30EE670A 		vsub.f32	s0, s0, s15
 470              		.loc 8 50 23 view .LVU152
 471 0014 F7EE087A 		vmov.f32	s15, #1.5e+0
 472              	.LVL19:
 473              		.loc 8 50 23 view .LVU153
 474 0018 A7EE270A 		vfma.f32	s0, s14, s15
  51:../eurorack/stmlib/dsp/polyblep.h **** }
 475              		.loc 8 51 1 view .LVU154
 476 001c A7EE470A 		vfms.f32	s0, s14, s14
 477 0020 7047     		bx	lr
 478              		.cfi_endproc
 479              	.LFE623:
 481              		.section	.text._ZN6plaits21VariableSawOscillator6RenderEfffPfj,"axG",%progbits,_ZN6plaits21Variabl
 482              		.align	1
 483              		.weak	_ZN6plaits21VariableSawOscillator6RenderEfffPfj
 484              		.syntax unified
 485              		.thumb
 486              		.thumb_func
 488              	_ZN6plaits21VariableSawOscillator6RenderEfffPfj:
 489              	.LVL20:
 490              	.LFB1282:
  58:../eurorack/plaits/dsp/oscillator/variable_saw_oscillator.h ****   }
  59:../eurorack/plaits/dsp/oscillator/variable_saw_oscillator.h ****   
  60:../eurorack/plaits/dsp/oscillator/variable_saw_oscillator.h ****   void Render(
 491              		.loc 4 60 8 is_stmt 1 view -0
 492              		.cfi_startproc
 493              		@ args = 0, pretend = 0, frame = 0
 494              		@ frame_needed = 0, uses_anonymous_args = 0
  61:../eurorack/plaits/dsp/oscillator/variable_saw_oscillator.h ****       float frequency,
  62:../eurorack/plaits/dsp/oscillator/variable_saw_oscillator.h ****       float pw,
  63:../eurorack/plaits/dsp/oscillator/variable_saw_oscillator.h ****       float waveshape,
  64:../eurorack/plaits/dsp/oscillator/variable_saw_oscillator.h ****       float* out,
  65:../eurorack/plaits/dsp/oscillator/variable_saw_oscillator.h ****       size_t size) {
  66:../eurorack/plaits/dsp/oscillator/variable_saw_oscillator.h ****     if (frequency >= kMaxFrequency) {
ARM GAS  /var/folders/y7/g6pkzsp12sx54x3s3mvyn15r0000gn/T//ccLQFW5y.s 			page 22


 495              		.loc 4 66 5 view .LVU156
 496 0000 F5EE007A 		vmov.f32	s15, #2.5e-1
  60:../eurorack/plaits/dsp/oscillator/variable_saw_oscillator.h ****       float frequency,
 497              		.loc 4 60 8 is_stmt 0 view .LVU157
 498 0004 70B5     		push	{r4, r5, r6, lr}
 499              		.cfi_def_cfa_offset 16
 500              		.cfi_offset 4, -16
 501              		.cfi_offset 5, -12
 502              		.cfi_offset 6, -8
 503              		.cfi_offset 14, -4
 504              		.loc 4 66 5 view .LVU158
 505 0006 B4EEE70A 		vcmpe.f32	s0, s15
  60:../eurorack/plaits/dsp/oscillator/variable_saw_oscillator.h ****       float frequency,
 506              		.loc 4 60 8 view .LVU159
 507 000a 0446     		mov	r4, r0
 508 000c 0E46     		mov	r6, r1
 509 000e 1546     		mov	r5, r2
 510              		.loc 4 66 5 view .LVU160
 511 0010 F1EE10FA 		vmrs	APSR_nzcv, FPSCR
  60:../eurorack/plaits/dsp/oscillator/variable_saw_oscillator.h ****       float frequency,
 512              		.loc 4 60 8 view .LVU161
 513 0014 2DED108B 		vpush.64	{d8, d9, d10, d11, d12, d13, d14, d15}
 514              		.cfi_def_cfa_offset 80
 515              		.cfi_offset 80, -80
 516              		.cfi_offset 81, -76
 517              		.cfi_offset 82, -72
 518              		.cfi_offset 83, -68
 519              		.cfi_offset 84, -64
 520              		.cfi_offset 85, -60
 521              		.cfi_offset 86, -56
 522              		.cfi_offset 87, -52
 523              		.cfi_offset 88, -48
 524              		.cfi_offset 89, -44
 525              		.cfi_offset 90, -40
 526              		.cfi_offset 91, -36
 527              		.cfi_offset 92, -32
 528              		.cfi_offset 93, -28
 529              		.cfi_offset 94, -24
 530              		.cfi_offset 95, -20
 531              		.loc 4 66 5 view .LVU162
 532 0018 36DA     		bge	.L25
  67:../eurorack/plaits/dsp/oscillator/variable_saw_oscillator.h ****       frequency = kMaxFrequency;
  68:../eurorack/plaits/dsp/oscillator/variable_saw_oscillator.h ****     }
  69:../eurorack/plaits/dsp/oscillator/variable_saw_oscillator.h ****     
  70:../eurorack/plaits/dsp/oscillator/variable_saw_oscillator.h ****     if (frequency >= 0.25f) {
 533              		.loc 4 70 5 is_stmt 1 view .LVU163
  71:../eurorack/plaits/dsp/oscillator/variable_saw_oscillator.h ****       pw = 0.5f;
  72:../eurorack/plaits/dsp/oscillator/variable_saw_oscillator.h ****     } else {
  73:../eurorack/plaits/dsp/oscillator/variable_saw_oscillator.h ****       CONSTRAIN(pw, frequency * 2.0f, 1.0f - 2.0f * frequency);
 534              		.loc 4 73 7 view .LVU164
 535 001a 70EE007A 		vadd.f32	s15, s0, s0
 536 001e F4EEE07A 		vcmpe.f32	s15, s1
 537 0022 F1EE10FA 		vmrs	APSR_nzcv, FPSCR
 538 0026 0ADC     		bgt	.L15
 539              		.loc 4 73 7 discriminator 2 view .LVU165
 540 0028 B7EE007A 		vmov.f32	s14, #1.0e+0
 541 002c 77EE677A 		vsub.f32	s15, s14, s15
ARM GAS  /var/folders/y7/g6pkzsp12sx54x3s3mvyn15r0000gn/T//ccLQFW5y.s 			page 23


 542 0030 F4EEE07A 		vcmpe.f32	s15, s1
 543 0034 F1EE10FA 		vmrs	APSR_nzcv, FPSCR
 544 0038 58BF     		it	pl
 545 003a F0EE607A 		vmovpl.f32	s15, s1
 546              	.LVL21:
 547              	.L15:
 548              		.loc 4 73 63 discriminator 6 view .LVU166
  74:../eurorack/plaits/dsp/oscillator/variable_saw_oscillator.h ****     }
  75:../eurorack/plaits/dsp/oscillator/variable_saw_oscillator.h **** 
  76:../eurorack/plaits/dsp/oscillator/variable_saw_oscillator.h ****     stmlib::ParameterInterpolator fm(&frequency_, frequency, size);
 549              		.loc 4 76 5 view .LVU167
 550              	.LBB235:
 551              	.LBI235:
 552              		.file 9 "../eurorack/stmlib/dsp/parameter_interpolator.h"
   1:../eurorack/stmlib/dsp/parameter_interpolator.h **** // Copyright 2015 Emilie Gillet.
   2:../eurorack/stmlib/dsp/parameter_interpolator.h **** //
   3:../eurorack/stmlib/dsp/parameter_interpolator.h **** // Author: Emilie Gillet (emilie.o.gillet@gmail.com)
   4:../eurorack/stmlib/dsp/parameter_interpolator.h **** //
   5:../eurorack/stmlib/dsp/parameter_interpolator.h **** // Permission is hereby granted, free of charge, to any person obtaining a copy
   6:../eurorack/stmlib/dsp/parameter_interpolator.h **** // of this software and associated documentation files (the "Software"), to deal
   7:../eurorack/stmlib/dsp/parameter_interpolator.h **** // in the Software without restriction, including without limitation the rights
   8:../eurorack/stmlib/dsp/parameter_interpolator.h **** // to use, copy, modify, merge, publish, distribute, sublicense, and/or sell
   9:../eurorack/stmlib/dsp/parameter_interpolator.h **** // copies of the Software, and to permit persons to whom the Software is
  10:../eurorack/stmlib/dsp/parameter_interpolator.h **** // furnished to do so, subject to the following conditions:
  11:../eurorack/stmlib/dsp/parameter_interpolator.h **** // 
  12:../eurorack/stmlib/dsp/parameter_interpolator.h **** // The above copyright notice and this permission notice shall be included in
  13:../eurorack/stmlib/dsp/parameter_interpolator.h **** // all copies or substantial portions of the Software.
  14:../eurorack/stmlib/dsp/parameter_interpolator.h **** // 
  15:../eurorack/stmlib/dsp/parameter_interpolator.h **** // THE SOFTWARE IS PROVIDED "AS IS", WITHOUT WARRANTY OF ANY KIND, EXPRESS OR
  16:../eurorack/stmlib/dsp/parameter_interpolator.h **** // IMPLIED, INCLUDING BUT NOT LIMITED TO THE WARRANTIES OF MERCHANTABILITY,
  17:../eurorack/stmlib/dsp/parameter_interpolator.h **** // FITNESS FOR A PARTICULAR PURPOSE AND NONINFRINGEMENT. IN NO EVENT SHALL THE
  18:../eurorack/stmlib/dsp/parameter_interpolator.h **** // AUTHORS OR COPYRIGHT HOLDERS BE LIABLE FOR ANY CLAIM, DAMAGES OR OTHER
  19:../eurorack/stmlib/dsp/parameter_interpolator.h **** // LIABILITY, WHETHER IN AN ACTION OF CONTRACT, TORT OR OTHERWISE, ARISING FROM,
  20:../eurorack/stmlib/dsp/parameter_interpolator.h **** // OUT OF OR IN CONNECTION WITH THE SOFTWARE OR THE USE OR OTHER DEALINGS IN
  21:../eurorack/stmlib/dsp/parameter_interpolator.h **** // THE SOFTWARE.
  22:../eurorack/stmlib/dsp/parameter_interpolator.h **** // 
  23:../eurorack/stmlib/dsp/parameter_interpolator.h **** // See http://creativecommons.org/licenses/MIT/ for more information.
  24:../eurorack/stmlib/dsp/parameter_interpolator.h **** //
  25:../eurorack/stmlib/dsp/parameter_interpolator.h **** // -----------------------------------------------------------------------------
  26:../eurorack/stmlib/dsp/parameter_interpolator.h **** //
  27:../eurorack/stmlib/dsp/parameter_interpolator.h **** // Linear interpolation of parameters in rendering loops.
  28:../eurorack/stmlib/dsp/parameter_interpolator.h **** 
  29:../eurorack/stmlib/dsp/parameter_interpolator.h **** #ifndef STMLIB_DSP_PARAMETER_INTERPOLATOR_H_
  30:../eurorack/stmlib/dsp/parameter_interpolator.h **** #define STMLIB_DSP_PARAMETER_INTERPOLATOR_H_
  31:../eurorack/stmlib/dsp/parameter_interpolator.h **** 
  32:../eurorack/stmlib/dsp/parameter_interpolator.h **** #include "stmlib/stmlib.h"
  33:../eurorack/stmlib/dsp/parameter_interpolator.h **** 
  34:../eurorack/stmlib/dsp/parameter_interpolator.h **** namespace stmlib {
  35:../eurorack/stmlib/dsp/parameter_interpolator.h **** 
  36:../eurorack/stmlib/dsp/parameter_interpolator.h **** class ParameterInterpolator {
  37:../eurorack/stmlib/dsp/parameter_interpolator.h ****  public:
  38:../eurorack/stmlib/dsp/parameter_interpolator.h ****   ParameterInterpolator() { }
  39:../eurorack/stmlib/dsp/parameter_interpolator.h ****   ParameterInterpolator(float* state, float new_value, size_t size) {
 553              		.loc 9 39 3 view .LVU168
 554              	.LBB236:
 555              	.LBI236:
  40:../eurorack/stmlib/dsp/parameter_interpolator.h ****     Init(state, new_value, size);
ARM GAS  /var/folders/y7/g6pkzsp12sx54x3s3mvyn15r0000gn/T//ccLQFW5y.s 			page 24


  41:../eurorack/stmlib/dsp/parameter_interpolator.h ****   }
  42:../eurorack/stmlib/dsp/parameter_interpolator.h **** 
  43:../eurorack/stmlib/dsp/parameter_interpolator.h ****   ParameterInterpolator(float* state, float new_value, float step) {
  44:../eurorack/stmlib/dsp/parameter_interpolator.h ****     state_ = state;
  45:../eurorack/stmlib/dsp/parameter_interpolator.h ****     value_ = *state;
  46:../eurorack/stmlib/dsp/parameter_interpolator.h ****     increment_ = (new_value - *state) * step;
  47:../eurorack/stmlib/dsp/parameter_interpolator.h ****   }
  48:../eurorack/stmlib/dsp/parameter_interpolator.h **** 
  49:../eurorack/stmlib/dsp/parameter_interpolator.h ****   ~ParameterInterpolator() {
  50:../eurorack/stmlib/dsp/parameter_interpolator.h ****     *state_ = value_;
  51:../eurorack/stmlib/dsp/parameter_interpolator.h ****   }
  52:../eurorack/stmlib/dsp/parameter_interpolator.h ****   
  53:../eurorack/stmlib/dsp/parameter_interpolator.h ****   inline void Init(float* state, float new_value, size_t size) {
 556              		.loc 9 53 15 view .LVU169
 557              	.LBB237:
  54:../eurorack/stmlib/dsp/parameter_interpolator.h ****     state_ = state;
 558              		.loc 9 54 5 view .LVU170
  55:../eurorack/stmlib/dsp/parameter_interpolator.h ****     value_ = *state;
 559              		.loc 9 55 5 view .LVU171
 560              		.loc 9 55 14 is_stmt 0 view .LVU172
 561 003e D4ED04AA 		vldr.32	s21, [r4, #16]
 562              	.LVL22:
  56:../eurorack/stmlib/dsp/parameter_interpolator.h ****     increment_ = (new_value - *state) / static_cast<float>(size);
 563              		.loc 9 56 5 is_stmt 1 view .LVU173
 564              		.loc 9 56 39 is_stmt 0 view .LVU174
 565 0042 07EE105A 		vmov	s14, r5	@ int
 566              	.LBE237:
 567              	.LBE236:
 568              	.LBE235:
 569              	.LBB242:
 570              	.LBB243:
 571              	.LBB244:
  55:../eurorack/stmlib/dsp/parameter_interpolator.h ****     value_ = *state;
 572              		.loc 9 55 14 view .LVU175
 573 0046 94ED059A 		vldr.32	s18, [r4, #20]
 574              	.LBE244:
 575              	.LBE243:
 576              	.LBE242:
 577              	.LBB249:
 578              	.LBB250:
 579              	.LBB251:
 580 004a D4ED06BA 		vldr.32	s23, [r4, #24]
 581              	.LBE251:
 582              	.LBE250:
 583              	.LBE249:
 584              	.LBB256:
 585              	.LBB240:
 586              	.LBB238:
 587              		.loc 9 56 39 view .LVU176
 588 004e B8EE477A 		vcvt.f32.u32	s14, s14
 589              		.loc 9 56 29 view .LVU177
 590 0052 30EE6A0A 		vsub.f32	s0, s0, s21
 591              	.LVL23:
 592              		.loc 9 56 29 view .LVU178
 593              	.LBE238:
 594              	.LBE240:
 595              	.LBE256:
ARM GAS  /var/folders/y7/g6pkzsp12sx54x3s3mvyn15r0000gn/T//ccLQFW5y.s 			page 25


  77:../eurorack/plaits/dsp/oscillator/variable_saw_oscillator.h ****     stmlib::ParameterInterpolator pwm(&pw_, pw, size);
  78:../eurorack/plaits/dsp/oscillator/variable_saw_oscillator.h ****     stmlib::ParameterInterpolator waveshape_modulation(
  79:../eurorack/plaits/dsp/oscillator/variable_saw_oscillator.h ****         &waveshape_, waveshape, size);
  80:../eurorack/plaits/dsp/oscillator/variable_saw_oscillator.h **** 
  81:../eurorack/plaits/dsp/oscillator/variable_saw_oscillator.h ****     float next_sample = next_sample_;
 596              		.loc 4 81 11 view .LVU179
 597 0056 D4ED019A 		vldr.32	s19, [r4, #4]
 598              	.LBB257:
 599              	.LBB247:
 600              	.LBB245:
 601              		.loc 9 56 29 view .LVU180
 602 005a 77EEC97A 		vsub.f32	s15, s15, s18
 603              	.LVL24:
 604              		.loc 9 56 29 view .LVU181
 605              	.LBE245:
 606              	.LBE247:
 607              	.LBE257:
 608              	.LBB258:
 609              	.LBB254:
 610              	.LBB252:
 611 005e 31EE6B1A 		vsub.f32	s2, s2, s23
 612              	.LVL25:
 613              		.loc 9 56 29 view .LVU182
 614              	.LBE252:
 615              	.LBE254:
 616              	.LBE258:
 617              	.LBB259:
 618              	.LBB241:
 619              	.LBB239:
 620              		.loc 9 56 39 view .LVU183
 621 0062 80EE07BA 		vdiv.f32	s22, s0, s14
 622              	.LVL26:
 623              		.loc 9 56 39 view .LVU184
 624              	.LBE239:
 625              	.LBE241:
 626              	.LBE259:
  77:../eurorack/plaits/dsp/oscillator/variable_saw_oscillator.h ****     stmlib::ParameterInterpolator pwm(&pw_, pw, size);
 627              		.loc 4 77 5 is_stmt 1 view .LVU185
 628              	.LBB260:
 629              	.LBI242:
  39:../eurorack/stmlib/dsp/parameter_interpolator.h ****     Init(state, new_value, size);
 630              		.loc 9 39 3 view .LVU186
 631              	.LBB248:
 632              	.LBI243:
  53:../eurorack/stmlib/dsp/parameter_interpolator.h ****     state_ = state;
 633              		.loc 9 53 15 view .LVU187
 634              	.LBB246:
  54:../eurorack/stmlib/dsp/parameter_interpolator.h ****     value_ = *state;
 635              		.loc 9 54 5 view .LVU188
  55:../eurorack/stmlib/dsp/parameter_interpolator.h ****     increment_ = (new_value - *state) / static_cast<float>(size);
 636              		.loc 9 55 5 view .LVU189
 637              		.loc 9 56 5 view .LVU190
 638              		.loc 9 56 39 is_stmt 0 view .LVU191
 639 0066 87EE87CA 		vdiv.f32	s24, s15, s14
 640              	.LVL27:
 641              		.loc 9 56 39 view .LVU192
 642              	.LBE246:
ARM GAS  /var/folders/y7/g6pkzsp12sx54x3s3mvyn15r0000gn/T//ccLQFW5y.s 			page 26


 643              	.LBE248:
 644              	.LBE260:
  78:../eurorack/plaits/dsp/oscillator/variable_saw_oscillator.h ****         &waveshape_, waveshape, size);
 645              		.loc 4 78 5 is_stmt 1 view .LVU193
 646              	.LBB261:
 647              	.LBI249:
  39:../eurorack/stmlib/dsp/parameter_interpolator.h ****     Init(state, new_value, size);
 648              		.loc 9 39 3 view .LVU194
 649              	.LBB255:
 650              	.LBI250:
  53:../eurorack/stmlib/dsp/parameter_interpolator.h ****     state_ = state;
 651              		.loc 9 53 15 view .LVU195
 652              	.LBB253:
  54:../eurorack/stmlib/dsp/parameter_interpolator.h ****     value_ = *state;
 653              		.loc 9 54 5 view .LVU196
  55:../eurorack/stmlib/dsp/parameter_interpolator.h ****     increment_ = (new_value - *state) / static_cast<float>(size);
 654              		.loc 9 55 5 view .LVU197
 655              		.loc 9 56 5 view .LVU198
 656              		.loc 9 56 39 is_stmt 0 view .LVU199
 657 006a C1EE07CA 		vdiv.f32	s25, s2, s14
 658              	.LVL28:
 659              		.loc 9 56 39 view .LVU200
 660              	.LBE253:
 661              	.LBE255:
 662              	.LBE261:
 663              		.loc 4 81 5 is_stmt 1 view .LVU201
  82:../eurorack/plaits/dsp/oscillator/variable_saw_oscillator.h ****     
  83:../eurorack/plaits/dsp/oscillator/variable_saw_oscillator.h ****     while (size--) {
 664              		.loc 4 83 5 view .LVU202
 665              	.L16:
 666              		.loc 4 83 16 view .LVU203
 667 006e 013D     		subs	r5, r5, #1
 668              	.LVL29:
 669              		.loc 4 83 16 is_stmt 0 view .LVU204
 670 0070 0FD2     		bcs	.L24
  84:../eurorack/plaits/dsp/oscillator/variable_saw_oscillator.h ****       float this_sample = next_sample;
  85:../eurorack/plaits/dsp/oscillator/variable_saw_oscillator.h ****       next_sample = 0.0f;
  86:../eurorack/plaits/dsp/oscillator/variable_saw_oscillator.h ****     
  87:../eurorack/plaits/dsp/oscillator/variable_saw_oscillator.h ****       const float frequency = fm.Next();
  88:../eurorack/plaits/dsp/oscillator/variable_saw_oscillator.h ****       const float pw = pwm.Next();
  89:../eurorack/plaits/dsp/oscillator/variable_saw_oscillator.h ****       const float waveshape = waveshape_modulation.Next();
  90:../eurorack/plaits/dsp/oscillator/variable_saw_oscillator.h ****       const float triangle_amount = waveshape;
  91:../eurorack/plaits/dsp/oscillator/variable_saw_oscillator.h ****       const float notch_amount = 1.0f - waveshape;
  92:../eurorack/plaits/dsp/oscillator/variable_saw_oscillator.h ****       const float slope_up = 1.0f / (pw);
  93:../eurorack/plaits/dsp/oscillator/variable_saw_oscillator.h ****       const float slope_down = 1.0f / (1.0f - pw);
  94:../eurorack/plaits/dsp/oscillator/variable_saw_oscillator.h **** 
  95:../eurorack/plaits/dsp/oscillator/variable_saw_oscillator.h ****       phase_ += frequency;
  96:../eurorack/plaits/dsp/oscillator/variable_saw_oscillator.h ****       
  97:../eurorack/plaits/dsp/oscillator/variable_saw_oscillator.h ****       if (!high_ && phase_ >= pw) {
  98:../eurorack/plaits/dsp/oscillator/variable_saw_oscillator.h ****         const float triangle_step = (slope_up + slope_down) * frequency * triangle_amount;
  99:../eurorack/plaits/dsp/oscillator/variable_saw_oscillator.h ****         const float notch = (kVariableSawNotchDepth + 1.0f - pw) * notch_amount;
 100:../eurorack/plaits/dsp/oscillator/variable_saw_oscillator.h ****         const float t = (phase_ - pw) / (previous_pw_ - pw + frequency);
 101:../eurorack/plaits/dsp/oscillator/variable_saw_oscillator.h ****         this_sample += notch * stmlib::ThisBlepSample(t);
 102:../eurorack/plaits/dsp/oscillator/variable_saw_oscillator.h ****         next_sample += notch * stmlib::NextBlepSample(t);
 103:../eurorack/plaits/dsp/oscillator/variable_saw_oscillator.h ****         this_sample -= triangle_step * stmlib::ThisIntegratedBlepSample(t);
 104:../eurorack/plaits/dsp/oscillator/variable_saw_oscillator.h ****         next_sample -= triangle_step * stmlib::NextIntegratedBlepSample(t);
 105:../eurorack/plaits/dsp/oscillator/variable_saw_oscillator.h ****         high_ = true;
ARM GAS  /var/folders/y7/g6pkzsp12sx54x3s3mvyn15r0000gn/T//ccLQFW5y.s 			page 27


 106:../eurorack/plaits/dsp/oscillator/variable_saw_oscillator.h ****       } else if (phase_ >= 1.0f) {
 107:../eurorack/plaits/dsp/oscillator/variable_saw_oscillator.h ****         phase_ -= 1.0f;
 108:../eurorack/plaits/dsp/oscillator/variable_saw_oscillator.h ****         const float triangle_step = (slope_up + slope_down) * frequency * triangle_amount;
 109:../eurorack/plaits/dsp/oscillator/variable_saw_oscillator.h ****         const float notch = (kVariableSawNotchDepth + 1.0f) * notch_amount;
 110:../eurorack/plaits/dsp/oscillator/variable_saw_oscillator.h ****         const float t = phase_ / frequency;
 111:../eurorack/plaits/dsp/oscillator/variable_saw_oscillator.h ****         this_sample -= notch * stmlib::ThisBlepSample(t);
 112:../eurorack/plaits/dsp/oscillator/variable_saw_oscillator.h ****         next_sample -= notch * stmlib::NextBlepSample(t);
 113:../eurorack/plaits/dsp/oscillator/variable_saw_oscillator.h ****         this_sample += triangle_step * stmlib::ThisIntegratedBlepSample(t);
 114:../eurorack/plaits/dsp/oscillator/variable_saw_oscillator.h ****         next_sample += triangle_step * stmlib::NextIntegratedBlepSample(t);
 115:../eurorack/plaits/dsp/oscillator/variable_saw_oscillator.h ****         high_ = false;
 116:../eurorack/plaits/dsp/oscillator/variable_saw_oscillator.h ****       }
 117:../eurorack/plaits/dsp/oscillator/variable_saw_oscillator.h ****     
 118:../eurorack/plaits/dsp/oscillator/variable_saw_oscillator.h ****       next_sample += ComputeNaiveSample(
 119:../eurorack/plaits/dsp/oscillator/variable_saw_oscillator.h ****           phase_,
 120:../eurorack/plaits/dsp/oscillator/variable_saw_oscillator.h ****           pw,
 121:../eurorack/plaits/dsp/oscillator/variable_saw_oscillator.h ****           slope_up,
 122:../eurorack/plaits/dsp/oscillator/variable_saw_oscillator.h ****           slope_down,
 123:../eurorack/plaits/dsp/oscillator/variable_saw_oscillator.h ****           triangle_amount,
 124:../eurorack/plaits/dsp/oscillator/variable_saw_oscillator.h ****           notch_amount);
 125:../eurorack/plaits/dsp/oscillator/variable_saw_oscillator.h ****       previous_pw_ = pw;
 126:../eurorack/plaits/dsp/oscillator/variable_saw_oscillator.h **** 
 127:../eurorack/plaits/dsp/oscillator/variable_saw_oscillator.h ****       *out++ = (2.0f * this_sample - 1.0f) / (1.0f + kVariableSawNotchDepth);
 128:../eurorack/plaits/dsp/oscillator/variable_saw_oscillator.h ****     }
 129:../eurorack/plaits/dsp/oscillator/variable_saw_oscillator.h ****     
 130:../eurorack/plaits/dsp/oscillator/variable_saw_oscillator.h ****     next_sample_ = next_sample;
 671              		.loc 4 130 5 is_stmt 1 view .LVU205
 672              		.loc 4 130 18 is_stmt 0 view .LVU206
 673 0072 C4ED019A 		vstr.32	s19, [r4, #4]
 674              	.LVL30:
 675              	.LBB262:
 676              	.LBI262:
  49:../eurorack/stmlib/dsp/parameter_interpolator.h ****     *state_ = value_;
 677              		.loc 9 49 3 is_stmt 1 view .LVU207
 678              	.LBB263:
  50:../eurorack/stmlib/dsp/parameter_interpolator.h ****   }
 679              		.loc 9 50 5 view .LVU208
  50:../eurorack/stmlib/dsp/parameter_interpolator.h ****   }
 680              		.loc 9 50 13 is_stmt 0 view .LVU209
 681 0076 C4ED06BA 		vstr.32	s23, [r4, #24]
 682              	.LVL31:
  50:../eurorack/stmlib/dsp/parameter_interpolator.h ****   }
 683              		.loc 9 50 13 view .LVU210
 684              	.LBE263:
 685              	.LBE262:
 686              	.LBB264:
 687              	.LBI264:
  49:../eurorack/stmlib/dsp/parameter_interpolator.h ****     *state_ = value_;
 688              		.loc 9 49 3 is_stmt 1 view .LVU211
 689              	.LBB265:
  50:../eurorack/stmlib/dsp/parameter_interpolator.h ****   }
 690              		.loc 9 50 5 view .LVU212
  50:../eurorack/stmlib/dsp/parameter_interpolator.h ****   }
 691              		.loc 9 50 13 is_stmt 0 view .LVU213
 692 007a 84ED059A 		vstr.32	s18, [r4, #20]
 693              	.LVL32:
  50:../eurorack/stmlib/dsp/parameter_interpolator.h ****   }
 694              		.loc 9 50 13 view .LVU214
ARM GAS  /var/folders/y7/g6pkzsp12sx54x3s3mvyn15r0000gn/T//ccLQFW5y.s 			page 28


 695              	.LBE265:
 696              	.LBE264:
 697              	.LBB266:
 698              	.LBI266:
  49:../eurorack/stmlib/dsp/parameter_interpolator.h ****     *state_ = value_;
 699              		.loc 9 49 3 is_stmt 1 view .LVU215
 700              	.LBB267:
  50:../eurorack/stmlib/dsp/parameter_interpolator.h ****   }
 701              		.loc 9 50 5 view .LVU216
  50:../eurorack/stmlib/dsp/parameter_interpolator.h ****   }
 702              		.loc 9 50 13 is_stmt 0 view .LVU217
 703 007e C4ED04AA 		vstr.32	s21, [r4, #16]
 704              	.LVL33:
  50:../eurorack/stmlib/dsp/parameter_interpolator.h ****   }
 705              		.loc 9 50 13 view .LVU218
 706              	.LBE267:
 707              	.LBE266:
 131:../eurorack/plaits/dsp/oscillator/variable_saw_oscillator.h ****   }
 708              		.loc 4 131 3 view .LVU219
 709 0082 BDEC108B 		vldm	sp!, {d8-d15}
 710              		.cfi_remember_state
 711              		.cfi_restore 94
 712              		.cfi_restore 95
 713              		.cfi_restore 92
 714              		.cfi_restore 93
 715              		.cfi_restore 90
 716              		.cfi_restore 91
 717              		.cfi_restore 88
 718              		.cfi_restore 89
 719              		.cfi_restore 86
 720              		.cfi_restore 87
 721              		.cfi_restore 84
 722              		.cfi_restore 85
 723              		.cfi_restore 82
 724              		.cfi_restore 83
 725              		.cfi_restore 80
 726              		.cfi_restore 81
 727              		.cfi_def_cfa_offset 16
 728              	.LVL34:
 729              		.loc 4 131 3 view .LVU220
 730 0086 70BD     		pop	{r4, r5, r6, pc}
 731              	.LVL35:
 732              	.L25:
 733              		.cfi_restore_state
  67:../eurorack/plaits/dsp/oscillator/variable_saw_oscillator.h ****     }
 734              		.loc 4 67 17 view .LVU221
 735 0088 B0EE670A 		vmov.f32	s0, s15
 736              	.LVL36:
  71:../eurorack/plaits/dsp/oscillator/variable_saw_oscillator.h ****     } else {
 737              		.loc 4 71 10 view .LVU222
 738 008c F6EE007A 		vmov.f32	s15, #5.0e-1
 739 0090 D5E7     		b	.L15
 740              	.LVL37:
 741              	.L24:
 742              	.LBB268:
  84:../eurorack/plaits/dsp/oscillator/variable_saw_oscillator.h ****       next_sample = 0.0f;
 743              		.loc 4 84 7 is_stmt 1 view .LVU223
ARM GAS  /var/folders/y7/g6pkzsp12sx54x3s3mvyn15r0000gn/T//ccLQFW5y.s 			page 29


  85:../eurorack/plaits/dsp/oscillator/variable_saw_oscillator.h ****     
 744              		.loc 4 85 7 view .LVU224
  87:../eurorack/plaits/dsp/oscillator/variable_saw_oscillator.h ****       const float pw = pwm.Next();
 745              		.loc 4 87 7 view .LVU225
 746              	.LBB269:
 747              	.LBI269:
  57:../eurorack/stmlib/dsp/parameter_interpolator.h ****   }
  58:../eurorack/stmlib/dsp/parameter_interpolator.h **** 
  59:../eurorack/stmlib/dsp/parameter_interpolator.h ****   inline float Next() {
 748              		.loc 9 59 16 view .LVU226
 749              	.LBB270:
  60:../eurorack/stmlib/dsp/parameter_interpolator.h ****     value_ += increment_;
 750              		.loc 9 60 5 view .LVU227
 751              	.LBE270:
 752              	.LBE269:
  91:../eurorack/plaits/dsp/oscillator/variable_saw_oscillator.h ****       const float slope_up = 1.0f / (pw);
 753              		.loc 4 91 19 is_stmt 0 view .LVU228
 754 0092 F7EE008A 		vmov.f32	s17, #1.0e+0
  95:../eurorack/plaits/dsp/oscillator/variable_saw_oscillator.h ****       
 755              		.loc 4 95 14 view .LVU229
 756 0096 94ED008A 		vldr.32	s16, [r4]
 757              	.LBB272:
 758              	.LBB273:
 759              		.loc 9 60 12 view .LVU230
 760 009a 39EE0C9A 		vadd.f32	s18, s18, s24
 761              	.LVL38:
 762              		.loc 9 60 12 view .LVU231
 763              	.LBE273:
 764              	.LBE272:
 765              	.LBB275:
  97:../eurorack/plaits/dsp/oscillator/variable_saw_oscillator.h ****         const float triangle_step = (slope_up + slope_down) * frequency * triangle_amount;
 766              		.loc 4 97 7 view .LVU232
 767 009e 237B     		ldrb	r3, [r4, #12]	@ zero_extendqisi2
 768              	.LBE275:
 769              	.LBB305:
 770              	.LBB271:
 771              		.loc 9 60 12 view .LVU233
 772 00a0 7AEE8BAA 		vadd.f32	s21, s21, s22
 773              	.LVL39:
  61:../eurorack/stmlib/dsp/parameter_interpolator.h ****     return value_;
 774              		.loc 9 61 5 is_stmt 1 view .LVU234
 775              		.loc 9 61 5 is_stmt 0 view .LVU235
 776              	.LBE271:
 777              	.LBE305:
  88:../eurorack/plaits/dsp/oscillator/variable_saw_oscillator.h ****       const float waveshape = waveshape_modulation.Next();
 778              		.loc 4 88 7 is_stmt 1 view .LVU236
 779              	.LBB306:
 780              	.LBI272:
  59:../eurorack/stmlib/dsp/parameter_interpolator.h ****     value_ += increment_;
 781              		.loc 9 59 16 view .LVU237
 782              	.LBB274:
  60:../eurorack/stmlib/dsp/parameter_interpolator.h ****     return value_;
 783              		.loc 9 60 5 view .LVU238
 784              		.loc 9 61 5 view .LVU239
 785              		.loc 9 61 5 is_stmt 0 view .LVU240
 786              	.LBE274:
 787              	.LBE306:
ARM GAS  /var/folders/y7/g6pkzsp12sx54x3s3mvyn15r0000gn/T//ccLQFW5y.s 			page 30


  89:../eurorack/plaits/dsp/oscillator/variable_saw_oscillator.h ****       const float triangle_amount = waveshape;
 788              		.loc 4 89 7 is_stmt 1 view .LVU241
 789              	.LBB307:
 790              	.LBI307:
  59:../eurorack/stmlib/dsp/parameter_interpolator.h ****     value_ += increment_;
 791              		.loc 9 59 16 view .LVU242
 792              	.LBB308:
  60:../eurorack/stmlib/dsp/parameter_interpolator.h ****     return value_;
 793              		.loc 9 60 5 view .LVU243
 794 00a4 DFED53DA 		vldr.32	s27, .L33
  60:../eurorack/stmlib/dsp/parameter_interpolator.h ****     return value_;
 795              		.loc 9 60 12 is_stmt 0 view .LVU244
 796 00a8 7BEEACBA 		vadd.f32	s23, s23, s25
 797              	.LVL40:
 798              		.loc 9 61 5 is_stmt 1 view .LVU245
 799              		.loc 9 61 5 is_stmt 0 view .LVU246
 800              	.LBE308:
 801              	.LBE307:
  90:../eurorack/plaits/dsp/oscillator/variable_saw_oscillator.h ****       const float notch_amount = 1.0f - waveshape;
 802              		.loc 4 90 7 is_stmt 1 view .LVU247
  91:../eurorack/plaits/dsp/oscillator/variable_saw_oscillator.h ****       const float slope_up = 1.0f / (pw);
 803              		.loc 4 91 7 view .LVU248
  93:../eurorack/plaits/dsp/oscillator/variable_saw_oscillator.h **** 
 804              		.loc 4 93 45 is_stmt 0 view .LVU249
 805 00ac 78EEC97A 		vsub.f32	s15, s17, s18
  95:../eurorack/plaits/dsp/oscillator/variable_saw_oscillator.h ****       
 806              		.loc 4 95 14 view .LVU250
 807 00b0 3AEE888A 		vadd.f32	s16, s21, s16
  92:../eurorack/plaits/dsp/oscillator/variable_saw_oscillator.h ****       const float slope_down = 1.0f / (1.0f - pw);
 808              		.loc 4 92 19 view .LVU251
 809 00b4 88EE89FA 		vdiv.f32	s30, s17, s18
  95:../eurorack/plaits/dsp/oscillator/variable_saw_oscillator.h ****       
 810              		.loc 4 95 14 view .LVU252
 811 00b8 84ED008A 		vstr.32	s16, [r4]
  93:../eurorack/plaits/dsp/oscillator/variable_saw_oscillator.h **** 
 812              		.loc 4 93 19 view .LVU253
 813 00bc C8EEA7EA 		vdiv.f32	s29, s17, s15
 814 00c0 DFED4D7A 		vldr.32	s15, .L33+4
  91:../eurorack/plaits/dsp/oscillator/variable_saw_oscillator.h ****       const float slope_up = 1.0f / (pw);
 815              		.loc 4 91 19 view .LVU254
 816 00c4 38EEEBEA 		vsub.f32	s28, s17, s23
 817              	.LVL41:
  92:../eurorack/plaits/dsp/oscillator/variable_saw_oscillator.h ****       const float slope_down = 1.0f / (1.0f - pw);
 818              		.loc 4 92 7 is_stmt 1 view .LVU255
  93:../eurorack/plaits/dsp/oscillator/variable_saw_oscillator.h **** 
 819              		.loc 4 93 7 view .LVU256
  95:../eurorack/plaits/dsp/oscillator/variable_saw_oscillator.h ****       
 820              		.loc 4 95 7 view .LVU257
  97:../eurorack/plaits/dsp/oscillator/variable_saw_oscillator.h ****         const float triangle_step = (slope_up + slope_down) * frequency * triangle_amount;
 821              		.loc 4 97 7 view .LVU258
 822              	.LBB309:
 823 00c8 002B     		cmp	r3, #0
 824 00ca 5BD1     		bne	.L17
  97:../eurorack/plaits/dsp/oscillator/variable_saw_oscillator.h ****         const float triangle_step = (slope_up + slope_down) * frequency * triangle_amount;
 825              		.loc 4 97 18 is_stmt 0 discriminator 1 view .LVU259
 826 00cc B4EEC98A 		vcmpe.f32	s16, s18
 827 00d0 F1EE10FA 		vmrs	APSR_nzcv, FPSCR
ARM GAS  /var/folders/y7/g6pkzsp12sx54x3s3mvyn15r0000gn/T//ccLQFW5y.s 			page 31


 828 00d4 56DB     		blt	.L17
 829              	.LBB276:
  98:../eurorack/plaits/dsp/oscillator/variable_saw_oscillator.h ****         const float notch = (kVariableSawNotchDepth + 1.0f - pw) * notch_amount;
 830              		.loc 4 98 9 is_stmt 1 view .LVU260
 100:../eurorack/plaits/dsp/oscillator/variable_saw_oscillator.h ****         this_sample += notch * stmlib::ThisBlepSample(t);
 831              		.loc 4 100 55 is_stmt 0 view .LVU261
 832 00d6 94ED027A 		vldr.32	s14, [r4, #8]
 100:../eurorack/plaits/dsp/oscillator/variable_saw_oscillator.h ****         this_sample += notch * stmlib::ThisBlepSample(t);
 833              		.loc 4 100 33 view .LVU262
 834 00da 38EE496A 		vsub.f32	s12, s16, s18
  99:../eurorack/plaits/dsp/oscillator/variable_saw_oscillator.h ****         const float t = (phase_ - pw) / (previous_pw_ - pw + frequency);
 835              		.loc 4 99 60 view .LVU263
 836 00de 7DEEC96A 		vsub.f32	s13, s27, s18
 100:../eurorack/plaits/dsp/oscillator/variable_saw_oscillator.h ****         this_sample += notch * stmlib::ThisBlepSample(t);
 837              		.loc 4 100 55 view .LVU264
 838 00e2 37EE497A 		vsub.f32	s14, s14, s18
  98:../eurorack/plaits/dsp/oscillator/variable_saw_oscillator.h ****         const float notch = (kVariableSawNotchDepth + 1.0f - pw) * notch_amount;
 839              		.loc 4 98 47 view .LVU265
 840 00e6 3FEE2EDA 		vadd.f32	s26, s30, s29
  99:../eurorack/plaits/dsp/oscillator/variable_saw_oscillator.h ****         const float t = (phase_ - pw) / (previous_pw_ - pw + frequency);
 841              		.loc 4 99 21 view .LVU266
 842 00ea 66EE8E6A 		vmul.f32	s13, s13, s28
 100:../eurorack/plaits/dsp/oscillator/variable_saw_oscillator.h ****         this_sample += notch * stmlib::ThisBlepSample(t);
 843              		.loc 4 100 60 view .LVU267
 844 00ee 37EE2A7A 		vadd.f32	s14, s14, s21
  98:../eurorack/plaits/dsp/oscillator/variable_saw_oscillator.h ****         const float notch = (kVariableSawNotchDepth + 1.0f - pw) * notch_amount;
 845              		.loc 4 98 61 view .LVU268
 846 00f2 2DEE2ADA 		vmul.f32	s26, s26, s21
 100:../eurorack/plaits/dsp/oscillator/variable_saw_oscillator.h ****         this_sample += notch * stmlib::ThisBlepSample(t);
 847              		.loc 4 100 21 view .LVU269
 848 00f6 C6EE07FA 		vdiv.f32	s31, s12, s14
 849              	.LBB277:
 850              	.LBB278:
  38:../eurorack/stmlib/dsp/polyblep.h **** }
 851              		.loc 8 38 15 view .LVU270
 852 00fa B6EE007A 		vmov.f32	s14, #5.0e-1
 853              	.LBE278:
 854              	.LBE277:
  98:../eurorack/plaits/dsp/oscillator/variable_saw_oscillator.h ****         const float notch = (kVariableSawNotchDepth + 1.0f - pw) * notch_amount;
 855              		.loc 4 98 21 view .LVU271
 856 00fe 2DEE2BDA 		vmul.f32	s26, s26, s23
 857              	.LVL42:
  99:../eurorack/plaits/dsp/oscillator/variable_saw_oscillator.h ****         const float t = (phase_ - pw) / (previous_pw_ - pw + frequency);
 858              		.loc 4 99 9 is_stmt 1 view .LVU272
 100:../eurorack/plaits/dsp/oscillator/variable_saw_oscillator.h ****         this_sample += notch * stmlib::ThisBlepSample(t);
 859              		.loc 4 100 9 view .LVU273
 101:../eurorack/plaits/dsp/oscillator/variable_saw_oscillator.h ****         next_sample += notch * stmlib::NextBlepSample(t);
 860              		.loc 4 101 9 view .LVU274
 861              	.LBB281:
 862              	.LBI277:
  37:../eurorack/stmlib/dsp/polyblep.h ****   return 0.5f * t * t;
 863              		.loc 8 37 14 view .LVU275
 864              	.LBB279:
  38:../eurorack/stmlib/dsp/polyblep.h **** }
 865              		.loc 8 38 3 view .LVU276
  38:../eurorack/stmlib/dsp/polyblep.h **** }
 866              		.loc 8 38 15 is_stmt 0 view .LVU277
ARM GAS  /var/folders/y7/g6pkzsp12sx54x3s3mvyn15r0000gn/T//ccLQFW5y.s 			page 32


 867 0102 2FEE877A 		vmul.f32	s14, s31, s14
 868              	.LBE279:
 869              	.LBE281:
 870              	.LBB282:
 871              	.LBB283:
  42:../eurorack/stmlib/dsp/polyblep.h ****   return -0.5f * t * t;
 872              		.loc 8 42 5 view .LVU278
 873 0106 38EEEF0A 		vsub.f32	s0, s17, s31
 874              	.LBE283:
 875              	.LBE282:
 876              	.LBB285:
 877              	.LBB280:
  38:../eurorack/stmlib/dsp/polyblep.h **** }
 878              		.loc 8 38 21 view .LVU279
 879 010a 27EE2F7A 		vmul.f32	s14, s14, s31
 880              	.LBE280:
 881              	.LBE285:
 101:../eurorack/plaits/dsp/oscillator/variable_saw_oscillator.h ****         next_sample += notch * stmlib::NextBlepSample(t);
 882              		.loc 4 101 21 discriminator 1 view .LVU280
 883 010e E6EE879A 		vfma.f32	s19, s13, s14
 884              	.LVL43:
 102:../eurorack/plaits/dsp/oscillator/variable_saw_oscillator.h ****         this_sample -= triangle_step * stmlib::ThisIntegratedBlepSample(t);
 885              		.loc 4 102 9 is_stmt 1 view .LVU281
 886              	.LBB286:
 887              	.LBI282:
  41:../eurorack/stmlib/dsp/polyblep.h ****   t = 1.0f - t;
 888              		.loc 8 41 14 view .LVU282
 889              	.LBB284:
  42:../eurorack/stmlib/dsp/polyblep.h ****   return -0.5f * t * t;
 890              		.loc 8 42 3 view .LVU283
  43:../eurorack/stmlib/dsp/polyblep.h **** }
 891              		.loc 8 43 3 view .LVU284
  43:../eurorack/stmlib/dsp/polyblep.h **** }
 892              		.loc 8 43 16 is_stmt 0 view .LVU285
 893 0112 BEEE007A 		vmov.f32	s14, #-5.0e-1
 894 0116 20EE077A 		vmul.f32	s14, s0, s14
  43:../eurorack/stmlib/dsp/polyblep.h **** }
 895              		.loc 8 43 22 view .LVU286
 896 011a 27EE007A 		vmul.f32	s14, s14, s0
 897              	.LBE284:
 898              	.LBE286:
 102:../eurorack/plaits/dsp/oscillator/variable_saw_oscillator.h ****         this_sample -= triangle_step * stmlib::ThisIntegratedBlepSample(t);
 899              		.loc 4 102 21 discriminator 1 view .LVU287
 900 011e E6EE877A 		vfma.f32	s15, s13, s14
 901 0122 B0EE67AA 		vmov.f32	s20, s15
 902              	.LVL44:
 103:../eurorack/plaits/dsp/oscillator/variable_saw_oscillator.h ****         next_sample -= triangle_step * stmlib::NextIntegratedBlepSample(t);
 903              		.loc 4 103 9 is_stmt 1 view .LVU288
 904              	.LBB287:
 905              	.LBI287:
  52:../eurorack/stmlib/dsp/polyblep.h **** 
  53:../eurorack/stmlib/dsp/polyblep.h **** inline float ThisIntegratedBlepSample(float t) {
 906              		.loc 8 53 14 view .LVU289
 907              	.LBB288:
  54:../eurorack/stmlib/dsp/polyblep.h ****   return NextIntegratedBlepSample(1.0f - t);
 908              		.loc 8 54 3 view .LVU290
 909              		.loc 8 54 34 is_stmt 0 view .LVU291
ARM GAS  /var/folders/y7/g6pkzsp12sx54x3s3mvyn15r0000gn/T//ccLQFW5y.s 			page 33


 910 0126 FFF7FEFF 		bl	_ZN6stmlib24NextIntegratedBlepSampleEf
 911              	.LVL45:
 912              		.loc 8 54 34 view .LVU292
 913              	.LBE288:
 914              	.LBE287:
 103:../eurorack/plaits/dsp/oscillator/variable_saw_oscillator.h ****         next_sample -= triangle_step * stmlib::NextIntegratedBlepSample(t);
 915              		.loc 4 103 21 discriminator 1 view .LVU293
 916 012a EDEE409A 		vfms.f32	s19, s26, s0
 917              	.LVL46:
 104:../eurorack/plaits/dsp/oscillator/variable_saw_oscillator.h ****         high_ = true;
 918              		.loc 4 104 9 is_stmt 1 view .LVU294
 104:../eurorack/plaits/dsp/oscillator/variable_saw_oscillator.h ****         high_ = true;
 919              		.loc 4 104 72 is_stmt 0 view .LVU295
 920 012e B0EE6F0A 		vmov.f32	s0, s31
 921 0132 FFF7FEFF 		bl	_ZN6stmlib24NextIntegratedBlepSampleEf
 922              	.LVL47:
 104:../eurorack/plaits/dsp/oscillator/variable_saw_oscillator.h ****         high_ = true;
 923              		.loc 4 104 21 discriminator 1 view .LVU296
 924 0136 F0EE4A7A 		vmov.f32	s15, s20
 105:../eurorack/plaits/dsp/oscillator/variable_saw_oscillator.h ****       } else if (phase_ >= 1.0f) {
 925              		.loc 4 105 15 view .LVU297
 926 013a 0123     		movs	r3, #1
 104:../eurorack/plaits/dsp/oscillator/variable_saw_oscillator.h ****         high_ = true;
 927              		.loc 4 104 21 discriminator 1 view .LVU298
 928 013c E0EE4D7A 		vfms.f32	s15, s0, s26
 929              	.LVL48:
 105:../eurorack/plaits/dsp/oscillator/variable_saw_oscillator.h ****       } else if (phase_ >= 1.0f) {
 930              		.loc 4 105 9 is_stmt 1 view .LVU299
 931              	.L32:
 105:../eurorack/plaits/dsp/oscillator/variable_saw_oscillator.h ****       } else if (phase_ >= 1.0f) {
 932              		.loc 4 105 9 is_stmt 0 view .LVU300
 933              	.LBE276:
 934              	.LBB289:
 935              	.LBB290:
 115:../eurorack/plaits/dsp/oscillator/variable_saw_oscillator.h ****       }
 936              		.loc 4 115 15 view .LVU301
 937 0140 2373     		strb	r3, [r4, #12]
 938              	.LVL49:
 939              	.L19:
 115:../eurorack/plaits/dsp/oscillator/variable_saw_oscillator.h ****       }
 940              		.loc 4 115 15 view .LVU302
 941              	.LBE290:
 942              	.LBE289:
 943              	.LBE309:
 118:../eurorack/plaits/dsp/oscillator/variable_saw_oscillator.h ****           phase_,
 944              		.loc 4 118 7 is_stmt 1 view .LVU303
 945              	.LBB310:
 946              	.LBI310:
 132:../eurorack/plaits/dsp/oscillator/variable_saw_oscillator.h **** 
 133:../eurorack/plaits/dsp/oscillator/variable_saw_oscillator.h **** 
 134:../eurorack/plaits/dsp/oscillator/variable_saw_oscillator.h ****  private:
 135:../eurorack/plaits/dsp/oscillator/variable_saw_oscillator.h ****   inline float ComputeNaiveSample(
 947              		.loc 4 135 16 view .LVU304
 948              	.LBB311:
 136:../eurorack/plaits/dsp/oscillator/variable_saw_oscillator.h ****       float phase,
 137:../eurorack/plaits/dsp/oscillator/variable_saw_oscillator.h ****       float pw,
 138:../eurorack/plaits/dsp/oscillator/variable_saw_oscillator.h ****       float slope_up,
ARM GAS  /var/folders/y7/g6pkzsp12sx54x3s3mvyn15r0000gn/T//ccLQFW5y.s 			page 34


 139:../eurorack/plaits/dsp/oscillator/variable_saw_oscillator.h ****       float slope_down,
 140:../eurorack/plaits/dsp/oscillator/variable_saw_oscillator.h ****       float triangle_amount,
 141:../eurorack/plaits/dsp/oscillator/variable_saw_oscillator.h ****       float notch_amount) const {
 142:../eurorack/plaits/dsp/oscillator/variable_saw_oscillator.h ****     float notch_saw = phase < pw ? phase : 1.0f + kVariableSawNotchDepth;
 949              		.loc 4 142 5 view .LVU305
 950              	.LBE311:
 951              	.LBE310:
 127:../eurorack/plaits/dsp/oscillator/variable_saw_oscillator.h ****     }
 952              		.loc 4 127 36 is_stmt 0 view .LVU306
 953 0142 F0EE006A 		vmov.f32	s13, #2.0e+0
 125:../eurorack/plaits/dsp/oscillator/variable_saw_oscillator.h **** 
 954              		.loc 4 125 20 view .LVU307
 955 0146 84ED029A 		vstr.32	s18, [r4, #8]
 127:../eurorack/plaits/dsp/oscillator/variable_saw_oscillator.h ****     }
 956              		.loc 4 127 36 view .LVU308
 957 014a BFEE007A 		vmov.f32	s14, #-1.0e+0
 958              	.LBB315:
 959              	.LBB312:
 960              		.loc 4 142 34 view .LVU309
 961 014e B4EEC89A 		vcmpe.f32	s18, s16
 962              	.LBE312:
 963              	.LBE315:
 127:../eurorack/plaits/dsp/oscillator/variable_saw_oscillator.h ****     }
 964              		.loc 4 127 36 view .LVU310
 965 0152 A9EEA67A 		vfma.f32	s14, s19, s13
 966              	.LBB316:
 967              	.LBB313:
 968              		.loc 4 142 34 view .LVU311
 969 0156 F1EE10FA 		vmrs	APSR_nzcv, FPSCR
 970              	.LVL50:
 143:../eurorack/plaits/dsp/oscillator/variable_saw_oscillator.h ****     float triangle = phase < pw
 971              		.loc 4 143 5 is_stmt 1 view .LVU312
 144:../eurorack/plaits/dsp/oscillator/variable_saw_oscillator.h ****         ? phase * slope_up
 145:../eurorack/plaits/dsp/oscillator/variable_saw_oscillator.h ****         : 1.0f - (phase - pw) * slope_down;
 972              		.loc 4 145 25 is_stmt 0 view .LVU313
 973 015a D4BF     		ite	le
 974 015c 38EE498A 		vsuble.f32	s16, s16, s18
 144:../eurorack/plaits/dsp/oscillator/variable_saw_oscillator.h ****         ? phase * slope_up
 975              		.loc 4 144 9 discriminator 1 view .LVU314
 976 0160 6FEE088A 		vmulgt.f32	s17, s30, s16
 977              	.LVL51:
 143:../eurorack/plaits/dsp/oscillator/variable_saw_oscillator.h ****     float triangle = phase < pw
 978              		.loc 4 143 5 is_stmt 1 view .LVU315
 979              	.LBE313:
 980              	.LBE316:
 127:../eurorack/plaits/dsp/oscillator/variable_saw_oscillator.h ****     }
 981              		.loc 4 127 44 is_stmt 0 view .LVU316
 982 0164 C7EE2D6A 		vdiv.f32	s13, s14, s27
 983              	.LBB317:
 984              	.LBB314:
 144:../eurorack/plaits/dsp/oscillator/variable_saw_oscillator.h ****         ? phase * slope_up
 985              		.loc 4 144 9 discriminator 2 view .LVU317
 986 0168 DCBF     		itt	le
 987 016a EEEEC88A 		vfmsle.f32	s17, s29, s16
 142:../eurorack/plaits/dsp/oscillator/variable_saw_oscillator.h ****     float triangle = phase < pw
 988              		.loc 4 142 34 discriminator 2 view .LVU318
 989 016e 9FED218A 		vldrle.32	s16, .L33
ARM GAS  /var/folders/y7/g6pkzsp12sx54x3s3mvyn15r0000gn/T//ccLQFW5y.s 			page 35


 990              	.LVL52:
 146:../eurorack/plaits/dsp/oscillator/variable_saw_oscillator.h ****     return notch_saw * notch_amount + triangle * triangle_amount;
 991              		.loc 4 146 5 is_stmt 1 view .LVU319
 992              		.loc 4 146 48 is_stmt 0 view .LVU320
 993 0172 6BEEA88A 		vmul.f32	s17, s23, s17
 994              	.LVL53:
 995              		.loc 4 146 50 view .LVU321
 996 0176 E8EE0E8A 		vfma.f32	s17, s16, s28
 997              	.LVL54:
 998              		.loc 4 146 50 view .LVU322
 999              	.LBE314:
 1000              	.LBE317:
 125:../eurorack/plaits/dsp/oscillator/variable_saw_oscillator.h **** 
 1001              		.loc 4 125 7 is_stmt 1 view .LVU323
 127:../eurorack/plaits/dsp/oscillator/variable_saw_oscillator.h ****     }
 1002              		.loc 4 127 7 view .LVU324
 127:../eurorack/plaits/dsp/oscillator/variable_saw_oscillator.h ****     }
 1003              		.loc 4 127 14 is_stmt 0 view .LVU325
 1004 017a E6EC016A 		vstmia.32	r6!, {s13}
 1005              	.LVL55:
 118:../eurorack/plaits/dsp/oscillator/variable_saw_oscillator.h ****           phase_,
 1006              		.loc 4 118 19 discriminator 1 view .LVU326
 1007 017e 77EEA89A 		vadd.f32	s19, s15, s17
 1008              	.LVL56:
 118:../eurorack/plaits/dsp/oscillator/variable_saw_oscillator.h ****           phase_,
 1009              		.loc 4 118 19 discriminator 1 view .LVU327
 1010 0182 74E7     		b	.L16
 1011              	.LVL57:
 1012              	.L17:
 118:../eurorack/plaits/dsp/oscillator/variable_saw_oscillator.h ****           phase_,
 1013              		.loc 4 118 19 discriminator 1 view .LVU328
 1014              	.LBE268:
 106:../eurorack/plaits/dsp/oscillator/variable_saw_oscillator.h ****         phase_ -= 1.0f;
 1015              		.loc 4 106 14 is_stmt 1 view .LVU329
 1016              	.LBB319:
 1017              	.LBB318:
 1018              	.LBB304:
 1019 0184 B4EEE88A 		vcmpe.f32	s16, s17
 1020 0188 F1EE10FA 		vmrs	APSR_nzcv, FPSCR
 1021 018c 2FDB     		blt	.L30
 1022              	.LBB303:
 107:../eurorack/plaits/dsp/oscillator/variable_saw_oscillator.h ****         const float triangle_step = (slope_up + slope_down) * frequency * triangle_amount;
 1023              		.loc 4 107 9 view .LVU330
 107:../eurorack/plaits/dsp/oscillator/variable_saw_oscillator.h ****         const float triangle_step = (slope_up + slope_down) * frequency * triangle_amount;
 1024              		.loc 4 107 16 is_stmt 0 view .LVU331
 1025 018e 38EE688A 		vsub.f32	s16, s16, s17
 1026              	.LBB291:
 1027              	.LBB292:
  38:../eurorack/stmlib/dsp/polyblep.h **** }
 1028              		.loc 8 38 15 view .LVU332
 1029 0192 B6EE007A 		vmov.f32	s14, #5.0e-1
 1030              	.LBE292:
 1031              	.LBE291:
 111:../eurorack/plaits/dsp/oscillator/variable_saw_oscillator.h ****         next_sample -= notch * stmlib::NextBlepSample(t);
 1032              		.loc 4 111 21 discriminator 1 view .LVU333
 1033 0196 6DEECE6A 		vnmul.f32	s13, s27, s28
 110:../eurorack/plaits/dsp/oscillator/variable_saw_oscillator.h ****         this_sample -= notch * stmlib::ThisBlepSample(t);
ARM GAS  /var/folders/y7/g6pkzsp12sx54x3s3mvyn15r0000gn/T//ccLQFW5y.s 			page 36


 1034              		.loc 4 110 21 view .LVU334
 1035 019a C8EE2AFA 		vdiv.f32	s31, s16, s21
 107:../eurorack/plaits/dsp/oscillator/variable_saw_oscillator.h ****         const float triangle_step = (slope_up + slope_down) * frequency * triangle_amount;
 1036              		.loc 4 107 16 view .LVU335
 1037 019e 84ED008A 		vstr.32	s16, [r4]
 108:../eurorack/plaits/dsp/oscillator/variable_saw_oscillator.h ****         const float notch = (kVariableSawNotchDepth + 1.0f) * notch_amount;
 1038              		.loc 4 108 9 is_stmt 1 view .LVU336
 108:../eurorack/plaits/dsp/oscillator/variable_saw_oscillator.h ****         const float notch = (kVariableSawNotchDepth + 1.0f) * notch_amount;
 1039              		.loc 4 108 47 is_stmt 0 view .LVU337
 1040 01a2 3FEE2EDA 		vadd.f32	s26, s30, s29
 108:../eurorack/plaits/dsp/oscillator/variable_saw_oscillator.h ****         const float notch = (kVariableSawNotchDepth + 1.0f) * notch_amount;
 1041              		.loc 4 108 61 view .LVU338
 1042 01a6 2DEE2ADA 		vmul.f32	s26, s26, s21
 108:../eurorack/plaits/dsp/oscillator/variable_saw_oscillator.h ****         const float notch = (kVariableSawNotchDepth + 1.0f) * notch_amount;
 1043              		.loc 4 108 21 view .LVU339
 1044 01aa 2DEE2BDA 		vmul.f32	s26, s26, s23
 1045              	.LVL58:
 109:../eurorack/plaits/dsp/oscillator/variable_saw_oscillator.h ****         const float t = phase_ / frequency;
 1046              		.loc 4 109 9 is_stmt 1 view .LVU340
 110:../eurorack/plaits/dsp/oscillator/variable_saw_oscillator.h ****         this_sample -= notch * stmlib::ThisBlepSample(t);
 1047              		.loc 4 110 9 view .LVU341
 111:../eurorack/plaits/dsp/oscillator/variable_saw_oscillator.h ****         next_sample -= notch * stmlib::NextBlepSample(t);
 1048              		.loc 4 111 9 view .LVU342
 1049              	.LBB295:
 1050              	.LBI291:
  37:../eurorack/stmlib/dsp/polyblep.h ****   return 0.5f * t * t;
 1051              		.loc 8 37 14 view .LVU343
 1052              	.LBB293:
  38:../eurorack/stmlib/dsp/polyblep.h **** }
 1053              		.loc 8 38 3 view .LVU344
  38:../eurorack/stmlib/dsp/polyblep.h **** }
 1054              		.loc 8 38 15 is_stmt 0 view .LVU345
 1055 01ae 2FEE877A 		vmul.f32	s14, s31, s14
 1056              	.LBE293:
 1057              	.LBE295:
 1058              	.LBB296:
 1059              	.LBB297:
  42:../eurorack/stmlib/dsp/polyblep.h ****   return -0.5f * t * t;
 1060              		.loc 8 42 5 view .LVU346
 1061 01b2 38EEEF0A 		vsub.f32	s0, s17, s31
 1062              	.LBE297:
 1063              	.LBE296:
 1064              	.LBB299:
 1065              	.LBB294:
  38:../eurorack/stmlib/dsp/polyblep.h **** }
 1066              		.loc 8 38 21 view .LVU347
 1067 01b6 27EE2F7A 		vmul.f32	s14, s14, s31
 1068              	.LBE294:
 1069              	.LBE299:
 111:../eurorack/plaits/dsp/oscillator/variable_saw_oscillator.h ****         next_sample -= notch * stmlib::NextBlepSample(t);
 1070              		.loc 4 111 21 discriminator 1 view .LVU348
 1071 01ba E7EE269A 		vfma.f32	s19, s14, s13
 1072              	.LVL59:
 112:../eurorack/plaits/dsp/oscillator/variable_saw_oscillator.h ****         this_sample += triangle_step * stmlib::ThisIntegratedBlepSample(t);
 1073              		.loc 4 112 9 is_stmt 1 view .LVU349
 1074              	.LBB300:
 1075              	.LBI296:
ARM GAS  /var/folders/y7/g6pkzsp12sx54x3s3mvyn15r0000gn/T//ccLQFW5y.s 			page 37


  41:../eurorack/stmlib/dsp/polyblep.h ****   t = 1.0f - t;
 1076              		.loc 8 41 14 view .LVU350
 1077              	.LBB298:
  42:../eurorack/stmlib/dsp/polyblep.h ****   return -0.5f * t * t;
 1078              		.loc 8 42 3 view .LVU351
  43:../eurorack/stmlib/dsp/polyblep.h **** }
 1079              		.loc 8 43 3 view .LVU352
  43:../eurorack/stmlib/dsp/polyblep.h **** }
 1080              		.loc 8 43 16 is_stmt 0 view .LVU353
 1081 01be BEEE007A 		vmov.f32	s14, #-5.0e-1
 1082 01c2 20EE077A 		vmul.f32	s14, s0, s14
  43:../eurorack/stmlib/dsp/polyblep.h **** }
 1083              		.loc 8 43 22 view .LVU354
 1084 01c6 27EE007A 		vmul.f32	s14, s14, s0
 1085              	.LBE298:
 1086              	.LBE300:
 112:../eurorack/plaits/dsp/oscillator/variable_saw_oscillator.h ****         this_sample += triangle_step * stmlib::ThisIntegratedBlepSample(t);
 1087              		.loc 4 112 21 discriminator 1 view .LVU355
 1088 01ca E7EE267A 		vfma.f32	s15, s14, s13
 1089 01ce B0EE67AA 		vmov.f32	s20, s15
 1090              	.LVL60:
 113:../eurorack/plaits/dsp/oscillator/variable_saw_oscillator.h ****         next_sample += triangle_step * stmlib::NextIntegratedBlepSample(t);
 1091              		.loc 4 113 9 is_stmt 1 view .LVU356
 1092              	.LBB301:
 1093              	.LBI301:
  53:../eurorack/stmlib/dsp/polyblep.h ****   return NextIntegratedBlepSample(1.0f - t);
 1094              		.loc 8 53 14 view .LVU357
 1095              	.LBB302:
 1096              		.loc 8 54 3 view .LVU358
 1097              		.loc 8 54 34 is_stmt 0 view .LVU359
 1098 01d2 FFF7FEFF 		bl	_ZN6stmlib24NextIntegratedBlepSampleEf
 1099              	.LVL61:
 1100              		.loc 8 54 34 view .LVU360
 1101              	.LBE302:
 1102              	.LBE301:
 113:../eurorack/plaits/dsp/oscillator/variable_saw_oscillator.h ****         next_sample += triangle_step * stmlib::NextIntegratedBlepSample(t);
 1103              		.loc 4 113 21 discriminator 1 view .LVU361
 1104 01d6 EDEE009A 		vfma.f32	s19, s26, s0
 1105              	.LVL62:
 114:../eurorack/plaits/dsp/oscillator/variable_saw_oscillator.h ****         high_ = false;
 1106              		.loc 4 114 9 is_stmt 1 view .LVU362
 114:../eurorack/plaits/dsp/oscillator/variable_saw_oscillator.h ****         high_ = false;
 1107              		.loc 4 114 72 is_stmt 0 view .LVU363
 1108 01da B0EE6F0A 		vmov.f32	s0, s31
 1109 01de FFF7FEFF 		bl	_ZN6stmlib24NextIntegratedBlepSampleEf
 1110              	.LVL63:
 114:../eurorack/plaits/dsp/oscillator/variable_saw_oscillator.h ****         high_ = false;
 1111              		.loc 4 114 21 discriminator 1 view .LVU364
 1112 01e2 F0EE4A7A 		vmov.f32	s15, s20
 115:../eurorack/plaits/dsp/oscillator/variable_saw_oscillator.h ****       }
 1113              		.loc 4 115 15 view .LVU365
 1114 01e6 0023     		movs	r3, #0
 114:../eurorack/plaits/dsp/oscillator/variable_saw_oscillator.h ****         high_ = false;
 1115              		.loc 4 114 21 discriminator 1 view .LVU366
 1116 01e8 E0EE0D7A 		vfma.f32	s15, s0, s26
 1117              	.LVL64:
 115:../eurorack/plaits/dsp/oscillator/variable_saw_oscillator.h ****       }
ARM GAS  /var/folders/y7/g6pkzsp12sx54x3s3mvyn15r0000gn/T//ccLQFW5y.s 			page 38


 1118              		.loc 4 115 9 is_stmt 1 view .LVU367
 1119 01ec A8E7     		b	.L32
 1120              	.LVL65:
 1121              	.L30:
 115:../eurorack/plaits/dsp/oscillator/variable_saw_oscillator.h ****       }
 1122              		.loc 4 115 9 is_stmt 0 view .LVU368
 1123              	.LBE303:
 1124              	.LBE304:
 1125              	.LBE318:
  85:../eurorack/plaits/dsp/oscillator/variable_saw_oscillator.h ****     
 1126              		.loc 4 85 19 view .LVU369
 1127 01ee DFED027A 		vldr.32	s15, .L33+4
 1128 01f2 A6E7     		b	.L19
 1129              	.L34:
 1130              		.align	2
 1131              	.L33:
 1132 01f4 9A99993F 		.word	1067030938
 1133 01f8 00000000 		.word	0
 1134              	.LBE319:
 1135              		.cfi_endproc
 1136              	.LFE1282:
 1138              		.section	.text._ZN6plaits23VariableShapeOscillator6RenderEffffPfj,"axG",%progbits,_ZN6plaits23Vari
 1139              		.align	1
 1140              		.weak	_ZN6plaits23VariableShapeOscillator6RenderEffffPfj
 1141              		.syntax unified
 1142              		.thumb
 1143              		.thumb_func
 1145              	_ZN6plaits23VariableShapeOscillator6RenderEffffPfj:
 1146              	.LVL66:
 1147              	.LFB1292:
  75:../eurorack/plaits/dsp/oscillator/variable_shape_oscillator.h ****       float master_frequency,
 1148              		.loc 3 75 8 is_stmt 1 view -0
 1149              		.cfi_startproc
 1150              		@ args = 0, pretend = 0, frame = 24
 1151              		@ frame_needed = 0, uses_anonymous_args = 0
  82:../eurorack/plaits/dsp/oscillator/variable_shape_oscillator.h ****         master_frequency,
 1152              		.loc 3 82 5 view .LVU371
 1153 0000 F5EE007A 		vmov.f32	s15, #2.5e-1
  75:../eurorack/plaits/dsp/oscillator/variable_shape_oscillator.h ****       float master_frequency,
 1154              		.loc 3 75 8 is_stmt 0 view .LVU372
 1155 0004 2DE9F043 		push	{r4, r5, r6, r7, r8, r9, lr}
 1156              		.cfi_def_cfa_offset 28
 1157              		.cfi_offset 4, -28
 1158              		.cfi_offset 5, -24
 1159              		.cfi_offset 6, -20
 1160              		.cfi_offset 7, -16
 1161              		.cfi_offset 8, -12
 1162              		.cfi_offset 9, -8
 1163              		.cfi_offset 14, -4
 1164 0008 B4EEE70A 		vcmpe.f32	s0, s15
 1165 000c 0446     		mov	r4, r0
 1166              	.LVL67:
  75:../eurorack/plaits/dsp/oscillator/variable_shape_oscillator.h ****       float master_frequency,
 1167              		.loc 3 75 8 view .LVU373
 1168 000e 8846     		mov	r8, r1
 1169              	.LVL68:
  75:../eurorack/plaits/dsp/oscillator/variable_shape_oscillator.h ****       float master_frequency,
ARM GAS  /var/folders/y7/g6pkzsp12sx54x3s3mvyn15r0000gn/T//ccLQFW5y.s 			page 39


 1170              		.loc 3 75 8 view .LVU374
 1171 0010 1546     		mov	r5, r2
 1172              	.LVL69:
 1173              	.LBB438:
 1174              	.LBI438:
  92:../eurorack/plaits/dsp/oscillator/variable_shape_oscillator.h ****       float master_frequency,
 1175              		.loc 3 92 8 is_stmt 1 view .LVU375
  92:../eurorack/plaits/dsp/oscillator/variable_shape_oscillator.h ****       float master_frequency,
 1176              		.loc 3 92 8 is_stmt 0 view .LVU376
 1177 0012 F1EE10FA 		vmrs	APSR_nzcv, FPSCR
 1178              	.LBB439:
 103:../eurorack/plaits/dsp/oscillator/variable_shape_oscillator.h ****       frequency = kMaxFrequency;
 1179              		.loc 3 103 5 view .LVU377
 1180 0016 F4EEE70A 		vcmpe.f32	s1, s15
 1181 001a 27FE800A 		vselge.f32	s0, s15, s0
 1182              	.LVL70:
 103:../eurorack/plaits/dsp/oscillator/variable_shape_oscillator.h ****       frequency = kMaxFrequency;
 1183              		.loc 3 103 5 view .LVU378
 1184              	.LBE439:
 1185              	.LBE438:
  75:../eurorack/plaits/dsp/oscillator/variable_shape_oscillator.h ****       float master_frequency,
 1186              		.loc 3 75 8 view .LVU379
 1187 001e 2DED108B 		vpush.64	{d8, d9, d10, d11, d12, d13, d14, d15}
 1188              		.cfi_def_cfa_offset 92
 1189              		.cfi_offset 80, -92
 1190              		.cfi_offset 81, -88
 1191              		.cfi_offset 82, -84
 1192              		.cfi_offset 83, -80
 1193              		.cfi_offset 84, -76
 1194              		.cfi_offset 85, -72
 1195              		.cfi_offset 86, -68
 1196              		.cfi_offset 87, -64
 1197              		.cfi_offset 88, -60
 1198              		.cfi_offset 89, -56
 1199              		.cfi_offset 90, -52
 1200              		.cfi_offset 91, -48
 1201              		.cfi_offset 92, -44
 1202              		.cfi_offset 93, -40
 1203              		.cfi_offset 94, -36
 1204              		.cfi_offset 95, -32
 1205              	.LBB584:
 1206              	.LBB581:
 103:../eurorack/plaits/dsp/oscillator/variable_shape_oscillator.h ****       frequency = kMaxFrequency;
 1207              		.loc 3 103 5 view .LVU380
 1208 0022 F1EE10FA 		vmrs	APSR_nzcv, FPSCR
 1209              	.LBE581:
 1210              	.LBE584:
  75:../eurorack/plaits/dsp/oscillator/variable_shape_oscillator.h ****       float master_frequency,
 1211              		.loc 3 75 8 view .LVU381
 1212 0026 87B0     		sub	sp, sp, #28
 1213              		.cfi_def_cfa_offset 120
 1214              	.LBB585:
 1215              	.LBB582:
 103:../eurorack/plaits/dsp/oscillator/variable_shape_oscillator.h ****       frequency = kMaxFrequency;
 1216              		.loc 3 103 5 view .LVU382
 1217 0028 47DA     		bge	.L57
 110:../eurorack/plaits/dsp/oscillator/variable_shape_oscillator.h ****     }
ARM GAS  /var/folders/y7/g6pkzsp12sx54x3s3mvyn15r0000gn/T//ccLQFW5y.s 			page 40


 1218              		.loc 3 110 7 view .LVU383
 1219 002a 70EEA07A 		vadd.f32	s15, s1, s1
 1220 002e B4EEE71A 		vcmpe.f32	s2, s15
 1221 0032 F1EE10FA 		vmrs	APSR_nzcv, FPSCR
 1222 0036 09D4     		bmi	.L36
 110:../eurorack/plaits/dsp/oscillator/variable_shape_oscillator.h ****     }
 1223              		.loc 3 110 7 discriminator 2 view .LVU384
 1224 0038 B7EE007A 		vmov.f32	s14, #1.0e+0
 1225 003c 77EE677A 		vsub.f32	s15, s14, s15
 1226 0040 B4EEE71A 		vcmpe.f32	s2, s15
 1227 0044 F1EE10FA 		vmrs	APSR_nzcv, FPSCR
 1228 0048 77FE817A 		vselgt.f32	s15, s15, s2
 1229              	.LVL71:
 1230              	.L36:
 1231              	.LBB440:
 1232              	.LBI440:
  39:../eurorack/stmlib/dsp/parameter_interpolator.h ****     Init(state, new_value, size);
 1233              		.loc 9 39 3 is_stmt 1 view .LVU385
 1234              	.LBB441:
 1235              	.LBI441:
  53:../eurorack/stmlib/dsp/parameter_interpolator.h ****     state_ = state;
 1236              		.loc 9 53 15 view .LVU386
 1237              	.LBB442:
  54:../eurorack/stmlib/dsp/parameter_interpolator.h ****     value_ = *state;
 1238              		.loc 9 54 5 view .LVU387
  55:../eurorack/stmlib/dsp/parameter_interpolator.h ****     increment_ = (new_value - *state) / static_cast<float>(size);
 1239              		.loc 9 55 5 view .LVU388
  55:../eurorack/stmlib/dsp/parameter_interpolator.h ****     increment_ = (new_value - *state) / static_cast<float>(size);
 1240              		.loc 9 55 14 is_stmt 0 view .LVU389
 1241 004c D4ED05EA 		vldr.32	s29, [r4, #20]
 1242              	.LVL72:
  56:../eurorack/stmlib/dsp/parameter_interpolator.h ****   }
 1243              		.loc 9 56 5 is_stmt 1 view .LVU390
  56:../eurorack/stmlib/dsp/parameter_interpolator.h ****   }
 1244              		.loc 9 56 39 is_stmt 0 view .LVU391
 1245 0050 07EE105A 		vmov	s14, r5	@ int
 1246              	.LBE442:
 1247              	.LBE441:
 1248              	.LBE440:
 1249              	.LBB451:
 1250              	.LBB452:
 1251              	.LBB453:
  55:../eurorack/stmlib/dsp/parameter_interpolator.h ****     increment_ = (new_value - *state) / static_cast<float>(size);
 1252              		.loc 9 55 14 view .LVU392
 1253 0054 94ED069A 		vldr.32	s18, [r4, #24]
 1254              	.LBE453:
 1255              	.LBE452:
 1256              	.LBE451:
 1257              	.LBB458:
 1258              	.LBB447:
 1259              	.LBB443:
  56:../eurorack/stmlib/dsp/parameter_interpolator.h ****   }
 1260              		.loc 9 56 39 view .LVU393
 1261 0058 B8EE477A 		vcvt.f32.u32	s14, s14
 1262              	.LBE443:
 1263              	.LBE447:
 1264              	.LBE458:
ARM GAS  /var/folders/y7/g6pkzsp12sx54x3s3mvyn15r0000gn/T//ccLQFW5y.s 			page 41


 1265              	.LBB459:
 1266              	.LBB460:
 1267              	.LBB461:
  55:../eurorack/stmlib/dsp/parameter_interpolator.h ****     increment_ = (new_value - *state) / static_cast<float>(size);
 1268              		.loc 9 55 14 view .LVU394
 1269 005c D4ED08FA 		vldr.32	s31, [r4, #32]
 1270              	.LBE461:
 1271              	.LBE460:
 1272              	.LBE459:
 1273              	.LBB468:
 1274              	.LBB448:
 1275              	.LBB444:
  56:../eurorack/stmlib/dsp/parameter_interpolator.h ****   }
 1276              		.loc 9 56 29 view .LVU395
 1277 0060 30EE6E0A 		vsub.f32	s0, s0, s29
 1278              	.LVL73:
  56:../eurorack/stmlib/dsp/parameter_interpolator.h ****   }
 1279              		.loc 9 56 29 view .LVU396
 1280              	.LBE444:
 1281              	.LBE448:
 1282              	.LBE468:
 1283              	.LBB469:
 1284              	.LBB470:
 1285              	.LBB471:
  55:../eurorack/stmlib/dsp/parameter_interpolator.h ****     increment_ = (new_value - *state) / static_cast<float>(size);
 1286              		.loc 9 55 14 view .LVU397
 1287 0064 D4ED078A 		vldr.32	s17, [r4, #28]
 1288              	.LBE471:
 1289              	.LBE470:
 1290              	.LBE469:
 1291              	.LBB476:
 1292              	.LBB456:
 1293              	.LBB454:
  56:../eurorack/stmlib/dsp/parameter_interpolator.h ****   }
 1294              		.loc 9 56 29 view .LVU398
 1295 0068 70EEC90A 		vsub.f32	s1, s1, s18
 1296              	.LBE454:
 1297              	.LBE456:
 1298              	.LBE476:
 1299              	.LBB477:
 1300              	.LBB478:
 1301              	.LBB479:
  55:../eurorack/stmlib/dsp/parameter_interpolator.h ****     increment_ = (new_value - *state) / static_cast<float>(size);
 1302              		.loc 9 55 14 view .LVU399
 1303 006c D4F82490 		ldr	r9, [r4, #36]	@ float
 1304              	.LBE479:
 1305              	.LBE478:
 1306              	.LBE477:
 1307              	.LBB482:
 1308              	.LBB465:
 1309              	.LBB462:
  56:../eurorack/stmlib/dsp/parameter_interpolator.h ****   }
 1310              		.loc 9 56 29 view .LVU400
 1311 0070 71EEEF1A 		vsub.f32	s3, s3, s31
 1312              	.LVL74:
  56:../eurorack/stmlib/dsp/parameter_interpolator.h ****   }
 1313              		.loc 9 56 29 view .LVU401
ARM GAS  /var/folders/y7/g6pkzsp12sx54x3s3mvyn15r0000gn/T//ccLQFW5y.s 			page 42


 1314              	.LBE462:
 1315              	.LBE465:
 1316              	.LBE482:
 1317              	.LBB483:
 1318              	.LBB449:
 1319              	.LBB445:
  56:../eurorack/stmlib/dsp/parameter_interpolator.h ****   }
 1320              		.loc 9 56 39 view .LVU402
 1321 0074 C0EE076A 		vdiv.f32	s13, s0, s14
 1322              	.LBE445:
 1323              	.LBE449:
 1324              	.LBE483:
 1325              	.LBB484:
 1326              	.LBB466:
 1327              	.LBB463:
 1328 0078 C1EE87BA 		vdiv.f32	s23, s3, s14
 1329              	.LBE463:
 1330              	.LBE466:
 1331              	.LBE484:
 1332              	.LBB485:
 1333              	.LBB474:
 1334              	.LBB472:
  56:../eurorack/stmlib/dsp/parameter_interpolator.h ****   }
 1335              		.loc 9 56 29 view .LVU403
 1336 007c 77EEE87A 		vsub.f32	s15, s15, s17
 1337              	.LVL75:
  56:../eurorack/stmlib/dsp/parameter_interpolator.h ****   }
 1338              		.loc 9 56 39 view .LVU404
 1339 0080 87EE87BA 		vdiv.f32	s22, s15, s14
 1340              	.LBE472:
 1341              	.LBE474:
 1342              	.LBE485:
 122:../eurorack/plaits/dsp/oscillator/variable_shape_oscillator.h ****     
 1343              		.loc 3 122 11 view .LVU405
 1344 0084 D4ED027A 		vldr.32	s15, [r4, #8]
 1345              	.LBB486:
 1346              	.LBB450:
 1347              	.LBB446:
  56:../eurorack/stmlib/dsp/parameter_interpolator.h ****   }
 1348              		.loc 9 56 39 view .LVU406
 1349 0088 CDED016A 		vstr.32	s13, [sp, #4]
 1350              	.LVL76:
  56:../eurorack/stmlib/dsp/parameter_interpolator.h ****   }
 1351              		.loc 9 56 39 view .LVU407
 1352              	.LBE446:
 1353              	.LBE450:
 1354              	.LBE486:
 1355              	.LBB487:
 1356              	.LBI451:
  39:../eurorack/stmlib/dsp/parameter_interpolator.h ****     Init(state, new_value, size);
 1357              		.loc 9 39 3 is_stmt 1 view .LVU408
 1358              	.LBB457:
 1359              	.LBI452:
  53:../eurorack/stmlib/dsp/parameter_interpolator.h ****     state_ = state;
 1360              		.loc 9 53 15 view .LVU409
 1361              	.LBB455:
  54:../eurorack/stmlib/dsp/parameter_interpolator.h ****     value_ = *state;
ARM GAS  /var/folders/y7/g6pkzsp12sx54x3s3mvyn15r0000gn/T//ccLQFW5y.s 			page 43


 1362              		.loc 9 54 5 view .LVU410
  55:../eurorack/stmlib/dsp/parameter_interpolator.h ****     increment_ = (new_value - *state) / static_cast<float>(size);
 1363              		.loc 9 55 5 view .LVU411
  56:../eurorack/stmlib/dsp/parameter_interpolator.h ****   }
 1364              		.loc 9 56 5 view .LVU412
  56:../eurorack/stmlib/dsp/parameter_interpolator.h ****   }
 1365              		.loc 9 56 39 is_stmt 0 view .LVU413
 1366 008c C0EE876A 		vdiv.f32	s13, s1, s14
 1367              	.LVL77:
  56:../eurorack/stmlib/dsp/parameter_interpolator.h ****   }
 1368              		.loc 9 56 39 view .LVU414
 1369 0090 CDED026A 		vstr.32	s13, [sp, #8]
 1370              	.LVL78:
  56:../eurorack/stmlib/dsp/parameter_interpolator.h ****   }
 1371              		.loc 9 56 39 view .LVU415
 1372              	.LBE455:
 1373              	.LBE457:
 1374              	.LBE487:
 1375              	.LBB488:
 1376              	.LBI469:
  39:../eurorack/stmlib/dsp/parameter_interpolator.h ****     Init(state, new_value, size);
 1377              		.loc 9 39 3 is_stmt 1 view .LVU416
 1378              	.LBB475:
 1379              	.LBI470:
  53:../eurorack/stmlib/dsp/parameter_interpolator.h ****     state_ = state;
 1380              		.loc 9 53 15 view .LVU417
 1381              	.LBB473:
  54:../eurorack/stmlib/dsp/parameter_interpolator.h ****     value_ = *state;
 1382              		.loc 9 54 5 view .LVU418
  55:../eurorack/stmlib/dsp/parameter_interpolator.h ****     increment_ = (new_value - *state) / static_cast<float>(size);
 1383              		.loc 9 55 5 view .LVU419
  56:../eurorack/stmlib/dsp/parameter_interpolator.h ****   }
 1384              		.loc 9 56 5 view .LVU420
  56:../eurorack/stmlib/dsp/parameter_interpolator.h ****   }
 1385              		.loc 9 56 5 is_stmt 0 view .LVU421
 1386              	.LBE473:
 1387              	.LBE475:
 1388              	.LBE488:
 1389              	.LBB489:
 1390              	.LBI459:
  39:../eurorack/stmlib/dsp/parameter_interpolator.h ****     Init(state, new_value, size);
 1391              		.loc 9 39 3 is_stmt 1 view .LVU422
 1392              	.LBB467:
 1393              	.LBI460:
  53:../eurorack/stmlib/dsp/parameter_interpolator.h ****     state_ = state;
 1394              		.loc 9 53 15 view .LVU423
 1395              	.LBB464:
  54:../eurorack/stmlib/dsp/parameter_interpolator.h ****     value_ = *state;
 1396              		.loc 9 54 5 view .LVU424
  55:../eurorack/stmlib/dsp/parameter_interpolator.h ****     increment_ = (new_value - *state) / static_cast<float>(size);
 1397              		.loc 9 55 5 view .LVU425
  56:../eurorack/stmlib/dsp/parameter_interpolator.h ****   }
 1398              		.loc 9 56 5 view .LVU426
  56:../eurorack/stmlib/dsp/parameter_interpolator.h ****   }
 1399              		.loc 9 56 5 is_stmt 0 view .LVU427
 1400              	.LBE464:
 1401              	.LBE467:
ARM GAS  /var/folders/y7/g6pkzsp12sx54x3s3mvyn15r0000gn/T//ccLQFW5y.s 			page 44


 1402              	.LBE489:
 1403              	.LBB490:
 1404              	.LBI477:
  39:../eurorack/stmlib/dsp/parameter_interpolator.h ****     Init(state, new_value, size);
 1405              		.loc 9 39 3 is_stmt 1 view .LVU428
 1406              	.LBB481:
 1407              	.LBI478:
  53:../eurorack/stmlib/dsp/parameter_interpolator.h ****     state_ = state;
 1408              		.loc 9 53 15 view .LVU429
 1409              	.LBB480:
  54:../eurorack/stmlib/dsp/parameter_interpolator.h ****     value_ = *state;
 1410              		.loc 9 54 5 view .LVU430
  55:../eurorack/stmlib/dsp/parameter_interpolator.h ****     increment_ = (new_value - *state) / static_cast<float>(size);
 1411              		.loc 9 55 5 view .LVU431
  56:../eurorack/stmlib/dsp/parameter_interpolator.h ****   }
 1412              		.loc 9 56 5 view .LVU432
 1413              	.L37:
  56:../eurorack/stmlib/dsp/parameter_interpolator.h ****   }
 1414              		.loc 9 56 5 is_stmt 0 view .LVU433
 1415              	.LBE480:
 1416              	.LBE481:
 1417              	.LBE490:
 124:../eurorack/plaits/dsp/oscillator/variable_shape_oscillator.h ****       bool reset = false;
 1418              		.loc 3 124 5 is_stmt 1 view .LVU434
 1419 0094 013D     		subs	r5, r5, #1
 1420              	.LVL79:
 124:../eurorack/plaits/dsp/oscillator/variable_shape_oscillator.h ****       bool reset = false;
 1421              		.loc 3 124 5 is_stmt 0 view .LVU435
 1422 0096 15D2     		bcs	.L55
 241:../eurorack/plaits/dsp/oscillator/variable_shape_oscillator.h ****   }
 1423              		.loc 3 241 18 view .LVU436
 1424 0098 C4ED027A 		vstr.32	s15, [r4, #8]
 1425              	.LVL80:
 1426              	.LBB491:
 1427              	.LBI491:
  49:../eurorack/stmlib/dsp/parameter_interpolator.h ****     *state_ = value_;
 1428              		.loc 9 49 3 is_stmt 1 view .LVU437
 1429              	.LBB492:
  50:../eurorack/stmlib/dsp/parameter_interpolator.h ****   }
 1430              		.loc 9 50 5 view .LVU438
  50:../eurorack/stmlib/dsp/parameter_interpolator.h ****   }
 1431              		.loc 9 50 13 is_stmt 0 view .LVU439
 1432 009c C4F82490 		str	r9, [r4, #36]	@ float
 1433              	.LVL81:
  50:../eurorack/stmlib/dsp/parameter_interpolator.h ****   }
 1434              		.loc 9 50 13 view .LVU440
 1435              	.LBE492:
 1436              	.LBE491:
 1437              	.LBB493:
 1438              	.LBI493:
  49:../eurorack/stmlib/dsp/parameter_interpolator.h ****     *state_ = value_;
 1439              		.loc 9 49 3 is_stmt 1 view .LVU441
 1440              	.LBB494:
  50:../eurorack/stmlib/dsp/parameter_interpolator.h ****   }
 1441              		.loc 9 50 5 view .LVU442
  50:../eurorack/stmlib/dsp/parameter_interpolator.h ****   }
 1442              		.loc 9 50 13 is_stmt 0 view .LVU443
ARM GAS  /var/folders/y7/g6pkzsp12sx54x3s3mvyn15r0000gn/T//ccLQFW5y.s 			page 45


 1443 00a0 C4ED08FA 		vstr.32	s31, [r4, #32]
 1444              	.LVL82:
  50:../eurorack/stmlib/dsp/parameter_interpolator.h ****   }
 1445              		.loc 9 50 13 view .LVU444
 1446              	.LBE494:
 1447              	.LBE493:
 1448              	.LBB495:
 1449              	.LBI495:
  49:../eurorack/stmlib/dsp/parameter_interpolator.h ****     *state_ = value_;
 1450              		.loc 9 49 3 is_stmt 1 view .LVU445
 1451              	.LBB496:
  50:../eurorack/stmlib/dsp/parameter_interpolator.h ****   }
 1452              		.loc 9 50 5 view .LVU446
  50:../eurorack/stmlib/dsp/parameter_interpolator.h ****   }
 1453              		.loc 9 50 13 is_stmt 0 view .LVU447
 1454 00a4 C4ED078A 		vstr.32	s17, [r4, #28]
 1455              	.LVL83:
  50:../eurorack/stmlib/dsp/parameter_interpolator.h ****   }
 1456              		.loc 9 50 13 view .LVU448
 1457              	.LBE496:
 1458              	.LBE495:
 1459              	.LBB497:
 1460              	.LBI497:
  49:../eurorack/stmlib/dsp/parameter_interpolator.h ****     *state_ = value_;
 1461              		.loc 9 49 3 is_stmt 1 view .LVU449
 1462              	.LBB498:
  50:../eurorack/stmlib/dsp/parameter_interpolator.h ****   }
 1463              		.loc 9 50 5 view .LVU450
  50:../eurorack/stmlib/dsp/parameter_interpolator.h ****   }
 1464              		.loc 9 50 13 is_stmt 0 view .LVU451
 1465 00a8 84ED069A 		vstr.32	s18, [r4, #24]
 1466              	.LVL84:
  50:../eurorack/stmlib/dsp/parameter_interpolator.h ****   }
 1467              		.loc 9 50 13 view .LVU452
 1468              	.LBE498:
 1469              	.LBE497:
 1470              	.LBB499:
 1471              	.LBI499:
  49:../eurorack/stmlib/dsp/parameter_interpolator.h ****     *state_ = value_;
 1472              		.loc 9 49 3 is_stmt 1 view .LVU453
 1473              	.LBB500:
  50:../eurorack/stmlib/dsp/parameter_interpolator.h ****   }
 1474              		.loc 9 50 5 view .LVU454
  50:../eurorack/stmlib/dsp/parameter_interpolator.h ****   }
 1475              		.loc 9 50 13 is_stmt 0 view .LVU455
 1476 00ac C4ED05EA 		vstr.32	s29, [r4, #20]
 1477              	.LVL85:
  50:../eurorack/stmlib/dsp/parameter_interpolator.h ****   }
 1478              		.loc 9 50 13 view .LVU456
 1479              	.LBE500:
 1480              	.LBE499:
 1481              	.LBE582:
 1482              	.LBE585:
  89:../eurorack/plaits/dsp/oscillator/variable_shape_oscillator.h ****   
 1483              		.loc 3 89 3 view .LVU457
 1484 00b0 07B0     		add	sp, sp, #28
 1485              		.cfi_remember_state
ARM GAS  /var/folders/y7/g6pkzsp12sx54x3s3mvyn15r0000gn/T//ccLQFW5y.s 			page 46


 1486              		.cfi_def_cfa_offset 92
 1487              		@ sp needed
 1488 00b2 BDEC108B 		vldm	sp!, {d8-d15}
 1489              		.cfi_restore 94
 1490              		.cfi_restore 95
 1491              		.cfi_restore 92
 1492              		.cfi_restore 93
 1493              		.cfi_restore 90
 1494              		.cfi_restore 91
 1495              		.cfi_restore 88
 1496              		.cfi_restore 89
 1497              		.cfi_restore 86
 1498              		.cfi_restore 87
 1499              		.cfi_restore 84
 1500              		.cfi_restore 85
 1501              		.cfi_restore 82
 1502              		.cfi_restore 83
 1503              		.cfi_restore 80
 1504              		.cfi_restore 81
 1505              		.cfi_def_cfa_offset 28
 1506              	.LVL86:
  89:../eurorack/plaits/dsp/oscillator/variable_shape_oscillator.h ****   
 1507              		.loc 3 89 3 view .LVU458
 1508 00b6 BDE8F083 		pop	{r4, r5, r6, r7, r8, r9, pc}
 1509              	.LVL87:
 1510              	.L57:
 1511              		.cfi_restore_state
 1512              	.LBB586:
 1513              	.LBB583:
 104:../eurorack/plaits/dsp/oscillator/variable_shape_oscillator.h ****     }
 1514              		.loc 3 104 17 view .LVU459
 1515 00ba F0EE670A 		vmov.f32	s1, s15
 1516              	.LVL88:
 108:../eurorack/plaits/dsp/oscillator/variable_shape_oscillator.h ****     } else {
 1517              		.loc 3 108 10 view .LVU460
 1518 00be F6EE007A 		vmov.f32	s15, #5.0e-1
 1519 00c2 C3E7     		b	.L36
 1520              	.LVL89:
 1521              	.L55:
 1522              	.LBB501:
 1523              	.LBB502:
 1524              	.LBI502:
  59:../eurorack/stmlib/dsp/parameter_interpolator.h ****     value_ += increment_;
 1525              		.loc 9 59 16 is_stmt 1 view .LVU461
 1526              	.LBB503:
  60:../eurorack/stmlib/dsp/parameter_interpolator.h ****     return value_;
 1527              		.loc 9 60 5 view .LVU462
 1528              	.LBE503:
 1529              	.LBE502:
 138:../eurorack/plaits/dsp/oscillator/variable_shape_oscillator.h ****       
 1530              		.loc 3 138 51 is_stmt 0 view .LVU463
 1531 00c4 B7EE008A 		vmov.f32	s16, #1.0e+0
 1532              	.LBB506:
 1533              	.LBB504:
  60:../eurorack/stmlib/dsp/parameter_interpolator.h ****     return value_;
 1534              		.loc 9 60 12 view .LVU464
 1535 00c8 9DED017A 		vldr.32	s14, [sp, #4]
ARM GAS  /var/folders/y7/g6pkzsp12sx54x3s3mvyn15r0000gn/T//ccLQFW5y.s 			page 47


 1536              	.LBE504:
 1537              	.LBE506:
 1538              	.LBB507:
 1539              	.LBB508:
 1540 00cc 7FEEABFA 		vadd.f32	s31, s31, s23
 1541              	.LVL90:
  60:../eurorack/stmlib/dsp/parameter_interpolator.h ****     return value_;
 1542              		.loc 9 60 12 view .LVU465
 1543              	.LBE508:
 1544              	.LBE507:
 137:../eurorack/plaits/dsp/oscillator/variable_shape_oscillator.h ****       const float triangle_amount = std::max(1.0f - waveshape * 2.0f, 0.0f);
 1545              		.loc 3 137 19 discriminator 1 view .LVU466
 1546 00d0 DFED9D6A 		vldr.32	s13, .L73
 137:../eurorack/plaits/dsp/oscillator/variable_shape_oscillator.h ****       const float triangle_amount = std::max(1.0f - waveshape * 2.0f, 0.0f);
 1547              		.loc 3 137 54 view .LVU467
 1548 00d4 F6EE00AA 		vmov.f32	s21, #5.0e-1
 1549              	.LBB510:
 1550              	.LBB511:
 1551              	.LBB512:
 149:../eurorack/plaits/dsp/oscillator/variable_shape_oscillator.h ****               (1.0f - reset_time) * slave_frequency;
 1552              		.loc 3 149 40 view .LVU468
 1553 00d8 D4ED013A 		vldr.32	s7, [r4, #4]
 1554              	.LBE512:
 1555              	.LBE511:
 1556              	.LBE510:
 138:../eurorack/plaits/dsp/oscillator/variable_shape_oscillator.h ****       
 1557              		.loc 3 138 51 view .LVU469
 1558 00dc F0EE009A 		vmov.f32	s19, #2.0e+0
 1559 00e0 F0EE48DA 		vmov.f32	s27, s16
 1560              	.LBB530:
 1561              	.LBB531:
  60:../eurorack/stmlib/dsp/parameter_interpolator.h ****     return value_;
 1562              		.loc 9 60 12 view .LVU470
 1563 00e4 78EE8B8A 		vadd.f32	s17, s17, s22
 1564              	.LVL91:
  60:../eurorack/stmlib/dsp/parameter_interpolator.h ****     return value_;
 1565              		.loc 9 60 12 view .LVU471
 1566              	.LBE531:
 1567              	.LBE530:
 1568              	.LBB533:
 1569              	.LBB505:
 1570 00e8 7EEE87EA 		vadd.f32	s29, s29, s14
 1571              	.LVL92:
 1572              		.loc 9 61 5 is_stmt 1 view .LVU472
 1573              		.loc 9 61 5 is_stmt 0 view .LVU473
 1574              	.LBE505:
 1575              	.LBE533:
 1576              	.LBB534:
 1577              	.LBI534:
  59:../eurorack/stmlib/dsp/parameter_interpolator.h ****     value_ += increment_;
 1578              		.loc 9 59 16 is_stmt 1 view .LVU474
 1579              	.LBB535:
  60:../eurorack/stmlib/dsp/parameter_interpolator.h ****     return value_;
 1580              		.loc 9 60 5 view .LVU475
  60:../eurorack/stmlib/dsp/parameter_interpolator.h ****     return value_;
 1581              		.loc 9 60 12 is_stmt 0 view .LVU476
 1582 00ec 9DED027A 		vldr.32	s14, [sp, #8]
ARM GAS  /var/folders/y7/g6pkzsp12sx54x3s3mvyn15r0000gn/T//ccLQFW5y.s 			page 48


 1583              	.LBE535:
 1584              	.LBE534:
 138:../eurorack/plaits/dsp/oscillator/variable_shape_oscillator.h ****       
 1585              		.loc 3 138 51 view .LVU477
 1586 00f0 EFEEE9DA 		vfms.f32	s27, s31, s19
 137:../eurorack/plaits/dsp/oscillator/variable_shape_oscillator.h ****       const float triangle_amount = std::max(1.0f - waveshape * 2.0f, 0.0f);
 1587              		.loc 3 137 54 view .LVU478
 1588 00f4 3FEEEACA 		vsub.f32	s24, s31, s21
 1589              	.LBB537:
 1590              	.LBB536:
  60:../eurorack/stmlib/dsp/parameter_interpolator.h ****     return value_;
 1591              		.loc 9 60 12 view .LVU479
 1592 00f8 39EE079A 		vadd.f32	s18, s18, s14
 1593              	.LVL93:
 1594              		.loc 9 61 5 is_stmt 1 view .LVU480
 1595              		.loc 9 61 5 is_stmt 0 view .LVU481
 1596              	.LBE536:
 1597              	.LBE537:
 1598              	.LBB538:
 1599              	.LBI530:
  59:../eurorack/stmlib/dsp/parameter_interpolator.h ****     value_ += increment_;
 1600              		.loc 9 59 16 is_stmt 1 view .LVU482
 1601              	.LBB532:
  60:../eurorack/stmlib/dsp/parameter_interpolator.h ****     return value_;
 1602              		.loc 9 60 5 view .LVU483
 1603              		.loc 9 61 5 view .LVU484
 1604              		.loc 9 61 5 is_stmt 0 view .LVU485
 1605              	.LBE532:
 1606              	.LBE538:
 1607              	.LBB539:
 1608              	.LBI507:
  59:../eurorack/stmlib/dsp/parameter_interpolator.h ****     value_ += increment_;
 1609              		.loc 9 59 16 is_stmt 1 view .LVU486
 1610              	.LBB509:
  60:../eurorack/stmlib/dsp/parameter_interpolator.h ****     return value_;
 1611              		.loc 9 60 5 view .LVU487
 1612              		.loc 9 61 5 view .LVU488
 1613              		.loc 9 61 5 is_stmt 0 view .LVU489
 1614              	.LBE509:
 1615              	.LBE539:
 141:../eurorack/plaits/dsp/oscillator/variable_shape_oscillator.h **** 
 1616              		.loc 3 141 45 view .LVU490
 1617 00fc 38EE687A 		vsub.f32	s14, s16, s17
 137:../eurorack/plaits/dsp/oscillator/variable_shape_oscillator.h ****       const float triangle_amount = std::max(1.0f - waveshape * 2.0f, 0.0f);
 1618              		.loc 3 137 19 discriminator 1 view .LVU491
 1619 0100 B4EEE6CA 		vcmpe.f32	s24, s13
 140:../eurorack/plaits/dsp/oscillator/variable_shape_oscillator.h ****       const float slope_down = 1.0f / (1.0f - pw);
 1620              		.loc 3 140 19 view .LVU492
 1621 0104 C8EE28CA 		vdiv.f32	s25, s16, s17
 141:../eurorack/plaits/dsp/oscillator/variable_shape_oscillator.h **** 
 1622              		.loc 3 141 19 view .LVU493
 1623 0108 88EE07AA 		vdiv.f32	s20, s16, s14
 1624              	.LBB540:
 144:../eurorack/plaits/dsp/oscillator/variable_shape_oscillator.h ****         if (master_phase_ >= 1.0f) {
 1625              		.loc 3 144 23 view .LVU494
 1626 010c 94ED007A 		vldr.32	s14, [r4]
 1627              	.LBE540:
ARM GAS  /var/folders/y7/g6pkzsp12sx54x3s3mvyn15r0000gn/T//ccLQFW5y.s 			page 49


 137:../eurorack/plaits/dsp/oscillator/variable_shape_oscillator.h ****       const float triangle_amount = std::max(1.0f - waveshape * 2.0f, 0.0f);
 1628              		.loc 3 137 19 discriminator 1 view .LVU495
 1629 0110 F1EE10FA 		vmrs	APSR_nzcv, FPSCR
 1630              	.LBB541:
 144:../eurorack/plaits/dsp/oscillator/variable_shape_oscillator.h ****         if (master_phase_ >= 1.0f) {
 1631              		.loc 3 144 23 view .LVU496
 1632 0114 3EEE877A 		vadd.f32	s14, s29, s14
 1633 0118 F4EEE6DA 		vcmpe.f32	s27, s13
 1634              	.LBE541:
 137:../eurorack/plaits/dsp/oscillator/variable_shape_oscillator.h ****       const float triangle_amount = std::max(1.0f - waveshape * 2.0f, 0.0f);
 1635              		.loc 3 137 19 discriminator 1 view .LVU497
 1636 011c 48BF     		it	mi
 1637 011e B0EE66CA 		vmovmi.f32	s24, s13
 1638              	.LBB542:
 144:../eurorack/plaits/dsp/oscillator/variable_shape_oscillator.h ****         if (master_phase_ >= 1.0f) {
 1639              		.loc 3 144 23 view .LVU498
 1640 0122 84ED007A 		vstr.32	s14, [r4]
 1641 0126 F1EE10FA 		vmrs	APSR_nzcv, FPSCR
 1642              	.LBB526:
 145:../eurorack/plaits/dsp/oscillator/variable_shape_oscillator.h ****           master_phase_ -= 1.0f;
 1643              		.loc 3 145 9 view .LVU499
 1644 012a B4EEC87A 		vcmpe.f32	s14, s16
 1645              	.LBE526:
 1646              	.LBE542:
 137:../eurorack/plaits/dsp/oscillator/variable_shape_oscillator.h ****       const float triangle_amount = std::max(1.0f - waveshape * 2.0f, 0.0f);
 1647              		.loc 3 137 19 discriminator 1 view .LVU500
 1648 012e 3CEE0CCA 		vadd.f32	s24, s24, s24
 1649              	.LVL94:
 137:../eurorack/plaits/dsp/oscillator/variable_shape_oscillator.h ****       const float triangle_amount = std::max(1.0f - waveshape * 2.0f, 0.0f);
 1650              		.loc 3 137 19 discriminator 1 view .LVU501
 1651 0132 48BF     		it	mi
 1652 0134 F0EE66DA 		vmovmi.f32	s27, s13
 1653              	.LBB543:
 1654              	.LBB527:
 145:../eurorack/plaits/dsp/oscillator/variable_shape_oscillator.h ****           master_phase_ -= 1.0f;
 1655              		.loc 3 145 9 view .LVU502
 1656 0138 F1EE10FA 		vmrs	APSR_nzcv, FPSCR
 1657 013c 54DB     		blt	.L68
 1658              	.LBB523:
 146:../eurorack/plaits/dsp/oscillator/variable_shape_oscillator.h ****           reset_time = master_phase_ / master_frequency;
 1659              		.loc 3 146 25 view .LVU503
 1660 013e 37EE487A 		vsub.f32	s14, s14, s16
 156:../eurorack/plaits/dsp/oscillator/variable_shape_oscillator.h ****             transition_during_reset = true;
 1661              		.loc 3 156 11 view .LVU504
 1662 0142 237C     		ldrb	r3, [r4, #16]	@ zero_extendqisi2
 147:../eurorack/plaits/dsp/oscillator/variable_shape_oscillator.h ****       
 1663              		.loc 3 147 22 view .LVU505
 1664 0144 87EE2EEA 		vdiv.f32	s28, s14, s29
 1665              	.LVL95:
 146:../eurorack/plaits/dsp/oscillator/variable_shape_oscillator.h ****           reset_time = master_phase_ / master_frequency;
 1666              		.loc 3 146 25 view .LVU506
 1667 0148 84ED007A 		vstr.32	s14, [r4]
 149:../eurorack/plaits/dsp/oscillator/variable_shape_oscillator.h ****               (1.0f - reset_time) * slave_frequency;
 1668              		.loc 3 149 17 view .LVU507
 1669 014c B0EE637A 		vmov.f32	s14, s7
 150:../eurorack/plaits/dsp/oscillator/variable_shape_oscillator.h ****           reset = true;
 1670              		.loc 3 150 21 view .LVU508
ARM GAS  /var/folders/y7/g6pkzsp12sx54x3s3mvyn15r0000gn/T//ccLQFW5y.s 			page 50


 1671 0150 38EE4E5A 		vsub.f32	s10, s16, s28
 149:../eurorack/plaits/dsp/oscillator/variable_shape_oscillator.h ****               (1.0f - reset_time) * slave_frequency;
 1672              		.loc 3 149 17 view .LVU509
 1673 0154 A9EE057A 		vfma.f32	s14, s18, s10
 1674              	.LVL96:
 152:../eurorack/plaits/dsp/oscillator/variable_shape_oscillator.h ****             slave_phase_at_reset -= 1.0f;
 1675              		.loc 3 152 11 view .LVU510
 1676 0158 B4EEC87A 		vcmpe.f32	s14, s16
 1677 015c F1EE10FA 		vmrs	APSR_nzcv, FPSCR
 153:../eurorack/plaits/dsp/oscillator/variable_shape_oscillator.h ****             transition_during_reset = true;
 1678              		.loc 3 153 34 view .LVU511
 1679 0160 A6BF     		itte	ge
 1680 0162 37EE487A 		vsubge.f32	s14, s14, s16
 1681              	.LVL97:
 154:../eurorack/plaits/dsp/oscillator/variable_shape_oscillator.h ****           }
 1682              		.loc 3 154 37 view .LVU512
 1683 0166 0126     		movge	r6, #1
 1684              	.LBE523:
 1685              	.LBE527:
 1686              	.LBE543:
 126:../eurorack/plaits/dsp/oscillator/variable_shape_oscillator.h ****       float reset_time = 0.0f;
 1687              		.loc 3 126 12 view .LVU513
 1688 0168 0026     		movlt	r6, #0
 1689              	.LVL98:
 1690              	.LBB544:
 1691              	.LBB528:
 1692              	.LBB524:
 156:../eurorack/plaits/dsp/oscillator/variable_shape_oscillator.h ****             transition_during_reset = true;
 1693              		.loc 3 156 11 view .LVU514
 1694 016a 23B9     		cbnz	r3, .L42
 156:../eurorack/plaits/dsp/oscillator/variable_shape_oscillator.h ****             transition_during_reset = true;
 1695              		.loc 3 156 22 discriminator 1 view .LVU515
 1696 016c F4EEC78A 		vcmpe.f32	s17, s14
 1697 0170 F1EE10FA 		vmrs	APSR_nzcv, FPSCR
 1698 0174 2ED9     		bls	.L60
 1699              	.L42:
 1700              	.LVL99:
 1701              	.LBB513:
 1702              	.LBI513:
 246:../eurorack/plaits/dsp/oscillator/variable_shape_oscillator.h ****   }
 247:../eurorack/plaits/dsp/oscillator/variable_shape_oscillator.h ****   
 248:../eurorack/plaits/dsp/oscillator/variable_shape_oscillator.h ****  private:
 249:../eurorack/plaits/dsp/oscillator/variable_shape_oscillator.h ****   inline float ComputeNaiveSample(
 1703              		.loc 3 249 16 is_stmt 1 view .LVU516
 1704              	.LBB514:
 250:../eurorack/plaits/dsp/oscillator/variable_shape_oscillator.h ****       float phase,
 251:../eurorack/plaits/dsp/oscillator/variable_shape_oscillator.h ****       float pw,
 252:../eurorack/plaits/dsp/oscillator/variable_shape_oscillator.h ****       float slope_up,
 253:../eurorack/plaits/dsp/oscillator/variable_shape_oscillator.h ****       float slope_down,
 254:../eurorack/plaits/dsp/oscillator/variable_shape_oscillator.h ****       float triangle_amount,
 255:../eurorack/plaits/dsp/oscillator/variable_shape_oscillator.h ****       float square_amount) const {
 256:../eurorack/plaits/dsp/oscillator/variable_shape_oscillator.h ****     float saw = phase;
 1705              		.loc 3 256 5 view .LVU517
 257:../eurorack/plaits/dsp/oscillator/variable_shape_oscillator.h ****     float square = phase < pw ? 0.0f : 1.0f;
 1706              		.loc 3 257 5 view .LVU518
 1707              		.loc 3 257 31 is_stmt 0 view .LVU519
 1708 0176 F4EEC78A 		vcmpe.f32	s17, s14
ARM GAS  /var/folders/y7/g6pkzsp12sx54x3s3mvyn15r0000gn/T//ccLQFW5y.s 			page 51


 1709 017a F1EE10FA 		vmrs	APSR_nzcv, FPSCR
 1710 017e 2ADD     		ble	.L43
 1711              	.LVL100:
 258:../eurorack/plaits/dsp/oscillator/variable_shape_oscillator.h ****     float triangle = phase < pw
 1712              		.loc 3 258 5 is_stmt 1 view .LVU520
 259:../eurorack/plaits/dsp/oscillator/variable_shape_oscillator.h ****         ? phase * slope_up
 1713              		.loc 3 259 9 is_stmt 0 discriminator 1 view .LVU521
 1714 0180 6CEE874A 		vmul.f32	s9, s25, s14
 1715 0184 9FED704A 		vldr.32	s8, .L73
 1716              	.LVL101:
 1717              	.L45:
 260:../eurorack/plaits/dsp/oscillator/variable_shape_oscillator.h ****         : 1.0f - (phase - pw) * slope_down;
 261:../eurorack/plaits/dsp/oscillator/variable_shape_oscillator.h ****     saw += (square - saw) * square_amount;
 1718              		.loc 3 261 5 is_stmt 1 view .LVU522
 1719              		.loc 3 261 20 is_stmt 0 view .LVU523
 1720 0188 34EE474A 		vsub.f32	s8, s8, s14
 1721              	.LBE514:
 1722              	.LBE513:
 151:../eurorack/plaits/dsp/oscillator/variable_shape_oscillator.h ****           if (slave_phase_at_reset >= 1.0f) {
 1723              		.loc 3 151 17 view .LVU524
 1724 018c 0127     		movs	r7, #1
 1725              	.LBB517:
 1726              	.LBB515:
 1727              		.loc 3 261 9 view .LVU525
 1728 018e ACEE047A 		vfma.f32	s14, s24, s8
 1729              	.LVL102:
 262:../eurorack/plaits/dsp/oscillator/variable_shape_oscillator.h ****     saw += (triangle - saw) * triangle_amount;
 1730              		.loc 3 262 5 is_stmt 1 view .LVU526
 1731              		.loc 3 262 22 is_stmt 0 view .LVU527
 1732 0192 74EEC74A 		vsub.f32	s9, s9, s14
 1733              	.LVL103:
 1734              		.loc 3 262 9 view .LVU528
 1735 0196 ADEEA47A 		vfma.f32	s14, s27, s9
 1736              	.LVL104:
 263:../eurorack/plaits/dsp/oscillator/variable_shape_oscillator.h ****     return saw;
 1737              		.loc 3 263 5 is_stmt 1 view .LVU529
 1738              		.loc 3 263 5 is_stmt 0 view .LVU530
 1739              	.LBE515:
 1740              	.LBE517:
 1741              	.LBB518:
 1742              	.LBI518:
  37:../eurorack/stmlib/dsp/polyblep.h ****   return 0.5f * t * t;
 1743              		.loc 8 37 14 is_stmt 1 view .LVU531
 1744              	.LBB519:
  38:../eurorack/stmlib/dsp/polyblep.h **** }
 1745              		.loc 8 38 3 view .LVU532
  38:../eurorack/stmlib/dsp/polyblep.h **** }
 1746              		.loc 8 38 15 is_stmt 0 view .LVU533
 1747 019a 6EEE2A4A 		vmul.f32	s9, s28, s21
 1748              	.LBE519:
 1749              	.LBE518:
 166:../eurorack/plaits/dsp/oscillator/variable_shape_oscillator.h ****           next_sample -= value * stmlib::NextBlepSample(reset_time);
 1750              		.loc 3 166 23 discriminator 1 view .LVU534
 1751 019e 6EEE644A 		vnmul.f32	s9, s28, s9
 1752 01a2 E7EE247A 		vfma.f32	s15, s14, s9
 1753              	.LVL105:
 1754              	.LBB520:
ARM GAS  /var/folders/y7/g6pkzsp12sx54x3s3mvyn15r0000gn/T//ccLQFW5y.s 			page 52


 1755              	.LBI520:
  41:../eurorack/stmlib/dsp/polyblep.h ****   t = 1.0f - t;
 1756              		.loc 8 41 14 is_stmt 1 view .LVU535
 1757              	.LBB521:
  42:../eurorack/stmlib/dsp/polyblep.h ****   return -0.5f * t * t;
 1758              		.loc 8 42 3 view .LVU536
  43:../eurorack/stmlib/dsp/polyblep.h **** }
 1759              		.loc 8 43 3 view .LVU537
  43:../eurorack/stmlib/dsp/polyblep.h **** }
 1760              		.loc 8 43 16 is_stmt 0 view .LVU538
 1761 01a6 FEEE004A 		vmov.f32	s9, #-5.0e-1
 1762 01aa 65EE244A 		vmul.f32	s9, s10, s9
 1763              	.LBE521:
 1764              	.LBE520:
 167:../eurorack/plaits/dsp/oscillator/variable_shape_oscillator.h ****         }
 1765              		.loc 3 167 23 discriminator 1 view .LVU539
 1766 01ae 25EE645A 		vnmul.f32	s10, s10, s9
 1767              	.LVL106:
 167:../eurorack/plaits/dsp/oscillator/variable_shape_oscillator.h ****         }
 1768              		.loc 3 167 23 discriminator 1 view .LVU540
 1769 01b2 E7EE056A 		vfma.f32	s13, s14, s10
 1770              	.LVL107:
 1771              	.L38:
 167:../eurorack/plaits/dsp/oscillator/variable_shape_oscillator.h ****         }
 1772              		.loc 3 167 23 discriminator 1 view .LVU541
 1773              	.LBE524:
 1774              	.LBE528:
 1775              	.LBE544:
 176:../eurorack/plaits/dsp/oscillator/variable_shape_oscillator.h ****       while (transition_during_reset || !reset) {
 1776              		.loc 3 176 20 view .LVU542
 1777 01b6 39EE237A 		vadd.f32	s14, s18, s7
 177:../eurorack/plaits/dsp/oscillator/variable_shape_oscillator.h ****         if (!high_) {
 1778              		.loc 3 177 7 view .LVU543
 1779 01ba B0EE67DA 		vmov.f32	s26, s15
 176:../eurorack/plaits/dsp/oscillator/variable_shape_oscillator.h ****       while (transition_during_reset || !reset) {
 1780              		.loc 3 176 20 view .LVU544
 1781 01be 84ED017A 		vstr.32	s14, [r4, #4]
 1782              	.LVL108:
 1783              	.L46:
 177:../eurorack/plaits/dsp/oscillator/variable_shape_oscillator.h ****         if (!high_) {
 1784              		.loc 3 177 38 is_stmt 1 view .LVU545
 1785 01c2 B6B9     		cbnz	r6, .L49
 177:../eurorack/plaits/dsp/oscillator/variable_shape_oscillator.h ****         if (!high_) {
 1786              		.loc 3 177 38 is_stmt 0 discriminator 1 view .LVU546
 1787 01c4 AFB1     		cbz	r7, .L49
 1788              	.L50:
 211:../eurorack/plaits/dsp/oscillator/variable_shape_oscillator.h ****         high_ = false;
 1789              		.loc 3 211 35 view .LVU547
 1790 01c6 29EE0EEA 		vmul.f32	s28, s18, s28
 1791              	.LVL109:
 212:../eurorack/plaits/dsp/oscillator/variable_shape_oscillator.h ****       }
 1792              		.loc 3 212 15 view .LVU548
 1793 01ca 0023     		movs	r3, #0
 1794 01cc 2374     		strb	r3, [r4, #16]
 211:../eurorack/plaits/dsp/oscillator/variable_shape_oscillator.h ****         high_ = false;
 1795              		.loc 3 211 22 view .LVU549
 1796 01ce 84ED01EA 		vstr.32	s28, [r4, #4]
ARM GAS  /var/folders/y7/g6pkzsp12sx54x3s3mvyn15r0000gn/T//ccLQFW5y.s 			page 53


 1797 01d2 5DE0     		b	.L51
 1798              	.LVL110:
 1799              	.L60:
 1800              	.LBB545:
 1801              	.LBB529:
 1802              	.LBB525:
 157:../eurorack/plaits/dsp/oscillator/variable_shape_oscillator.h ****           }
 1803              		.loc 3 157 37 view .LVU550
 1804 01d4 0126     		movs	r6, #1
 1805              	.LVL111:
 1806              	.L43:
 1807              	.LBB522:
 1808              	.LBB516:
 260:../eurorack/plaits/dsp/oscillator/variable_shape_oscillator.h ****     saw += (square - saw) * square_amount;
 1809              		.loc 3 260 25 view .LVU551
 1810 01d6 37EE684A 		vsub.f32	s8, s14, s17
 259:../eurorack/plaits/dsp/oscillator/variable_shape_oscillator.h ****         : 1.0f - (phase - pw) * slope_down;
 1811              		.loc 3 259 9 discriminator 2 view .LVU552
 1812 01da F0EE484A 		vmov.f32	s9, s16
 1813 01de EAEE444A 		vfms.f32	s9, s20, s8
 1814 01e2 B7EE004A 		vmov.f32	s8, #1.0e+0
 1815 01e6 CFE7     		b	.L45
 1816              	.LVL112:
 1817              	.L68:
 259:../eurorack/plaits/dsp/oscillator/variable_shape_oscillator.h ****         : 1.0f - (phase - pw) * slope_down;
 1818              		.loc 3 259 9 discriminator 2 view .LVU553
 1819              	.LBE516:
 1820              	.LBE522:
 1821              	.LBE525:
 1822              	.LBE529:
 1823              	.LBE545:
 126:../eurorack/plaits/dsp/oscillator/variable_shape_oscillator.h ****       float reset_time = 0.0f;
 1824              		.loc 3 126 12 view .LVU554
 1825 01e8 0026     		movs	r6, #0
 127:../eurorack/plaits/dsp/oscillator/variable_shape_oscillator.h **** 
 1826              		.loc 3 127 13 view .LVU555
 1827 01ea B0EE66EA 		vmov.f32	s28, s13
 125:../eurorack/plaits/dsp/oscillator/variable_shape_oscillator.h ****       bool transition_during_reset = false;
 1828              		.loc 3 125 12 view .LVU556
 1829 01ee 3746     		mov	r7, r6
 1830 01f0 E1E7     		b	.L38
 1831              	.LVL113:
 1832              	.L49:
 1833              	.LBB546:
 178:../eurorack/plaits/dsp/oscillator/variable_shape_oscillator.h ****           if (slave_phase_ < pw) {
 1834              		.loc 3 178 9 view .LVU557
 1835 01f2 237C     		ldrb	r3, [r4, #16]	@ zero_extendqisi2
 1836              	.LBB547:
 179:../eurorack/plaits/dsp/oscillator/variable_shape_oscillator.h ****             break;
 1837              		.loc 3 179 15 view .LVU558
 1838 01f4 94ED01FA 		vldr.32	s30, [r4, #4]
 1839              	.LBE547:
 178:../eurorack/plaits/dsp/oscillator/variable_shape_oscillator.h ****           if (slave_phase_ < pw) {
 1840              		.loc 3 178 9 view .LVU559
 1841 01f8 002B     		cmp	r3, #0
 1842 01fa 42D1     		bne	.L47
 1843              	.LBB558:
ARM GAS  /var/folders/y7/g6pkzsp12sx54x3s3mvyn15r0000gn/T//ccLQFW5y.s 			page 54


 179:../eurorack/plaits/dsp/oscillator/variable_shape_oscillator.h ****             break;
 1844              		.loc 3 179 11 view .LVU560
 1845 01fc F4EECF8A 		vcmpe.f32	s17, s30
 1846 0200 F1EE10FA 		vmrs	APSR_nzcv, FPSCR
 1847 0204 42DC     		bgt	.L48
 182:../eurorack/plaits/dsp/oscillator/variable_shape_oscillator.h ****           float triangle_step = (slope_up + slope_down) * slave_frequency;
 1848              		.loc 3 182 57 view .LVU561
 1849 0206 D4ED037A 		vldr.32	s15, [r4, #12]
 182:../eurorack/plaits/dsp/oscillator/variable_shape_oscillator.h ****           float triangle_step = (slope_up + slope_down) * slave_frequency;
 1850              		.loc 3 182 35 view .LVU562
 1851 020a 3FEE687A 		vsub.f32	s14, s30, s17
 182:../eurorack/plaits/dsp/oscillator/variable_shape_oscillator.h ****           float triangle_step = (slope_up + slope_down) * slave_frequency;
 1852              		.loc 3 182 57 view .LVU563
 1853 020e 77EEE87A 		vsub.f32	s15, s15, s17
 182:../eurorack/plaits/dsp/oscillator/variable_shape_oscillator.h ****           float triangle_step = (slope_up + slope_down) * slave_frequency;
 1854              		.loc 3 182 62 view .LVU564
 1855 0212 77EE897A 		vadd.f32	s15, s15, s18
 182:../eurorack/plaits/dsp/oscillator/variable_shape_oscillator.h ****           float triangle_step = (slope_up + slope_down) * slave_frequency;
 1856              		.loc 3 182 17 view .LVU565
 1857 0216 87EE275A 		vdiv.f32	s10, s14, s15
 1858              	.LVL114:
 183:../eurorack/plaits/dsp/oscillator/variable_shape_oscillator.h ****           triangle_step *= triangle_amount;
 1859              		.loc 3 183 43 view .LVU566
 1860 021a 7CEE8A7A 		vadd.f32	s15, s25, s20
 183:../eurorack/plaits/dsp/oscillator/variable_shape_oscillator.h ****           triangle_step *= triangle_amount;
 1861              		.loc 3 183 17 view .LVU567
 1862 021e 67EE897A 		vmul.f32	s15, s15, s18
 1863              	.LVL115:
 184:../eurorack/plaits/dsp/oscillator/variable_shape_oscillator.h ****           
 1864              		.loc 3 184 25 view .LVU568
 1865 0222 6DEEA77A 		vmul.f32	s15, s27, s15
 1866              	.LVL116:
 184:../eurorack/plaits/dsp/oscillator/variable_shape_oscillator.h ****           
 1867              		.loc 3 184 25 view .LVU569
 1868 0226 CDED037A 		vstr.32	s15, [sp, #12]	@ int
 1869              	.LVL117:
 1870              	.LBB548:
 1871              	.LBI548:
  37:../eurorack/stmlib/dsp/polyblep.h ****   return 0.5f * t * t;
 1872              		.loc 8 37 14 is_stmt 1 view .LVU570
 1873              	.LBB549:
  38:../eurorack/stmlib/dsp/polyblep.h **** }
 1874              		.loc 8 38 3 view .LVU571
  38:../eurorack/stmlib/dsp/polyblep.h **** }
 1875              		.loc 8 38 15 is_stmt 0 view .LVU572
 1876 022a 25EE2A7A 		vmul.f32	s14, s10, s21
 1877              	.LBE549:
 1878              	.LBE548:
 1879              	.LBB551:
 1880              	.LBB552:
  42:../eurorack/stmlib/dsp/polyblep.h ****   return -0.5f * t * t;
 1881              		.loc 8 42 5 view .LVU573
 1882 022e 8DED055A 		vstr.32	s10, [sp, #20]	@ int
 1883 0232 38EE450A 		vsub.f32	s0, s16, s10
 1884              	.LBE552:
 1885              	.LBE551:
 1886              	.LBB554:
ARM GAS  /var/folders/y7/g6pkzsp12sx54x3s3mvyn15r0000gn/T//ccLQFW5y.s 			page 55


 1887              	.LBB550:
  38:../eurorack/stmlib/dsp/polyblep.h **** }
 1888              		.loc 8 38 21 view .LVU574
 1889 0236 27EE057A 		vmul.f32	s14, s14, s10
 1890              	.LBE550:
 1891              	.LBE554:
 186:../eurorack/plaits/dsp/oscillator/variable_shape_oscillator.h ****           next_sample += square_amount * stmlib::NextBlepSample(t);
 1892              		.loc 3 186 23 discriminator 1 view .LVU575
 1893 023a ACEE07DA 		vfma.f32	s26, s24, s14
 1894              	.LVL118:
 1895              	.LBB555:
 1896              	.LBI551:
  41:../eurorack/stmlib/dsp/polyblep.h ****   t = 1.0f - t;
 1897              		.loc 8 41 14 is_stmt 1 view .LVU576
 1898              	.LBB553:
  42:../eurorack/stmlib/dsp/polyblep.h ****   return -0.5f * t * t;
 1899              		.loc 8 42 3 view .LVU577
  43:../eurorack/stmlib/dsp/polyblep.h **** }
 1900              		.loc 8 43 3 view .LVU578
  43:../eurorack/stmlib/dsp/polyblep.h **** }
 1901              		.loc 8 43 16 is_stmt 0 view .LVU579
 1902 023e BEEE007A 		vmov.f32	s14, #-5.0e-1
 1903 0242 20EE077A 		vmul.f32	s14, s0, s14
  43:../eurorack/stmlib/dsp/polyblep.h **** }
 1904              		.loc 8 43 22 view .LVU580
 1905 0246 27EE007A 		vmul.f32	s14, s14, s0
 1906              	.LBE553:
 1907              	.LBE555:
 187:../eurorack/plaits/dsp/oscillator/variable_shape_oscillator.h ****           this_sample -= triangle_step * stmlib::ThisIntegratedBlepSample(t);
 1908              		.loc 3 187 23 discriminator 1 view .LVU581
 1909 024a ECEE076A 		vfma.f32	s13, s24, s14
 1910              	.LVL119:
 187:../eurorack/plaits/dsp/oscillator/variable_shape_oscillator.h ****           this_sample -= triangle_step * stmlib::ThisIntegratedBlepSample(t);
 1911              		.loc 3 187 23 discriminator 1 view .LVU582
 1912 024e CDED046A 		vstr.32	s13, [sp, #16]	@ int
 1913              	.LVL120:
 1914              	.LBB556:
 1915              	.LBI556:
  53:../eurorack/stmlib/dsp/polyblep.h ****   return NextIntegratedBlepSample(1.0f - t);
 1916              		.loc 8 53 14 is_stmt 1 view .LVU583
 1917              	.LBB557:
 1918              		.loc 8 54 3 view .LVU584
 1919              		.loc 8 54 34 is_stmt 0 view .LVU585
 1920 0252 FFF7FEFF 		bl	_ZN6stmlib24NextIntegratedBlepSampleEf
 1921              	.LVL121:
 1922              		.loc 8 54 34 view .LVU586
 1923              	.LBE557:
 1924              	.LBE556:
 188:../eurorack/plaits/dsp/oscillator/variable_shape_oscillator.h ****           next_sample -= triangle_step * stmlib::NextIntegratedBlepSample(t);
 1925              		.loc 3 188 23 discriminator 1 view .LVU587
 1926 0256 DDED037A 		vldr.32	s15, [sp, #12]	@ int
 189:../eurorack/plaits/dsp/oscillator/variable_shape_oscillator.h ****           high_ = true;
 1927              		.loc 3 189 74 view .LVU588
 1928 025a 9DED055A 		vldr.32	s10, [sp, #20]	@ int
 188:../eurorack/plaits/dsp/oscillator/variable_shape_oscillator.h ****           next_sample -= triangle_step * stmlib::NextIntegratedBlepSample(t);
 1929              		.loc 3 188 23 discriminator 1 view .LVU589
 1930 025e B1EE677A 		vneg.f32	s14, s15
ARM GAS  /var/folders/y7/g6pkzsp12sx54x3s3mvyn15r0000gn/T//ccLQFW5y.s 			page 56


 1931 0262 A7EEC0DA 		vfms.f32	s26, s15, s0
 1932              	.LVL122:
 189:../eurorack/plaits/dsp/oscillator/variable_shape_oscillator.h ****           high_ = true;
 1933              		.loc 3 189 74 view .LVU590
 1934 0266 B0EE450A 		vmov.f32	s0, s10
 188:../eurorack/plaits/dsp/oscillator/variable_shape_oscillator.h ****           next_sample -= triangle_step * stmlib::NextIntegratedBlepSample(t);
 1935              		.loc 3 188 23 discriminator 1 view .LVU591
 1936 026a 8DED037A 		vstr.32	s14, [sp, #12]	@ int
 1937              	.LVL123:
 189:../eurorack/plaits/dsp/oscillator/variable_shape_oscillator.h ****           high_ = true;
 1938              		.loc 3 189 74 view .LVU592
 1939 026e FFF7FEFF 		bl	_ZN6stmlib24NextIntegratedBlepSampleEf
 1940              	.LVL124:
 189:../eurorack/plaits/dsp/oscillator/variable_shape_oscillator.h ****           high_ = true;
 1941              		.loc 3 189 23 discriminator 1 view .LVU593
 1942 0272 9DED037A 		vldr.32	s14, [sp, #12]	@ int
 190:../eurorack/plaits/dsp/oscillator/variable_shape_oscillator.h ****         }
 1943              		.loc 3 190 17 view .LVU594
 1944 0276 0123     		movs	r3, #1
 189:../eurorack/plaits/dsp/oscillator/variable_shape_oscillator.h ****           high_ = true;
 1945              		.loc 3 189 23 discriminator 1 view .LVU595
 1946 0278 DDED046A 		vldr.32	s13, [sp, #16]	@ int
 190:../eurorack/plaits/dsp/oscillator/variable_shape_oscillator.h ****         }
 1947              		.loc 3 190 17 view .LVU596
 1948 027c 2374     		strb	r3, [r4, #16]
 189:../eurorack/plaits/dsp/oscillator/variable_shape_oscillator.h ****           high_ = true;
 1949              		.loc 3 189 23 discriminator 1 view .LVU597
 1950 027e E0EE076A 		vfma.f32	s13, s0, s14
 1951              	.LVL125:
 1952              	.L47:
 189:../eurorack/plaits/dsp/oscillator/variable_shape_oscillator.h ****           high_ = true;
 1953              		.loc 3 189 23 discriminator 1 view .LVU598
 1954              	.LBE558:
 1955              	.LBE546:
 1956              	.LBB559:
 1957              	.LBB560:
 194:../eurorack/plaits/dsp/oscillator/variable_shape_oscillator.h ****             break;
 1958              		.loc 3 194 11 view .LVU599
 1959 0282 B4EEC8FA 		vcmpe.f32	s30, s16
 1960 0286 F1EE10FA 		vmrs	APSR_nzcv, FPSCR
 1961 028a 29D5     		bpl	.L72
 1962              	.L48:
 194:../eurorack/plaits/dsp/oscillator/variable_shape_oscillator.h ****             break;
 1963              		.loc 3 194 11 view .LVU600
 1964              	.LBE560:
 1965              	.LBE559:
 210:../eurorack/plaits/dsp/oscillator/variable_shape_oscillator.h ****         slave_phase_ = reset_time * slave_frequency;
 1966              		.loc 3 210 7 view .LVU601
 1967 028c 002F     		cmp	r7, #0
 1968 028e 9AD1     		bne	.L50
 1969              	.LVL126:
 1970              	.L51:
 215:../eurorack/plaits/dsp/oscillator/variable_shape_oscillator.h ****           slave_phase_,
 1971              		.loc 3 215 40 view .LVU602
 1972 0290 D4ED017A 		vldr.32	s15, [r4, #4]
 1973              	.LVL127:
 1974              	.LBB572:
ARM GAS  /var/folders/y7/g6pkzsp12sx54x3s3mvyn15r0000gn/T//ccLQFW5y.s 			page 57


 1975              	.LBI572:
 249:../eurorack/plaits/dsp/oscillator/variable_shape_oscillator.h ****       float phase,
 1976              		.loc 3 249 16 is_stmt 1 view .LVU603
 1977              	.LBB573:
 256:../eurorack/plaits/dsp/oscillator/variable_shape_oscillator.h ****     float square = phase < pw ? 0.0f : 1.0f;
 1978              		.loc 3 256 5 view .LVU604
 257:../eurorack/plaits/dsp/oscillator/variable_shape_oscillator.h ****     float triangle = phase < pw
 1979              		.loc 3 257 5 view .LVU605
 1980              	.LBE573:
 1981              	.LBE572:
 222:../eurorack/plaits/dsp/oscillator/variable_shape_oscillator.h ****       
 1982              		.loc 3 222 20 is_stmt 0 view .LVU606
 1983 0294 C4ED038A 		vstr.32	s17, [r4, #12]
 1984              	.LBB576:
 1985              	.LBB574:
 257:../eurorack/plaits/dsp/oscillator/variable_shape_oscillator.h ****     float triangle = phase < pw
 1986              		.loc 3 257 31 view .LVU607
 1987 0298 F4EEE78A 		vcmpe.f32	s17, s15
 1988 029c F1EE10FA 		vmrs	APSR_nzcv, FPSCR
 1989              	.LVL128:
 258:../eurorack/plaits/dsp/oscillator/variable_shape_oscillator.h ****         ? phase * slope_up
 1990              		.loc 3 258 5 is_stmt 1 view .LVU608
 260:../eurorack/plaits/dsp/oscillator/variable_shape_oscillator.h ****     saw += (square - saw) * square_amount;
 1991              		.loc 3 260 25 is_stmt 0 view .LVU609
 1992 02a0 D3BF     		iteet	le
 1993 02a2 37EEE87A 		vsuble.f32	s14, s15, s17
 257:../eurorack/plaits/dsp/oscillator/variable_shape_oscillator.h ****     float triangle = phase < pw
 1994              		.loc 3 257 31 discriminator 1 view .LVU610
 1995 02a6 9FED287A 		vldrgt.32	s14, .L73
 1996              	.LVL129:
 258:../eurorack/plaits/dsp/oscillator/variable_shape_oscillator.h ****         ? phase * slope_up
 1997              		.loc 3 258 5 is_stmt 1 view .LVU611
 259:../eurorack/plaits/dsp/oscillator/variable_shape_oscillator.h ****         : 1.0f - (phase - pw) * slope_down;
 1998              		.loc 3 259 9 is_stmt 0 discriminator 1 view .LVU612
 1999 02aa 6CEEA7CA 		vmulgt.f32	s25, s25, s15
 2000              	.LVL130:
 259:../eurorack/plaits/dsp/oscillator/variable_shape_oscillator.h ****         : 1.0f - (phase - pw) * slope_down;
 2001              		.loc 3 259 9 discriminator 2 view .LVU613
 2002 02ae AAEE478A 		vfmsle.f32	s16, s20, s14
 2003              	.LVL131:
 257:../eurorack/plaits/dsp/oscillator/variable_shape_oscillator.h ****     float triangle = phase < pw
 2004              		.loc 3 257 31 discriminator 2 view .LVU614
 2005 02b2 D8BF     		it	le
 2006 02b4 B7EE007A 		vmovle.f32	s14, #1.0e+0
 261:../eurorack/plaits/dsp/oscillator/variable_shape_oscillator.h ****     saw += (triangle - saw) * triangle_amount;
 2007              		.loc 3 261 20 view .LVU615
 2008 02b8 37EE677A 		vsub.f32	s14, s14, s15
 259:../eurorack/plaits/dsp/oscillator/variable_shape_oscillator.h ****         : 1.0f - (phase - pw) * slope_down;
 2009              		.loc 3 259 9 discriminator 2 view .LVU616
 2010 02bc D8BF     		it	le
 2011 02be F0EE48CA 		vmovle.f32	s25, s16
 2012              	.LVL132:
 261:../eurorack/plaits/dsp/oscillator/variable_shape_oscillator.h ****     saw += (triangle - saw) * triangle_amount;
 2013              		.loc 3 261 5 is_stmt 1 view .LVU617
 261:../eurorack/plaits/dsp/oscillator/variable_shape_oscillator.h ****     saw += (triangle - saw) * triangle_amount;
 2014              		.loc 3 261 9 is_stmt 0 view .LVU618
 2015 02c2 ECEE077A 		vfma.f32	s15, s24, s14
ARM GAS  /var/folders/y7/g6pkzsp12sx54x3s3mvyn15r0000gn/T//ccLQFW5y.s 			page 58


 2016              	.LVL133:
 262:../eurorack/plaits/dsp/oscillator/variable_shape_oscillator.h ****     return saw;
 2017              		.loc 3 262 5 is_stmt 1 view .LVU619
 2018              	.LBE574:
 2019              	.LBE576:
 2020              	.LBB577:
 237:../eurorack/plaits/dsp/oscillator/variable_shape_oscillator.h ****       }
 2021              		.loc 3 237 38 is_stmt 0 view .LVU620
 2022 02c6 BFEE007A 		vmov.f32	s14, #-1.0e+0
 2023 02ca ADEE297A 		vfma.f32	s14, s26, s19
 2024              	.LBE577:
 2025              	.LBB578:
 2026              	.LBB575:
 262:../eurorack/plaits/dsp/oscillator/variable_shape_oscillator.h ****     return saw;
 2027              		.loc 3 262 22 view .LVU621
 2028 02ce 7CEEE7CA 		vsub.f32	s25, s25, s15
 2029              	.LVL134:
 262:../eurorack/plaits/dsp/oscillator/variable_shape_oscillator.h ****     return saw;
 2030              		.loc 3 262 9 view .LVU622
 2031 02d2 EDEEAC7A 		vfma.f32	s15, s27, s25
 2032              	.LVL135:
 2033              		.loc 3 263 5 is_stmt 1 view .LVU623
 2034              		.loc 3 263 5 is_stmt 0 view .LVU624
 2035              	.LBE575:
 2036              	.LBE578:
 2037              	.LBB579:
 237:../eurorack/plaits/dsp/oscillator/variable_shape_oscillator.h ****       }
 2038              		.loc 3 237 16 view .LVU625
 2039 02d6 A8EC017A 		vstmia.32	r8!, {s14}
 2040              	.LVL136:
 237:../eurorack/plaits/dsp/oscillator/variable_shape_oscillator.h ****       }
 2041              		.loc 3 237 16 view .LVU626
 2042              	.LBE579:
 215:../eurorack/plaits/dsp/oscillator/variable_shape_oscillator.h ****           slave_phase_,
 2043              		.loc 3 215 19 discriminator 1 view .LVU627
 2044 02da 77EEA67A 		vadd.f32	s15, s15, s13
 2045              	.LVL137:
 215:../eurorack/plaits/dsp/oscillator/variable_shape_oscillator.h ****           slave_phase_,
 2046              		.loc 3 215 19 discriminator 1 view .LVU628
 2047 02de D9E6     		b	.L37
 2048              	.LVL138:
 2049              	.L72:
 2050              	.LBB580:
 2051              	.LBB571:
 197:../eurorack/plaits/dsp/oscillator/variable_shape_oscillator.h ****           float t = slave_phase_ / slave_frequency;
 2052              		.loc 3 197 24 view .LVU629
 2053 02e0 3FEE48FA 		vsub.f32	s30, s30, s16
 202:../eurorack/plaits/dsp/oscillator/variable_shape_oscillator.h ****           next_sample -= (1.0f - triangle_amount) * stmlib::NextBlepSample(t);
 2054              		.loc 3 202 32 view .LVU630
 2055 02e4 38EE6D7A 		vsub.f32	s14, s16, s27
 198:../eurorack/plaits/dsp/oscillator/variable_shape_oscillator.h ****           float triangle_step = (slope_up + slope_down) * slave_frequency;
 2056              		.loc 3 198 17 view .LVU631
 2057 02e8 8FEE095A 		vdiv.f32	s10, s30, s18
 2058              	.LVL139:
 197:../eurorack/plaits/dsp/oscillator/variable_shape_oscillator.h ****           float t = slave_phase_ / slave_frequency;
 2059              		.loc 3 197 24 view .LVU632
 2060 02ec 84ED01FA 		vstr.32	s30, [r4, #4]
ARM GAS  /var/folders/y7/g6pkzsp12sx54x3s3mvyn15r0000gn/T//ccLQFW5y.s 			page 59


 199:../eurorack/plaits/dsp/oscillator/variable_shape_oscillator.h ****           triangle_step *= triangle_amount;
 2061              		.loc 3 199 43 view .LVU633
 2062 02f0 3CEE8AFA 		vadd.f32	s30, s25, s20
 199:../eurorack/plaits/dsp/oscillator/variable_shape_oscillator.h ****           triangle_step *= triangle_amount;
 2063              		.loc 3 199 17 view .LVU634
 2064 02f4 2FEE09FA 		vmul.f32	s30, s30, s18
 2065              	.LVL140:
 200:../eurorack/plaits/dsp/oscillator/variable_shape_oscillator.h **** 
 2066              		.loc 3 200 25 view .LVU635
 2067 02f8 2DEE8FFA 		vmul.f32	s30, s27, s30
 2068              	.LVL141:
 2069              	.LBB561:
 2070              	.LBI561:
  37:../eurorack/stmlib/dsp/polyblep.h ****   return 0.5f * t * t;
 2071              		.loc 8 37 14 is_stmt 1 view .LVU636
 2072              	.LBB562:
  38:../eurorack/stmlib/dsp/polyblep.h **** }
 2073              		.loc 8 38 3 view .LVU637
  38:../eurorack/stmlib/dsp/polyblep.h **** }
 2074              		.loc 8 38 15 is_stmt 0 view .LVU638
 2075 02fc 65EE2A7A 		vmul.f32	s15, s10, s21
 2076              	.LBE562:
 2077              	.LBE561:
 2078              	.LBB564:
 2079              	.LBB565:
  42:../eurorack/stmlib/dsp/polyblep.h ****   return -0.5f * t * t;
 2080              		.loc 8 42 5 view .LVU639
 2081 0300 8DED045A 		vstr.32	s10, [sp, #16]	@ int
 2082 0304 38EE450A 		vsub.f32	s0, s16, s10
 2083              	.LBE565:
 2084              	.LBE564:
 2085              	.LBB567:
 2086              	.LBB563:
  38:../eurorack/stmlib/dsp/polyblep.h **** }
 2087              		.loc 8 38 21 view .LVU640
 2088 0308 67EE857A 		vmul.f32	s15, s15, s10
 2089              	.LBE563:
 2090              	.LBE567:
 202:../eurorack/plaits/dsp/oscillator/variable_shape_oscillator.h ****           next_sample -= (1.0f - triangle_amount) * stmlib::NextBlepSample(t);
 2091              		.loc 3 202 23 discriminator 1 view .LVU641
 2092 030c A7EE67DA 		vfms.f32	s26, s14, s15
 2093              	.LVL142:
 2094              	.LBB568:
 2095              	.LBI564:
  41:../eurorack/stmlib/dsp/polyblep.h ****   t = 1.0f - t;
 2096              		.loc 8 41 14 is_stmt 1 view .LVU642
 2097              	.LBB566:
  42:../eurorack/stmlib/dsp/polyblep.h ****   return -0.5f * t * t;
 2098              		.loc 8 42 3 view .LVU643
  43:../eurorack/stmlib/dsp/polyblep.h **** }
 2099              		.loc 8 43 3 view .LVU644
  43:../eurorack/stmlib/dsp/polyblep.h **** }
 2100              		.loc 8 43 16 is_stmt 0 view .LVU645
 2101 0310 FEEE007A 		vmov.f32	s15, #-5.0e-1
 2102 0314 60EE277A 		vmul.f32	s15, s0, s15
  43:../eurorack/stmlib/dsp/polyblep.h **** }
 2103              		.loc 8 43 22 view .LVU646
ARM GAS  /var/folders/y7/g6pkzsp12sx54x3s3mvyn15r0000gn/T//ccLQFW5y.s 			page 60


 2104 0318 67EE807A 		vmul.f32	s15, s15, s0
 2105              	.LBE566:
 2106              	.LBE568:
 203:../eurorack/plaits/dsp/oscillator/variable_shape_oscillator.h ****           this_sample += triangle_step * stmlib::ThisIntegratedBlepSample(t);
 2107              		.loc 3 203 23 discriminator 1 view .LVU647
 2108 031c E7EE676A 		vfms.f32	s13, s14, s15
 2109              	.LVL143:
 203:../eurorack/plaits/dsp/oscillator/variable_shape_oscillator.h ****           this_sample += triangle_step * stmlib::ThisIntegratedBlepSample(t);
 2110              		.loc 3 203 23 discriminator 1 view .LVU648
 2111 0320 CDED036A 		vstr.32	s13, [sp, #12]	@ int
 2112              	.LVL144:
 2113              	.LBB569:
 2114              	.LBI569:
  53:../eurorack/stmlib/dsp/polyblep.h ****   return NextIntegratedBlepSample(1.0f - t);
 2115              		.loc 8 53 14 is_stmt 1 view .LVU649
 2116              	.LBB570:
 2117              		.loc 8 54 3 view .LVU650
 2118              		.loc 8 54 34 is_stmt 0 view .LVU651
 2119 0324 FFF7FEFF 		bl	_ZN6stmlib24NextIntegratedBlepSampleEf
 2120              	.LVL145:
 2121              		.loc 8 54 34 view .LVU652
 2122              	.LBE570:
 2123              	.LBE569:
 205:../eurorack/plaits/dsp/oscillator/variable_shape_oscillator.h ****           high_ = false;
 2124              		.loc 3 205 74 view .LVU653
 2125 0328 9DED045A 		vldr.32	s10, [sp, #16]	@ int
 204:../eurorack/plaits/dsp/oscillator/variable_shape_oscillator.h ****           next_sample += triangle_step * stmlib::NextIntegratedBlepSample(t);
 2126              		.loc 3 204 23 discriminator 1 view .LVU654
 2127 032c AFEE00DA 		vfma.f32	s26, s30, s0
 2128              	.LVL146:
 205:../eurorack/plaits/dsp/oscillator/variable_shape_oscillator.h ****           high_ = false;
 2129              		.loc 3 205 74 view .LVU655
 2130 0330 B0EE450A 		vmov.f32	s0, s10
 2131 0334 FFF7FEFF 		bl	_ZN6stmlib24NextIntegratedBlepSampleEf
 2132              	.LVL147:
 205:../eurorack/plaits/dsp/oscillator/variable_shape_oscillator.h ****           high_ = false;
 2133              		.loc 3 205 23 discriminator 1 view .LVU656
 2134 0338 DDED036A 		vldr.32	s13, [sp, #12]	@ int
 206:../eurorack/plaits/dsp/oscillator/variable_shape_oscillator.h ****         }
 2135              		.loc 3 206 17 view .LVU657
 2136 033c 0023     		movs	r3, #0
 205:../eurorack/plaits/dsp/oscillator/variable_shape_oscillator.h ****           high_ = false;
 2137              		.loc 3 205 23 discriminator 1 view .LVU658
 2138 033e EFEE006A 		vfma.f32	s13, s30, s0
 2139              	.LVL148:
 206:../eurorack/plaits/dsp/oscillator/variable_shape_oscillator.h ****         }
 2140              		.loc 3 206 17 view .LVU659
 2141 0342 2374     		strb	r3, [r4, #16]
 2142              	.LBE571:
 2143 0344 3DE7     		b	.L46
 2144              	.L74:
 2145 0346 00BF     		.align	2
 2146              	.L73:
 2147 0348 00000000 		.word	0
 2148              	.LBE580:
 2149              	.LBE501:
 2150              	.LBE583:
ARM GAS  /var/folders/y7/g6pkzsp12sx54x3s3mvyn15r0000gn/T//ccLQFW5y.s 			page 61


 2151              	.LBE586:
 2152              		.cfi_endproc
 2153              	.LFE1292:
 2155              		.section	.text._ZNK6plaits19VirtualAnalogEngine15ComputeDetuningEf,"ax",%progbits
 2156              		.align	1
 2157              		.global	_ZNK6plaits19VirtualAnalogEngine15ComputeDetuningEf
 2158              		.syntax unified
 2159              		.thumb
 2160              		.thumb_func
 2162              	_ZNK6plaits19VirtualAnalogEngine15ComputeDetuningEf:
 2163              	.LVL149:
 2164              	.LFB1306:
  56:../eurorack/plaits/dsp/engine/virtual_analog_engine.cc **** 
  57:../eurorack/plaits/dsp/engine/virtual_analog_engine.cc **** const float intervals[5] = {
  58:../eurorack/plaits/dsp/engine/virtual_analog_engine.cc ****   0.0f, 7.01f, 12.01f, 19.01f, 24.01f
  59:../eurorack/plaits/dsp/engine/virtual_analog_engine.cc **** };
  60:../eurorack/plaits/dsp/engine/virtual_analog_engine.cc **** 
  61:../eurorack/plaits/dsp/engine/virtual_analog_engine.cc **** inline float Squash(float x) {
  62:../eurorack/plaits/dsp/engine/virtual_analog_engine.cc ****   return x * x * (3.0f - 2.0f * x);
  63:../eurorack/plaits/dsp/engine/virtual_analog_engine.cc **** }
  64:../eurorack/plaits/dsp/engine/virtual_analog_engine.cc **** 
  65:../eurorack/plaits/dsp/engine/virtual_analog_engine.cc **** float VirtualAnalogEngine::ComputeDetuning(float detune) const {
 2165              		.loc 1 65 64 is_stmt 1 view -0
 2166              		.cfi_startproc
 2167              		@ args = 0, pretend = 0, frame = 0
 2168              		@ frame_needed = 0, uses_anonymous_args = 0
 2169              		@ link register save eliminated.
  66:../eurorack/plaits/dsp/engine/virtual_analog_engine.cc ****   detune = 2.05f * detune - 1.025f;
 2170              		.loc 1 66 3 view .LVU661
 2171              		.loc 1 66 10 is_stmt 0 view .LVU662
 2172 0000 9FED287A 		vldr.32	s14, .L83
 2173 0004 DFED287A 		vldr.32	s15, .L83+4
 2174 0008 E0EE077A 		vfma.f32	s15, s0, s14
 2175              	.LVL150:
  67:../eurorack/plaits/dsp/engine/virtual_analog_engine.cc ****   CONSTRAIN(detune, -1.0f, 1.0f);
 2176              		.loc 1 67 3 is_stmt 1 view .LVU663
 2177 000c BFEE007A 		vmov.f32	s14, #-1.0e+0
 2178 0010 F4EEC77A 		vcmpe.f32	s15, s14
 2179 0014 F1EE10FA 		vmrs	APSR_nzcv, FPSCR
 2180 0018 3BD4     		bmi	.L78
 2181              		.loc 1 67 3 discriminator 2 view .LVU664
 2182 001a F7EE006A 		vmov.f32	s13, #1.0e+0
 2183 001e F4EEE67A 		vcmpe.f32	s15, s13
 2184 0022 F1EE10FA 		vmrs	APSR_nzcv, FPSCR
 2185 0026 39DC     		bgt	.L79
 2186              		.loc 1 67 33 discriminator 6 view .LVU665
  68:../eurorack/plaits/dsp/engine/virtual_analog_engine.cc ****   
  69:../eurorack/plaits/dsp/engine/virtual_analog_engine.cc ****   float sign = detune < 0.0f ? -1.0f : 1.0f;
 2187              		.loc 1 69 3 view .LVU666
 2188              		.loc 1 69 30 is_stmt 0 view .LVU667
 2189 0028 F5EEC07A 		vcmpe.f32	s15, #0
 2190 002c F1EE10FA 		vmrs	APSR_nzcv, FPSCR
 2191              		.loc 1 69 30 discriminator 2 view .LVU668
 2192 0030 58BF     		it	pl
 2193 0032 B0EE667A 		vmovpl.f32	s14, s13
 2194              	.LVL151:
 2195              	.L76:
ARM GAS  /var/folders/y7/g6pkzsp12sx54x3s3mvyn15r0000gn/T//ccLQFW5y.s 			page 62


  70:../eurorack/plaits/dsp/engine/virtual_analog_engine.cc ****   detune = detune * sign * 3.9999f;
 2196              		.loc 1 70 3 is_stmt 1 view .LVU669
 2197              		.loc 1 70 19 is_stmt 0 view .LVU670
 2198 0036 67EE277A 		vmul.f32	s15, s14, s15
 2199              		.loc 1 70 10 view .LVU671
 2200 003a DFED1C6A 		vldr.32	s13, .L83+8
 2201              	.LBB591:
 2202              	.LBB592:
  62:../eurorack/plaits/dsp/engine/virtual_analog_engine.cc **** }
 2203              		.loc 1 62 24 view .LVU672
 2204 003e B0EE086A 		vmov.f32	s12, #3.0e+0
 2205              	.LBE592:
 2206              	.LBE591:
  71:../eurorack/plaits/dsp/engine/virtual_analog_engine.cc ****   MAKE_INTEGRAL_FRACTIONAL(detune);
  72:../eurorack/plaits/dsp/engine/virtual_analog_engine.cc ****   
  73:../eurorack/plaits/dsp/engine/virtual_analog_engine.cc ****   float a = intervals[detune_integral];
 2207              		.loc 1 73 9 view .LVU673
 2208 0042 1B4B     		ldr	r3, .L83+12
 2209              	.LBB597:
 2210              	.LBB593:
  62:../eurorack/plaits/dsp/engine/virtual_analog_engine.cc **** }
 2211              		.loc 1 62 24 view .LVU674
 2212 0044 B0EE005A 		vmov.f32	s10, #2.0e+0
 2213              	.LBE593:
 2214              	.LBE597:
  70:../eurorack/plaits/dsp/engine/virtual_analog_engine.cc ****   MAKE_INTEGRAL_FRACTIONAL(detune);
 2215              		.loc 1 70 10 view .LVU675
 2216 0048 67EEA67A 		vmul.f32	s15, s15, s13
 2217              	.LVL152:
  71:../eurorack/plaits/dsp/engine/virtual_analog_engine.cc ****   MAKE_INTEGRAL_FRACTIONAL(detune);
 2218              		.loc 1 71 3 is_stmt 1 view .LVU676
 2219              	.LBB598:
 2220              	.LBB594:
  62:../eurorack/plaits/dsp/engine/virtual_analog_engine.cc **** }
 2221              		.loc 1 62 24 is_stmt 0 view .LVU677
 2222 004c F0EE464A 		vmov.f32	s9, s12
 2223              	.LBE594:
 2224              	.LBE598:
  71:../eurorack/plaits/dsp/engine/virtual_analog_engine.cc ****   MAKE_INTEGRAL_FRACTIONAL(detune);
 2225              		.loc 1 71 3 view .LVU678
 2226 0050 FDEEE76A 		vcvt.s32.f32	s13, s15
 2227 0054 16EE902A 		vmov	r2, s13	@ int
 2228              	.LVL153:
  71:../eurorack/plaits/dsp/engine/virtual_analog_engine.cc ****   MAKE_INTEGRAL_FRACTIONAL(detune);
 2229              		.loc 1 71 3 is_stmt 1 view .LVU679
 2230 0058 F8EEE66A 		vcvt.f32.s32	s13, s13
 2231              		.loc 1 73 9 is_stmt 0 view .LVU680
 2232 005c 03EB8201 		add	r1, r3, r2, lsl #2
  71:../eurorack/plaits/dsp/engine/virtual_analog_engine.cc ****   MAKE_INTEGRAL_FRACTIONAL(detune);
 2233              		.loc 1 71 3 view .LVU681
 2234 0060 77EEE67A 		vsub.f32	s15, s15, s13
 2235              	.LVL154:
  71:../eurorack/plaits/dsp/engine/virtual_analog_engine.cc ****   MAKE_INTEGRAL_FRACTIONAL(detune);
 2236              		.loc 1 71 35 is_stmt 1 view .LVU682
 2237              		.loc 1 73 3 view .LVU683
 2238              		.loc 1 73 9 is_stmt 0 view .LVU684
 2239 0064 91ED000A 		vldr.32	s0, [r1]
ARM GAS  /var/folders/y7/g6pkzsp12sx54x3s3mvyn15r0000gn/T//ccLQFW5y.s 			page 63


 2240              	.LVL155:
  74:../eurorack/plaits/dsp/engine/virtual_analog_engine.cc ****   float b = intervals[detune_integral + 1];
 2241              		.loc 1 74 3 is_stmt 1 view .LVU685
  75:../eurorack/plaits/dsp/engine/virtual_analog_engine.cc ****   return (a + (b - a) * Squash(Squash(detune_fractional))) * sign;
 2242              		.loc 1 75 3 view .LVU686
 2243              		.loc 1 75 18 is_stmt 0 view .LVU687
 2244 0068 D1ED015A 		vldr.32	s11, [r1, #4]
 2245              	.LBB599:
 2246              	.LBB595:
  62:../eurorack/plaits/dsp/engine/virtual_analog_engine.cc **** }
 2247              		.loc 1 62 24 view .LVU688
 2248 006c E7EEC54A 		vfms.f32	s9, s15, s10
  62:../eurorack/plaits/dsp/engine/virtual_analog_engine.cc **** }
 2249              		.loc 1 62 12 view .LVU689
 2250 0070 67EEA76A 		vmul.f32	s13, s15, s15
 2251              	.LBE595:
 2252              	.LBE599:
 2253              		.loc 1 75 18 view .LVU690
 2254 0074 75EEC05A 		vsub.f32	s11, s11, s0
 2255              	.LVL156:
 2256              	.LBB600:
 2257              	.LBI591:
  61:../eurorack/plaits/dsp/engine/virtual_analog_engine.cc ****   return x * x * (3.0f - 2.0f * x);
 2258              		.loc 1 61 14 is_stmt 1 view .LVU691
 2259              	.LBB596:
  62:../eurorack/plaits/dsp/engine/virtual_analog_engine.cc **** }
 2260              		.loc 1 62 3 view .LVU692
  62:../eurorack/plaits/dsp/engine/virtual_analog_engine.cc **** }
 2261              		.loc 1 62 34 is_stmt 0 view .LVU693
 2262 0078 66EEA47A 		vmul.f32	s15, s13, s9
 2263              	.LVL157:
  62:../eurorack/plaits/dsp/engine/virtual_analog_engine.cc **** }
 2264              		.loc 1 62 34 view .LVU694
 2265              	.LBE596:
 2266              	.LBE600:
 2267              	.LBB601:
 2268              	.LBI601:
  61:../eurorack/plaits/dsp/engine/virtual_analog_engine.cc ****   return x * x * (3.0f - 2.0f * x);
 2269              		.loc 1 61 14 is_stmt 1 view .LVU695
 2270              	.LBB602:
  62:../eurorack/plaits/dsp/engine/virtual_analog_engine.cc **** }
 2271              		.loc 1 62 3 view .LVU696
  62:../eurorack/plaits/dsp/engine/virtual_analog_engine.cc **** }
 2272              		.loc 1 62 24 is_stmt 0 view .LVU697
 2273 007c A7EEC56A 		vfms.f32	s12, s15, s10
 2274              	.LVL158:
  62:../eurorack/plaits/dsp/engine/virtual_analog_engine.cc **** }
 2275              		.loc 1 62 12 view .LVU698
 2276 0080 67EEA76A 		vmul.f32	s13, s15, s15
  62:../eurorack/plaits/dsp/engine/virtual_analog_engine.cc **** }
 2277              		.loc 1 62 34 view .LVU699
 2278 0084 66EE867A 		vmul.f32	s15, s13, s12
 2279              	.LBE602:
 2280              	.LBE601:
 2281              		.loc 1 75 13 discriminator 2 view .LVU700
 2282 0088 A5EEA70A 		vfma.f32	s0, s11, s15
 2283              	.LVL159:
ARM GAS  /var/folders/y7/g6pkzsp12sx54x3s3mvyn15r0000gn/T//ccLQFW5y.s 			page 64


  76:../eurorack/plaits/dsp/engine/virtual_analog_engine.cc **** }
 2284              		.loc 1 76 1 view .LVU701
 2285 008c 20EE070A 		vmul.f32	s0, s0, s14
 2286 0090 7047     		bx	lr
 2287              	.LVL160:
 2288              	.L78:
  67:../eurorack/plaits/dsp/engine/virtual_analog_engine.cc ****   
 2289              		.loc 1 67 3 discriminator 1 view .LVU702
 2290 0092 F0EE477A 		vmov.f32	s15, s14
 2291              	.LVL161:
 2292              	.L82:
  69:../eurorack/plaits/dsp/engine/virtual_analog_engine.cc ****   detune = detune * sign * 3.9999f;
 2293              		.loc 1 69 30 discriminator 2 view .LVU703
 2294 0096 B0EE677A 		vmov.f32	s14, s15
 2295 009a CCE7     		b	.L76
 2296              	.LVL162:
 2297              	.L79:
  67:../eurorack/plaits/dsp/engine/virtual_analog_engine.cc ****   
 2298              		.loc 1 67 3 discriminator 4 view .LVU704
 2299 009c F0EE667A 		vmov.f32	s15, s13
 2300              	.LVL163:
  67:../eurorack/plaits/dsp/engine/virtual_analog_engine.cc ****   
 2301              		.loc 1 67 3 discriminator 4 view .LVU705
 2302 00a0 F9E7     		b	.L82
 2303              	.L84:
 2304 00a2 00BF     		.align	2
 2305              	.L83:
 2306 00a4 33330340 		.word	1073951539
 2307 00a8 333383BF 		.word	-1081920717
 2308 00ac 5DFE7F40 		.word	1082130013
 2309 00b0 00000000 		.word	_ZN6plaitsL9intervalsE
 2310              		.cfi_endproc
 2311              	.LFE1306:
 2313              		.section	.text._ZN6plaits19VirtualAnalogEngine6RenderERKNS_16EngineParametersEPfS4_jPb,"ax",%progb
 2314              		.align	1
 2315              		.global	_ZN6plaits19VirtualAnalogEngine6RenderERKNS_16EngineParametersEPfS4_jPb
 2316              		.syntax unified
 2317              		.thumb
 2318              		.thumb_func
 2320              	_ZN6plaits19VirtualAnalogEngine6RenderERKNS_16EngineParametersEPfS4_jPb:
 2321              	.LVL164:
 2322              	.LFB1307:
  77:../eurorack/plaits/dsp/engine/virtual_analog_engine.cc **** 
  78:../eurorack/plaits/dsp/engine/virtual_analog_engine.cc **** void VirtualAnalogEngine::Render(
  79:../eurorack/plaits/dsp/engine/virtual_analog_engine.cc ****     const EngineParameters& parameters,
  80:../eurorack/plaits/dsp/engine/virtual_analog_engine.cc ****     float* out,
  81:../eurorack/plaits/dsp/engine/virtual_analog_engine.cc ****     float* aux,
  82:../eurorack/plaits/dsp/engine/virtual_analog_engine.cc ****     size_t size,
  83:../eurorack/plaits/dsp/engine/virtual_analog_engine.cc ****     bool* already_enveloped) {
 2323              		.loc 1 83 30 is_stmt 1 view -0
 2324              		.cfi_startproc
 2325              		@ args = 8, pretend = 0, frame = 0
 2326              		@ frame_needed = 0, uses_anonymous_args = 0
 2327              		.loc 1 83 30 is_stmt 0 view .LVU707
 2328 0000 2DE9F047 		push	{r4, r5, r6, r7, r8, r9, r10, lr}
 2329              		.cfi_def_cfa_offset 32
 2330              		.cfi_offset 4, -32
ARM GAS  /var/folders/y7/g6pkzsp12sx54x3s3mvyn15r0000gn/T//ccLQFW5y.s 			page 65


 2331              		.cfi_offset 5, -28
 2332              		.cfi_offset 6, -24
 2333              		.cfi_offset 7, -20
 2334              		.cfi_offset 8, -16
 2335              		.cfi_offset 9, -12
 2336              		.cfi_offset 10, -8
 2337              		.cfi_offset 14, -4
  84:../eurorack/plaits/dsp/engine/virtual_analog_engine.cc **** 
  85:../eurorack/plaits/dsp/engine/virtual_analog_engine.cc **** #if VA_VARIANT == 0
  86:../eurorack/plaits/dsp/engine/virtual_analog_engine.cc ****   
  87:../eurorack/plaits/dsp/engine/virtual_analog_engine.cc ****   // 1 = variable waveshape controlled by TIMBRE.
  88:../eurorack/plaits/dsp/engine/virtual_analog_engine.cc ****   // 2 = variable waveshape controlled by MORPH, detuned by HARMONICS.
  89:../eurorack/plaits/dsp/engine/virtual_analog_engine.cc ****   // OUT = 1 + 2.
  90:../eurorack/plaits/dsp/engine/virtual_analog_engine.cc ****   // AUX = 1 + sync 2.
  91:../eurorack/plaits/dsp/engine/virtual_analog_engine.cc ****   const float auxiliary_detune = ComputeDetuning(parameters.harmonics);
  92:../eurorack/plaits/dsp/engine/virtual_analog_engine.cc ****   const float primary_f = NoteToFrequency(parameters.note);
  93:../eurorack/plaits/dsp/engine/virtual_analog_engine.cc ****   const float auxiliary_f = NoteToFrequency(parameters.note + auxiliary_detune);
  94:../eurorack/plaits/dsp/engine/virtual_analog_engine.cc ****   const float sync_f = NoteToFrequency(
  95:../eurorack/plaits/dsp/engine/virtual_analog_engine.cc ****       parameters.note + parameters.harmonics * 48.0f);
  96:../eurorack/plaits/dsp/engine/virtual_analog_engine.cc **** 
  97:../eurorack/plaits/dsp/engine/virtual_analog_engine.cc ****   float shape_1 = parameters.timbre * 1.5f;
  98:../eurorack/plaits/dsp/engine/virtual_analog_engine.cc ****   CONSTRAIN(shape_1, 0.0f, 1.0f);
  99:../eurorack/plaits/dsp/engine/virtual_analog_engine.cc **** 
 100:../eurorack/plaits/dsp/engine/virtual_analog_engine.cc ****   float pw_1 = 0.5f + (parameters.timbre - 0.66f) * 1.4f;
 101:../eurorack/plaits/dsp/engine/virtual_analog_engine.cc ****   CONSTRAIN(pw_1, 0.5f, 0.99f);
 102:../eurorack/plaits/dsp/engine/virtual_analog_engine.cc **** 
 103:../eurorack/plaits/dsp/engine/virtual_analog_engine.cc ****   float shape_2 = parameters.morph * 1.5f;
 104:../eurorack/plaits/dsp/engine/virtual_analog_engine.cc ****   CONSTRAIN(shape_2, 0.0f, 1.0f);
 105:../eurorack/plaits/dsp/engine/virtual_analog_engine.cc **** 
 106:../eurorack/plaits/dsp/engine/virtual_analog_engine.cc ****   float pw_2 = 0.5f + (parameters.morph - 0.66f) * 1.4f;
 107:../eurorack/plaits/dsp/engine/virtual_analog_engine.cc ****   CONSTRAIN(pw_2, 0.5f, 0.99f);
 108:../eurorack/plaits/dsp/engine/virtual_analog_engine.cc ****   
 109:../eurorack/plaits/dsp/engine/virtual_analog_engine.cc ****   primary_.Render(primary_f, pw_1, shape_1, temp_buffer_, size);
 110:../eurorack/plaits/dsp/engine/virtual_analog_engine.cc ****   auxiliary_.Render(auxiliary_f, pw_2, shape_2, aux, size);
 111:../eurorack/plaits/dsp/engine/virtual_analog_engine.cc ****   for (size_t i = 0; i < size; ++i) {
 112:../eurorack/plaits/dsp/engine/virtual_analog_engine.cc ****     out[i] = (aux[i] + temp_buffer_[i]) * 0.5f;
 113:../eurorack/plaits/dsp/engine/virtual_analog_engine.cc ****   }
 114:../eurorack/plaits/dsp/engine/virtual_analog_engine.cc ****   
 115:../eurorack/plaits/dsp/engine/virtual_analog_engine.cc ****   sync_.Render(primary_f, sync_f, pw_2, shape_2, aux, size);
 116:../eurorack/plaits/dsp/engine/virtual_analog_engine.cc ****   for (size_t i = 0; i < size; ++i) {
 117:../eurorack/plaits/dsp/engine/virtual_analog_engine.cc ****     aux[i] = (aux[i] + temp_buffer_[i]) * 0.5f;
 118:../eurorack/plaits/dsp/engine/virtual_analog_engine.cc ****   }
 119:../eurorack/plaits/dsp/engine/virtual_analog_engine.cc **** 
 120:../eurorack/plaits/dsp/engine/virtual_analog_engine.cc **** #elif VA_VARIANT == 1
 121:../eurorack/plaits/dsp/engine/virtual_analog_engine.cc ****   
 122:../eurorack/plaits/dsp/engine/virtual_analog_engine.cc ****   // 1 = variable waveshape controlled by MORPH.
 123:../eurorack/plaits/dsp/engine/virtual_analog_engine.cc ****   // 2 = variable waveshape controlled by MORPH.
 124:../eurorack/plaits/dsp/engine/virtual_analog_engine.cc ****   // OUT = crossfade between 1 + 2, 1, 1 sync 2 controlled by TIMBRE.
 125:../eurorack/plaits/dsp/engine/virtual_analog_engine.cc ****   // AUX = 2.
 126:../eurorack/plaits/dsp/engine/virtual_analog_engine.cc ****   
 127:../eurorack/plaits/dsp/engine/virtual_analog_engine.cc ****   float auxiliary_amount = max(0.5f - parameters.timbre, 0.0f) * 2.0f;
 128:../eurorack/plaits/dsp/engine/virtual_analog_engine.cc ****   auxiliary_amount *= auxiliary_amount * 0.5f;
 129:../eurorack/plaits/dsp/engine/virtual_analog_engine.cc **** 
 130:../eurorack/plaits/dsp/engine/virtual_analog_engine.cc ****   const float xmod_amount = max(parameters.timbre - 0.5f, 0.0f) * 2.0f;
 131:../eurorack/plaits/dsp/engine/virtual_analog_engine.cc ****   const float squashed_xmod_amount = xmod_amount * (2.0f - xmod_amount);
 132:../eurorack/plaits/dsp/engine/virtual_analog_engine.cc **** 
 133:../eurorack/plaits/dsp/engine/virtual_analog_engine.cc ****   const float auxiliary_detune = ComputeDetuning(parameters.harmonics);
ARM GAS  /var/folders/y7/g6pkzsp12sx54x3s3mvyn15r0000gn/T//ccLQFW5y.s 			page 66


 134:../eurorack/plaits/dsp/engine/virtual_analog_engine.cc ****   const float primary_f = NoteToFrequency(parameters.note);
 135:../eurorack/plaits/dsp/engine/virtual_analog_engine.cc ****   const float auxiliary_f = NoteToFrequency(parameters.note + auxiliary_detune);
 136:../eurorack/plaits/dsp/engine/virtual_analog_engine.cc ****   const float sync_f = primary_f * SemitonesToRatio(
 137:../eurorack/plaits/dsp/engine/virtual_analog_engine.cc ****       xmod_amount * (auxiliary_detune + 36.0f));
 138:../eurorack/plaits/dsp/engine/virtual_analog_engine.cc **** 
 139:../eurorack/plaits/dsp/engine/virtual_analog_engine.cc ****   float shape = parameters.morph * 1.5f;
 140:../eurorack/plaits/dsp/engine/virtual_analog_engine.cc ****   CONSTRAIN(shape, 0.0f, 1.0f);
 141:../eurorack/plaits/dsp/engine/virtual_analog_engine.cc **** 
 142:../eurorack/plaits/dsp/engine/virtual_analog_engine.cc ****   float pw = 0.5f + (parameters.morph - 0.66f) * 1.4f;
 143:../eurorack/plaits/dsp/engine/virtual_analog_engine.cc ****   CONSTRAIN(pw, 0.5f, 0.99f);
 144:../eurorack/plaits/dsp/engine/virtual_analog_engine.cc **** 
 145:../eurorack/plaits/dsp/engine/virtual_analog_engine.cc ****   primary_.Render(primary_f, pw, shape, out, size);
 146:../eurorack/plaits/dsp/engine/virtual_analog_engine.cc ****   sync_.Render(primary_f, sync_f, pw, shape, aux, size);
 147:../eurorack/plaits/dsp/engine/virtual_analog_engine.cc **** 
 148:../eurorack/plaits/dsp/engine/virtual_analog_engine.cc ****   ParameterInterpolator xmod_amount_modulation(
 149:../eurorack/plaits/dsp/engine/virtual_analog_engine.cc ****       &xmod_amount_,
 150:../eurorack/plaits/dsp/engine/virtual_analog_engine.cc ****       squashed_xmod_amount * (2.0f - squashed_xmod_amount),
 151:../eurorack/plaits/dsp/engine/virtual_analog_engine.cc ****       size);
 152:../eurorack/plaits/dsp/engine/virtual_analog_engine.cc ****   for (size_t i = 0; i < size; ++i) {
 153:../eurorack/plaits/dsp/engine/virtual_analog_engine.cc ****     out[i] += (aux[i] - out[i]) * xmod_amount_modulation.Next();
 154:../eurorack/plaits/dsp/engine/virtual_analog_engine.cc ****   }
 155:../eurorack/plaits/dsp/engine/virtual_analog_engine.cc **** 
 156:../eurorack/plaits/dsp/engine/virtual_analog_engine.cc ****   auxiliary_.Render(auxiliary_f, pw, shape, aux, size);
 157:../eurorack/plaits/dsp/engine/virtual_analog_engine.cc **** 
 158:../eurorack/plaits/dsp/engine/virtual_analog_engine.cc ****   ParameterInterpolator auxiliary_amount_modulation(
 159:../eurorack/plaits/dsp/engine/virtual_analog_engine.cc ****       &auxiliary_amount_,
 160:../eurorack/plaits/dsp/engine/virtual_analog_engine.cc ****       auxiliary_amount,
 161:../eurorack/plaits/dsp/engine/virtual_analog_engine.cc ****       size);
 162:../eurorack/plaits/dsp/engine/virtual_analog_engine.cc ****   for (size_t i = 0; i < size; ++i) {
 163:../eurorack/plaits/dsp/engine/virtual_analog_engine.cc ****     out[i] += (aux[i] - out[i]) * auxiliary_amount_modulation.Next();
 164:../eurorack/plaits/dsp/engine/virtual_analog_engine.cc ****   }
 165:../eurorack/plaits/dsp/engine/virtual_analog_engine.cc ****   
 166:../eurorack/plaits/dsp/engine/virtual_analog_engine.cc **** #elif VA_VARIANT == 2
 167:../eurorack/plaits/dsp/engine/virtual_analog_engine.cc **** 
 168:../eurorack/plaits/dsp/engine/virtual_analog_engine.cc ****   // 1 = variable square controlled by TIMBRE.
 169:../eurorack/plaits/dsp/engine/virtual_analog_engine.cc ****   // 2 = variable saw controlled by MORPH.
 170:../eurorack/plaits/dsp/engine/virtual_analog_engine.cc ****   // OUT = 1 + 2.
 171:../eurorack/plaits/dsp/engine/virtual_analog_engine.cc ****   // AUX = dual variable waveshape controlled by MORPH, self sync by TIMBRE.
 172:../eurorack/plaits/dsp/engine/virtual_analog_engine.cc ****   
 173:../eurorack/plaits/dsp/engine/virtual_analog_engine.cc ****   const float sync_amount = parameters.timbre * parameters.timbre;
 174:../eurorack/plaits/dsp/engine/virtual_analog_engine.cc ****   const float auxiliary_detune = ComputeDetuning(parameters.harmonics);
 2338              		.loc 1 174 49 view .LVU708
 2339 0004 91ED040A 		vldr.32	s0, [r1, #16]
  83:../eurorack/plaits/dsp/engine/virtual_analog_engine.cc **** 
 2340              		.loc 1 83 30 view .LVU709
 2341 0008 8846     		mov	r8, r1
 2342 000a 1746     		mov	r7, r2
 2343 000c 1C46     		mov	r4, r3
 2344 000e 0546     		mov	r5, r0
 2345 0010 2DED0A8B 		vpush.64	{d8, d9, d10, d11, d12}
 2346              		.cfi_def_cfa_offset 72
 2347              		.cfi_offset 80, -72
 2348              		.cfi_offset 81, -68
 2349              		.cfi_offset 82, -64
 2350              		.cfi_offset 83, -60
 2351              		.cfi_offset 84, -56
 2352              		.cfi_offset 85, -52
ARM GAS  /var/folders/y7/g6pkzsp12sx54x3s3mvyn15r0000gn/T//ccLQFW5y.s 			page 67


 2353              		.cfi_offset 86, -48
 2354              		.cfi_offset 87, -44
 2355              		.cfi_offset 88, -40
 2356              		.cfi_offset 89, -36
 173:../eurorack/plaits/dsp/engine/virtual_analog_engine.cc ****   const float auxiliary_detune = ComputeDetuning(parameters.harmonics);
 2357              		.loc 1 173 3 is_stmt 1 view .LVU710
 173:../eurorack/plaits/dsp/engine/virtual_analog_engine.cc ****   const float auxiliary_detune = ComputeDetuning(parameters.harmonics);
 2358              		.loc 1 173 40 is_stmt 0 view .LVU711
 2359 0014 D1ED028A 		vldr.32	s17, [r1, #8]
 2360              		.loc 1 174 49 view .LVU712
 2361 0018 FFF7FEFF 		bl	_ZNK6plaits19VirtualAnalogEngine15ComputeDetuningEf
 2362              	.LVL165:
 2363              		.loc 1 174 49 view .LVU713
 2364 001c B0EE408A 		vmov.f32	s16, s0
 175:../eurorack/plaits/dsp/engine/virtual_analog_engine.cc ****   const float primary_f = NoteToFrequency(parameters.note);
 2365              		.loc 1 175 54 view .LVU714
 2366 0020 D8ED01AA 		vldr.32	s21, [r8, #4]
 173:../eurorack/plaits/dsp/engine/virtual_analog_engine.cc ****   const float auxiliary_detune = ComputeDetuning(parameters.harmonics);
 2367              		.loc 1 173 15 view .LVU715
 2368 0024 68EEA88A 		vmul.f32	s17, s17, s17
 2369              	.LVL166:
 174:../eurorack/plaits/dsp/engine/virtual_analog_engine.cc ****   const float primary_f = NoteToFrequency(parameters.note);
 2370              		.loc 1 174 3 is_stmt 1 view .LVU716
 2371              		.loc 1 175 3 view .LVU717
 176:../eurorack/plaits/dsp/engine/virtual_analog_engine.cc ****   const float auxiliary_f = NoteToFrequency(parameters.note + auxiliary_detune);
 177:../eurorack/plaits/dsp/engine/virtual_analog_engine.cc ****   const float primary_sync_f = NoteToFrequency(
 2372              		.loc 1 177 47 is_stmt 0 view .LVU718
 2373 0028 9FEDB49A 		vldr.32	s18, .L108
 175:../eurorack/plaits/dsp/engine/virtual_analog_engine.cc ****   const float auxiliary_f = NoteToFrequency(parameters.note + auxiliary_detune);
 2374              		.loc 1 175 42 view .LVU719
 2375 002c B0EE6A0A 		vmov.f32	s0, s21
 2376              	.LVL167:
  83:../eurorack/plaits/dsp/engine/virtual_analog_engine.cc **** 
 2377              		.loc 1 83 30 view .LVU720
 2378 0030 129E     		ldr	r6, [sp, #72]
 176:../eurorack/plaits/dsp/engine/virtual_analog_engine.cc ****   const float auxiliary_f = NoteToFrequency(parameters.note + auxiliary_detune);
 2379              		.loc 1 176 44 view .LVU721
 2380 0032 3AEE888A 		vadd.f32	s16, s21, s16
 2381              	.LVL168:
 175:../eurorack/plaits/dsp/engine/virtual_analog_engine.cc ****   const float auxiliary_f = NoteToFrequency(parameters.note + auxiliary_detune);
 2382              		.loc 1 175 42 view .LVU722
 2383 0036 FFF7FEFF 		bl	_ZN6plaits15NoteToFrequencyEf
 2384              	.LVL169:
 175:../eurorack/plaits/dsp/engine/virtual_analog_engine.cc ****   const float auxiliary_f = NoteToFrequency(parameters.note + auxiliary_detune);
 2385              		.loc 1 175 42 view .LVU723
 2386 003a B0EE40AA 		vmov.f32	s20, s0
 2387              	.LVL170:
 176:../eurorack/plaits/dsp/engine/virtual_analog_engine.cc ****   const float auxiliary_f = NoteToFrequency(parameters.note + auxiliary_detune);
 2388              		.loc 1 176 3 is_stmt 1 view .LVU724
 176:../eurorack/plaits/dsp/engine/virtual_analog_engine.cc ****   const float auxiliary_f = NoteToFrequency(parameters.note + auxiliary_detune);
 2389              		.loc 1 176 44 is_stmt 0 view .LVU725
 2390 003e B0EE480A 		vmov.f32	s0, s16
 2391              	.LVL171:
 176:../eurorack/plaits/dsp/engine/virtual_analog_engine.cc ****   const float auxiliary_f = NoteToFrequency(parameters.note + auxiliary_detune);
 2392              		.loc 1 176 44 view .LVU726
 2393 0042 FFF7FEFF 		bl	_ZN6plaits15NoteToFrequencyEf
 2394              	.LVL172:
ARM GAS  /var/folders/y7/g6pkzsp12sx54x3s3mvyn15r0000gn/T//ccLQFW5y.s 			page 68


 2395 0046 F0EE409A 		vmov.f32	s19, s0
 2396              	.LVL173:
 2397              		.loc 1 177 3 is_stmt 1 view .LVU727
 2398              		.loc 1 177 47 is_stmt 0 view .LVU728
 2399 004a B0EE6A0A 		vmov.f32	s0, s21
 2400              	.LVL174:
 2401              		.loc 1 177 47 view .LVU729
 2402 004e A8EE890A 		vfma.f32	s0, s17, s18
 2403 0052 FFF7FEFF 		bl	_ZN6plaits15NoteToFrequencyEf
 2404              	.LVL175:
 2405 0056 B0EE40BA 		vmov.f32	s22, s0
 2406              	.LVL176:
 178:../eurorack/plaits/dsp/engine/virtual_analog_engine.cc ****       parameters.note + sync_amount * 48.0f);
 179:../eurorack/plaits/dsp/engine/virtual_analog_engine.cc ****   const float auxiliary_sync_f = NoteToFrequency(
 2407              		.loc 1 179 3 is_stmt 1 view .LVU730
 2408              		.loc 1 179 49 is_stmt 0 view .LVU731
 2409 005a B0EE480A 		vmov.f32	s0, s16
 2410              	.LVL177:
 2411              		.loc 1 179 49 view .LVU732
 2412 005e A8EE890A 		vfma.f32	s0, s17, s18
 2413 0062 FFF7FEFF 		bl	_ZN6plaits15NoteToFrequencyEf
 2414              	.LVL178:
 180:../eurorack/plaits/dsp/engine/virtual_analog_engine.cc ****       parameters.note + auxiliary_detune + sync_amount * 48.0f);
 181:../eurorack/plaits/dsp/engine/virtual_analog_engine.cc **** 
 182:../eurorack/plaits/dsp/engine/virtual_analog_engine.cc ****   float shape = parameters.morph * 1.5f;
 2415              		.loc 1 182 9 view .LVU733
 2416 0066 F7EE087A 		vmov.f32	s15, #1.5e+0
 2417              		.loc 1 182 28 view .LVU734
 2418 006a 98ED037A 		vldr.32	s14, [r8, #12]
 179:../eurorack/plaits/dsp/engine/virtual_analog_engine.cc ****       parameters.note + auxiliary_detune + sync_amount * 48.0f);
 2419              		.loc 1 179 49 view .LVU735
 2420 006e F0EE40AA 		vmov.f32	s21, s0
 2421              	.LVL179:
 2422              		.loc 1 182 3 is_stmt 1 view .LVU736
 2423              		.loc 1 182 9 is_stmt 0 view .LVU737
 2424 0072 67EE277A 		vmul.f32	s15, s14, s15
 2425              	.LVL180:
 183:../eurorack/plaits/dsp/engine/virtual_analog_engine.cc ****   CONSTRAIN(shape, 0.0f, 1.0f);
 2426              		.loc 1 183 3 is_stmt 1 view .LVU738
 2427 0076 F5EEC07A 		vcmpe.f32	s15, #0
 2428 007a F1EE10FA 		vmrs	APSR_nzcv, FPSCR
 2429 007e 00F11281 		bmi	.L99
 2430              		.loc 1 183 3 discriminator 2 view .LVU739
 2431 0082 F7EE008A 		vmov.f32	s17, #1.0e+0
 2432              	.LVL181:
 2433              		.loc 1 183 3 is_stmt 0 discriminator 2 view .LVU740
 2434 0086 F4EEE87A 		vcmpe.f32	s15, s17
 2435 008a F1EE10FA 		vmrs	APSR_nzcv, FPSCR
 2436 008e 78FEA78A 		vselgt.f32	s17, s17, s15
 2437              	.L86:
 2438              	.LVL182:
 2439              		.loc 1 183 31 is_stmt 1 discriminator 6 view .LVU741
 184:../eurorack/plaits/dsp/engine/virtual_analog_engine.cc **** 
 185:../eurorack/plaits/dsp/engine/virtual_analog_engine.cc ****   float pw = 0.5f + (parameters.morph - 0.66f) * 1.46f;
 2440              		.loc 1 185 3 view .LVU742
 2441              		.loc 1 185 9 is_stmt 0 view .LVU743
 2442 0092 F6EE00BA 		vmov.f32	s23, #5.0e-1
ARM GAS  /var/folders/y7/g6pkzsp12sx54x3s3mvyn15r0000gn/T//ccLQFW5y.s 			page 69


 2443              		.loc 1 185 39 view .LVU744
 2444 0096 DFED9A7A 		vldr.32	s15, .L108+4
 2445              		.loc 1 185 9 view .LVU745
 2446 009a DFED9A6A 		vldr.32	s13, .L108+8
 2447              		.loc 1 185 39 view .LVU746
 2448 009e 37EE677A 		vsub.f32	s14, s14, s15
 2449              		.loc 1 185 9 view .LVU747
 2450 00a2 F0EE6B7A 		vmov.f32	s15, s23
 2451 00a6 E7EE267A 		vfma.f32	s15, s14, s13
 2452              	.LVL183:
 186:../eurorack/plaits/dsp/engine/virtual_analog_engine.cc ****   CONSTRAIN(pw, 0.5f, 0.995f);
 2453              		.loc 1 186 3 is_stmt 1 view .LVU748
 2454 00aa F4EEEB7A 		vcmpe.f32	s15, s23
 2455 00ae F1EE10FA 		vmrs	APSR_nzcv, FPSCR
 2456 00b2 00F1FB80 		bmi	.L100
 2457              		.loc 1 186 3 discriminator 2 view .LVU749
 2458 00b6 9FED948A 		vldr.32	s16, .L108+12
 2459 00ba F4EEC87A 		vcmpe.f32	s15, s16
 2460 00be F1EE10FA 		vmrs	APSR_nzcv, FPSCR
 2461 00c2 38FE278A 		vselgt.f32	s16, s16, s15
 2462              	.L87:
 2463              	.LVL184:
 2464              		.loc 1 186 30 discriminator 6 view .LVU750
 187:../eurorack/plaits/dsp/engine/virtual_analog_engine.cc ****   
 188:../eurorack/plaits/dsp/engine/virtual_analog_engine.cc ****   // Render monster sync to AUX.
 189:../eurorack/plaits/dsp/engine/virtual_analog_engine.cc ****   primary_.Render(primary_f, primary_sync_f, pw, shape, out, size);
 2465              		.loc 1 189 3 view .LVU751
 2466              		.loc 1 189 18 is_stmt 0 view .LVU752
 2467 00c6 F0EE681A 		vmov.f32	s3, s17
 2468 00ca 3246     		mov	r2, r6
 2469 00cc B0EE481A 		vmov.f32	s2, s16
 2470 00d0 3946     		mov	r1, r7
 2471 00d2 F0EE4B0A 		vmov.f32	s1, s22
 2472 00d6 05F11000 		add	r0, r5, #16
 2473 00da B0EE4A0A 		vmov.f32	s0, s20
 2474              	.LVL185:
 2475              		.loc 1 189 18 view .LVU753
 2476 00de B946     		mov	r9, r7
 2477 00e0 FFF7FEFF 		bl	_ZN6plaits23VariableShapeOscillator6RenderEffffPfj
 2478              	.LVL186:
 190:../eurorack/plaits/dsp/engine/virtual_analog_engine.cc ****   auxiliary_.Render(auxiliary_f, auxiliary_sync_f, pw, shape, aux, size);
 2479              		.loc 1 190 3 is_stmt 1 view .LVU754
 2480              		.loc 1 190 20 is_stmt 0 view .LVU755
 2481 00e4 3246     		mov	r2, r6
 2482 00e6 2146     		mov	r1, r4
 2483 00e8 F0EE681A 		vmov.f32	s3, s17
 2484 00ec B0EE481A 		vmov.f32	s2, s16
 2485 00f0 05F13800 		add	r0, r5, #56
 2486 00f4 F0EE6A0A 		vmov.f32	s1, s21
 2487 00f8 4FEA860A 		lsl	r10, r6, #2
 2488 00fc B0EE690A 		vmov.f32	s0, s19
 2489 0100 FFF7FEFF 		bl	_ZN6plaits23VariableShapeOscillator6RenderEffffPfj
 2490              	.LVL187:
 191:../eurorack/plaits/dsp/engine/virtual_analog_engine.cc ****   for (size_t i = 0; i < size; ++i) {
 2491              		.loc 1 191 3 is_stmt 1 view .LVU756
 2492              		.loc 1 191 3 is_stmt 0 view .LVU757
 2493 0104 2346     		mov	r3, r4
ARM GAS  /var/folders/y7/g6pkzsp12sx54x3s3mvyn15r0000gn/T//ccLQFW5y.s 			page 70


 2494 0106 04EB8601 		add	r1, r4, r6, lsl #2
 2495              	.LBB603:
 2496 010a 3A46     		mov	r2, r7
 2497              	.LVL188:
 2498              	.L88:
 2499              		.loc 1 191 24 is_stmt 1 discriminator 1 view .LVU758
 2500 010c 8B42     		cmp	r3, r1
 2501 010e 40F0D080 		bne	.L89
 2502              	.LBE603:
 192:../eurorack/plaits/dsp/engine/virtual_analog_engine.cc ****     aux[i] = (aux[i] - out[i]) * 0.5f;
 193:../eurorack/plaits/dsp/engine/virtual_analog_engine.cc ****   }
 194:../eurorack/plaits/dsp/engine/virtual_analog_engine.cc ****   
 195:../eurorack/plaits/dsp/engine/virtual_analog_engine.cc ****   // Render double varishape to OUT.
 196:../eurorack/plaits/dsp/engine/virtual_analog_engine.cc ****   float square_pw = 1.3f * parameters.timbre - 0.15f;
 2503              		.loc 1 196 3 view .LVU759
 2504              		.loc 1 196 39 is_stmt 0 view .LVU760
 2505 0112 D8ED027A 		vldr.32	s15, [r8, #8]
 2506              		.loc 1 196 9 view .LVU761
 2507 0116 9FED7D7A 		vldr.32	s14, .L108+16
 2508 011a 9FED7D1A 		vldr.32	s2, .L108+20
 197:../eurorack/plaits/dsp/engine/virtual_analog_engine.cc ****   CONSTRAIN(square_pw, 0.005f, 0.5f);
 2509              		.loc 1 197 3 view .LVU762
 2510 011e DFED7D6A 		vldr.32	s13, .L108+24
 196:../eurorack/plaits/dsp/engine/virtual_analog_engine.cc ****   CONSTRAIN(square_pw, 0.005f, 0.5f);
 2511              		.loc 1 196 9 view .LVU763
 2512 0122 A7EE871A 		vfma.f32	s2, s15, s14
 2513              	.LVL189:
 2514              		.loc 1 197 3 is_stmt 1 view .LVU764
 2515 0126 B4EEE61A 		vcmpe.f32	s2, s13
 2516 012a F1EE10FA 		vmrs	APSR_nzcv, FPSCR
 2517 012e 00F1CB80 		bmi	.L101
 2518              		.loc 1 197 3 discriminator 2 view .LVU765
 2519 0132 B4EEEB1A 		vcmpe.f32	s2, s23
 2520 0136 F1EE10FA 		vmrs	APSR_nzcv, FPSCR
 198:../eurorack/plaits/dsp/engine/virtual_analog_engine.cc ****   
 199:../eurorack/plaits/dsp/engine/virtual_analog_engine.cc ****   const float square_sync_ratio = parameters.timbre < 0.5f
 200:../eurorack/plaits/dsp/engine/virtual_analog_engine.cc ****       ? 0.0f
 2521              		.loc 1 200 7 is_stmt 0 view .LVU766
 2522 013a F4EEEB7A 		vcmpe.f32	s15, s23
 2523 013e 3BFE81CA 		vselgt.f32	s24, s23, s2
 2524              	.LVL190:
 197:../eurorack/plaits/dsp/engine/virtual_analog_engine.cc ****   
 2525              		.loc 1 197 37 is_stmt 1 discriminator 6 view .LVU767
 199:../eurorack/plaits/dsp/engine/virtual_analog_engine.cc ****       ? 0.0f
 2526              		.loc 1 199 3 view .LVU768
 2527              		.loc 1 200 7 is_stmt 0 view .LVU769
 2528 0142 F1EE10FA 		vmrs	APSR_nzcv, FPSCR
 2529 0146 00F1C180 		bmi	.L102
 201:../eurorack/plaits/dsp/engine/virtual_analog_engine.cc ****       : (parameters.timbre - 0.5f) * (parameters.timbre - 0.5f) * 4.0f * 48.0f;
 2530              		.loc 1 201 28 view .LVU770
 2531 014a 37EEEB7A 		vsub.f32	s14, s15, s23
 2532              		.loc 1 201 65 view .LVU771
 2533 014e B1EE006A 		vmov.f32	s12, #4.0e+0
 2534              		.loc 1 201 36 view .LVU772
 2535 0152 27EE077A 		vmul.f32	s14, s14, s14
 2536              		.loc 1 201 65 view .LVU773
 2537 0156 27EE067A 		vmul.f32	s14, s14, s12
ARM GAS  /var/folders/y7/g6pkzsp12sx54x3s3mvyn15r0000gn/T//ccLQFW5y.s 			page 71


 200:../eurorack/plaits/dsp/engine/virtual_analog_engine.cc ****       : (parameters.timbre - 0.5f) * (parameters.timbre - 0.5f) * 4.0f * 48.0f;
 2538              		.loc 1 200 7 discriminator 2 view .LVU774
 2539 015a 27EE097A 		vmul.f32	s14, s14, s18
 2540              	.LVL191:
 2541              	.L90:
 202:../eurorack/plaits/dsp/engine/virtual_analog_engine.cc ****   
 203:../eurorack/plaits/dsp/engine/virtual_analog_engine.cc ****   const float square_gain = min(parameters.timbre * 8.0f, 1.0f);
 2542              		.loc 1 203 3 is_stmt 1 view .LVU775
 2543              		.loc 1 203 51 is_stmt 0 view .LVU776
 2544 015e F2EE005A 		vmov.f32	s11, #8.0e+0
 2545 0162 B7EE008A 		vmov.f32	s16, #1.0e+0
 2546              	.LVL192:
 2547              		.loc 1 203 51 view .LVU777
 2548 0166 67EEA57A 		vmul.f32	s15, s15, s11
 2549 016a F4EEC87A 		vcmpe.f32	s15, s16
 2550 016e F1EE10FA 		vmrs	APSR_nzcv, FPSCR
 2551 0172 38FE27BA 		vselgt.f32	s22, s16, s15
 2552              	.LVL193:
 204:../eurorack/plaits/dsp/engine/virtual_analog_engine.cc ****   
 205:../eurorack/plaits/dsp/engine/virtual_analog_engine.cc ****   float saw_pw = parameters.morph < 0.5f
 2553              		.loc 1 205 3 is_stmt 1 view .LVU778
 2554              		.loc 1 205 29 is_stmt 0 view .LVU779
 2555 0176 D8ED037A 		vldr.32	s15, [r8, #12]
 206:../eurorack/plaits/dsp/engine/virtual_analog_engine.cc ****       ? parameters.morph + 0.5f
 2556              		.loc 1 206 7 view .LVU780
 2557 017a F4EEEB7A 		vcmpe.f32	s15, s23
 2558 017e F1EE10FA 		vmrs	APSR_nzcv, FPSCR
 207:../eurorack/plaits/dsp/engine/virtual_analog_engine.cc ****       : 1.0f - (parameters.morph - 0.5f) * 2.0f;
 2559              		.loc 1 207 34 view .LVU781
 2560 0182 5DBF     		ittte	pl
 2561 0184 37EEEB6A 		vsubpl.f32	s12, s15, s23
 206:../eurorack/plaits/dsp/engine/virtual_analog_engine.cc ****       ? parameters.morph + 0.5f
 2562              		.loc 1 206 7 discriminator 2 view .LVU782
 2563 0188 F0EE480A 		vmovpl.f32	s1, s16
 2564 018c B0EE005A 		vmovpl.f32	s10, #2.0e+0
 206:../eurorack/plaits/dsp/engine/virtual_analog_engine.cc ****       ? parameters.morph + 0.5f
 2565              		.loc 1 206 7 discriminator 1 view .LVU783
 2566 0190 77EEAB0A 		vaddmi.f32	s1, s15, s23
 206:../eurorack/plaits/dsp/engine/virtual_analog_engine.cc ****       ? parameters.morph + 0.5f
 2567              		.loc 1 206 7 discriminator 2 view .LVU784
 2568 0194 58BF     		it	pl
 2569 0196 E6EE450A 		vfmspl.f32	s1, s12, s10
 2570              	.LVL194:
 208:../eurorack/plaits/dsp/engine/virtual_analog_engine.cc ****   saw_pw *= 1.1f;
 2571              		.loc 1 208 3 is_stmt 1 view .LVU785
 2572              		.loc 1 208 10 is_stmt 0 view .LVU786
 2573 019a 9FED5F6A 		vldr.32	s12, .L108+28
 2574 019e 60EE860A 		vmul.f32	s1, s1, s12
 2575              	.LVL195:
 209:../eurorack/plaits/dsp/engine/virtual_analog_engine.cc ****   CONSTRAIN(saw_pw, 0.005f, 1.0f);
 2576              		.loc 1 209 3 is_stmt 1 view .LVU787
 2577 01a2 F4EEE60A 		vcmpe.f32	s1, s13
 2578 01a6 F1EE10FA 		vmrs	APSR_nzcv, FPSCR
 2579 01aa 00F19280 		bmi	.L103
 2580              		.loc 1 209 3 discriminator 2 view .LVU788
 2581 01ae F4EEC80A 		vcmpe.f32	s1, s16
 2582 01b2 F1EE10FA 		vmrs	APSR_nzcv, FPSCR
ARM GAS  /var/folders/y7/g6pkzsp12sx54x3s3mvyn15r0000gn/T//ccLQFW5y.s 			page 72


 2583 01b6 38FE209A 		vselgt.f32	s18, s16, s1
 2584              	.L94:
 2585              	.LVL196:
 2586              		.loc 1 209 34 discriminator 6 view .LVU789
 210:../eurorack/plaits/dsp/engine/virtual_analog_engine.cc ****     
 211:../eurorack/plaits/dsp/engine/virtual_analog_engine.cc ****   float saw_shape = 10.0f - 21.0f * parameters.morph;
 2587              		.loc 1 211 3 view .LVU790
 2588              		.loc 1 211 9 is_stmt 0 view .LVU791
 2589 01ba B3EE056A 		vmov.f32	s12, #2.1e+1
 2590 01be F2EE046A 		vmov.f32	s13, #1.0e+1
 2591 01c2 E7EEC66A 		vfms.f32	s13, s15, s12
 2592              	.LVL197:
 212:../eurorack/plaits/dsp/engine/virtual_analog_engine.cc ****   CONSTRAIN(saw_shape, 0.0f, 1.0f);
 2593              		.loc 1 212 3 is_stmt 1 view .LVU792
 2594 01c6 F5EEC06A 		vcmpe.f32	s13, #0
 2595 01ca F1EE10FA 		vmrs	APSR_nzcv, FPSCR
 2596 01ce 00F18380 		bmi	.L104
 2597              		.loc 1 212 3 discriminator 2 view .LVU793
 2598 01d2 F4EEC86A 		vcmpe.f32	s13, s16
 2599 01d6 F1EE10FA 		vmrs	APSR_nzcv, FPSCR
 2600 01da 78FE26AA 		vselgt.f32	s21, s16, s13
 2601              	.LVL198:
 2602              	.L95:
 2603              		.loc 1 212 35 discriminator 6 view .LVU794
 213:../eurorack/plaits/dsp/engine/virtual_analog_engine.cc ****   
 214:../eurorack/plaits/dsp/engine/virtual_analog_engine.cc ****   float saw_gain = 8.0f * (1.0f - parameters.morph);
 2604              		.loc 1 214 3 view .LVU795
 2605              		.loc 1 214 33 is_stmt 0 view .LVU796
 2606 01de 78EE677A 		vsub.f32	s15, s16, s15
 215:../eurorack/plaits/dsp/engine/virtual_analog_engine.cc ****   CONSTRAIN(saw_gain, 0.02f, 1.0f);
 2607              		.loc 1 215 3 view .LVU797
 2608 01e2 DFED4E8A 		vldr.32	s17, .L108+32
 2609              	.LVL199:
 214:../eurorack/plaits/dsp/engine/virtual_analog_engine.cc ****   CONSTRAIN(saw_gain, 0.02f, 1.0f);
 2610              		.loc 1 214 25 view .LVU798
 2611 01e6 67EEA57A 		vmul.f32	s15, s15, s11
 2612              	.LVL200:
 2613              		.loc 1 215 3 is_stmt 1 view .LVU799
 2614 01ea F4EEE87A 		vcmpe.f32	s15, s17
 2615 01ee F1EE10FA 		vmrs	APSR_nzcv, FPSCR
 2616 01f2 05D4     		bmi	.L96
 2617              		.loc 1 215 3 discriminator 2 view .LVU800
 2618 01f4 F4EEC87A 		vcmpe.f32	s15, s16
 2619 01f8 F1EE10FA 		vmrs	APSR_nzcv, FPSCR
 2620 01fc 78FE278A 		vselgt.f32	s17, s16, s15
 2621              	.L96:
 2622              	.LVL201:
 2623              		.loc 1 215 35 discriminator 6 view .LVU801
 216:../eurorack/plaits/dsp/engine/virtual_analog_engine.cc ****   
 217:../eurorack/plaits/dsp/engine/virtual_analog_engine.cc ****   const float square_sync_f = NoteToFrequency(
 2624              		.loc 1 217 3 view .LVU802
 2625              		.loc 1 217 46 is_stmt 0 view .LVU803
 2626 0200 98ED010A 		vldr.32	s0, [r8, #4]
 2627 0204 37EE000A 		vadd.f32	s0, s14, s0
 2628 0208 FFF7FEFF 		bl	_ZN6plaits15NoteToFrequencyEf
 2629              	.LVL202:
 218:../eurorack/plaits/dsp/engine/virtual_analog_engine.cc ****       parameters.note + square_sync_ratio);
ARM GAS  /var/folders/y7/g6pkzsp12sx54x3s3mvyn15r0000gn/T//ccLQFW5y.s 			page 73


 219:../eurorack/plaits/dsp/engine/virtual_analog_engine.cc ****   
 220:../eurorack/plaits/dsp/engine/virtual_analog_engine.cc ****   sync_.Render(
 2630              		.loc 1 220 15 view .LVU804
 2631 020c D5F8AC40 		ldr	r4, [r5, #172]
 2632              	.LVL203:
 217:../eurorack/plaits/dsp/engine/virtual_analog_engine.cc ****       parameters.note + square_sync_ratio);
 2633              		.loc 1 217 46 view .LVU805
 2634 0210 F0EE400A 		vmov.f32	s1, s0
 2635              	.LVL204:
 2636              		.loc 1 220 3 is_stmt 1 view .LVU806
 2637              		.loc 1 220 15 is_stmt 0 view .LVU807
 2638 0214 3246     		mov	r2, r6
 2639 0216 F7EE001A 		vmov.f32	s3, #1.0e+0
 2640 021a 2146     		mov	r1, r4
 2641 021c B0EE4C1A 		vmov.f32	s2, s24
 2642 0220 05F16000 		add	r0, r5, #96
 2643 0224 B0EE4A0A 		vmov.f32	s0, s20
 2644              	.LVL205:
 2645              		.loc 1 220 15 view .LVU808
 2646 0228 FFF7FEFF 		bl	_ZN6plaits23VariableShapeOscillator6RenderEffffPfj
 2647              	.LVL206:
 221:../eurorack/plaits/dsp/engine/virtual_analog_engine.cc ****       primary_f, square_sync_f, square_pw, 1.0f, temp_buffer_, size);
 222:../eurorack/plaits/dsp/engine/virtual_analog_engine.cc ****   variable_saw_.Render(auxiliary_f, saw_pw, saw_shape, out, size);
 2648              		.loc 1 222 3 is_stmt 1 view .LVU809
 2649              		.loc 1 222 23 is_stmt 0 view .LVU810
 2650 022c 3246     		mov	r2, r6
 2651 022e B0EE6A1A 		vmov.f32	s2, s21
 2652 0232 3946     		mov	r1, r7
 2653 0234 F0EE490A 		vmov.f32	s1, s18
 2654 0238 05F18800 		add	r0, r5, #136
 2655 023c B0EE690A 		vmov.f32	s0, s19
 2656 0240 FFF7FEFF 		bl	_ZN6plaits21VariableSawOscillator6RenderEfffPfj
 2657              	.LVL207:
 223:../eurorack/plaits/dsp/engine/virtual_analog_engine.cc ****   
 224:../eurorack/plaits/dsp/engine/virtual_analog_engine.cc ****   float norm = 1.0f / (std::max(square_gain, saw_gain));
 2658              		.loc 1 224 3 is_stmt 1 view .LVU811
 2659              		.loc 1 224 55 is_stmt 0 discriminator 1 view .LVU812
 2660 0244 B4EEE8BA 		vcmpe.f32	s22, s17
 2661              	.LBB604:
 2662              	.LBB605:
 2663              	.LBB606:
  55:../eurorack/stmlib/dsp/parameter_interpolator.h ****     increment_ = (new_value - *state) / static_cast<float>(size);
 2664              		.loc 9 55 14 view .LVU813
 2665 0248 95ED297A 		vldr.32	s14, [r5, #164]
 2666 024c 07EB0A02 		add	r2, r7, r10
 2667              	.LBE606:
 2668              	.LBE605:
 2669              	.LBE604:
 2670              		.loc 1 224 55 discriminator 1 view .LVU814
 2671 0250 F1EE10FA 		vmrs	APSR_nzcv, FPSCR
 2672              	.LBB613:
 2673              	.LBB610:
 2674              	.LBB607:
  56:../eurorack/stmlib/dsp/parameter_interpolator.h ****   }
 2675              		.loc 9 56 29 view .LVU815
 2676 0254 F0EE476A 		vmov.f32	s13, s14
 2677              	.LBE607:
ARM GAS  /var/folders/y7/g6pkzsp12sx54x3s3mvyn15r0000gn/T//ccLQFW5y.s 			page 74


 2678              	.LBE610:
 2679              	.LBE613:
 2680              		.loc 1 224 55 discriminator 1 view .LVU816
 2681 0258 54BF     		ite	pl
 2682 025a F0EE4B7A 		vmovpl.f32	s15, s22
 2683 025e F0EE687A 		vmovmi.f32	s15, s17
 225:../eurorack/plaits/dsp/engine/virtual_analog_engine.cc ****   
 226:../eurorack/plaits/dsp/engine/virtual_analog_engine.cc ****   ParameterInterpolator square_gain_modulation(
 227:../eurorack/plaits/dsp/engine/virtual_analog_engine.cc ****       &auxiliary_amount_,
 228:../eurorack/plaits/dsp/engine/virtual_analog_engine.cc ****       square_gain * 0.3f * norm,
 229:../eurorack/plaits/dsp/engine/virtual_analog_engine.cc ****       size);
 230:../eurorack/plaits/dsp/engine/virtual_analog_engine.cc **** 
 231:../eurorack/plaits/dsp/engine/virtual_analog_engine.cc ****   ParameterInterpolator saw_gain_modulation(
 232:../eurorack/plaits/dsp/engine/virtual_analog_engine.cc ****       &xmod_amount_,
 233:../eurorack/plaits/dsp/engine/virtual_analog_engine.cc ****       saw_gain * 0.5f * norm,
 2684              		.loc 1 233 16 view .LVU817
 2685 0262 68EEAB8A 		vmul.f32	s17, s17, s23
 2686              	.LVL208:
 224:../eurorack/plaits/dsp/engine/virtual_analog_engine.cc ****   
 2687              		.loc 1 224 55 discriminator 1 view .LVU818
 2688 0266 88EE276A 		vdiv.f32	s12, s16, s15
 2689              	.LVL209:
 226:../eurorack/plaits/dsp/engine/virtual_analog_engine.cc ****       &auxiliary_amount_,
 2690              		.loc 1 226 3 is_stmt 1 view .LVU819
 2691              	.LBB614:
 2692              	.LBI604:
  39:../eurorack/stmlib/dsp/parameter_interpolator.h ****     Init(state, new_value, size);
 2693              		.loc 9 39 3 view .LVU820
 2694              	.LBB611:
 2695              	.LBI605:
  53:../eurorack/stmlib/dsp/parameter_interpolator.h ****     state_ = state;
 2696              		.loc 9 53 15 view .LVU821
 2697              	.LBB608:
  54:../eurorack/stmlib/dsp/parameter_interpolator.h ****     value_ = *state;
 2698              		.loc 9 54 5 view .LVU822
  55:../eurorack/stmlib/dsp/parameter_interpolator.h ****     increment_ = (new_value - *state) / static_cast<float>(size);
 2699              		.loc 9 55 5 view .LVU823
  56:../eurorack/stmlib/dsp/parameter_interpolator.h ****   }
 2700              		.loc 9 56 5 view .LVU824
 2701              	.LBE608:
 2702              	.LBE611:
 2703              	.LBE614:
 228:../eurorack/plaits/dsp/engine/virtual_analog_engine.cc ****       size);
 2704              		.loc 1 228 19 is_stmt 0 view .LVU825
 2705 026a DFED2D7A 		vldr.32	s15, .L108+36
 2706 026e 2BEE27BA 		vmul.f32	s22, s22, s15
 2707              	.LVL210:
 2708              	.LBB615:
 2709              	.LBB612:
 2710              	.LBB609:
  56:../eurorack/stmlib/dsp/parameter_interpolator.h ****   }
 2711              		.loc 9 56 41 view .LVU826
 2712 0272 07EE906A 		vmov	s15, r6	@ int
 2713 0276 F8EEE77A 		vcvt.f32.s32	s15, s15
  56:../eurorack/stmlib/dsp/parameter_interpolator.h ****   }
 2714              		.loc 9 56 29 view .LVU827
 2715 027a DBEE066A 		vfnms.f32	s13, s22, s12
ARM GAS  /var/folders/y7/g6pkzsp12sx54x3s3mvyn15r0000gn/T//ccLQFW5y.s 			page 75


 2716              	.LVL211:
  56:../eurorack/stmlib/dsp/parameter_interpolator.h ****   }
 2717              		.loc 9 56 39 view .LVU828
 2718 027e C6EEA75A 		vdiv.f32	s11, s13, s15
 2719              	.LVL212:
  56:../eurorack/stmlib/dsp/parameter_interpolator.h ****   }
 2720              		.loc 9 56 39 view .LVU829
 2721              	.LBE609:
 2722              	.LBE612:
 2723              	.LBE615:
 231:../eurorack/plaits/dsp/engine/virtual_analog_engine.cc ****       &xmod_amount_,
 2724              		.loc 1 231 3 is_stmt 1 view .LVU830
 2725              	.LBB616:
 2726              	.LBI616:
  39:../eurorack/stmlib/dsp/parameter_interpolator.h ****     Init(state, new_value, size);
 2727              		.loc 9 39 3 view .LVU831
 2728              	.LBB617:
 2729              	.LBI617:
  53:../eurorack/stmlib/dsp/parameter_interpolator.h ****     state_ = state;
 2730              		.loc 9 53 15 view .LVU832
 2731              	.LBB618:
  54:../eurorack/stmlib/dsp/parameter_interpolator.h ****     value_ = *state;
 2732              		.loc 9 54 5 view .LVU833
  55:../eurorack/stmlib/dsp/parameter_interpolator.h ****     increment_ = (new_value - *state) / static_cast<float>(size);
 2733              		.loc 9 55 5 view .LVU834
  55:../eurorack/stmlib/dsp/parameter_interpolator.h ****     increment_ = (new_value - *state) / static_cast<float>(size);
 2734              		.loc 9 55 14 is_stmt 0 view .LVU835
 2735 0282 D5ED2A6A 		vldr.32	s13, [r5, #168]
 2736              	.LVL213:
  56:../eurorack/stmlib/dsp/parameter_interpolator.h ****   }
 2737              		.loc 9 56 5 is_stmt 1 view .LVU836
  56:../eurorack/stmlib/dsp/parameter_interpolator.h ****   }
 2738              		.loc 9 56 29 is_stmt 0 view .LVU837
 2739 0286 B0EE665A 		vmov.f32	s10, s13
 2740 028a 98EE865A 		vfnms.f32	s10, s17, s12
  56:../eurorack/stmlib/dsp/parameter_interpolator.h ****   }
 2741              		.loc 9 56 39 view .LVU838
 2742 028e 85EE276A 		vdiv.f32	s12, s10, s15
 2743              	.LVL214:
  56:../eurorack/stmlib/dsp/parameter_interpolator.h ****   }
 2744              		.loc 9 56 39 view .LVU839
 2745              	.LBE618:
 2746              	.LBE617:
 2747              	.LBE616:
 234:../eurorack/plaits/dsp/engine/virtual_analog_engine.cc ****       size);
 235:../eurorack/plaits/dsp/engine/virtual_analog_engine.cc ****   
 236:../eurorack/plaits/dsp/engine/virtual_analog_engine.cc ****   for (size_t i = 0; i < size; ++i) {
 2748              		.loc 1 236 3 is_stmt 1 view .LVU840
 2749              	.L97:
 2750              	.LBB619:
 2751              		.loc 1 236 24 discriminator 1 view .LVU841
 2752 0292 4A45     		cmp	r2, r9
 2753 0294 23D1     		bne	.L98
 2754              	.LVL215:
 2755              		.loc 1 236 24 is_stmt 0 discriminator 1 view .LVU842
 2756              	.LBE619:
 2757              	.LBB628:
ARM GAS  /var/folders/y7/g6pkzsp12sx54x3s3mvyn15r0000gn/T//ccLQFW5y.s 			page 76


 2758              	.LBI628:
  49:../eurorack/stmlib/dsp/parameter_interpolator.h ****     *state_ = value_;
 2759              		.loc 9 49 3 is_stmt 1 view .LVU843
 2760              	.LBB629:
  50:../eurorack/stmlib/dsp/parameter_interpolator.h ****   }
 2761              		.loc 9 50 5 view .LVU844
  50:../eurorack/stmlib/dsp/parameter_interpolator.h ****   }
 2762              		.loc 9 50 13 is_stmt 0 view .LVU845
 2763 0296 C5ED2A6A 		vstr.32	s13, [r5, #168]
 2764              	.LVL216:
  50:../eurorack/stmlib/dsp/parameter_interpolator.h ****   }
 2765              		.loc 9 50 13 view .LVU846
 2766              	.LBE629:
 2767              	.LBE628:
 2768              	.LBB630:
 2769              	.LBI630:
  49:../eurorack/stmlib/dsp/parameter_interpolator.h ****     *state_ = value_;
 2770              		.loc 9 49 3 is_stmt 1 view .LVU847
 2771              	.LBB631:
  50:../eurorack/stmlib/dsp/parameter_interpolator.h ****   }
 2772              		.loc 9 50 5 view .LVU848
  50:../eurorack/stmlib/dsp/parameter_interpolator.h ****   }
 2773              		.loc 9 50 13 is_stmt 0 view .LVU849
 2774 029a 85ED297A 		vstr.32	s14, [r5, #164]
 2775              	.LVL217:
  50:../eurorack/stmlib/dsp/parameter_interpolator.h ****   }
 2776              		.loc 9 50 13 view .LVU850
 2777              	.LBE631:
 2778              	.LBE630:
 237:../eurorack/plaits/dsp/engine/virtual_analog_engine.cc ****     out[i] = out[i] * saw_gain_modulation.Next() + \
 238:../eurorack/plaits/dsp/engine/virtual_analog_engine.cc ****         square_gain_modulation.Next() * temp_buffer_[i];
 239:../eurorack/plaits/dsp/engine/virtual_analog_engine.cc ****   }
 240:../eurorack/plaits/dsp/engine/virtual_analog_engine.cc **** 
 241:../eurorack/plaits/dsp/engine/virtual_analog_engine.cc **** #endif  // VA_VARIANT values
 242:../eurorack/plaits/dsp/engine/virtual_analog_engine.cc **** 
 243:../eurorack/plaits/dsp/engine/virtual_analog_engine.cc **** }
 2779              		.loc 1 243 1 view .LVU851
 2780 029e BDEC0A8B 		vldm	sp!, {d8-d12}
 2781              		.cfi_remember_state
 2782              		.cfi_restore 88
 2783              		.cfi_restore 89
 2784              		.cfi_restore 86
 2785              		.cfi_restore 87
 2786              		.cfi_restore 84
 2787              		.cfi_restore 85
 2788              		.cfi_restore 82
 2789              		.cfi_restore 83
 2790              		.cfi_restore 80
 2791              		.cfi_restore 81
 2792              		.cfi_def_cfa_offset 32
 2793              	.LVL218:
 2794              		.loc 1 243 1 view .LVU852
 2795 02a2 BDE8F087 		pop	{r4, r5, r6, r7, r8, r9, r10, pc}
 2796              	.LVL219:
 2797              	.L99:
 2798              		.cfi_restore_state
 183:../eurorack/plaits/dsp/engine/virtual_analog_engine.cc **** 
ARM GAS  /var/folders/y7/g6pkzsp12sx54x3s3mvyn15r0000gn/T//ccLQFW5y.s 			page 77


 2799              		.loc 1 183 3 discriminator 1 view .LVU853
 2800 02a6 DFED1F8A 		vldr.32	s17, .L108+40
 2801              	.LVL220:
 183:../eurorack/plaits/dsp/engine/virtual_analog_engine.cc **** 
 2802              		.loc 1 183 3 discriminator 1 view .LVU854
 2803 02aa F2E6     		b	.L86
 2804              	.LVL221:
 2805              	.L100:
 186:../eurorack/plaits/dsp/engine/virtual_analog_engine.cc ****   
 2806              		.loc 1 186 3 discriminator 1 view .LVU855
 2807 02ac B0EE6B8A 		vmov.f32	s16, s23
 2808 02b0 09E7     		b	.L87
 2809              	.LVL222:
 2810              	.L89:
 2811              	.LBB632:
 192:../eurorack/plaits/dsp/engine/virtual_analog_engine.cc ****   }
 2812              		.loc 1 192 5 is_stmt 1 view .LVU856
 192:../eurorack/plaits/dsp/engine/virtual_analog_engine.cc ****   }
 2813              		.loc 1 192 20 is_stmt 0 view .LVU857
 2814 02b2 D3ED007A 		vldr.32	s15, [r3]
 192:../eurorack/plaits/dsp/engine/virtual_analog_engine.cc ****   }
 2815              		.loc 1 192 29 view .LVU858
 2816 02b6 B2EC017A 		vldmia.32	r2!, {s14}
 192:../eurorack/plaits/dsp/engine/virtual_analog_engine.cc ****   }
 2817              		.loc 1 192 22 view .LVU859
 2818 02ba 77EEC77A 		vsub.f32	s15, s15, s14
 192:../eurorack/plaits/dsp/engine/virtual_analog_engine.cc ****   }
 2819              		.loc 1 192 32 view .LVU860
 2820 02be 67EEAB7A 		vmul.f32	s15, s15, s23
 192:../eurorack/plaits/dsp/engine/virtual_analog_engine.cc ****   }
 2821              		.loc 1 192 12 view .LVU861
 2822 02c2 E3EC017A 		vstmia.32	r3!, {s15}
 191:../eurorack/plaits/dsp/engine/virtual_analog_engine.cc ****     aux[i] = (aux[i] - out[i]) * 0.5f;
 2823              		.loc 1 191 3 is_stmt 1 discriminator 3 view .LVU862
 2824 02c6 21E7     		b	.L88
 2825              	.LVL223:
 2826              	.L101:
 191:../eurorack/plaits/dsp/engine/virtual_analog_engine.cc ****     aux[i] = (aux[i] - out[i]) * 0.5f;
 2827              		.loc 1 191 3 is_stmt 0 discriminator 3 view .LVU863
 2828              	.LBE632:
 197:../eurorack/plaits/dsp/engine/virtual_analog_engine.cc ****   
 2829              		.loc 1 197 3 discriminator 1 view .LVU864
 2830 02c8 B0EE66CA 		vmov.f32	s24, s13
 2831              	.LVL224:
 2832              	.L102:
 200:../eurorack/plaits/dsp/engine/virtual_analog_engine.cc ****       : (parameters.timbre - 0.5f) * (parameters.timbre - 0.5f) * 4.0f * 48.0f;
 2833              		.loc 1 200 7 discriminator 1 view .LVU865
 2834 02cc 9FED157A 		vldr.32	s14, .L108+40
 2835 02d0 45E7     		b	.L90
 2836              	.LVL225:
 2837              	.L103:
 209:../eurorack/plaits/dsp/engine/virtual_analog_engine.cc ****     
 2838              		.loc 1 209 3 discriminator 1 view .LVU866
 2839 02d2 9FED109A 		vldr.32	s18, .L108+24
 2840 02d6 70E7     		b	.L94
 2841              	.LVL226:
 2842              	.L104:
ARM GAS  /var/folders/y7/g6pkzsp12sx54x3s3mvyn15r0000gn/T//ccLQFW5y.s 			page 78


 212:../eurorack/plaits/dsp/engine/virtual_analog_engine.cc ****   
 2843              		.loc 1 212 3 discriminator 1 view .LVU867
 2844 02d8 DFED12AA 		vldr.32	s21, .L108+40
 2845              	.LVL227:
 212:../eurorack/plaits/dsp/engine/virtual_analog_engine.cc ****   
 2846              		.loc 1 212 3 discriminator 1 view .LVU868
 2847 02dc 7FE7     		b	.L95
 2848              	.LVL228:
 2849              	.L98:
 2850              	.LBB633:
 237:../eurorack/plaits/dsp/engine/virtual_analog_engine.cc ****         square_gain_modulation.Next() * temp_buffer_[i];
 2851              		.loc 1 237 5 is_stmt 1 view .LVU869
 2852              	.LBB620:
 2853              	.LBB621:
  60:../eurorack/stmlib/dsp/parameter_interpolator.h ****     return value_;
 2854              		.loc 9 60 12 is_stmt 0 view .LVU870
 2855 02de 37EE257A 		vadd.f32	s14, s14, s11
 2856              	.LVL229:
  60:../eurorack/stmlib/dsp/parameter_interpolator.h ****     return value_;
 2857              		.loc 9 60 12 view .LVU871
 2858              	.LBE621:
 2859              	.LBE620:
 238:../eurorack/plaits/dsp/engine/virtual_analog_engine.cc ****   }
 2860              		.loc 1 238 55 discriminator 1 view .LVU872
 2861 02e2 F4EC017A 		vldmia.32	r4!, {s15}
 2862              	.LBB623:
 2863              	.LBB624:
  60:../eurorack/stmlib/dsp/parameter_interpolator.h ****     return value_;
 2864              		.loc 9 60 12 view .LVU873
 2865 02e6 76EE866A 		vadd.f32	s13, s13, s12
 2866              	.LVL230:
  60:../eurorack/stmlib/dsp/parameter_interpolator.h ****     return value_;
 2867              		.loc 9 60 12 view .LVU874
 2868              	.LBE624:
 2869              	.LBE623:
 237:../eurorack/plaits/dsp/engine/virtual_analog_engine.cc ****         square_gain_modulation.Next() * temp_buffer_[i];
 2870              		.loc 1 237 19 view .LVU875
 2871 02ea 99ED005A 		vldr.32	s10, [r9]
 2872              	.LVL231:
 2873              	.LBB626:
 2874              	.LBI623:
  59:../eurorack/stmlib/dsp/parameter_interpolator.h ****     value_ += increment_;
 2875              		.loc 9 59 16 is_stmt 1 view .LVU876
 2876              	.LBB625:
  60:../eurorack/stmlib/dsp/parameter_interpolator.h ****     return value_;
 2877              		.loc 9 60 5 view .LVU877
 2878              		.loc 9 61 5 view .LVU878
 2879              		.loc 9 61 5 is_stmt 0 view .LVU879
 2880              	.LBE625:
 2881              	.LBE626:
 2882              	.LBB627:
 2883              	.LBI620:
  59:../eurorack/stmlib/dsp/parameter_interpolator.h ****     value_ += increment_;
 2884              		.loc 9 59 16 is_stmt 1 view .LVU880
 2885              	.LBB622:
  60:../eurorack/stmlib/dsp/parameter_interpolator.h ****     return value_;
 2886              		.loc 9 60 5 view .LVU881
ARM GAS  /var/folders/y7/g6pkzsp12sx54x3s3mvyn15r0000gn/T//ccLQFW5y.s 			page 79


 2887              		.loc 9 61 5 view .LVU882
 2888              		.loc 9 61 5 is_stmt 0 view .LVU883
 2889              	.LBE622:
 2890              	.LBE627:
 238:../eurorack/plaits/dsp/engine/virtual_analog_engine.cc ****   }
 2891              		.loc 1 238 39 discriminator 1 view .LVU884
 2892 02ee 67EE877A 		vmul.f32	s15, s15, s14
 237:../eurorack/plaits/dsp/engine/virtual_analog_engine.cc ****         square_gain_modulation.Next() * temp_buffer_[i];
 2893              		.loc 1 237 50 view .LVU885
 2894 02f2 E5EE267A 		vfma.f32	s15, s10, s13
 237:../eurorack/plaits/dsp/engine/virtual_analog_engine.cc ****         square_gain_modulation.Next() * temp_buffer_[i];
 2895              		.loc 1 237 12 view .LVU886
 2896 02f6 E9EC017A 		vstmia.32	r9!, {s15}
 236:../eurorack/plaits/dsp/engine/virtual_analog_engine.cc ****     out[i] = out[i] * saw_gain_modulation.Next() + \
 2897              		.loc 1 236 3 is_stmt 1 discriminator 3 view .LVU887
 2898 02fa CAE7     		b	.L97
 2899              	.L109:
 2900              		.align	2
 2901              	.L108:
 2902 02fc 00004042 		.word	1111490560
 2903 0300 C3F5283F 		.word	1059648963
 2904 0304 48E1BA3F 		.word	1069211976
 2905 0308 52B87E3F 		.word	1065269330
 2906 030c 6666A63F 		.word	1067869798
 2907 0310 9A9919BE 		.word	-1105618534
 2908 0314 0AD7A33B 		.word	1000593162
 2909 0318 CDCC8C3F 		.word	1066192077
 2910 031c 0AD7A33C 		.word	1017370378
 2911 0320 9A99993E 		.word	1050253722
 2912 0324 00000000 		.word	0
 2913              	.LBE633:
 2914              		.cfi_endproc
 2915              	.LFE1307:
 2917              		.global	_ZTVN6plaits19VirtualAnalogEngineE
 2918              		.section	.rodata._ZTVN6plaits19VirtualAnalogEngineE,"a"
 2919              		.align	2
 2922              	_ZTVN6plaits19VirtualAnalogEngineE:
 2923 0000 00000000 		.word	0
 2924 0004 00000000 		.word	0
 2925 0008 00000000 		.word	_ZN6plaits19VirtualAnalogEngine4InitEPN6stmlib15BufferAllocatorE
 2926 000c 00000000 		.word	_ZN6plaits19VirtualAnalogEngine5ResetEv
 2927 0010 00000000 		.word	_ZN6plaits19VirtualAnalogEngine12LoadUserDataEPKh
 2928 0014 00000000 		.word	_ZN6plaits19VirtualAnalogEngine6RenderERKNS_16EngineParametersEPfS4_jPb
 2929              		.section	.rodata._ZN6plaitsL9intervalsE,"a"
 2930              		.align	2
 2933              	_ZN6plaitsL9intervalsE:
 2934 0000 00000000 		.word	0
 2935 0004 EC51E040 		.word	1088442860
 2936 0008 F6284041 		.word	1094723830
 2937 000c 7B149841 		.word	1100485755
 2938 0010 7B14C041 		.word	1103107195
 2939              		.text
 2940              	.Letext0:
 2941              		.file 10 "/Applications/ArmGNUToolchain/14.2.rel1/arm-none-eabi/arm-none-eabi/include/machine/_def
 2942              		.file 11 "/Applications/ArmGNUToolchain/14.2.rel1/arm-none-eabi/arm-none-eabi/include/sys/_stdint.
 2943              		.file 12 "/Applications/ArmGNUToolchain/14.2.rel1/arm-none-eabi/lib/gcc/arm-none-eabi/14.2.1/inclu
 2944              		.file 13 "/Applications/ArmGNUToolchain/14.2.rel1/arm-none-eabi/arm-none-eabi/include/c++/14.2.1/c
ARM GAS  /var/folders/y7/g6pkzsp12sx54x3s3mvyn15r0000gn/T//ccLQFW5y.s 			page 80


 2945              		.file 14 "/Applications/ArmGNUToolchain/14.2.rel1/arm-none-eabi/arm-none-eabi/include/c++/14.2.1/b
 2946              		.file 15 "/Applications/ArmGNUToolchain/14.2.rel1/arm-none-eabi/arm-none-eabi/include/c++/14.2.1/t
 2947              		.file 16 "/Applications/ArmGNUToolchain/14.2.rel1/arm-none-eabi/arm-none-eabi/include/c++/14.2.1/d
 2948              		.file 17 "/Applications/ArmGNUToolchain/14.2.rel1/arm-none-eabi/arm-none-eabi/include/c++/14.2.1/c
 2949              		.file 18 "/Applications/ArmGNUToolchain/14.2.rel1/arm-none-eabi/arm-none-eabi/include/c++/14.2.1/b
 2950              		.file 19 "/Applications/ArmGNUToolchain/14.2.rel1/arm-none-eabi/arm-none-eabi/include/c++/14.2.1/b
 2951              		.file 20 "/Applications/ArmGNUToolchain/14.2.rel1/arm-none-eabi/arm-none-eabi/include/math.h"
 2952              		.file 21 "/Applications/ArmGNUToolchain/14.2.rel1/arm-none-eabi/arm-none-eabi/include/stdlib.h"
 2953              		.file 22 "/Applications/ArmGNUToolchain/14.2.rel1/arm-none-eabi/arm-none-eabi/include/c++/14.2.1/m
 2954              		.file 23 "../eurorack/stmlib/stmlib.h"
 2955              		.file 24 "/Applications/ArmGNUToolchain/14.2.rel1/arm-none-eabi/arm-none-eabi/include/c++/14.2.1/a
 2956              		.file 25 "/Applications/ArmGNUToolchain/14.2.rel1/arm-none-eabi/arm-none-eabi/include/c++/14.2.1/b
 2957              		.file 26 "../eurorack/plaits/dsp/dsp.h"
 2958              		.file 27 "../eurorack/plaits/dsp/oscillator/oscillator.h"
ARM GAS  /var/folders/y7/g6pkzsp12sx54x3s3mvyn15r0000gn/T//ccLQFW5y.s 			page 81


DEFINED SYMBOLS
                            *ABS*:00000000 virtual_analog_engine.cc
/var/folders/y7/g6pkzsp12sx54x3s3mvyn15r0000gn/T//ccLQFW5y.s:20     .text._ZN6plaits19VirtualAnalogEngine12LoadUserDataEPKh:00000000 $t
/var/folders/y7/g6pkzsp12sx54x3s3mvyn15r0000gn/T//ccLQFW5y.s:26     .text._ZN6plaits19VirtualAnalogEngine12LoadUserDataEPKh:00000000 _ZN6plaits19VirtualAnalogEngine12LoadUserDataEPKh
/var/folders/y7/g6pkzsp12sx54x3s3mvyn15r0000gn/T//ccLQFW5y.s:41     .text._ZN6plaits19VirtualAnalogEngine5ResetEv:00000000 $t
/var/folders/y7/g6pkzsp12sx54x3s3mvyn15r0000gn/T//ccLQFW5y.s:47     .text._ZN6plaits19VirtualAnalogEngine5ResetEv:00000000 _ZN6plaits19VirtualAnalogEngine5ResetEv
/var/folders/y7/g6pkzsp12sx54x3s3mvyn15r0000gn/T//ccLQFW5y.s:61     .text._ZN6plaits19VirtualAnalogEngine4InitEPN6stmlib15BufferAllocatorE:00000000 $t
/var/folders/y7/g6pkzsp12sx54x3s3mvyn15r0000gn/T//ccLQFW5y.s:67     .text._ZN6plaits19VirtualAnalogEngine4InitEPN6stmlib15BufferAllocatorE:00000000 _ZN6plaits19VirtualAnalogEngine4InitEPN6stmlib15BufferAllocatorE
/var/folders/y7/g6pkzsp12sx54x3s3mvyn15r0000gn/T//ccLQFW5y.s:339    .text._ZN6plaits19VirtualAnalogEngine4InitEPN6stmlib15BufferAllocatorE:00000094 $d
/var/folders/y7/g6pkzsp12sx54x3s3mvyn15r0000gn/T//ccLQFW5y.s:344    .text._ZN6plaits15NoteToFrequencyEf:00000000 $t
/var/folders/y7/g6pkzsp12sx54x3s3mvyn15r0000gn/T//ccLQFW5y.s:350    .text._ZN6plaits15NoteToFrequencyEf:00000000 _ZN6plaits15NoteToFrequencyEf
/var/folders/y7/g6pkzsp12sx54x3s3mvyn15r0000gn/T//ccLQFW5y.s:429    .text._ZN6plaits15NoteToFrequencyEf:00000068 $d
/var/folders/y7/g6pkzsp12sx54x3s3mvyn15r0000gn/T//ccLQFW5y.s:439    .text._ZN6stmlib24NextIntegratedBlepSampleEf:00000000 $t
/var/folders/y7/g6pkzsp12sx54x3s3mvyn15r0000gn/T//ccLQFW5y.s:445    .text._ZN6stmlib24NextIntegratedBlepSampleEf:00000000 _ZN6stmlib24NextIntegratedBlepSampleEf
/var/folders/y7/g6pkzsp12sx54x3s3mvyn15r0000gn/T//ccLQFW5y.s:482    .text._ZN6plaits21VariableSawOscillator6RenderEfffPfj:00000000 $t
/var/folders/y7/g6pkzsp12sx54x3s3mvyn15r0000gn/T//ccLQFW5y.s:488    .text._ZN6plaits21VariableSawOscillator6RenderEfffPfj:00000000 _ZN6plaits21VariableSawOscillator6RenderEfffPfj
/var/folders/y7/g6pkzsp12sx54x3s3mvyn15r0000gn/T//ccLQFW5y.s:1132   .text._ZN6plaits21VariableSawOscillator6RenderEfffPfj:000001f4 $d
/var/folders/y7/g6pkzsp12sx54x3s3mvyn15r0000gn/T//ccLQFW5y.s:1139   .text._ZN6plaits23VariableShapeOscillator6RenderEffffPfj:00000000 $t
/var/folders/y7/g6pkzsp12sx54x3s3mvyn15r0000gn/T//ccLQFW5y.s:1145   .text._ZN6plaits23VariableShapeOscillator6RenderEffffPfj:00000000 _ZN6plaits23VariableShapeOscillator6RenderEffffPfj
/var/folders/y7/g6pkzsp12sx54x3s3mvyn15r0000gn/T//ccLQFW5y.s:2147   .text._ZN6plaits23VariableShapeOscillator6RenderEffffPfj:00000348 $d
/var/folders/y7/g6pkzsp12sx54x3s3mvyn15r0000gn/T//ccLQFW5y.s:2156   .text._ZNK6plaits19VirtualAnalogEngine15ComputeDetuningEf:00000000 $t
/var/folders/y7/g6pkzsp12sx54x3s3mvyn15r0000gn/T//ccLQFW5y.s:2162   .text._ZNK6plaits19VirtualAnalogEngine15ComputeDetuningEf:00000000 _ZNK6plaits19VirtualAnalogEngine15ComputeDetuningEf
/var/folders/y7/g6pkzsp12sx54x3s3mvyn15r0000gn/T//ccLQFW5y.s:2306   .text._ZNK6plaits19VirtualAnalogEngine15ComputeDetuningEf:000000a4 $d
/var/folders/y7/g6pkzsp12sx54x3s3mvyn15r0000gn/T//ccLQFW5y.s:2933   .rodata._ZN6plaitsL9intervalsE:00000000 _ZN6plaitsL9intervalsE
/var/folders/y7/g6pkzsp12sx54x3s3mvyn15r0000gn/T//ccLQFW5y.s:2314   .text._ZN6plaits19VirtualAnalogEngine6RenderERKNS_16EngineParametersEPfS4_jPb:00000000 $t
/var/folders/y7/g6pkzsp12sx54x3s3mvyn15r0000gn/T//ccLQFW5y.s:2320   .text._ZN6plaits19VirtualAnalogEngine6RenderERKNS_16EngineParametersEPfS4_jPb:00000000 _ZN6plaits19VirtualAnalogEngine6RenderERKNS_16EngineParametersEPfS4_jPb
/var/folders/y7/g6pkzsp12sx54x3s3mvyn15r0000gn/T//ccLQFW5y.s:2902   .text._ZN6plaits19VirtualAnalogEngine6RenderERKNS_16EngineParametersEPfS4_jPb:000002fc $d
/var/folders/y7/g6pkzsp12sx54x3s3mvyn15r0000gn/T//ccLQFW5y.s:2922   .rodata._ZTVN6plaits19VirtualAnalogEngineE:00000000 _ZTVN6plaits19VirtualAnalogEngineE
/var/folders/y7/g6pkzsp12sx54x3s3mvyn15r0000gn/T//ccLQFW5y.s:2919   .rodata._ZTVN6plaits19VirtualAnalogEngineE:00000000 $d
/var/folders/y7/g6pkzsp12sx54x3s3mvyn15r0000gn/T//ccLQFW5y.s:2930   .rodata._ZN6plaitsL9intervalsE:00000000 $d

UNDEFINED SYMBOLS
_ZN6stmlib19lut_pitch_ratio_lowE
_ZN6stmlib20lut_pitch_ratio_highE
