ARM GAS  /var/folders/y7/g6pkzsp12sx54x3s3mvyn15r0000gn/T//ccpDeTAb.s 			page 1


   1              		.cpu cortex-m7
   2              		.arch armv7e-m
   3              		.fpu fpv5-d16
   4              		.eabi_attribute 28, 1
   5              		.eabi_attribute 20, 1
   6              		.eabi_attribute 21, 1
   7              		.eabi_attribute 23, 3
   8              		.eabi_attribute 24, 1
   9              		.eabi_attribute 25, 1
  10              		.eabi_attribute 26, 1
  11              		.eabi_attribute 30, 4
  12              		.eabi_attribute 34, 1
  13              		.eabi_attribute 18, 4
  14              		.file	"wave_terrain_engine.cc"
  15              		.text
  16              	.Ltext0:
  17              		.cfi_sections	.debug_frame
  18              		.file 1 "../eurorack/plaits/dsp/engine2/wave_terrain_engine.cc"
  19              		.section	.text._ZN6plaits17WaveTerrainEngine12LoadUserDataEPKh,"axG",%progbits,_ZN6plaits17WaveTer
  20              		.align	1
  21              		.weak	_ZN6plaits17WaveTerrainEngine12LoadUserDataEPKh
  22              		.syntax unified
  23              		.thumb
  24              		.thumb_func
  26              	_ZN6plaits17WaveTerrainEngine12LoadUserDataEPKh:
  27              	.LVL0:
  28              	.LFB658:
  29              		.file 2 "../eurorack/plaits/dsp/engine2/wave_terrain_engine.h"
   1:../eurorack/plaits/dsp/engine2/wave_terrain_engine.h **** // Copyright 2021 Emilie Gillet.
   2:../eurorack/plaits/dsp/engine2/wave_terrain_engine.h **** //
   3:../eurorack/plaits/dsp/engine2/wave_terrain_engine.h **** // Author: Emilie Gillet (emilie.o.gillet@gmail.com)
   4:../eurorack/plaits/dsp/engine2/wave_terrain_engine.h **** //
   5:../eurorack/plaits/dsp/engine2/wave_terrain_engine.h **** // Permission is hereby granted, free of charge, to any person obtaining a copy
   6:../eurorack/plaits/dsp/engine2/wave_terrain_engine.h **** // of this software and associated documentation files (the "Software"), to deal
   7:../eurorack/plaits/dsp/engine2/wave_terrain_engine.h **** // in the Software without restriction, including without limitation the rights
   8:../eurorack/plaits/dsp/engine2/wave_terrain_engine.h **** // to use, copy, modify, merge, publish, distribute, sublicense, and/or sell
   9:../eurorack/plaits/dsp/engine2/wave_terrain_engine.h **** // copies of the Software, and to permit persons to whom the Software is
  10:../eurorack/plaits/dsp/engine2/wave_terrain_engine.h **** // furnished to do so, subject to the following conditions:
  11:../eurorack/plaits/dsp/engine2/wave_terrain_engine.h **** // 
  12:../eurorack/plaits/dsp/engine2/wave_terrain_engine.h **** // The above copyright notice and this permission notice shall be included in
  13:../eurorack/plaits/dsp/engine2/wave_terrain_engine.h **** // all copies or substantial portions of the Software.
  14:../eurorack/plaits/dsp/engine2/wave_terrain_engine.h **** // 
  15:../eurorack/plaits/dsp/engine2/wave_terrain_engine.h **** // THE SOFTWARE IS PROVIDED "AS IS", WITHOUT WARRANTY OF ANY KIND, EXPRESS OR
  16:../eurorack/plaits/dsp/engine2/wave_terrain_engine.h **** // IMPLIED, INCLUDING BUT NOT LIMITED TO THE WARRANTIES OF MERCHANTABILITY,
  17:../eurorack/plaits/dsp/engine2/wave_terrain_engine.h **** // FITNESS FOR A PARTICULAR PURPOSE AND NONINFRINGEMENT. IN NO EVENT SHALL THE
  18:../eurorack/plaits/dsp/engine2/wave_terrain_engine.h **** // AUTHORS OR COPYRIGHT HOLDERS BE LIABLE FOR ANY CLAIM, DAMAGES OR OTHER
  19:../eurorack/plaits/dsp/engine2/wave_terrain_engine.h **** // LIABILITY, WHETHER IN AN ACTION OF CONTRACT, TORT OR OTHERWISE, ARISING FROM,
  20:../eurorack/plaits/dsp/engine2/wave_terrain_engine.h **** // OUT OF OR IN CONNECTION WITH THE SOFTWARE OR THE USE OR OTHER DEALINGS IN
  21:../eurorack/plaits/dsp/engine2/wave_terrain_engine.h **** // THE SOFTWARE.
  22:../eurorack/plaits/dsp/engine2/wave_terrain_engine.h **** // 
  23:../eurorack/plaits/dsp/engine2/wave_terrain_engine.h **** // See http://creativecommons.org/licenses/MIT/ for more information.
  24:../eurorack/plaits/dsp/engine2/wave_terrain_engine.h **** //
  25:../eurorack/plaits/dsp/engine2/wave_terrain_engine.h **** // -----------------------------------------------------------------------------
  26:../eurorack/plaits/dsp/engine2/wave_terrain_engine.h **** //
  27:../eurorack/plaits/dsp/engine2/wave_terrain_engine.h **** // Wave terrain synthesis - a 2D function evaluated along an elliptical path of
  28:../eurorack/plaits/dsp/engine2/wave_terrain_engine.h **** // adjustable center and excentricity.
  29:../eurorack/plaits/dsp/engine2/wave_terrain_engine.h **** //
ARM GAS  /var/folders/y7/g6pkzsp12sx54x3s3mvyn15r0000gn/T//ccpDeTAb.s 			page 2


  30:../eurorack/plaits/dsp/engine2/wave_terrain_engine.h **** // This implementation initially used pre-computed terrains stored in flash
  31:../eurorack/plaits/dsp/engine2/wave_terrain_engine.h **** // memory, but even at a poor resolution of 64x64 with 8-bit samples, this
  32:../eurorack/plaits/dsp/engine2/wave_terrain_engine.h **** // takes 4kb per terrain! It turned out that directly evaluating the terrain
  33:../eurorack/plaits/dsp/engine2/wave_terrain_engine.h **** // function on the fly uses less flash, but is also faster than bicubic
  34:../eurorack/plaits/dsp/engine2/wave_terrain_engine.h **** // interpolation of the terrain data.
  35:../eurorack/plaits/dsp/engine2/wave_terrain_engine.h **** 
  36:../eurorack/plaits/dsp/engine2/wave_terrain_engine.h **** #ifndef PLAITS_DSP_ENGINE_WAVE_TERRAIN_ENGINE_H_
  37:../eurorack/plaits/dsp/engine2/wave_terrain_engine.h **** #define PLAITS_DSP_ENGINE_WAVE_TERRAIN_ENGINE_H_
  38:../eurorack/plaits/dsp/engine2/wave_terrain_engine.h **** 
  39:../eurorack/plaits/dsp/engine2/wave_terrain_engine.h **** #include "plaits/dsp/engine/engine.h"
  40:../eurorack/plaits/dsp/engine2/wave_terrain_engine.h **** #include "plaits/dsp/oscillator/sine_oscillator.h"
  41:../eurorack/plaits/dsp/engine2/wave_terrain_engine.h **** 
  42:../eurorack/plaits/dsp/engine2/wave_terrain_engine.h **** namespace plaits {
  43:../eurorack/plaits/dsp/engine2/wave_terrain_engine.h ****   
  44:../eurorack/plaits/dsp/engine2/wave_terrain_engine.h **** class WaveTerrainEngine : public Engine {
  45:../eurorack/plaits/dsp/engine2/wave_terrain_engine.h ****  public:
  46:../eurorack/plaits/dsp/engine2/wave_terrain_engine.h ****   WaveTerrainEngine() { }
  47:../eurorack/plaits/dsp/engine2/wave_terrain_engine.h ****   ~WaveTerrainEngine() { }
  48:../eurorack/plaits/dsp/engine2/wave_terrain_engine.h ****   
  49:../eurorack/plaits/dsp/engine2/wave_terrain_engine.h ****   virtual void Init(stmlib::BufferAllocator* allocator);
  50:../eurorack/plaits/dsp/engine2/wave_terrain_engine.h ****   virtual void Reset();
  51:../eurorack/plaits/dsp/engine2/wave_terrain_engine.h ****   virtual void LoadUserData(const uint8_t* user_data) {
  30              		.loc 2 51 16 view -0
  31              		.cfi_startproc
  32              		@ args = 0, pretend = 0, frame = 0
  33              		@ frame_needed = 0, uses_anonymous_args = 0
  34              		@ link register save eliminated.
  52:../eurorack/plaits/dsp/engine2/wave_terrain_engine.h ****     user_terrain_ = (const int8_t*)(user_data);
  35              		.loc 2 52 5 view .LVU1
  36              		.loc 2 52 19 is_stmt 0 view .LVU2
  37 0000 C162     		str	r1, [r0, #44]
  53:../eurorack/plaits/dsp/engine2/wave_terrain_engine.h ****   }
  38              		.loc 2 53 3 view .LVU3
  39 0002 7047     		bx	lr
  40              		.cfi_endproc
  41              	.LFE658:
  43              		.section	.text._ZN6plaits17WaveTerrainEngine5ResetEv,"ax",%progbits
  44              		.align	1
  45              		.global	_ZN6plaits17WaveTerrainEngine5ResetEv
  46              		.syntax unified
  47              		.thumb
  48              		.thumb_func
  50              	_ZN6plaits17WaveTerrainEngine5ResetEv:
  51              	.LVL1:
  52              	.LFB1328:
   1:../eurorack/plaits/dsp/engine2/wave_terrain_engine.cc **** // Copyright 2021 Emilie Gillet.
   2:../eurorack/plaits/dsp/engine2/wave_terrain_engine.cc **** //
   3:../eurorack/plaits/dsp/engine2/wave_terrain_engine.cc **** // Author: Emilie Gillet (emilie.o.gillet@gmail.com)
   4:../eurorack/plaits/dsp/engine2/wave_terrain_engine.cc **** //
   5:../eurorack/plaits/dsp/engine2/wave_terrain_engine.cc **** // Permission is hereby granted, free of charge, to any person obtaining a copy
   6:../eurorack/plaits/dsp/engine2/wave_terrain_engine.cc **** // of this software and associated documentation files (the "Software"), to deal
   7:../eurorack/plaits/dsp/engine2/wave_terrain_engine.cc **** // in the Software without restriction, including without limitation the rights
   8:../eurorack/plaits/dsp/engine2/wave_terrain_engine.cc **** // to use, copy, modify, merge, publish, distribute, sublicense, and/or sell
   9:../eurorack/plaits/dsp/engine2/wave_terrain_engine.cc **** // copies of the Software, and to permit persons to whom the Software is
  10:../eurorack/plaits/dsp/engine2/wave_terrain_engine.cc **** // furnished to do so, subject to the following conditions:
  11:../eurorack/plaits/dsp/engine2/wave_terrain_engine.cc **** // 
  12:../eurorack/plaits/dsp/engine2/wave_terrain_engine.cc **** // The above copyright notice and this permission notice shall be included in
ARM GAS  /var/folders/y7/g6pkzsp12sx54x3s3mvyn15r0000gn/T//ccpDeTAb.s 			page 3


  13:../eurorack/plaits/dsp/engine2/wave_terrain_engine.cc **** // all copies or substantial portions of the Software.
  14:../eurorack/plaits/dsp/engine2/wave_terrain_engine.cc **** // 
  15:../eurorack/plaits/dsp/engine2/wave_terrain_engine.cc **** // THE SOFTWARE IS PROVIDED "AS IS", WITHOUT WARRANTY OF ANY KIND, EXPRESS OR
  16:../eurorack/plaits/dsp/engine2/wave_terrain_engine.cc **** // IMPLIED, INCLUDING BUT NOT LIMITED TO THE WARRANTIES OF MERCHANTABILITY,
  17:../eurorack/plaits/dsp/engine2/wave_terrain_engine.cc **** // FITNESS FOR A PARTICULAR PURPOSE AND NONINFRINGEMENT. IN NO EVENT SHALL THE
  18:../eurorack/plaits/dsp/engine2/wave_terrain_engine.cc **** // AUTHORS OR COPYRIGHT HOLDERS BE LIABLE FOR ANY CLAIM, DAMAGES OR OTHER
  19:../eurorack/plaits/dsp/engine2/wave_terrain_engine.cc **** // LIABILITY, WHETHER IN AN ACTION OF CONTRACT, TORT OR OTHERWISE, ARISING FROM,
  20:../eurorack/plaits/dsp/engine2/wave_terrain_engine.cc **** // OUT OF OR IN CONNECTION WITH THE SOFTWARE OR THE USE OR OTHER DEALINGS IN
  21:../eurorack/plaits/dsp/engine2/wave_terrain_engine.cc **** // THE SOFTWARE.
  22:../eurorack/plaits/dsp/engine2/wave_terrain_engine.cc **** // 
  23:../eurorack/plaits/dsp/engine2/wave_terrain_engine.cc **** // See http://creativecommons.org/licenses/MIT/ for more information.
  24:../eurorack/plaits/dsp/engine2/wave_terrain_engine.cc **** //
  25:../eurorack/plaits/dsp/engine2/wave_terrain_engine.cc **** // -----------------------------------------------------------------------------
  26:../eurorack/plaits/dsp/engine2/wave_terrain_engine.cc **** //
  27:../eurorack/plaits/dsp/engine2/wave_terrain_engine.cc **** // Wave terrain synthesis.
  28:../eurorack/plaits/dsp/engine2/wave_terrain_engine.cc **** 
  29:../eurorack/plaits/dsp/engine2/wave_terrain_engine.cc **** #include "plaits/dsp/engine2/wave_terrain_engine.h"
  30:../eurorack/plaits/dsp/engine2/wave_terrain_engine.cc **** 
  31:../eurorack/plaits/dsp/engine2/wave_terrain_engine.cc **** #include <cmath>
  32:../eurorack/plaits/dsp/engine2/wave_terrain_engine.cc **** #include <algorithm>
  33:../eurorack/plaits/dsp/engine2/wave_terrain_engine.cc **** 
  34:../eurorack/plaits/dsp/engine2/wave_terrain_engine.cc **** #include "plaits/dsp/oscillator/wavetable_oscillator.h"
  35:../eurorack/plaits/dsp/engine2/wave_terrain_engine.cc **** 
  36:../eurorack/plaits/dsp/engine2/wave_terrain_engine.cc **** namespace plaits {
  37:../eurorack/plaits/dsp/engine2/wave_terrain_engine.cc **** 
  38:../eurorack/plaits/dsp/engine2/wave_terrain_engine.cc **** using namespace std;
  39:../eurorack/plaits/dsp/engine2/wave_terrain_engine.cc **** using namespace stmlib;
  40:../eurorack/plaits/dsp/engine2/wave_terrain_engine.cc **** 
  41:../eurorack/plaits/dsp/engine2/wave_terrain_engine.cc **** void WaveTerrainEngine::Init(BufferAllocator* allocator) {
  42:../eurorack/plaits/dsp/engine2/wave_terrain_engine.cc ****   path_.Init();
  43:../eurorack/plaits/dsp/engine2/wave_terrain_engine.cc ****   offset_ = 0.0f;
  44:../eurorack/plaits/dsp/engine2/wave_terrain_engine.cc ****   terrain_ = 0.0f;
  45:../eurorack/plaits/dsp/engine2/wave_terrain_engine.cc ****   temp_buffer_ = allocator->Allocate<float>(kMaxBlockSize * 4);
  46:../eurorack/plaits/dsp/engine2/wave_terrain_engine.cc ****   user_terrain_ = NULL;
  47:../eurorack/plaits/dsp/engine2/wave_terrain_engine.cc **** }
  48:../eurorack/plaits/dsp/engine2/wave_terrain_engine.cc **** 
  49:../eurorack/plaits/dsp/engine2/wave_terrain_engine.cc **** void WaveTerrainEngine::Reset() {
  53              		.loc 1 49 33 is_stmt 1 view -0
  54              		.cfi_startproc
  55              		@ args = 0, pretend = 0, frame = 0
  56              		@ frame_needed = 0, uses_anonymous_args = 0
  57              		@ link register save eliminated.
  50:../eurorack/plaits/dsp/engine2/wave_terrain_engine.cc ****   
  51:../eurorack/plaits/dsp/engine2/wave_terrain_engine.cc **** }
  58              		.loc 1 51 1 is_stmt 0 view .LVU5
  59 0000 7047     		bx	lr
  60              		.cfi_endproc
  61              	.LFE1328:
  63              		.section	.text._ZN6plaits17WaveTerrainEngine4InitEPN6stmlib15BufferAllocatorE,"ax",%progbits
  64              		.align	1
  65              		.global	_ZN6plaits17WaveTerrainEngine4InitEPN6stmlib15BufferAllocatorE
  66              		.syntax unified
  67              		.thumb
  68              		.thumb_func
  70              	_ZN6plaits17WaveTerrainEngine4InitEPN6stmlib15BufferAllocatorE:
  71              	.LVL2:
  72              	.LFB1327:
ARM GAS  /var/folders/y7/g6pkzsp12sx54x3s3mvyn15r0000gn/T//ccpDeTAb.s 			page 4


  41:../eurorack/plaits/dsp/engine2/wave_terrain_engine.cc ****   path_.Init();
  73              		.loc 1 41 58 is_stmt 1 view -0
  74              		.cfi_startproc
  75              		@ args = 0, pretend = 0, frame = 0
  76              		@ frame_needed = 0, uses_anonymous_args = 0
  42:../eurorack/plaits/dsp/engine2/wave_terrain_engine.cc ****   offset_ = 0.0f;
  77              		.loc 1 42 3 view .LVU7
  78              	.LBB74:
  79              	.LBI74:
  80              		.file 3 "../eurorack/plaits/dsp/oscillator/sine_oscillator.h"
   1:../eurorack/plaits/dsp/oscillator/sine_oscillator.h **** // Copyright 2016 Emilie Gillet.
   2:../eurorack/plaits/dsp/oscillator/sine_oscillator.h **** //
   3:../eurorack/plaits/dsp/oscillator/sine_oscillator.h **** // Author: Emilie Gillet (emilie.o.gillet@gmail.com)
   4:../eurorack/plaits/dsp/oscillator/sine_oscillator.h **** //
   5:../eurorack/plaits/dsp/oscillator/sine_oscillator.h **** // Permission is hereby granted, free of charge, to any person obtaining a copy
   6:../eurorack/plaits/dsp/oscillator/sine_oscillator.h **** // of this software and associated documentation files (the "Software"), to deal
   7:../eurorack/plaits/dsp/oscillator/sine_oscillator.h **** // in the Software without restriction, including without limitation the rights
   8:../eurorack/plaits/dsp/oscillator/sine_oscillator.h **** // to use, copy, modify, merge, publish, distribute, sublicense, and/or sell
   9:../eurorack/plaits/dsp/oscillator/sine_oscillator.h **** // copies of the Software, and to permit persons to whom the Software is
  10:../eurorack/plaits/dsp/oscillator/sine_oscillator.h **** // furnished to do so, subject to the following conditions:
  11:../eurorack/plaits/dsp/oscillator/sine_oscillator.h **** // 
  12:../eurorack/plaits/dsp/oscillator/sine_oscillator.h **** // The above copyright notice and this permission notice shall be included in
  13:../eurorack/plaits/dsp/oscillator/sine_oscillator.h **** // all copies or substantial portions of the Software.
  14:../eurorack/plaits/dsp/oscillator/sine_oscillator.h **** // 
  15:../eurorack/plaits/dsp/oscillator/sine_oscillator.h **** // THE SOFTWARE IS PROVIDED "AS IS", WITHOUT WARRANTY OF ANY KIND, EXPRESS OR
  16:../eurorack/plaits/dsp/oscillator/sine_oscillator.h **** // IMPLIED, INCLUDING BUT NOT LIMITED TO THE WARRANTIES OF MERCHANTABILITY,
  17:../eurorack/plaits/dsp/oscillator/sine_oscillator.h **** // FITNESS FOR A PARTICULAR PURPOSE AND NONINFRINGEMENT. IN NO EVENT SHALL THE
  18:../eurorack/plaits/dsp/oscillator/sine_oscillator.h **** // AUTHORS OR COPYRIGHT HOLDERS BE LIABLE FOR ANY CLAIM, DAMAGES OR OTHER
  19:../eurorack/plaits/dsp/oscillator/sine_oscillator.h **** // LIABILITY, WHETHER IN AN ACTION OF CONTRACT, TORT OR OTHERWISE, ARISING FROM,
  20:../eurorack/plaits/dsp/oscillator/sine_oscillator.h **** // OUT OF OR IN CONNECTION WITH THE SOFTWARE OR THE USE OR OTHER DEALINGS IN
  21:../eurorack/plaits/dsp/oscillator/sine_oscillator.h **** // THE SOFTWARE.
  22:../eurorack/plaits/dsp/oscillator/sine_oscillator.h **** // 
  23:../eurorack/plaits/dsp/oscillator/sine_oscillator.h **** // See http://creativecommons.org/licenses/MIT/ for more information.
  24:../eurorack/plaits/dsp/oscillator/sine_oscillator.h **** //
  25:../eurorack/plaits/dsp/oscillator/sine_oscillator.h **** // -----------------------------------------------------------------------------
  26:../eurorack/plaits/dsp/oscillator/sine_oscillator.h **** //
  27:../eurorack/plaits/dsp/oscillator/sine_oscillator.h **** // Simple sine oscillator (wavetable) + fast sine oscillator (magic circle).
  28:../eurorack/plaits/dsp/oscillator/sine_oscillator.h **** //
  29:../eurorack/plaits/dsp/oscillator/sine_oscillator.h **** // The fast implementation might glitch a bit under heavy modulations of the
  30:../eurorack/plaits/dsp/oscillator/sine_oscillator.h **** // frequency.
  31:../eurorack/plaits/dsp/oscillator/sine_oscillator.h **** 
  32:../eurorack/plaits/dsp/oscillator/sine_oscillator.h **** #ifndef PLAITS_DSP_OSCILLATOR_SINE_OSCILLATOR_H_
  33:../eurorack/plaits/dsp/oscillator/sine_oscillator.h **** #define PLAITS_DSP_OSCILLATOR_SINE_OSCILLATOR_H_
  34:../eurorack/plaits/dsp/oscillator/sine_oscillator.h **** 
  35:../eurorack/plaits/dsp/oscillator/sine_oscillator.h **** #include "stmlib/dsp/dsp.h"
  36:../eurorack/plaits/dsp/oscillator/sine_oscillator.h **** #include "stmlib/dsp/parameter_interpolator.h"
  37:../eurorack/plaits/dsp/oscillator/sine_oscillator.h **** #include "stmlib/dsp/rsqrt.h"
  38:../eurorack/plaits/dsp/oscillator/sine_oscillator.h **** 
  39:../eurorack/plaits/dsp/oscillator/sine_oscillator.h **** #include "plaits/resources.h"
  40:../eurorack/plaits/dsp/oscillator/sine_oscillator.h **** 
  41:../eurorack/plaits/dsp/oscillator/sine_oscillator.h **** namespace plaits {
  42:../eurorack/plaits/dsp/oscillator/sine_oscillator.h ****   
  43:../eurorack/plaits/dsp/oscillator/sine_oscillator.h **** const float kSineLUTSize = 512.0f;
  44:../eurorack/plaits/dsp/oscillator/sine_oscillator.h **** const size_t kSineLUTQuadrature = 128;
  45:../eurorack/plaits/dsp/oscillator/sine_oscillator.h **** const size_t kSineLUTBits = 9;
  46:../eurorack/plaits/dsp/oscillator/sine_oscillator.h **** 
  47:../eurorack/plaits/dsp/oscillator/sine_oscillator.h **** // Safe for phase >= 0.0f, will wrap.
ARM GAS  /var/folders/y7/g6pkzsp12sx54x3s3mvyn15r0000gn/T//ccpDeTAb.s 			page 5


  48:../eurorack/plaits/dsp/oscillator/sine_oscillator.h **** inline float Sine(float phase) {
  49:../eurorack/plaits/dsp/oscillator/sine_oscillator.h ****   return stmlib::InterpolateWrap(lut_sine, phase, kSineLUTSize);
  50:../eurorack/plaits/dsp/oscillator/sine_oscillator.h **** }
  51:../eurorack/plaits/dsp/oscillator/sine_oscillator.h **** 
  52:../eurorack/plaits/dsp/oscillator/sine_oscillator.h **** // Potentially unsafe, if phase >= 1.25.
  53:../eurorack/plaits/dsp/oscillator/sine_oscillator.h **** inline float SineNoWrap(float phase) {
  54:../eurorack/plaits/dsp/oscillator/sine_oscillator.h ****   return stmlib::Interpolate(lut_sine, phase, kSineLUTSize);
  55:../eurorack/plaits/dsp/oscillator/sine_oscillator.h **** }
  56:../eurorack/plaits/dsp/oscillator/sine_oscillator.h **** 
  57:../eurorack/plaits/dsp/oscillator/sine_oscillator.h **** // With positive of negative phase modulation up to an index of 32.
  58:../eurorack/plaits/dsp/oscillator/sine_oscillator.h **** inline float SinePM(uint32_t phase, float pm) {
  59:../eurorack/plaits/dsp/oscillator/sine_oscillator.h ****   const float max_uint32 = 4294967296.0f;
  60:../eurorack/plaits/dsp/oscillator/sine_oscillator.h ****   const int max_index = 32;
  61:../eurorack/plaits/dsp/oscillator/sine_oscillator.h ****   const float offset = float(max_index);
  62:../eurorack/plaits/dsp/oscillator/sine_oscillator.h ****   const float scale = max_uint32 / float(max_index * 2);
  63:../eurorack/plaits/dsp/oscillator/sine_oscillator.h **** 
  64:../eurorack/plaits/dsp/oscillator/sine_oscillator.h ****   phase += static_cast<uint32_t>((pm + offset) * scale) * max_index * 2;
  65:../eurorack/plaits/dsp/oscillator/sine_oscillator.h ****   
  66:../eurorack/plaits/dsp/oscillator/sine_oscillator.h ****   uint32_t integral = phase >> (32 - kSineLUTBits);
  67:../eurorack/plaits/dsp/oscillator/sine_oscillator.h ****   float fractional = static_cast<float>(phase << kSineLUTBits) / float(max_uint32);
  68:../eurorack/plaits/dsp/oscillator/sine_oscillator.h ****   float a = lut_sine[integral];
  69:../eurorack/plaits/dsp/oscillator/sine_oscillator.h ****   float b = lut_sine[integral + 1];
  70:../eurorack/plaits/dsp/oscillator/sine_oscillator.h ****   return a + (b - a) * fractional;
  71:../eurorack/plaits/dsp/oscillator/sine_oscillator.h **** }
  72:../eurorack/plaits/dsp/oscillator/sine_oscillator.h **** 
  73:../eurorack/plaits/dsp/oscillator/sine_oscillator.h **** // Direct lookup without interpolation.
  74:../eurorack/plaits/dsp/oscillator/sine_oscillator.h **** inline float SineRaw(uint32_t phase) {
  75:../eurorack/plaits/dsp/oscillator/sine_oscillator.h ****   return lut_sine[phase >> (32 - kSineLUTBits)];
  76:../eurorack/plaits/dsp/oscillator/sine_oscillator.h **** }
  77:../eurorack/plaits/dsp/oscillator/sine_oscillator.h **** 
  78:../eurorack/plaits/dsp/oscillator/sine_oscillator.h **** class SineOscillator {
  79:../eurorack/plaits/dsp/oscillator/sine_oscillator.h ****  public:
  80:../eurorack/plaits/dsp/oscillator/sine_oscillator.h ****   SineOscillator() { }
  81:../eurorack/plaits/dsp/oscillator/sine_oscillator.h ****   ~SineOscillator() { }
  82:../eurorack/plaits/dsp/oscillator/sine_oscillator.h **** 
  83:../eurorack/plaits/dsp/oscillator/sine_oscillator.h ****   void Init() {
  84:../eurorack/plaits/dsp/oscillator/sine_oscillator.h ****     phase_ = 0.0f;
  85:../eurorack/plaits/dsp/oscillator/sine_oscillator.h ****     frequency_ = 0.0f;
  86:../eurorack/plaits/dsp/oscillator/sine_oscillator.h ****     amplitude_ = 0.0f;
  87:../eurorack/plaits/dsp/oscillator/sine_oscillator.h ****   }
  88:../eurorack/plaits/dsp/oscillator/sine_oscillator.h ****   
  89:../eurorack/plaits/dsp/oscillator/sine_oscillator.h ****   inline float Next(float frequency) {
  90:../eurorack/plaits/dsp/oscillator/sine_oscillator.h ****     if (frequency >= 0.5f) {
  91:../eurorack/plaits/dsp/oscillator/sine_oscillator.h ****       frequency = 0.5f;
  92:../eurorack/plaits/dsp/oscillator/sine_oscillator.h ****     }
  93:../eurorack/plaits/dsp/oscillator/sine_oscillator.h ****     
  94:../eurorack/plaits/dsp/oscillator/sine_oscillator.h ****     phase_ += frequency;
  95:../eurorack/plaits/dsp/oscillator/sine_oscillator.h ****     if (phase_ >= 1.0f) {
  96:../eurorack/plaits/dsp/oscillator/sine_oscillator.h ****       phase_ -= 1.0f;
  97:../eurorack/plaits/dsp/oscillator/sine_oscillator.h ****     }
  98:../eurorack/plaits/dsp/oscillator/sine_oscillator.h ****     
  99:../eurorack/plaits/dsp/oscillator/sine_oscillator.h ****     return SineNoWrap(phase_);
 100:../eurorack/plaits/dsp/oscillator/sine_oscillator.h ****   }
 101:../eurorack/plaits/dsp/oscillator/sine_oscillator.h ****   
 102:../eurorack/plaits/dsp/oscillator/sine_oscillator.h ****   inline void Next(float frequency, float amplitude, float* sin, float* cos) {
 103:../eurorack/plaits/dsp/oscillator/sine_oscillator.h ****     if (frequency >= 0.5f) {
 104:../eurorack/plaits/dsp/oscillator/sine_oscillator.h ****       frequency = 0.5f;
ARM GAS  /var/folders/y7/g6pkzsp12sx54x3s3mvyn15r0000gn/T//ccpDeTAb.s 			page 6


 105:../eurorack/plaits/dsp/oscillator/sine_oscillator.h ****     }
 106:../eurorack/plaits/dsp/oscillator/sine_oscillator.h ****     
 107:../eurorack/plaits/dsp/oscillator/sine_oscillator.h ****     phase_ += frequency;
 108:../eurorack/plaits/dsp/oscillator/sine_oscillator.h ****     if (phase_ >= 1.0f) {
 109:../eurorack/plaits/dsp/oscillator/sine_oscillator.h ****       phase_ -= 1.0f;
 110:../eurorack/plaits/dsp/oscillator/sine_oscillator.h ****     }
 111:../eurorack/plaits/dsp/oscillator/sine_oscillator.h ****     
 112:../eurorack/plaits/dsp/oscillator/sine_oscillator.h ****     *sin = amplitude * SineNoWrap(phase_);
 113:../eurorack/plaits/dsp/oscillator/sine_oscillator.h ****     *cos = amplitude * SineNoWrap(phase_ + 0.25f);
 114:../eurorack/plaits/dsp/oscillator/sine_oscillator.h ****   }
 115:../eurorack/plaits/dsp/oscillator/sine_oscillator.h ****   
 116:../eurorack/plaits/dsp/oscillator/sine_oscillator.h ****   void Render(float frequency, float amplitude, float* out, size_t size) {
 117:../eurorack/plaits/dsp/oscillator/sine_oscillator.h ****     RenderInternal<true>(frequency, amplitude, out, size);
 118:../eurorack/plaits/dsp/oscillator/sine_oscillator.h ****   }
 119:../eurorack/plaits/dsp/oscillator/sine_oscillator.h ****   
 120:../eurorack/plaits/dsp/oscillator/sine_oscillator.h ****   void Render(float frequency, float* out, size_t size) {
 121:../eurorack/plaits/dsp/oscillator/sine_oscillator.h ****     RenderInternal<false>(frequency, 1.0f, out, size);
 122:../eurorack/plaits/dsp/oscillator/sine_oscillator.h ****   }
 123:../eurorack/plaits/dsp/oscillator/sine_oscillator.h **** 
 124:../eurorack/plaits/dsp/oscillator/sine_oscillator.h ****  private:
 125:../eurorack/plaits/dsp/oscillator/sine_oscillator.h ****   template<bool additive>
 126:../eurorack/plaits/dsp/oscillator/sine_oscillator.h ****   void RenderInternal(
 127:../eurorack/plaits/dsp/oscillator/sine_oscillator.h ****       float frequency, float amplitude, float* out, size_t size) {
 128:../eurorack/plaits/dsp/oscillator/sine_oscillator.h ****     if (frequency >= 0.5f) {
 129:../eurorack/plaits/dsp/oscillator/sine_oscillator.h ****       frequency = 0.5f;
 130:../eurorack/plaits/dsp/oscillator/sine_oscillator.h ****     }
 131:../eurorack/plaits/dsp/oscillator/sine_oscillator.h ****     stmlib::ParameterInterpolator fm(&frequency_, frequency, size);
 132:../eurorack/plaits/dsp/oscillator/sine_oscillator.h ****     stmlib::ParameterInterpolator am(&amplitude_, amplitude, size);
 133:../eurorack/plaits/dsp/oscillator/sine_oscillator.h **** 
 134:../eurorack/plaits/dsp/oscillator/sine_oscillator.h ****     while (size--) {
 135:../eurorack/plaits/dsp/oscillator/sine_oscillator.h ****       phase_ += fm.Next();
 136:../eurorack/plaits/dsp/oscillator/sine_oscillator.h ****       if (phase_ >= 1.0f) {
 137:../eurorack/plaits/dsp/oscillator/sine_oscillator.h ****         phase_ -= 1.0f;
 138:../eurorack/plaits/dsp/oscillator/sine_oscillator.h ****       }
 139:../eurorack/plaits/dsp/oscillator/sine_oscillator.h ****       float s = SineNoWrap(phase_);
 140:../eurorack/plaits/dsp/oscillator/sine_oscillator.h ****       if (additive) {
 141:../eurorack/plaits/dsp/oscillator/sine_oscillator.h ****         *out++ += am.Next() * s;
 142:../eurorack/plaits/dsp/oscillator/sine_oscillator.h ****       } else {
 143:../eurorack/plaits/dsp/oscillator/sine_oscillator.h ****         *out++ = s;
 144:../eurorack/plaits/dsp/oscillator/sine_oscillator.h ****       }
 145:../eurorack/plaits/dsp/oscillator/sine_oscillator.h ****     }
 146:../eurorack/plaits/dsp/oscillator/sine_oscillator.h ****   }
 147:../eurorack/plaits/dsp/oscillator/sine_oscillator.h ****   
 148:../eurorack/plaits/dsp/oscillator/sine_oscillator.h ****   // Oscillator state.
 149:../eurorack/plaits/dsp/oscillator/sine_oscillator.h ****   float phase_;
 150:../eurorack/plaits/dsp/oscillator/sine_oscillator.h **** 
 151:../eurorack/plaits/dsp/oscillator/sine_oscillator.h ****   // For interpolation of parameters.
 152:../eurorack/plaits/dsp/oscillator/sine_oscillator.h ****   float frequency_;
 153:../eurorack/plaits/dsp/oscillator/sine_oscillator.h ****   float amplitude_;
 154:../eurorack/plaits/dsp/oscillator/sine_oscillator.h ****   
 155:../eurorack/plaits/dsp/oscillator/sine_oscillator.h ****   DISALLOW_COPY_AND_ASSIGN(SineOscillator);
 156:../eurorack/plaits/dsp/oscillator/sine_oscillator.h **** };
 157:../eurorack/plaits/dsp/oscillator/sine_oscillator.h **** 
 158:../eurorack/plaits/dsp/oscillator/sine_oscillator.h **** class FastSineOscillator {
 159:../eurorack/plaits/dsp/oscillator/sine_oscillator.h ****  public:
 160:../eurorack/plaits/dsp/oscillator/sine_oscillator.h ****   FastSineOscillator() { }
 161:../eurorack/plaits/dsp/oscillator/sine_oscillator.h ****   ~FastSineOscillator() { }
ARM GAS  /var/folders/y7/g6pkzsp12sx54x3s3mvyn15r0000gn/T//ccpDeTAb.s 			page 7


 162:../eurorack/plaits/dsp/oscillator/sine_oscillator.h **** 
 163:../eurorack/plaits/dsp/oscillator/sine_oscillator.h ****   void Init() {
  81              		.loc 3 163 8 view .LVU8
  82              	.LBB75:
 164:../eurorack/plaits/dsp/oscillator/sine_oscillator.h ****     x_ = 1.0f;
  83              		.loc 3 164 5 view .LVU9
  84              		.loc 3 164 8 is_stmt 0 view .LVU10
  85 0000 4FF07E53 		mov	r3, #1065353216
  86              	.LBE75:
  87              	.LBE74:
  41:../eurorack/plaits/dsp/engine2/wave_terrain_engine.cc ****   path_.Init();
  88              		.loc 1 41 58 view .LVU11
  89 0004 10B5     		push	{r4, lr}
  90              		.cfi_def_cfa_offset 8
  91              		.cfi_offset 4, -8
  92              		.cfi_offset 14, -4
  93              	.LBB77:
  94              	.LBB76:
  95              		.loc 3 164 8 view .LVU12
  96 0006 0361     		str	r3, [r0, #16]	@ float
 165:../eurorack/plaits/dsp/oscillator/sine_oscillator.h ****     y_ = 0.0f;
  97              		.loc 3 165 5 is_stmt 1 view .LVU13
  98              		.loc 3 165 8 is_stmt 0 view .LVU14
  99 0008 0023     		movs	r3, #0
 100 000a 4361     		str	r3, [r0, #20]	@ float
 166:../eurorack/plaits/dsp/oscillator/sine_oscillator.h ****     epsilon_ = 0.0f;
 101              		.loc 3 166 5 is_stmt 1 view .LVU15
 102              		.loc 3 166 14 is_stmt 0 view .LVU16
 103 000c 8361     		str	r3, [r0, #24]	@ float
 167:../eurorack/plaits/dsp/oscillator/sine_oscillator.h ****     amplitude_ = 0.0f;
 104              		.loc 3 167 5 is_stmt 1 view .LVU17
 105              		.loc 3 167 16 is_stmt 0 view .LVU18
 106 000e C361     		str	r3, [r0, #28]	@ float
 107              	.LVL3:
 108              		.loc 3 167 16 view .LVU19
 109              	.LBE76:
 110              	.LBE77:
  43:../eurorack/plaits/dsp/engine2/wave_terrain_engine.cc ****   terrain_ = 0.0f;
 111              		.loc 1 43 3 is_stmt 1 view .LVU20
  43:../eurorack/plaits/dsp/engine2/wave_terrain_engine.cc ****   terrain_ = 0.0f;
 112              		.loc 1 43 11 is_stmt 0 view .LVU21
 113 0010 0362     		str	r3, [r0, #32]	@ float
  44:../eurorack/plaits/dsp/engine2/wave_terrain_engine.cc ****   temp_buffer_ = allocator->Allocate<float>(kMaxBlockSize * 4);
 114              		.loc 1 44 3 is_stmt 1 view .LVU22
  44:../eurorack/plaits/dsp/engine2/wave_terrain_engine.cc ****   temp_buffer_ = allocator->Allocate<float>(kMaxBlockSize * 4);
 115              		.loc 1 44 12 is_stmt 0 view .LVU23
 116 0012 4362     		str	r3, [r0, #36]	@ float
  45:../eurorack/plaits/dsp/engine2/wave_terrain_engine.cc ****   user_terrain_ = NULL;
 117              		.loc 1 45 3 is_stmt 1 view .LVU24
 118              	.LVL4:
 119              	.LBB78:
 120              	.LBI78:
 121              		.file 4 "../eurorack/stmlib/utils/buffer_allocator.h"
   1:../eurorack/stmlib/utils/buffer_allocator.h **** // Copyright 2014 Emilie Gillet.
   2:../eurorack/stmlib/utils/buffer_allocator.h **** //
   3:../eurorack/stmlib/utils/buffer_allocator.h **** // Author: Emilie Gillet (emilie.o.gillet@gmail.com)
   4:../eurorack/stmlib/utils/buffer_allocator.h **** //
ARM GAS  /var/folders/y7/g6pkzsp12sx54x3s3mvyn15r0000gn/T//ccpDeTAb.s 			page 8


   5:../eurorack/stmlib/utils/buffer_allocator.h **** // Permission is hereby granted, free of charge, to any person obtaining a copy
   6:../eurorack/stmlib/utils/buffer_allocator.h **** // of this software and associated documentation files (the "Software"), to deal
   7:../eurorack/stmlib/utils/buffer_allocator.h **** // in the Software without restriction, including without limitation the rights
   8:../eurorack/stmlib/utils/buffer_allocator.h **** // to use, copy, modify, merge, publish, distribute, sublicense, and/or sell
   9:../eurorack/stmlib/utils/buffer_allocator.h **** // copies of the Software, and to permit persons to whom the Software is
  10:../eurorack/stmlib/utils/buffer_allocator.h **** // furnished to do so, subject to the following conditions:
  11:../eurorack/stmlib/utils/buffer_allocator.h **** // 
  12:../eurorack/stmlib/utils/buffer_allocator.h **** // The above copyright notice and this permission notice shall be included in
  13:../eurorack/stmlib/utils/buffer_allocator.h **** // all copies or substantial portions of the Software.
  14:../eurorack/stmlib/utils/buffer_allocator.h **** // 
  15:../eurorack/stmlib/utils/buffer_allocator.h **** // THE SOFTWARE IS PROVIDED "AS IS", WITHOUT WARRANTY OF ANY KIND, EXPRESS OR
  16:../eurorack/stmlib/utils/buffer_allocator.h **** // IMPLIED, INCLUDING BUT NOT LIMITED TO THE WARRANTIES OF MERCHANTABILITY,
  17:../eurorack/stmlib/utils/buffer_allocator.h **** // FITNESS FOR A PARTICULAR PURPOSE AND NONINFRINGEMENT. IN NO EVENT SHALL THE
  18:../eurorack/stmlib/utils/buffer_allocator.h **** // AUTHORS OR COPYRIGHT HOLDERS BE LIABLE FOR ANY CLAIM, DAMAGES OR OTHER
  19:../eurorack/stmlib/utils/buffer_allocator.h **** // LIABILITY, WHETHER IN AN ACTION OF CONTRACT, TORT OR OTHERWISE, ARISING FROM,
  20:../eurorack/stmlib/utils/buffer_allocator.h **** // OUT OF OR IN CONNECTION WITH THE SOFTWARE OR THE USE OR OTHER DEALINGS IN
  21:../eurorack/stmlib/utils/buffer_allocator.h **** // THE SOFTWARE.
  22:../eurorack/stmlib/utils/buffer_allocator.h **** // 
  23:../eurorack/stmlib/utils/buffer_allocator.h **** // See http://creativecommons.org/licenses/MIT/ for more information.
  24:../eurorack/stmlib/utils/buffer_allocator.h **** //
  25:../eurorack/stmlib/utils/buffer_allocator.h **** // -----------------------------------------------------------------------------
  26:../eurorack/stmlib/utils/buffer_allocator.h **** //
  27:../eurorack/stmlib/utils/buffer_allocator.h **** // Stream buffer for serialization.
  28:../eurorack/stmlib/utils/buffer_allocator.h **** 
  29:../eurorack/stmlib/utils/buffer_allocator.h **** #ifndef STMLIB_UTILS_BUFFER_ALLOCATOR_H_
  30:../eurorack/stmlib/utils/buffer_allocator.h **** #define STMLIB_UTILS_BUFFER_ALLOCATOR_H_
  31:../eurorack/stmlib/utils/buffer_allocator.h **** 
  32:../eurorack/stmlib/utils/buffer_allocator.h **** #include "stmlib/stmlib.h"
  33:../eurorack/stmlib/utils/buffer_allocator.h **** 
  34:../eurorack/stmlib/utils/buffer_allocator.h **** namespace stmlib {
  35:../eurorack/stmlib/utils/buffer_allocator.h **** 
  36:../eurorack/stmlib/utils/buffer_allocator.h **** class BufferAllocator {
  37:../eurorack/stmlib/utils/buffer_allocator.h ****  public:
  38:../eurorack/stmlib/utils/buffer_allocator.h ****   BufferAllocator() { }
  39:../eurorack/stmlib/utils/buffer_allocator.h ****   ~BufferAllocator() { }
  40:../eurorack/stmlib/utils/buffer_allocator.h ****   
  41:../eurorack/stmlib/utils/buffer_allocator.h ****   BufferAllocator(void* buffer, size_t size) {
  42:../eurorack/stmlib/utils/buffer_allocator.h ****     Init(buffer, size);
  43:../eurorack/stmlib/utils/buffer_allocator.h ****   }
  44:../eurorack/stmlib/utils/buffer_allocator.h ****   
  45:../eurorack/stmlib/utils/buffer_allocator.h ****   inline void Init(void* buffer, size_t size) {
  46:../eurorack/stmlib/utils/buffer_allocator.h ****     buffer_ = static_cast<uint8_t*>(buffer);
  47:../eurorack/stmlib/utils/buffer_allocator.h ****     size_ = size;
  48:../eurorack/stmlib/utils/buffer_allocator.h ****     Free();
  49:../eurorack/stmlib/utils/buffer_allocator.h ****   }
  50:../eurorack/stmlib/utils/buffer_allocator.h **** 
  51:../eurorack/stmlib/utils/buffer_allocator.h ****   template<typename T>
  52:../eurorack/stmlib/utils/buffer_allocator.h ****   inline T* Allocate() {
  53:../eurorack/stmlib/utils/buffer_allocator.h ****     return Allocate<T>(1);
  54:../eurorack/stmlib/utils/buffer_allocator.h ****   }
  55:../eurorack/stmlib/utils/buffer_allocator.h ****   
  56:../eurorack/stmlib/utils/buffer_allocator.h ****   template<typename T>
  57:../eurorack/stmlib/utils/buffer_allocator.h ****   inline T* Allocate(size_t size) {
 122              		.loc 4 57 13 view .LVU25
 123              	.LBB79:
 124              	.LBB80:
  58:../eurorack/stmlib/utils/buffer_allocator.h ****     size_t size_bytes = sizeof(T) * size;
ARM GAS  /var/folders/y7/g6pkzsp12sx54x3s3mvyn15r0000gn/T//ccpDeTAb.s 			page 9


  59:../eurorack/stmlib/utils/buffer_allocator.h ****     if (size_bytes <= free_) {
 125              		.loc 4 59 23 is_stmt 0 view .LVU26
 126 0014 8B68     		ldr	r3, [r1, #8]
 127              		.loc 4 59 5 view .LVU27
 128 0016 B3F5C07F 		cmp	r3, #384
 129              	.LBB81:
  60:../eurorack/stmlib/utils/buffer_allocator.h ****       T* start = static_cast<T*>(static_cast<void*>(next_));
 130              		.loc 4 60 10 view .LVU28
 131 001a 25BF     		ittet	cs
 132 001c 0A68     		ldrcs	r2, [r1]
 133              	.LVL5:
  61:../eurorack/stmlib/utils/buffer_allocator.h ****       next_ += size_bytes;
  62:../eurorack/stmlib/utils/buffer_allocator.h ****       free_ -= size_bytes;
 134              		.loc 4 62 13 view .LVU29
 135 001e A3F5C073 		subcs	r3, r3, #384
 136              	.LBE81:
  63:../eurorack/stmlib/utils/buffer_allocator.h ****       return start;
  64:../eurorack/stmlib/utils/buffer_allocator.h ****     } else {
  65:../eurorack/stmlib/utils/buffer_allocator.h ****       return NULL;
 137              		.loc 4 65 14 view .LVU30
 138 0022 0022     		movcc	r2, #0
 139              	.LVL6:
 140              	.LBB82:
  62:../eurorack/stmlib/utils/buffer_allocator.h ****       return start;
 141              		.loc 4 62 13 view .LVU31
 142 0024 8B60     		strcs	r3, [r1, #8]
  61:../eurorack/stmlib/utils/buffer_allocator.h ****       next_ += size_bytes;
 143              		.loc 4 61 13 view .LVU32
 144 0026 28BF     		it	cs
 145 0028 02F5C074 		addcs	r4, r2, #384
 146              	.LBE82:
 147              	.LBE80:
 148              	.LBE79:
 149              	.LBE78:
  46:../eurorack/plaits/dsp/engine2/wave_terrain_engine.cc **** }
 150              		.loc 1 46 17 view .LVU33
 151 002c 4FF00003 		mov	r3, #0
 152              	.LBB86:
 153              	.LBB85:
 154              	.LBB84:
 155              	.LBB83:
  61:../eurorack/stmlib/utils/buffer_allocator.h ****       free_ -= size_bytes;
 156              		.loc 4 61 13 view .LVU34
 157 0030 28BF     		it	cs
 158 0032 0C60     		strcs	r4, [r1]
 159              	.LBE83:
 160              	.LBE84:
 161              	.LBE85:
 162              	.LBE86:
  45:../eurorack/plaits/dsp/engine2/wave_terrain_engine.cc ****   user_terrain_ = NULL;
 163              		.loc 1 45 16 discriminator 1 view .LVU35
 164 0034 8262     		str	r2, [r0, #40]
  46:../eurorack/plaits/dsp/engine2/wave_terrain_engine.cc **** }
 165              		.loc 1 46 3 is_stmt 1 view .LVU36
  46:../eurorack/plaits/dsp/engine2/wave_terrain_engine.cc **** }
 166              		.loc 1 46 17 is_stmt 0 view .LVU37
 167 0036 C362     		str	r3, [r0, #44]
ARM GAS  /var/folders/y7/g6pkzsp12sx54x3s3mvyn15r0000gn/T//ccpDeTAb.s 			page 10


  47:../eurorack/plaits/dsp/engine2/wave_terrain_engine.cc **** 
 168              		.loc 1 47 1 view .LVU38
 169 0038 10BD     		pop	{r4, pc}
 170              		.cfi_endproc
 171              	.LFE1327:
 173              		.section	.text._ZN6plaits4SineEf,"axG",%progbits,_ZN6plaits4SineEf,comdat
 174              		.align	1
 175              		.weak	_ZN6plaits4SineEf
 176              		.syntax unified
 177              		.thumb
 178              		.thumb_func
 180              	_ZN6plaits4SineEf:
 181              	.LVL7:
 182              	.LFB624:
  48:../eurorack/plaits/dsp/oscillator/sine_oscillator.h ****   return stmlib::InterpolateWrap(lut_sine, phase, kSineLUTSize);
 183              		.loc 3 48 32 is_stmt 1 view -0
 184              		.cfi_startproc
 185              		@ args = 0, pretend = 0, frame = 0
 186              		@ frame_needed = 0, uses_anonymous_args = 0
 187              		@ link register save eliminated.
  49:../eurorack/plaits/dsp/oscillator/sine_oscillator.h **** }
 188              		.loc 3 49 3 view .LVU40
 189              	.LBB89:
 190              	.LBI89:
 191              		.file 5 "../eurorack/stmlib/dsp/dsp.h"
   1:../eurorack/stmlib/dsp/dsp.h **** // Copyright 2012 Emilie Gillet.
   2:../eurorack/stmlib/dsp/dsp.h **** //
   3:../eurorack/stmlib/dsp/dsp.h **** // Author: Emilie Gillet (emilie.o.gillet@gmail.com)
   4:../eurorack/stmlib/dsp/dsp.h **** //
   5:../eurorack/stmlib/dsp/dsp.h **** // Permission is hereby granted, free of charge, to any person obtaining a copy
   6:../eurorack/stmlib/dsp/dsp.h **** // of this software and associated documentation files (the "Software"), to deal
   7:../eurorack/stmlib/dsp/dsp.h **** // in the Software without restriction, including without limitation the rights
   8:../eurorack/stmlib/dsp/dsp.h **** // to use, copy, modify, merge, publish, distribute, sublicense, and/or sell
   9:../eurorack/stmlib/dsp/dsp.h **** // copies of the Software, and to permit persons to whom the Software is
  10:../eurorack/stmlib/dsp/dsp.h **** // furnished to do so, subject to the following conditions:
  11:../eurorack/stmlib/dsp/dsp.h **** // 
  12:../eurorack/stmlib/dsp/dsp.h **** // The above copyright notice and this permission notice shall be included in
  13:../eurorack/stmlib/dsp/dsp.h **** // all copies or substantial portions of the Software.
  14:../eurorack/stmlib/dsp/dsp.h **** // 
  15:../eurorack/stmlib/dsp/dsp.h **** // THE SOFTWARE IS PROVIDED "AS IS", WITHOUT WARRANTY OF ANY KIND, EXPRESS OR
  16:../eurorack/stmlib/dsp/dsp.h **** // IMPLIED, INCLUDING BUT NOT LIMITED TO THE WARRANTIES OF MERCHANTABILITY,
  17:../eurorack/stmlib/dsp/dsp.h **** // FITNESS FOR A PARTICULAR PURPOSE AND NONINFRINGEMENT. IN NO EVENT SHALL THE
  18:../eurorack/stmlib/dsp/dsp.h **** // AUTHORS OR COPYRIGHT HOLDERS BE LIABLE FOR ANY CLAIM, DAMAGES OR OTHER
  19:../eurorack/stmlib/dsp/dsp.h **** // LIABILITY, WHETHER IN AN ACTION OF CONTRACT, TORT OR OTHERWISE, ARISING FROM,
  20:../eurorack/stmlib/dsp/dsp.h **** // OUT OF OR IN CONNECTION WITH THE SOFTWARE OR THE USE OR OTHER DEALINGS IN
  21:../eurorack/stmlib/dsp/dsp.h **** // THE SOFTWARE.
  22:../eurorack/stmlib/dsp/dsp.h **** // 
  23:../eurorack/stmlib/dsp/dsp.h **** // See http://creativecommons.org/licenses/MIT/ for more information.
  24:../eurorack/stmlib/dsp/dsp.h **** //
  25:../eurorack/stmlib/dsp/dsp.h **** // -----------------------------------------------------------------------------
  26:../eurorack/stmlib/dsp/dsp.h **** //
  27:../eurorack/stmlib/dsp/dsp.h **** // DSP utility routines.
  28:../eurorack/stmlib/dsp/dsp.h **** 
  29:../eurorack/stmlib/dsp/dsp.h **** #ifndef STMLIB_UTILS_DSP_DSP_H_
  30:../eurorack/stmlib/dsp/dsp.h **** #define STMLIB_UTILS_DSP_DSP_H_
  31:../eurorack/stmlib/dsp/dsp.h **** 
  32:../eurorack/stmlib/dsp/dsp.h **** #include "stmlib/stmlib.h"
ARM GAS  /var/folders/y7/g6pkzsp12sx54x3s3mvyn15r0000gn/T//ccpDeTAb.s 			page 11


  33:../eurorack/stmlib/dsp/dsp.h **** 
  34:../eurorack/stmlib/dsp/dsp.h **** #include <cmath>
  35:../eurorack/stmlib/dsp/dsp.h **** #include <math.h>
  36:../eurorack/stmlib/dsp/dsp.h **** 
  37:../eurorack/stmlib/dsp/dsp.h **** namespace stmlib {
  38:../eurorack/stmlib/dsp/dsp.h **** 
  39:../eurorack/stmlib/dsp/dsp.h **** #define MAKE_INTEGRAL_FRACTIONAL(x) \
  40:../eurorack/stmlib/dsp/dsp.h ****   int32_t x ## _integral = static_cast<int32_t>(x); \
  41:../eurorack/stmlib/dsp/dsp.h ****   float x ## _fractional = x - static_cast<float>(x ## _integral);
  42:../eurorack/stmlib/dsp/dsp.h **** 
  43:../eurorack/stmlib/dsp/dsp.h **** inline float Interpolate(const float* table, float index, float size) {
  44:../eurorack/stmlib/dsp/dsp.h ****   index *= size;
  45:../eurorack/stmlib/dsp/dsp.h ****   MAKE_INTEGRAL_FRACTIONAL(index)
  46:../eurorack/stmlib/dsp/dsp.h ****   float a = table[index_integral];
  47:../eurorack/stmlib/dsp/dsp.h ****   float b = table[index_integral + 1];
  48:../eurorack/stmlib/dsp/dsp.h ****   return a + (b - a) * index_fractional;
  49:../eurorack/stmlib/dsp/dsp.h **** }
  50:../eurorack/stmlib/dsp/dsp.h **** 
  51:../eurorack/stmlib/dsp/dsp.h **** 
  52:../eurorack/stmlib/dsp/dsp.h **** inline float InterpolateHermite(const float* table, float index, float size) {
  53:../eurorack/stmlib/dsp/dsp.h ****   index *= size;
  54:../eurorack/stmlib/dsp/dsp.h ****   MAKE_INTEGRAL_FRACTIONAL(index)
  55:../eurorack/stmlib/dsp/dsp.h ****   const float xm1 = table[index_integral - 1];
  56:../eurorack/stmlib/dsp/dsp.h ****   const float x0 = table[index_integral + 0];
  57:../eurorack/stmlib/dsp/dsp.h ****   const float x1 = table[index_integral + 1];
  58:../eurorack/stmlib/dsp/dsp.h ****   const float x2 = table[index_integral + 2];
  59:../eurorack/stmlib/dsp/dsp.h ****   const float c = (x1 - xm1) * 0.5f;
  60:../eurorack/stmlib/dsp/dsp.h ****   const float v = x0 - x1;
  61:../eurorack/stmlib/dsp/dsp.h ****   const float w = c + v;
  62:../eurorack/stmlib/dsp/dsp.h ****   const float a = w + v + (x2 - x0) * 0.5f;
  63:../eurorack/stmlib/dsp/dsp.h ****   const float b_neg = w + a;
  64:../eurorack/stmlib/dsp/dsp.h ****   const float f = index_fractional;
  65:../eurorack/stmlib/dsp/dsp.h ****   return (((a * f) - b_neg) * f + c) * f + x0;
  66:../eurorack/stmlib/dsp/dsp.h **** }
  67:../eurorack/stmlib/dsp/dsp.h **** 
  68:../eurorack/stmlib/dsp/dsp.h **** inline float InterpolateWrap(const float* table, float index, float size) {
 192              		.loc 5 68 14 view .LVU41
 193              	.LBB90:
  69:../eurorack/stmlib/dsp/dsp.h ****   index -= static_cast<float>(static_cast<int32_t>(index));
 194              		.loc 5 69 3 view .LVU42
 195              		.loc 5 69 31 is_stmt 0 view .LVU43
 196 0000 FDEEC07A 		vcvt.s32.f32	s15, s0
  70:../eurorack/stmlib/dsp/dsp.h ****   index *= size;
  71:../eurorack/stmlib/dsp/dsp.h ****   MAKE_INTEGRAL_FRACTIONAL(index)
  72:../eurorack/stmlib/dsp/dsp.h ****   float a = table[index_integral];
 197              		.loc 5 72 9 view .LVU44
 198 0004 0D4B     		ldr	r3, .L7
  69:../eurorack/stmlib/dsp/dsp.h ****   index -= static_cast<float>(static_cast<int32_t>(index));
 199              		.loc 5 69 12 view .LVU45
 200 0006 F8EEE77A 		vcvt.f32.s32	s15, s15
  69:../eurorack/stmlib/dsp/dsp.h ****   index -= static_cast<float>(static_cast<int32_t>(index));
 201              		.loc 5 69 9 view .LVU46
 202 000a 30EE670A 		vsub.f32	s0, s0, s15
 203              	.LVL8:
  70:../eurorack/stmlib/dsp/dsp.h ****   index *= size;
 204              		.loc 5 70 3 is_stmt 1 view .LVU47
  70:../eurorack/stmlib/dsp/dsp.h ****   index *= size;
ARM GAS  /var/folders/y7/g6pkzsp12sx54x3s3mvyn15r0000gn/T//ccpDeTAb.s 			page 12


 205              		.loc 5 70 9 is_stmt 0 view .LVU48
 206 000e DFED0C7A 		vldr.32	s15, .L7+4
 207 0012 60EE277A 		vmul.f32	s15, s0, s15
 208              	.LVL9:
  71:../eurorack/stmlib/dsp/dsp.h ****   float a = table[index_integral];
 209              		.loc 5 71 3 is_stmt 1 view .LVU49
 210 0016 BDEEE77A 		vcvt.s32.f32	s14, s15
 211 001a 17EE102A 		vmov	r2, s14	@ int
 212              	.LVL10:
  71:../eurorack/stmlib/dsp/dsp.h ****   float a = table[index_integral];
 213              		.loc 5 71 3 view .LVU50
 214              		.loc 5 72 3 view .LVU51
  71:../eurorack/stmlib/dsp/dsp.h ****   float a = table[index_integral];
 215              		.loc 5 71 3 is_stmt 0 view .LVU52
 216 001e B8EEC77A 		vcvt.f32.s32	s14, s14
 217              		.loc 5 72 9 view .LVU53
 218 0022 03EB8201 		add	r1, r3, r2, lsl #2
  71:../eurorack/stmlib/dsp/dsp.h ****   float a = table[index_integral];
 219              		.loc 5 71 3 view .LVU54
 220 0026 77EEC77A 		vsub.f32	s15, s15, s14
 221              	.LVL11:
 222              		.loc 5 72 9 view .LVU55
 223 002a 91ED000A 		vldr.32	s0, [r1]
 224              	.LVL12:
  73:../eurorack/stmlib/dsp/dsp.h ****   float b = table[index_integral + 1];
 225              		.loc 5 73 3 is_stmt 1 view .LVU56
  74:../eurorack/stmlib/dsp/dsp.h ****   return a + (b - a) * index_fractional;
 226              		.loc 5 74 3 view .LVU57
 227              		.loc 5 74 17 is_stmt 0 view .LVU58
 228 002e 91ED017A 		vldr.32	s14, [r1, #4]
 229 0032 37EE407A 		vsub.f32	s14, s14, s0
 230              	.LBE90:
 231              	.LBE89:
  50:../eurorack/plaits/dsp/oscillator/sine_oscillator.h **** 
 232              		.loc 3 50 1 view .LVU59
 233 0036 A7EE870A 		vfma.f32	s0, s15, s14
 234 003a 7047     		bx	lr
 235              	.L8:
 236              		.align	2
 237              	.L7:
 238 003c 00000000 		.word	_ZN6plaits8lut_sineE
 239 0040 00000044 		.word	1140850688
 240              		.cfi_endproc
 241              	.LFE624:
 243              		.section	.text._ZN6plaits25InterpolateIntegratedWaveIsEEfPKT_lf,"axG",%progbits,_ZN6plaits25Interp
 244              		.align	1
 245              		.weak	_ZN6plaits25InterpolateIntegratedWaveIsEEfPKT_lf
 246              		.syntax unified
 247              		.thumb
 248              		.thumb_func
 250              	_ZN6plaits25InterpolateIntegratedWaveIsEEfPKT_lf:
 251              	.LVL13:
 252              	.LFB1344:
  52:../eurorack/plaits/dsp/engine2/wave_terrain_engine.cc **** 
  53:../eurorack/plaits/dsp/engine2/wave_terrain_engine.cc **** inline float TerrainLookup(float x, float y, const int8_t* terrain) {
  54:../eurorack/plaits/dsp/engine2/wave_terrain_engine.cc ****   const int terrain_size = 64;
  55:../eurorack/plaits/dsp/engine2/wave_terrain_engine.cc ****   const float value_scale = 1.0f / 128.0f;
ARM GAS  /var/folders/y7/g6pkzsp12sx54x3s3mvyn15r0000gn/T//ccpDeTAb.s 			page 13


  56:../eurorack/plaits/dsp/engine2/wave_terrain_engine.cc ****   const float coord_scale = float(terrain_size - 2) * 0.5f;
  57:../eurorack/plaits/dsp/engine2/wave_terrain_engine.cc **** 
  58:../eurorack/plaits/dsp/engine2/wave_terrain_engine.cc ****   x = (x + 1.0f) * coord_scale;
  59:../eurorack/plaits/dsp/engine2/wave_terrain_engine.cc ****   y = (y + 1.0f) * coord_scale;
  60:../eurorack/plaits/dsp/engine2/wave_terrain_engine.cc **** 
  61:../eurorack/plaits/dsp/engine2/wave_terrain_engine.cc ****   MAKE_INTEGRAL_FRACTIONAL(x);
  62:../eurorack/plaits/dsp/engine2/wave_terrain_engine.cc ****   MAKE_INTEGRAL_FRACTIONAL(y);
  63:../eurorack/plaits/dsp/engine2/wave_terrain_engine.cc ****   
  64:../eurorack/plaits/dsp/engine2/wave_terrain_engine.cc ****   float xy[2];
  65:../eurorack/plaits/dsp/engine2/wave_terrain_engine.cc ****   
  66:../eurorack/plaits/dsp/engine2/wave_terrain_engine.cc ****   terrain += y_integral * terrain_size;
  67:../eurorack/plaits/dsp/engine2/wave_terrain_engine.cc ****   xy[0] = InterpolateWave(terrain, x_integral, x_fractional);
  68:../eurorack/plaits/dsp/engine2/wave_terrain_engine.cc ****   terrain += terrain_size;
  69:../eurorack/plaits/dsp/engine2/wave_terrain_engine.cc ****   xy[1] = InterpolateWave(terrain, x_integral, x_fractional);
  70:../eurorack/plaits/dsp/engine2/wave_terrain_engine.cc ****   return (xy[0] + (xy[1] - xy[0]) * y_fractional) * value_scale;
  71:../eurorack/plaits/dsp/engine2/wave_terrain_engine.cc **** }
  72:../eurorack/plaits/dsp/engine2/wave_terrain_engine.cc **** 
  73:../eurorack/plaits/dsp/engine2/wave_terrain_engine.cc **** template<typename T>
  74:../eurorack/plaits/dsp/engine2/wave_terrain_engine.cc **** inline float InterpolateIntegratedWave(
 253              		.loc 1 74 14 is_stmt 1 view -0
 254              		.cfi_startproc
 255              		@ args = 0, pretend = 0, frame = 0
 256              		@ frame_needed = 0, uses_anonymous_args = 0
 257              		@ link register save eliminated.
  75:../eurorack/plaits/dsp/engine2/wave_terrain_engine.cc ****     const T* table,
  76:../eurorack/plaits/dsp/engine2/wave_terrain_engine.cc ****     int32_t index_integral,
  77:../eurorack/plaits/dsp/engine2/wave_terrain_engine.cc ****     float index_fractional) {
  78:../eurorack/plaits/dsp/engine2/wave_terrain_engine.cc ****   float a = static_cast<float>(table[index_integral]);
 258              		.loc 1 78 9 is_stmt 0 view .LVU61
 259 0000 30F91130 		ldrsh	r3, [r0, r1, lsl #1]
  79:../eurorack/plaits/dsp/engine2/wave_terrain_engine.cc ****   float b = static_cast<float>(table[index_integral + 1]);
 260              		.loc 1 79 37 view .LVU62
 261 0004 00EB4100 		add	r0, r0, r1, lsl #1
 262              	.LVL14:
  78:../eurorack/plaits/dsp/engine2/wave_terrain_engine.cc ****   float b = static_cast<float>(table[index_integral + 1]);
 263              		.loc 1 78 9 view .LVU63
 264 0008 06EE903A 		vmov	s13, r3	@ int
 265              		.loc 1 79 9 view .LVU64
 266 000c B0F90230 		ldrsh	r3, [r0, #2]
 267 0010 07EE103A 		vmov	s14, r3	@ int
  80:../eurorack/plaits/dsp/engine2/wave_terrain_engine.cc ****   float c = static_cast<float>(table[index_integral + 2]);
 268              		.loc 1 80 9 view .LVU65
 269 0014 B0F90430 		ldrsh	r3, [r0, #4]
  78:../eurorack/plaits/dsp/engine2/wave_terrain_engine.cc ****   float b = static_cast<float>(table[index_integral + 1]);
 270              		.loc 1 78 9 view .LVU66
 271 0018 F8EEE66A 		vcvt.f32.s32	s13, s13
 272              	.LVL15:
 273              		.loc 1 80 9 view .LVU67
 274 001c 07EE903A 		vmov	s15, r3	@ int
  79:../eurorack/plaits/dsp/engine2/wave_terrain_engine.cc ****   float b = static_cast<float>(table[index_integral + 1]);
 275              		.loc 1 79 9 view .LVU68
 276 0020 B8EEC77A 		vcvt.f32.s32	s14, s14
 277              	.LVL16:
 278              		.loc 1 80 9 view .LVU69
 279 0024 F8EEE77A 		vcvt.f32.s32	s15, s15
  81:../eurorack/plaits/dsp/engine2/wave_terrain_engine.cc ****   float t = index_fractional;
  82:../eurorack/plaits/dsp/engine2/wave_terrain_engine.cc ****   return (b - a) + (c - b - b + a) * t;
ARM GAS  /var/folders/y7/g6pkzsp12sx54x3s3mvyn15r0000gn/T//ccpDeTAb.s 			page 14


 280              		.loc 1 82 23 view .LVU70
 281 0028 77EEC77A 		vsub.f32	s15, s15, s14
 282              		.loc 1 82 27 view .LVU71
 283 002c 77EEC77A 		vsub.f32	s15, s15, s14
 284              		.loc 1 82 13 view .LVU72
 285 0030 37EE667A 		vsub.f32	s14, s14, s13
 286              	.LVL17:
 287              		.loc 1 82 31 view .LVU73
 288 0034 77EEA67A 		vadd.f32	s15, s15, s13
  83:../eurorack/plaits/dsp/engine2/wave_terrain_engine.cc **** }
 289              		.loc 1 83 1 view .LVU74
 290 0038 A7EE807A 		vfma.f32	s14, s15, s0
 291 003c B0EE470A 		vmov.f32	s0, s14
 292              	.LVL18:
 293              		.loc 1 83 1 view .LVU75
 294 0040 7047     		bx	lr
 295              		.cfi_endproc
 296              	.LFE1344:
 298              		.section	.text._ZN6plaits17WaveTerrainEngine7TerrainEffi,"axG",%progbits,_ZN6plaits17WaveTerrainEn
 299              		.align	1
 300              		.weak	_ZN6plaits17WaveTerrainEngine7TerrainEffi
 301              		.syntax unified
 302              		.thumb
 303              		.thumb_func
 305              	_ZN6plaits17WaveTerrainEngine7TerrainEffi:
 306              	.LVL19:
 307              	.LFB1333:
  84:../eurorack/plaits/dsp/engine2/wave_terrain_engine.cc **** 
  85:../eurorack/plaits/dsp/engine2/wave_terrain_engine.cc **** // The wavetables are stored in integrated form. Either we directly use the
  86:../eurorack/plaits/dsp/engine2/wave_terrain_engine.cc **** // integrated data (which can have large variations in amplitude), or we
  87:../eurorack/plaits/dsp/engine2/wave_terrain_engine.cc **** // differentiate it on the fly to recover the original waveform. This second
  88:../eurorack/plaits/dsp/engine2/wave_terrain_engine.cc **** // option can be noisier, and it would ideally need a low pass-filter.
  89:../eurorack/plaits/dsp/engine2/wave_terrain_engine.cc **** 
  90:../eurorack/plaits/dsp/engine2/wave_terrain_engine.cc **** #define DIFFERENTIATE_WAVE_DATA
  91:../eurorack/plaits/dsp/engine2/wave_terrain_engine.cc **** 
  92:../eurorack/plaits/dsp/engine2/wave_terrain_engine.cc **** // Lookup from the wavetable data re-interpreted as a terrain. :facepalm:
  93:../eurorack/plaits/dsp/engine2/wave_terrain_engine.cc **** inline float TerrainLookupWT(float x, float y, int bank) {
  94:../eurorack/plaits/dsp/engine2/wave_terrain_engine.cc ****   const int table_size = 128;
  95:../eurorack/plaits/dsp/engine2/wave_terrain_engine.cc ****   const int table_size_full = table_size + 4;  // Includes 4 wrapped samples
  96:../eurorack/plaits/dsp/engine2/wave_terrain_engine.cc ****   const int num_waves = 64;
  97:../eurorack/plaits/dsp/engine2/wave_terrain_engine.cc ****   const float sample = (y + 1.0f) * 0.5f * float(table_size);
  98:../eurorack/plaits/dsp/engine2/wave_terrain_engine.cc ****   const float wt = (x + 1.0f) * 0.5f * float(num_waves - 1);
  99:../eurorack/plaits/dsp/engine2/wave_terrain_engine.cc ****   
 100:../eurorack/plaits/dsp/engine2/wave_terrain_engine.cc ****   const int16_t* waves = wav_integrated_waves + \
 101:../eurorack/plaits/dsp/engine2/wave_terrain_engine.cc ****       bank * num_waves * table_size_full;
 102:../eurorack/plaits/dsp/engine2/wave_terrain_engine.cc ****   
 103:../eurorack/plaits/dsp/engine2/wave_terrain_engine.cc ****   MAKE_INTEGRAL_FRACTIONAL(sample);
 104:../eurorack/plaits/dsp/engine2/wave_terrain_engine.cc ****   MAKE_INTEGRAL_FRACTIONAL(wt);
 105:../eurorack/plaits/dsp/engine2/wave_terrain_engine.cc ****   
 106:../eurorack/plaits/dsp/engine2/wave_terrain_engine.cc ****   float xy[2];
 107:../eurorack/plaits/dsp/engine2/wave_terrain_engine.cc **** #ifdef DIFFERENTIATE_WAVE_DATA
 108:../eurorack/plaits/dsp/engine2/wave_terrain_engine.cc ****   const float value_scale = 1.0f / 1024.0f;
 109:../eurorack/plaits/dsp/engine2/wave_terrain_engine.cc ****   waves += wt_integral * table_size_full;
 110:../eurorack/plaits/dsp/engine2/wave_terrain_engine.cc ****   xy[0] = InterpolateIntegratedWave(waves, sample_integral, sample_fractional);
 111:../eurorack/plaits/dsp/engine2/wave_terrain_engine.cc ****   waves += table_size_full;
 112:../eurorack/plaits/dsp/engine2/wave_terrain_engine.cc ****   xy[1] = InterpolateIntegratedWave(waves, sample_integral, sample_fractional);
 113:../eurorack/plaits/dsp/engine2/wave_terrain_engine.cc **** #else
ARM GAS  /var/folders/y7/g6pkzsp12sx54x3s3mvyn15r0000gn/T//ccpDeTAb.s 			page 15


 114:../eurorack/plaits/dsp/engine2/wave_terrain_engine.cc ****   const float value_scale = 1.0f / 32768.0f;
 115:../eurorack/plaits/dsp/engine2/wave_terrain_engine.cc ****   waves += wt_integral * table_size_full;
 116:../eurorack/plaits/dsp/engine2/wave_terrain_engine.cc ****   xy[0] = InterpolateWave(waves, sample_integral, sample_fractional);
 117:../eurorack/plaits/dsp/engine2/wave_terrain_engine.cc ****   waves += table_size_full;
 118:../eurorack/plaits/dsp/engine2/wave_terrain_engine.cc ****   xy[1] = InterpolateWave(waves, sample_integral, sample_fractional);
 119:../eurorack/plaits/dsp/engine2/wave_terrain_engine.cc **** #endif  // DIFFERENTIATE_WAVE_DATA
 120:../eurorack/plaits/dsp/engine2/wave_terrain_engine.cc ****   return (xy[0] + (xy[1] - xy[0]) * wt_fractional) * value_scale;
 121:../eurorack/plaits/dsp/engine2/wave_terrain_engine.cc **** }
 122:../eurorack/plaits/dsp/engine2/wave_terrain_engine.cc **** 
 123:../eurorack/plaits/dsp/engine2/wave_terrain_engine.cc **** inline float Squash(float x, float a) {
 124:../eurorack/plaits/dsp/engine2/wave_terrain_engine.cc ****   x *= a;
 125:../eurorack/plaits/dsp/engine2/wave_terrain_engine.cc ****   return x / (1.0f + fabsf(x));
 126:../eurorack/plaits/dsp/engine2/wave_terrain_engine.cc **** }
 127:../eurorack/plaits/dsp/engine2/wave_terrain_engine.cc **** 
 128:../eurorack/plaits/dsp/engine2/wave_terrain_engine.cc **** inline float WaveTerrainEngine::Terrain(float x, float y, int terrain_index) {
 308              		.loc 1 128 78 is_stmt 1 view -0
 309              		.cfi_startproc
 310              		@ args = 0, pretend = 0, frame = 0
 311              		@ frame_needed = 0, uses_anonymous_args = 0
 129:../eurorack/plaits/dsp/engine2/wave_terrain_engine.cc ****   // The Sine function only works for a positive argument.
 130:../eurorack/plaits/dsp/engine2/wave_terrain_engine.cc ****   // Thus, all calls to Sine include a positive offset of the argument!
 131:../eurorack/plaits/dsp/engine2/wave_terrain_engine.cc ****   const float k = 4.0f;
 312              		.loc 1 131 3 view .LVU77
 132:../eurorack/plaits/dsp/engine2/wave_terrain_engine.cc ****   switch (terrain_index) {
 313              		.loc 1 132 3 view .LVU78
 128:../eurorack/plaits/dsp/engine2/wave_terrain_engine.cc ****   // The Sine function only works for a positive argument.
 314              		.loc 1 128 78 is_stmt 0 view .LVU79
 315 0000 10B5     		push	{r4, lr}
 316              		.cfi_def_cfa_offset 8
 317              		.cfi_offset 4, -8
 318              		.cfi_offset 14, -4
 319 0002 2DED048B 		vpush.64	{d8, d9}
 320              		.cfi_def_cfa_offset 24
 321              		.cfi_offset 80, -24
 322              		.cfi_offset 81, -20
 323              		.cfi_offset 82, -16
 324              		.cfi_offset 83, -12
 128:../eurorack/plaits/dsp/engine2/wave_terrain_engine.cc ****   // The Sine function only works for a positive argument.
 325              		.loc 1 128 78 view .LVU80
 326 0006 B0EE408A 		vmov.f32	s16, s0
 327 000a B0EE609A 		vmov.f32	s18, s1
 328              	.LBB106:
 329              		.loc 1 132 3 view .LVU81
 330 000e 0829     		cmp	r1, #8
 331 0010 00F22F81 		bhi	.L20
 332 0014 DFE801F0 		tbb	[pc, r1]
 333              	.L13:
 334 0018 05       		.byte	(.L19-.L13)/2
 335 0019 2E       		.byte	(.L18-.L13)/2
 336 001a 4D       		.byte	(.L17-.L13)/2
 337 001b 5E       		.byte	(.L16-.L13)/2
 338 001c 79       		.byte	(.L15-.L13)/2
 339 001d A2       		.byte	(.L14-.L13)/2
 340 001e A2       		.byte	(.L14-.L13)/2
 341 001f A2       		.byte	(.L14-.L13)/2
 342 0020 E9       		.byte	(.L12-.L13)/2
 343 0021 00       		.p2align 1
ARM GAS  /var/folders/y7/g6pkzsp12sx54x3s3mvyn15r0000gn/T//ccpDeTAb.s 			page 16


 344              	.L19:
 345              	.LBB107:
 133:../eurorack/plaits/dsp/engine2/wave_terrain_engine.cc ****     case 0:
 346              		.loc 1 133 5 is_stmt 1 view .LVU82
 134:../eurorack/plaits/dsp/engine2/wave_terrain_engine.cc ****       {
 347              		.loc 1 134 7 view .LVU83
 135:../eurorack/plaits/dsp/engine2/wave_terrain_engine.cc ****         return (Squash(Sine(k + x * 1.273f), 2.0f) - \
 348              		.loc 1 135 9 view .LVU84
 349              		.loc 1 135 23 is_stmt 0 view .LVU85
 350 0022 F1EE009A 		vmov.f32	s19, #4.0e+0
 351 0026 DFED947A 		vldr.32	s15, .L25
 352 002a B0EE690A 		vmov.f32	s0, s19
 353              	.LVL20:
 354              		.loc 1 135 23 view .LVU86
 355 002e A8EE270A 		vfma.f32	s0, s16, s15
 356 0032 FFF7FEFF 		bl	_ZN6plaits4SineEf
 357              	.LVL21:
 358              	.LBB108:
 359              	.LBI108:
 123:../eurorack/plaits/dsp/engine2/wave_terrain_engine.cc ****   x *= a;
 360              		.loc 1 123 14 is_stmt 1 view .LVU87
 361              	.LBB109:
 124:../eurorack/plaits/dsp/engine2/wave_terrain_engine.cc ****   return x / (1.0f + fabsf(x));
 362              		.loc 1 124 3 view .LVU88
 124:../eurorack/plaits/dsp/engine2/wave_terrain_engine.cc ****   return x / (1.0f + fabsf(x));
 363              		.loc 1 124 5 is_stmt 0 view .LVU89
 364 0036 30EE000A 		vadd.f32	s0, s0, s0
 365              	.LVL22:
 125:../eurorack/plaits/dsp/engine2/wave_terrain_engine.cc **** }
 366              		.loc 1 125 3 is_stmt 1 view .LVU90
 125:../eurorack/plaits/dsp/engine2/wave_terrain_engine.cc **** }
 367              		.loc 1 125 20 is_stmt 0 view .LVU91
 368 003a B7EE007A 		vmov.f32	s14, #1.0e+0
 125:../eurorack/plaits/dsp/engine2/wave_terrain_engine.cc **** }
 369              		.loc 1 125 27 view .LVU92
 370 003e F0EEC07A 		vabs.f32	s15, s0
 125:../eurorack/plaits/dsp/engine2/wave_terrain_engine.cc **** }
 371              		.loc 1 125 20 view .LVU93
 372 0042 77EE877A 		vadd.f32	s15, s15, s14
 125:../eurorack/plaits/dsp/engine2/wave_terrain_engine.cc **** }
 373              		.loc 1 125 30 view .LVU94
 374 0046 C0EE278A 		vdiv.f32	s17, s0, s15
 375              	.LVL23:
 125:../eurorack/plaits/dsp/engine2/wave_terrain_engine.cc **** }
 376              		.loc 1 125 30 view .LVU95
 377              	.LBE109:
 378              	.LBE108:
 136:../eurorack/plaits/dsp/engine2/wave_terrain_engine.cc ****             Sine(k + y * (x + 1.571f) * 0.637f)) * 0.57f;
 379              		.loc 1 136 29 view .LVU96
 380 004a DFED8C7A 		vldr.32	s15, .L25+4
 381 004e 38EE278A 		vadd.f32	s16, s16, s15
 382              	.LVL24:
 383              		.loc 1 136 17 view .LVU97
 384 0052 DFED8B7A 		vldr.32	s15, .L25+8
 385 0056 B0EE690A 		vmov.f32	s0, s19
 386              		.loc 1 136 24 view .LVU98
 387 005a 68EE090A 		vmul.f32	s1, s16, s18
ARM GAS  /var/folders/y7/g6pkzsp12sx54x3s3mvyn15r0000gn/T//ccpDeTAb.s 			page 17


 388              		.loc 1 136 17 view .LVU99
 389 005e A0EEA70A 		vfma.f32	s0, s1, s15
 390 0062 FFF7FEFF 		bl	_ZN6plaits4SineEf
 391              	.LVL25:
 392              		.loc 1 136 52 view .LVU100
 393 0066 DFED877A 		vldr.32	s15, .L25+12
 135:../eurorack/plaits/dsp/engine2/wave_terrain_engine.cc ****             Sine(k + y * (x + 1.571f) * 0.637f)) * 0.57f;
 394              		.loc 1 135 52 view .LVU101
 395 006a 38EEC00A 		vsub.f32	s0, s17, s0
 396              	.LVL26:
 397              	.L21:
 398              	.LBB110:
 399              	.LBB111:
  70:../eurorack/plaits/dsp/engine2/wave_terrain_engine.cc **** }
 400              		.loc 1 70 53 view .LVU102
 401 006e 20EE270A 		vmul.f32	s0, s0, s15
 402              	.LBE111:
 403              	.LBE110:
 137:../eurorack/plaits/dsp/engine2/wave_terrain_engine.cc ****       }
 138:../eurorack/plaits/dsp/engine2/wave_terrain_engine.cc ****       break;
 139:../eurorack/plaits/dsp/engine2/wave_terrain_engine.cc ****     case 1:
 140:../eurorack/plaits/dsp/engine2/wave_terrain_engine.cc ****       {
 141:../eurorack/plaits/dsp/engine2/wave_terrain_engine.cc ****         const float xy = x * y;
 142:../eurorack/plaits/dsp/engine2/wave_terrain_engine.cc ****         return Sine(k + Sine(k + (x + y) * 0.637f) / (0.2f + xy * xy) * 0.159f);
 143:../eurorack/plaits/dsp/engine2/wave_terrain_engine.cc ****       }
 144:../eurorack/plaits/dsp/engine2/wave_terrain_engine.cc ****       break;
 145:../eurorack/plaits/dsp/engine2/wave_terrain_engine.cc ****     case 2:
 146:../eurorack/plaits/dsp/engine2/wave_terrain_engine.cc ****       {
 147:../eurorack/plaits/dsp/engine2/wave_terrain_engine.cc ****         const float xy = x * y;
 148:../eurorack/plaits/dsp/engine2/wave_terrain_engine.cc ****         return Sine(k + Sine(k + 2.387f * xy) / (0.350f + xy * xy) * 0.159f);
 149:../eurorack/plaits/dsp/engine2/wave_terrain_engine.cc ****       }
 150:../eurorack/plaits/dsp/engine2/wave_terrain_engine.cc ****       break;
 151:../eurorack/plaits/dsp/engine2/wave_terrain_engine.cc ****     case 3:
 152:../eurorack/plaits/dsp/engine2/wave_terrain_engine.cc ****       {
 153:../eurorack/plaits/dsp/engine2/wave_terrain_engine.cc ****         const float xy = x * y;
 154:../eurorack/plaits/dsp/engine2/wave_terrain_engine.cc ****         const float xys = (x - 0.25f) * (y + 0.25f);
 155:../eurorack/plaits/dsp/engine2/wave_terrain_engine.cc ****         return Sine(k + xy / (2.0f + fabsf(5.0f * xys)) * 6.366f);
 156:../eurorack/plaits/dsp/engine2/wave_terrain_engine.cc ****       }
 157:../eurorack/plaits/dsp/engine2/wave_terrain_engine.cc ****       break;
 158:../eurorack/plaits/dsp/engine2/wave_terrain_engine.cc ****     case 4:
 159:../eurorack/plaits/dsp/engine2/wave_terrain_engine.cc ****       {
 160:../eurorack/plaits/dsp/engine2/wave_terrain_engine.cc ****         return Sine(
 161:../eurorack/plaits/dsp/engine2/wave_terrain_engine.cc ****           0.159f / (0.170f + fabsf(y - 0.25f)) + \
 162:../eurorack/plaits/dsp/engine2/wave_terrain_engine.cc ****           0.477f / (0.350f + fabsf((x + 0.5f) * (y + 1.5f))) + k);
 163:../eurorack/plaits/dsp/engine2/wave_terrain_engine.cc ****       }
 164:../eurorack/plaits/dsp/engine2/wave_terrain_engine.cc ****       break;
 165:../eurorack/plaits/dsp/engine2/wave_terrain_engine.cc ****     case 5:
 166:../eurorack/plaits/dsp/engine2/wave_terrain_engine.cc ****     case 6:
 167:../eurorack/plaits/dsp/engine2/wave_terrain_engine.cc ****     case 7:
 168:../eurorack/plaits/dsp/engine2/wave_terrain_engine.cc ****       {
 169:../eurorack/plaits/dsp/engine2/wave_terrain_engine.cc ****         return TerrainLookupWT(x, y, 2 - (terrain_index - 5));
 170:../eurorack/plaits/dsp/engine2/wave_terrain_engine.cc ****       }
 171:../eurorack/plaits/dsp/engine2/wave_terrain_engine.cc ****       break;
 172:../eurorack/plaits/dsp/engine2/wave_terrain_engine.cc ****     case 8:
 173:../eurorack/plaits/dsp/engine2/wave_terrain_engine.cc ****       {
 174:../eurorack/plaits/dsp/engine2/wave_terrain_engine.cc ****         return TerrainLookup(x, y, user_terrain_);
 404              		.loc 1 174 49 view .LVU103
ARM GAS  /var/folders/y7/g6pkzsp12sx54x3s3mvyn15r0000gn/T//ccpDeTAb.s 			page 18


 405 0072 1BE0     		b	.L10
 406              	.LVL27:
 407              	.L18:
 138:../eurorack/plaits/dsp/engine2/wave_terrain_engine.cc ****     case 1:
 408              		.loc 1 138 7 is_stmt 1 view .LVU104
 139:../eurorack/plaits/dsp/engine2/wave_terrain_engine.cc ****       {
 409              		.loc 1 139 5 view .LVU105
 140:../eurorack/plaits/dsp/engine2/wave_terrain_engine.cc ****         const float xy = x * y;
 410              		.loc 1 140 7 view .LVU106
 411              	.LBB131:
 141:../eurorack/plaits/dsp/engine2/wave_terrain_engine.cc ****         return Sine(k + Sine(k + (x + y) * 0.637f) / (0.2f + xy * xy) * 0.159f);
 412              		.loc 1 141 9 view .LVU107
 142:../eurorack/plaits/dsp/engine2/wave_terrain_engine.cc ****       }
 413              		.loc 1 142 29 is_stmt 0 view .LVU108
 414 0074 F1EE008A 		vmov.f32	s17, #4.0e+0
 415 0078 DFED817A 		vldr.32	s15, .L25+8
 141:../eurorack/plaits/dsp/engine2/wave_terrain_engine.cc ****         return Sine(k + Sine(k + (x + y) * 0.637f) / (0.2f + xy * xy) * 0.159f);
 416              		.loc 1 141 21 view .LVU109
 417 007c 60EE209A 		vmul.f32	s19, s0, s1
 418              	.LVL28:
 142:../eurorack/plaits/dsp/engine2/wave_terrain_engine.cc ****       }
 419              		.loc 1 142 9 is_stmt 1 view .LVU110
 142:../eurorack/plaits/dsp/engine2/wave_terrain_engine.cc ****       }
 420              		.loc 1 142 37 is_stmt 0 view .LVU111
 421 0080 30EE208A 		vadd.f32	s16, s0, s1
 142:../eurorack/plaits/dsp/engine2/wave_terrain_engine.cc ****       }
 422              		.loc 1 142 29 view .LVU112
 423 0084 B0EE680A 		vmov.f32	s0, s17
 424              	.LVL29:
 142:../eurorack/plaits/dsp/engine2/wave_terrain_engine.cc ****       }
 425              		.loc 1 142 29 view .LVU113
 426 0088 A8EE270A 		vfma.f32	s0, s16, s15
 427 008c FFF7FEFF 		bl	_ZN6plaits4SineEf
 428              	.LVL30:
 142:../eurorack/plaits/dsp/engine2/wave_terrain_engine.cc ****       }
 429              		.loc 1 142 60 discriminator 1 view .LVU114
 430 0090 DFED7D7A 		vldr.32	s15, .L25+16
 431 0094 E9EEA97A 		vfma.f32	s15, s19, s19
 432              	.LVL31:
 433              	.L22:
 142:../eurorack/plaits/dsp/engine2/wave_terrain_engine.cc ****       }
 434              		.loc 1 142 60 discriminator 1 view .LVU115
 435              	.LBE131:
 436              	.LBB132:
 148:../eurorack/plaits/dsp/engine2/wave_terrain_engine.cc ****       }
 437              		.loc 1 148 47 discriminator 1 view .LVU116
 438 0098 80EE277A 		vdiv.f32	s14, s0, s15
 148:../eurorack/plaits/dsp/engine2/wave_terrain_engine.cc ****       }
 439              		.loc 1 148 20 discriminator 1 view .LVU117
 440 009c DFED7B7A 		vldr.32	s15, .L25+20
 441 00a0 B0EE680A 		vmov.f32	s0, s17
 442              	.L24:
 443 00a4 A7EE270A 		vfma.f32	s0, s14, s15
 444              	.L23:
 445 00a8 FFF7FEFF 		bl	_ZN6plaits4SineEf
 446              	.LVL32:
 447              	.L10:
ARM GAS  /var/folders/y7/g6pkzsp12sx54x3s3mvyn15r0000gn/T//ccpDeTAb.s 			page 19


 148:../eurorack/plaits/dsp/engine2/wave_terrain_engine.cc ****       }
 448              		.loc 1 148 20 discriminator 1 view .LVU118
 449              	.LBE132:
 450              	.LBE107:
 451              	.LBE106:
 175:../eurorack/plaits/dsp/engine2/wave_terrain_engine.cc ****       }
 176:../eurorack/plaits/dsp/engine2/wave_terrain_engine.cc ****   }
 177:../eurorack/plaits/dsp/engine2/wave_terrain_engine.cc ****   return 0.0f;
 178:../eurorack/plaits/dsp/engine2/wave_terrain_engine.cc **** }
 452              		.loc 1 178 1 view .LVU119
 453 00ac BDEC048B 		vldm	sp!, {d8-d9}
 454              		.cfi_remember_state
 455              		.cfi_restore 82
 456              		.cfi_restore 83
 457              		.cfi_restore 80
 458              		.cfi_restore 81
 459              		.cfi_def_cfa_offset 8
 460 00b0 10BD     		pop	{r4, pc}
 461              	.LVL33:
 462              	.L17:
 463              		.cfi_restore_state
 464              	.LBB141:
 465              	.LBB140:
 144:../eurorack/plaits/dsp/engine2/wave_terrain_engine.cc ****     case 2:
 466              		.loc 1 144 7 is_stmt 1 view .LVU120
 145:../eurorack/plaits/dsp/engine2/wave_terrain_engine.cc ****       {
 467              		.loc 1 145 5 view .LVU121
 146:../eurorack/plaits/dsp/engine2/wave_terrain_engine.cc ****         const float xy = x * y;
 468              		.loc 1 146 7 view .LVU122
 469              	.LBB133:
 147:../eurorack/plaits/dsp/engine2/wave_terrain_engine.cc ****         return Sine(k + Sine(k + 2.387f * xy) / (0.350f + xy * xy) * 0.159f);
 470              		.loc 1 147 9 view .LVU123
 148:../eurorack/plaits/dsp/engine2/wave_terrain_engine.cc ****       }
 471              		.loc 1 148 29 is_stmt 0 view .LVU124
 472 00b2 F1EE008A 		vmov.f32	s17, #4.0e+0
 473 00b6 DFED767A 		vldr.32	s15, .L25+24
 147:../eurorack/plaits/dsp/engine2/wave_terrain_engine.cc ****         return Sine(k + Sine(k + 2.387f * xy) / (0.350f + xy * xy) * 0.159f);
 474              		.loc 1 147 21 view .LVU125
 475 00ba 20EE208A 		vmul.f32	s16, s0, s1
 476              	.LVL34:
 148:../eurorack/plaits/dsp/engine2/wave_terrain_engine.cc ****       }
 477              		.loc 1 148 9 is_stmt 1 view .LVU126
 148:../eurorack/plaits/dsp/engine2/wave_terrain_engine.cc ****       }
 478              		.loc 1 148 29 is_stmt 0 view .LVU127
 479 00be B0EE680A 		vmov.f32	s0, s17
 480              	.LVL35:
 148:../eurorack/plaits/dsp/engine2/wave_terrain_engine.cc ****       }
 481              		.loc 1 148 29 view .LVU128
 482 00c2 A8EE270A 		vfma.f32	s0, s16, s15
 483 00c6 FFF7FEFF 		bl	_ZN6plaits4SineEf
 484              	.LVL36:
 148:../eurorack/plaits/dsp/engine2/wave_terrain_engine.cc ****       }
 485              		.loc 1 148 57 discriminator 1 view .LVU129
 486 00ca DFED727A 		vldr.32	s15, .L25+28
 487 00ce E8EE087A 		vfma.f32	s15, s16, s16
 488 00d2 E1E7     		b	.L22
 489              	.LVL37:
ARM GAS  /var/folders/y7/g6pkzsp12sx54x3s3mvyn15r0000gn/T//ccpDeTAb.s 			page 20


 490              	.L16:
 148:../eurorack/plaits/dsp/engine2/wave_terrain_engine.cc ****       }
 491              		.loc 1 148 57 discriminator 1 view .LVU130
 492              	.LBE133:
 150:../eurorack/plaits/dsp/engine2/wave_terrain_engine.cc ****     case 3:
 493              		.loc 1 150 7 is_stmt 1 view .LVU131
 151:../eurorack/plaits/dsp/engine2/wave_terrain_engine.cc ****       {
 494              		.loc 1 151 5 view .LVU132
 152:../eurorack/plaits/dsp/engine2/wave_terrain_engine.cc ****         const float xy = x * y;
 495              		.loc 1 152 7 view .LVU133
 496              	.LBB134:
 153:../eurorack/plaits/dsp/engine2/wave_terrain_engine.cc ****         const float xys = (x - 0.25f) * (y + 0.25f);
 497              		.loc 1 153 9 view .LVU134
 154:../eurorack/plaits/dsp/engine2/wave_terrain_engine.cc ****         return Sine(k + xy / (2.0f + fabsf(5.0f * xys)) * 6.366f);
 498              		.loc 1 154 9 view .LVU135
 155:../eurorack/plaits/dsp/engine2/wave_terrain_engine.cc ****       }
 499              		.loc 1 155 9 view .LVU136
 154:../eurorack/plaits/dsp/engine2/wave_terrain_engine.cc ****         return Sine(k + xy / (2.0f + fabsf(5.0f * xys)) * 6.366f);
 500              		.loc 1 154 30 is_stmt 0 view .LVU137
 501 00d4 B5EE007A 		vmov.f32	s14, #2.5e-1
 153:../eurorack/plaits/dsp/engine2/wave_terrain_engine.cc ****         const float xys = (x - 0.25f) * (y + 0.25f);
 502              		.loc 1 153 21 view .LVU138
 503 00d8 60EE206A 		vmul.f32	s13, s0, s1
 504              	.LVL38:
 154:../eurorack/plaits/dsp/engine2/wave_terrain_engine.cc ****         return Sine(k + xy / (2.0f + fabsf(5.0f * xys)) * 6.366f);
 505              		.loc 1 154 30 view .LVU139
 506 00dc 70EE477A 		vsub.f32	s15, s0, s14
 154:../eurorack/plaits/dsp/engine2/wave_terrain_engine.cc ****         return Sine(k + xy / (2.0f + fabsf(5.0f * xys)) * 6.366f);
 507              		.loc 1 154 44 view .LVU140
 508 00e0 30EE877A 		vadd.f32	s14, s1, s14
 155:../eurorack/plaits/dsp/engine2/wave_terrain_engine.cc ****       }
 509              		.loc 1 155 20 view .LVU141
 510 00e4 B1EE000A 		vmov.f32	s0, #4.0e+0
 511              	.LVL39:
 154:../eurorack/plaits/dsp/engine2/wave_terrain_engine.cc ****         return Sine(k + xy / (2.0f + fabsf(5.0f * xys)) * 6.366f);
 512              		.loc 1 154 21 view .LVU142
 513 00e8 67EE877A 		vmul.f32	s15, s15, s14
 514              	.LVL40:
 155:../eurorack/plaits/dsp/engine2/wave_terrain_engine.cc ****       }
 515              		.loc 1 155 49 view .LVU143
 516 00ec B1EE047A 		vmov.f32	s14, #5.0e+0
 517 00f0 67EE877A 		vmul.f32	s15, s15, s14
 518              	.LVL41:
 155:../eurorack/plaits/dsp/engine2/wave_terrain_engine.cc ****       }
 519              		.loc 1 155 36 view .LVU144
 520 00f4 B0EE007A 		vmov.f32	s14, #2.0e+0
 155:../eurorack/plaits/dsp/engine2/wave_terrain_engine.cc ****       }
 521              		.loc 1 155 43 view .LVU145
 522 00f8 F0EEE77A 		vabs.f32	s15, s15
 155:../eurorack/plaits/dsp/engine2/wave_terrain_engine.cc ****       }
 523              		.loc 1 155 36 view .LVU146
 524 00fc 77EE877A 		vadd.f32	s15, s15, s14
 155:../eurorack/plaits/dsp/engine2/wave_terrain_engine.cc ****       }
 525              		.loc 1 155 28 view .LVU147
 526 0100 86EEA77A 		vdiv.f32	s14, s13, s15
 155:../eurorack/plaits/dsp/engine2/wave_terrain_engine.cc ****       }
 527              		.loc 1 155 20 view .LVU148
ARM GAS  /var/folders/y7/g6pkzsp12sx54x3s3mvyn15r0000gn/T//ccpDeTAb.s 			page 21


 528 0104 DFED647A 		vldr.32	s15, .L25+32
 529 0108 CCE7     		b	.L24
 530              	.LVL42:
 531              	.L15:
 155:../eurorack/plaits/dsp/engine2/wave_terrain_engine.cc ****       }
 532              		.loc 1 155 20 view .LVU149
 533              	.LBE134:
 157:../eurorack/plaits/dsp/engine2/wave_terrain_engine.cc ****     case 4:
 534              		.loc 1 157 7 is_stmt 1 view .LVU150
 158:../eurorack/plaits/dsp/engine2/wave_terrain_engine.cc ****       {
 535              		.loc 1 158 5 view .LVU151
 159:../eurorack/plaits/dsp/engine2/wave_terrain_engine.cc ****         return Sine(
 536              		.loc 1 159 7 view .LVU152
 160:../eurorack/plaits/dsp/engine2/wave_terrain_engine.cc ****           0.159f / (0.170f + fabsf(y - 0.25f)) + \
 537              		.loc 1 160 9 view .LVU153
 162:../eurorack/plaits/dsp/engine2/wave_terrain_engine.cc ****       }
 538              		.loc 1 162 39 is_stmt 0 view .LVU154
 539 010a F6EE007A 		vmov.f32	s15, #5.0e-1
 161:../eurorack/plaits/dsp/engine2/wave_terrain_engine.cc ****           0.477f / (0.350f + fabsf((x + 0.5f) * (y + 1.5f))) + k);
 540              		.loc 1 161 18 view .LVU155
 541 010e DFED5F6A 		vldr.32	s13, .L25+20
 162:../eurorack/plaits/dsp/engine2/wave_terrain_engine.cc ****       }
 542              		.loc 1 162 52 view .LVU156
 543 0112 B7EE087A 		vmov.f32	s14, #1.5e+0
 162:../eurorack/plaits/dsp/engine2/wave_terrain_engine.cc ****       }
 544              		.loc 1 162 39 view .LVU157
 545 0116 70EE277A 		vadd.f32	s15, s0, s15
 162:../eurorack/plaits/dsp/engine2/wave_terrain_engine.cc ****       }
 546              		.loc 1 162 52 view .LVU158
 547 011a 30EE877A 		vadd.f32	s14, s1, s14
 162:../eurorack/plaits/dsp/engine2/wave_terrain_engine.cc ****       }
 548              		.loc 1 162 47 view .LVU159
 549 011e 67EE877A 		vmul.f32	s15, s15, s14
 162:../eurorack/plaits/dsp/engine2/wave_terrain_engine.cc ****       }
 550              		.loc 1 162 28 view .LVU160
 551 0122 9FED5C7A 		vldr.32	s14, .L25+28
 162:../eurorack/plaits/dsp/engine2/wave_terrain_engine.cc ****       }
 552              		.loc 1 162 35 view .LVU161
 553 0126 F0EEE77A 		vabs.f32	s15, s15
 162:../eurorack/plaits/dsp/engine2/wave_terrain_engine.cc ****       }
 554              		.loc 1 162 28 view .LVU162
 555 012a 77EE877A 		vadd.f32	s15, s15, s14
 162:../eurorack/plaits/dsp/engine2/wave_terrain_engine.cc ****       }
 556              		.loc 1 162 18 view .LVU163
 557 012e 9FED5B7A 		vldr.32	s14, .L25+36
 558 0132 87EE270A 		vdiv.f32	s0, s14, s15
 559              	.LVL43:
 161:../eurorack/plaits/dsp/engine2/wave_terrain_engine.cc ****           0.477f / (0.350f + fabsf((x + 0.5f) * (y + 1.5f))) + k);
 560              		.loc 1 161 28 view .LVU164
 561 0136 9FED5A7A 		vldr.32	s14, .L25+40
 161:../eurorack/plaits/dsp/engine2/wave_terrain_engine.cc ****           0.477f / (0.350f + fabsf((x + 0.5f) * (y + 1.5f))) + k);
 562              		.loc 1 161 38 view .LVU165
 563 013a F5EE007A 		vmov.f32	s15, #2.5e-1
 564 013e 70EEE77A 		vsub.f32	s15, s1, s15
 161:../eurorack/plaits/dsp/engine2/wave_terrain_engine.cc ****           0.477f / (0.350f + fabsf((x + 0.5f) * (y + 1.5f))) + k);
 565              		.loc 1 161 35 view .LVU166
 566 0142 F0EEE77A 		vabs.f32	s15, s15
ARM GAS  /var/folders/y7/g6pkzsp12sx54x3s3mvyn15r0000gn/T//ccpDeTAb.s 			page 22


 161:../eurorack/plaits/dsp/engine2/wave_terrain_engine.cc ****           0.477f / (0.350f + fabsf((x + 0.5f) * (y + 1.5f))) + k);
 567              		.loc 1 161 28 view .LVU167
 568 0146 77EE877A 		vadd.f32	s15, s15, s14
 161:../eurorack/plaits/dsp/engine2/wave_terrain_engine.cc ****           0.477f / (0.350f + fabsf((x + 0.5f) * (y + 1.5f))) + k);
 569              		.loc 1 161 18 view .LVU168
 570 014a 86EEA77A 		vdiv.f32	s14, s13, s15
 161:../eurorack/plaits/dsp/engine2/wave_terrain_engine.cc ****           0.477f / (0.350f + fabsf((x + 0.5f) * (y + 1.5f))) + k);
 571              		.loc 1 161 48 view .LVU169
 572 014e 30EE077A 		vadd.f32	s14, s0, s14
 160:../eurorack/plaits/dsp/engine2/wave_terrain_engine.cc ****           0.159f / (0.170f + fabsf(y - 0.25f)) + \
 573              		.loc 1 160 20 view .LVU170
 574 0152 B1EE000A 		vmov.f32	s0, #4.0e+0
 575 0156 37EE000A 		vadd.f32	s0, s14, s0
 576 015a A5E7     		b	.L23
 577              	.LVL44:
 578              	.L14:
 164:../eurorack/plaits/dsp/engine2/wave_terrain_engine.cc ****     case 5:
 579              		.loc 1 164 7 is_stmt 1 view .LVU171
 165:../eurorack/plaits/dsp/engine2/wave_terrain_engine.cc ****     case 6:
 580              		.loc 1 165 5 view .LVU172
 166:../eurorack/plaits/dsp/engine2/wave_terrain_engine.cc ****     case 7:
 581              		.loc 1 166 5 view .LVU173
 167:../eurorack/plaits/dsp/engine2/wave_terrain_engine.cc ****       {
 582              		.loc 1 167 5 view .LVU174
 168:../eurorack/plaits/dsp/engine2/wave_terrain_engine.cc ****         return TerrainLookupWT(x, y, 2 - (terrain_index - 5));
 583              		.loc 1 168 7 view .LVU175
 169:../eurorack/plaits/dsp/engine2/wave_terrain_engine.cc ****       }
 584              		.loc 1 169 9 view .LVU176
 585              	.LBB135:
 586              	.LBI135:
  93:../eurorack/plaits/dsp/engine2/wave_terrain_engine.cc ****   const int table_size = 128;
 587              		.loc 1 93 14 view .LVU177
 588              	.LBB136:
  94:../eurorack/plaits/dsp/engine2/wave_terrain_engine.cc ****   const int table_size_full = table_size + 4;  // Includes 4 wrapped samples
 589              		.loc 1 94 3 view .LVU178
  95:../eurorack/plaits/dsp/engine2/wave_terrain_engine.cc ****   const int num_waves = 64;
 590              		.loc 1 95 3 view .LVU179
  96:../eurorack/plaits/dsp/engine2/wave_terrain_engine.cc ****   const float sample = (y + 1.0f) * 0.5f * float(table_size);
 591              		.loc 1 96 3 view .LVU180
  97:../eurorack/plaits/dsp/engine2/wave_terrain_engine.cc ****   const float wt = (x + 1.0f) * 0.5f * float(num_waves - 1);
 592              		.loc 1 97 3 view .LVU181
  97:../eurorack/plaits/dsp/engine2/wave_terrain_engine.cc ****   const float wt = (x + 1.0f) * 0.5f * float(num_waves - 1);
 593              		.loc 1 97 27 is_stmt 0 view .LVU182
 594 015c B7EE007A 		vmov.f32	s14, #1.0e+0
  97:../eurorack/plaits/dsp/engine2/wave_terrain_engine.cc ****   const float wt = (x + 1.0f) * 0.5f * float(num_waves - 1);
 595              		.loc 1 97 15 view .LVU183
 596 0160 DFED506A 		vldr.32	s13, .L25+44
  97:../eurorack/plaits/dsp/engine2/wave_terrain_engine.cc ****   const float wt = (x + 1.0f) * 0.5f * float(num_waves - 1);
 597              		.loc 1 97 35 view .LVU184
 598 0164 F6EE007A 		vmov.f32	s15, #5.0e-1
 109:../eurorack/plaits/dsp/engine2/wave_terrain_engine.cc ****   xy[0] = InterpolateIntegratedWave(waves, sample_integral, sample_fractional);
 599              		.loc 1 109 9 view .LVU185
 600 0168 4FF48473 		mov	r3, #264
 601              	.LBE136:
 602              	.LBE135:
 169:../eurorack/plaits/dsp/engine2/wave_terrain_engine.cc ****       }
 603              		.loc 1 169 31 view .LVU186
ARM GAS  /var/folders/y7/g6pkzsp12sx54x3s3mvyn15r0000gn/T//ccpDeTAb.s 			page 23


 604 016c C1F10701 		rsb	r1, r1, #7
 605              	.LVL45:
 606              	.LBB138:
 607              	.LBB137:
  97:../eurorack/plaits/dsp/engine2/wave_terrain_engine.cc ****   const float wt = (x + 1.0f) * 0.5f * float(num_waves - 1);
 608              		.loc 1 97 27 view .LVU187
 609 0170 30EE879A 		vadd.f32	s18, s1, s14
  98:../eurorack/plaits/dsp/engine2/wave_terrain_engine.cc ****   
 610              		.loc 1 98 23 view .LVU188
 611 0174 30EE078A 		vadd.f32	s16, s0, s14
  97:../eurorack/plaits/dsp/engine2/wave_terrain_engine.cc ****   const float wt = (x + 1.0f) * 0.5f * float(num_waves - 1);
 612              		.loc 1 97 35 view .LVU189
 613 0178 29EE279A 		vmul.f32	s18, s18, s15
  98:../eurorack/plaits/dsp/engine2/wave_terrain_engine.cc ****   
 614              		.loc 1 98 31 view .LVU190
 615 017c 28EE278A 		vmul.f32	s16, s16, s15
  98:../eurorack/plaits/dsp/engine2/wave_terrain_engine.cc ****   
 616              		.loc 1 98 15 view .LVU191
 617 0180 DFED497A 		vldr.32	s15, .L25+48
  97:../eurorack/plaits/dsp/engine2/wave_terrain_engine.cc ****   const float wt = (x + 1.0f) * 0.5f * float(num_waves - 1);
 618              		.loc 1 97 15 view .LVU192
 619 0184 29EE269A 		vmul.f32	s18, s18, s13
 620              	.LVL46:
  98:../eurorack/plaits/dsp/engine2/wave_terrain_engine.cc ****   
 621              		.loc 1 98 3 is_stmt 1 view .LVU193
  98:../eurorack/plaits/dsp/engine2/wave_terrain_engine.cc ****   
 622              		.loc 1 98 15 is_stmt 0 view .LVU194
 623 0188 28EE278A 		vmul.f32	s16, s16, s15
 624              	.LVL47:
 100:../eurorack/plaits/dsp/engine2/wave_terrain_engine.cc ****       bank * num_waves * table_size_full;
 625              		.loc 1 100 3 is_stmt 1 view .LVU195
 103:../eurorack/plaits/dsp/engine2/wave_terrain_engine.cc ****   MAKE_INTEGRAL_FRACTIONAL(wt);
 626              		.loc 1 103 3 view .LVU196
 627 018c FDEEC99A 		vcvt.s32.f32	s19, s18
 628              	.LVL48:
 103:../eurorack/plaits/dsp/engine2/wave_terrain_engine.cc ****   MAKE_INTEGRAL_FRACTIONAL(wt);
 629              		.loc 1 103 3 view .LVU197
 630 0190 F8EEE97A 		vcvt.f32.s32	s15, s19
 631 0194 39EE679A 		vsub.f32	s18, s18, s15
 632              	.LVL49:
 103:../eurorack/plaits/dsp/engine2/wave_terrain_engine.cc ****   MAKE_INTEGRAL_FRACTIONAL(wt);
 633              		.loc 1 103 35 view .LVU198
 104:../eurorack/plaits/dsp/engine2/wave_terrain_engine.cc ****   
 634              		.loc 1 104 3 view .LVU199
 635 0198 FDEEC87A 		vcvt.s32.f32	s15, s16
 636              	.LVL50:
 104:../eurorack/plaits/dsp/engine2/wave_terrain_engine.cc ****   
 637              		.loc 1 104 3 view .LVU200
 110:../eurorack/plaits/dsp/engine2/wave_terrain_engine.cc ****   waves += table_size_full;
 638              		.loc 1 110 36 is_stmt 0 view .LVU201
 639 019c B0EE490A 		vmov.f32	s0, s18
 640              	.LVL51:
 109:../eurorack/plaits/dsp/engine2/wave_terrain_engine.cc ****   xy[0] = InterpolateIntegratedWave(waves, sample_integral, sample_fractional);
 641              		.loc 1 109 9 view .LVU202
 642 01a0 17EE904A 		vmov	r4, s15	@ int
 104:../eurorack/plaits/dsp/engine2/wave_terrain_engine.cc ****   
 643              		.loc 1 104 3 view .LVU203
ARM GAS  /var/folders/y7/g6pkzsp12sx54x3s3mvyn15r0000gn/T//ccpDeTAb.s 			page 24


 644 01a4 B8EEE77A 		vcvt.f32.s32	s14, s15
 645              	.LVL52:
 109:../eurorack/plaits/dsp/engine2/wave_terrain_engine.cc ****   xy[0] = InterpolateIntegratedWave(waves, sample_integral, sample_fractional);
 646              		.loc 1 109 9 view .LVU204
 647 01a8 5C43     		muls	r4, r3, r4
 648 01aa 4FF48443 		mov	r3, #16896
 104:../eurorack/plaits/dsp/engine2/wave_terrain_engine.cc ****   
 649              		.loc 1 104 3 view .LVU205
 650 01ae 38EE478A 		vsub.f32	s16, s16, s14
 651              	.LVL53:
 104:../eurorack/plaits/dsp/engine2/wave_terrain_engine.cc ****   
 652              		.loc 1 104 31 is_stmt 1 view .LVU206
 106:../eurorack/plaits/dsp/engine2/wave_terrain_engine.cc **** #ifdef DIFFERENTIATE_WAVE_DATA
 653              		.loc 1 106 3 view .LVU207
 108:../eurorack/plaits/dsp/engine2/wave_terrain_engine.cc ****   waves += wt_integral * table_size_full;
 654              		.loc 1 108 3 view .LVU208
 109:../eurorack/plaits/dsp/engine2/wave_terrain_engine.cc ****   xy[0] = InterpolateIntegratedWave(waves, sample_integral, sample_fractional);
 655              		.loc 1 109 3 view .LVU209
 109:../eurorack/plaits/dsp/engine2/wave_terrain_engine.cc ****   xy[0] = InterpolateIntegratedWave(waves, sample_integral, sample_fractional);
 656              		.loc 1 109 9 is_stmt 0 view .LVU210
 657 01b2 03FB0144 		mla	r4, r3, r1, r4
 658 01b6 3D4B     		ldr	r3, .L25+52
 110:../eurorack/plaits/dsp/engine2/wave_terrain_engine.cc ****   waves += table_size_full;
 659              		.loc 1 110 36 view .LVU211
 660 01b8 19EE901A 		vmov	r1, s19	@ int
 661              	.LVL54:
 109:../eurorack/plaits/dsp/engine2/wave_terrain_engine.cc ****   xy[0] = InterpolateIntegratedWave(waves, sample_integral, sample_fractional);
 662              		.loc 1 109 9 view .LVU212
 663 01bc 1C44     		add	r4, r4, r3
 664              	.LVL55:
 110:../eurorack/plaits/dsp/engine2/wave_terrain_engine.cc ****   waves += table_size_full;
 665              		.loc 1 110 3 is_stmt 1 view .LVU213
 110:../eurorack/plaits/dsp/engine2/wave_terrain_engine.cc ****   waves += table_size_full;
 666              		.loc 1 110 36 is_stmt 0 view .LVU214
 667 01be 2046     		mov	r0, r4
 668              	.LVL56:
 110:../eurorack/plaits/dsp/engine2/wave_terrain_engine.cc ****   waves += table_size_full;
 669              		.loc 1 110 36 view .LVU215
 670 01c0 FFF7FEFF 		bl	_ZN6plaits25InterpolateIntegratedWaveIsEEfPKT_lf
 671              	.LVL57:
 110:../eurorack/plaits/dsp/engine2/wave_terrain_engine.cc ****   waves += table_size_full;
 672              		.loc 1 110 36 view .LVU216
 673 01c4 F0EE408A 		vmov.f32	s17, s0
 674              	.LVL58:
 111:../eurorack/plaits/dsp/engine2/wave_terrain_engine.cc ****   xy[1] = InterpolateIntegratedWave(waves, sample_integral, sample_fractional);
 675              		.loc 1 111 3 is_stmt 1 view .LVU217
 112:../eurorack/plaits/dsp/engine2/wave_terrain_engine.cc **** #else
 676              		.loc 1 112 3 view .LVU218
 112:../eurorack/plaits/dsp/engine2/wave_terrain_engine.cc **** #else
 677              		.loc 1 112 36 is_stmt 0 view .LVU219
 678 01c8 19EE901A 		vmov	r1, s19	@ int
 679 01cc B0EE490A 		vmov.f32	s0, s18
 680              	.LVL59:
 112:../eurorack/plaits/dsp/engine2/wave_terrain_engine.cc **** #else
 681              		.loc 1 112 36 view .LVU220
 682 01d0 04F58470 		add	r0, r4, #264
 683              	.LVL60:
ARM GAS  /var/folders/y7/g6pkzsp12sx54x3s3mvyn15r0000gn/T//ccpDeTAb.s 			page 25


 112:../eurorack/plaits/dsp/engine2/wave_terrain_engine.cc **** #else
 684              		.loc 1 112 36 view .LVU221
 685 01d4 FFF7FEFF 		bl	_ZN6plaits25InterpolateIntegratedWaveIsEEfPKT_lf
 686              	.LVL61:
 120:../eurorack/plaits/dsp/engine2/wave_terrain_engine.cc **** }
 687              		.loc 1 120 3 is_stmt 1 view .LVU222
 120:../eurorack/plaits/dsp/engine2/wave_terrain_engine.cc **** }
 688              		.loc 1 120 26 is_stmt 0 view .LVU223
 689 01d8 30EE680A 		vsub.f32	s0, s0, s17
 690              	.LVL62:
 120:../eurorack/plaits/dsp/engine2/wave_terrain_engine.cc **** }
 691              		.loc 1 120 54 view .LVU224
 692 01dc DFED347A 		vldr.32	s15, .L25+56
 120:../eurorack/plaits/dsp/engine2/wave_terrain_engine.cc **** }
 693              		.loc 1 120 17 view .LVU225
 694 01e0 E8EE008A 		vfma.f32	s17, s16, s0
 695              	.LVL63:
 120:../eurorack/plaits/dsp/engine2/wave_terrain_engine.cc **** }
 696              		.loc 1 120 54 view .LVU226
 697 01e4 28EEA70A 		vmul.f32	s0, s17, s15
 698              	.LVL64:
 120:../eurorack/plaits/dsp/engine2/wave_terrain_engine.cc **** }
 699              		.loc 1 120 54 view .LVU227
 700              	.LBE137:
 701              	.LBE138:
 169:../eurorack/plaits/dsp/engine2/wave_terrain_engine.cc ****       }
 702              		.loc 1 169 61 view .LVU228
 703 01e8 60E7     		b	.L10
 704              	.LVL65:
 705              	.L12:
 171:../eurorack/plaits/dsp/engine2/wave_terrain_engine.cc ****     case 8:
 706              		.loc 1 171 7 is_stmt 1 view .LVU229
 172:../eurorack/plaits/dsp/engine2/wave_terrain_engine.cc ****       {
 707              		.loc 1 172 5 view .LVU230
 173:../eurorack/plaits/dsp/engine2/wave_terrain_engine.cc ****         return TerrainLookup(x, y, user_terrain_);
 708              		.loc 1 173 7 view .LVU231
 174:../eurorack/plaits/dsp/engine2/wave_terrain_engine.cc ****       }
 709              		.loc 1 174 9 view .LVU232
 710              	.LBB139:
 711              	.LBI110:
  53:../eurorack/plaits/dsp/engine2/wave_terrain_engine.cc ****   const int terrain_size = 64;
 712              		.loc 1 53 14 view .LVU233
 713              	.LBB130:
  54:../eurorack/plaits/dsp/engine2/wave_terrain_engine.cc ****   const float value_scale = 1.0f / 128.0f;
 714              		.loc 1 54 3 view .LVU234
  55:../eurorack/plaits/dsp/engine2/wave_terrain_engine.cc ****   const float coord_scale = float(terrain_size - 2) * 0.5f;
 715              		.loc 1 55 3 view .LVU235
  56:../eurorack/plaits/dsp/engine2/wave_terrain_engine.cc **** 
 716              		.loc 1 56 3 view .LVU236
  58:../eurorack/plaits/dsp/engine2/wave_terrain_engine.cc ****   y = (y + 1.0f) * coord_scale;
 717              		.loc 1 58 3 view .LVU237
  58:../eurorack/plaits/dsp/engine2/wave_terrain_engine.cc ****   y = (y + 1.0f) * coord_scale;
 718              		.loc 1 58 10 is_stmt 0 view .LVU238
 719 01ea B7EE007A 		vmov.f32	s14, #1.0e+0
  66:../eurorack/plaits/dsp/engine2/wave_terrain_engine.cc ****   xy[0] = InterpolateWave(terrain, x_integral, x_fractional);
 720              		.loc 1 66 11 view .LVU239
 721 01ee C36A     		ldr	r3, [r0, #44]
ARM GAS  /var/folders/y7/g6pkzsp12sx54x3s3mvyn15r0000gn/T//ccpDeTAb.s 			page 26


  58:../eurorack/plaits/dsp/engine2/wave_terrain_engine.cc ****   y = (y + 1.0f) * coord_scale;
 722              		.loc 1 58 5 view .LVU240
 723 01f0 F3EE0F7A 		vmov.f32	s15, #3.1e+1
  58:../eurorack/plaits/dsp/engine2/wave_terrain_engine.cc ****   y = (y + 1.0f) * coord_scale;
 724              		.loc 1 58 10 view .LVU241
 725 01f4 30EE078A 		vadd.f32	s16, s0, s14
  59:../eurorack/plaits/dsp/engine2/wave_terrain_engine.cc **** 
 726              		.loc 1 59 10 view .LVU242
 727 01f8 30EE879A 		vadd.f32	s18, s1, s14
  58:../eurorack/plaits/dsp/engine2/wave_terrain_engine.cc ****   y = (y + 1.0f) * coord_scale;
 728              		.loc 1 58 5 view .LVU243
 729 01fc 28EE278A 		vmul.f32	s16, s16, s15
 730              	.LVL66:
  59:../eurorack/plaits/dsp/engine2/wave_terrain_engine.cc **** 
 731              		.loc 1 59 3 is_stmt 1 view .LVU244
  59:../eurorack/plaits/dsp/engine2/wave_terrain_engine.cc **** 
 732              		.loc 1 59 5 is_stmt 0 view .LVU245
 733 0200 29EE279A 		vmul.f32	s18, s18, s15
 734              	.LVL67:
  61:../eurorack/plaits/dsp/engine2/wave_terrain_engine.cc ****   MAKE_INTEGRAL_FRACTIONAL(y);
 735              		.loc 1 61 3 is_stmt 1 view .LVU246
 736 0204 FDEEC87A 		vcvt.s32.f32	s15, s16
 737 0208 17EE902A 		vmov	r2, s15	@ int
 738              	.LVL68:
  61:../eurorack/plaits/dsp/engine2/wave_terrain_engine.cc ****   MAKE_INTEGRAL_FRACTIONAL(y);
 739              		.loc 1 61 3 view .LVU247
 740 020c F8EEE77A 		vcvt.f32.s32	s15, s15
 741 0210 38EE678A 		vsub.f32	s16, s16, s15
 742              	.LVL69:
  61:../eurorack/plaits/dsp/engine2/wave_terrain_engine.cc ****   MAKE_INTEGRAL_FRACTIONAL(y);
 743              		.loc 1 61 30 view .LVU248
  62:../eurorack/plaits/dsp/engine2/wave_terrain_engine.cc ****   
 744              		.loc 1 62 3 view .LVU249
 745 0214 FDEEC97A 		vcvt.s32.f32	s15, s18
 746              	.LVL70:
  62:../eurorack/plaits/dsp/engine2/wave_terrain_engine.cc ****   
 747              		.loc 1 62 3 view .LVU250
  66:../eurorack/plaits/dsp/engine2/wave_terrain_engine.cc ****   xy[0] = InterpolateWave(terrain, x_integral, x_fractional);
 748              		.loc 1 66 11 is_stmt 0 view .LVU251
 749 0218 17EE901A 		vmov	r1, s15	@ int
 750              	.LVL71:
  62:../eurorack/plaits/dsp/engine2/wave_terrain_engine.cc ****   
 751              		.loc 1 62 3 view .LVU252
 752 021c B8EEE77A 		vcvt.f32.s32	s14, s15
 753              	.LVL72:
  66:../eurorack/plaits/dsp/engine2/wave_terrain_engine.cc ****   xy[0] = InterpolateWave(terrain, x_integral, x_fractional);
 754              		.loc 1 66 11 view .LVU253
 755 0220 03EB8113 		add	r3, r3, r1, lsl #6
  62:../eurorack/plaits/dsp/engine2/wave_terrain_engine.cc ****   
 756              		.loc 1 62 3 view .LVU254
 757 0224 39EE479A 		vsub.f32	s18, s18, s14
 758              	.LVL73:
  62:../eurorack/plaits/dsp/engine2/wave_terrain_engine.cc ****   
 759              		.loc 1 62 30 is_stmt 1 view .LVU255
  64:../eurorack/plaits/dsp/engine2/wave_terrain_engine.cc ****   
 760              		.loc 1 64 3 view .LVU256
  66:../eurorack/plaits/dsp/engine2/wave_terrain_engine.cc ****   xy[0] = InterpolateWave(terrain, x_integral, x_fractional);
ARM GAS  /var/folders/y7/g6pkzsp12sx54x3s3mvyn15r0000gn/T//ccpDeTAb.s 			page 27


 761              		.loc 1 66 3 view .LVU257
  67:../eurorack/plaits/dsp/engine2/wave_terrain_engine.cc ****   terrain += terrain_size;
 762              		.loc 1 67 3 view .LVU258
 763              	.LBB112:
 764              	.LBI112:
 765              		.file 6 "../eurorack/plaits/dsp/oscillator/wavetable_oscillator.h"
   1:../eurorack/plaits/dsp/oscillator/wavetable_oscillator.h **** // Copyright 2016 Emilie Gillet.
   2:../eurorack/plaits/dsp/oscillator/wavetable_oscillator.h **** //
   3:../eurorack/plaits/dsp/oscillator/wavetable_oscillator.h **** // Author: Emilie Gillet (emilie.o.gillet@gmail.com)
   4:../eurorack/plaits/dsp/oscillator/wavetable_oscillator.h **** //
   5:../eurorack/plaits/dsp/oscillator/wavetable_oscillator.h **** // Permission is hereby granted, free of charge, to any person obtaining a copy
   6:../eurorack/plaits/dsp/oscillator/wavetable_oscillator.h **** // of this software and associated documentation files (the "Software"), to deal
   7:../eurorack/plaits/dsp/oscillator/wavetable_oscillator.h **** // in the Software without restriction, including without limitation the rights
   8:../eurorack/plaits/dsp/oscillator/wavetable_oscillator.h **** // to use, copy, modify, merge, publish, distribute, sublicense, and/or sell
   9:../eurorack/plaits/dsp/oscillator/wavetable_oscillator.h **** // copies of the Software, and to permit persons to whom the Software is
  10:../eurorack/plaits/dsp/oscillator/wavetable_oscillator.h **** // furnished to do so, subject to the following conditions:
  11:../eurorack/plaits/dsp/oscillator/wavetable_oscillator.h **** // 
  12:../eurorack/plaits/dsp/oscillator/wavetable_oscillator.h **** // The above copyright notice and this permission notice shall be included in
  13:../eurorack/plaits/dsp/oscillator/wavetable_oscillator.h **** // all copies or substantial portions of the Software.
  14:../eurorack/plaits/dsp/oscillator/wavetable_oscillator.h **** // 
  15:../eurorack/plaits/dsp/oscillator/wavetable_oscillator.h **** // THE SOFTWARE IS PROVIDED "AS IS", WITHOUT WARRANTY OF ANY KIND, EXPRESS OR
  16:../eurorack/plaits/dsp/oscillator/wavetable_oscillator.h **** // IMPLIED, INCLUDING BUT NOT LIMITED TO THE WARRANTIES OF MERCHANTABILITY,
  17:../eurorack/plaits/dsp/oscillator/wavetable_oscillator.h **** // FITNESS FOR A PARTICULAR PURPOSE AND NONINFRINGEMENT. IN NO EVENT SHALL THE
  18:../eurorack/plaits/dsp/oscillator/wavetable_oscillator.h **** // AUTHORS OR COPYRIGHT HOLDERS BE LIABLE FOR ANY CLAIM, DAMAGES OR OTHER
  19:../eurorack/plaits/dsp/oscillator/wavetable_oscillator.h **** // LIABILITY, WHETHER IN AN ACTION OF CONTRACT, TORT OR OTHERWISE, ARISING FROM,
  20:../eurorack/plaits/dsp/oscillator/wavetable_oscillator.h **** // OUT OF OR IN CONNECTION WITH THE SOFTWARE OR THE USE OR OTHER DEALINGS IN
  21:../eurorack/plaits/dsp/oscillator/wavetable_oscillator.h **** // THE SOFTWARE.
  22:../eurorack/plaits/dsp/oscillator/wavetable_oscillator.h **** // 
  23:../eurorack/plaits/dsp/oscillator/wavetable_oscillator.h **** // See http://creativecommons.org/licenses/MIT/ for more information.
  24:../eurorack/plaits/dsp/oscillator/wavetable_oscillator.h **** //
  25:../eurorack/plaits/dsp/oscillator/wavetable_oscillator.h **** // -----------------------------------------------------------------------------
  26:../eurorack/plaits/dsp/oscillator/wavetable_oscillator.h **** //
  27:../eurorack/plaits/dsp/oscillator/wavetable_oscillator.h **** // Integrated wavetable synthesis.
  28:../eurorack/plaits/dsp/oscillator/wavetable_oscillator.h **** 
  29:../eurorack/plaits/dsp/oscillator/wavetable_oscillator.h **** #ifndef PLAITS_DSP_OSCILLATOR_WAVETABLE_OSCILLATOR_H_
  30:../eurorack/plaits/dsp/oscillator/wavetable_oscillator.h **** #define PLAITS_DSP_OSCILLATOR_WAVETABLE_OSCILLATOR_H_
  31:../eurorack/plaits/dsp/oscillator/wavetable_oscillator.h **** 
  32:../eurorack/plaits/dsp/oscillator/wavetable_oscillator.h **** #include <algorithm>
  33:../eurorack/plaits/dsp/oscillator/wavetable_oscillator.h **** 
  34:../eurorack/plaits/dsp/oscillator/wavetable_oscillator.h **** #include "stmlib/dsp/dsp.h"
  35:../eurorack/plaits/dsp/oscillator/wavetable_oscillator.h **** #include "stmlib/dsp/parameter_interpolator.h"
  36:../eurorack/plaits/dsp/oscillator/wavetable_oscillator.h **** 
  37:../eurorack/plaits/dsp/oscillator/wavetable_oscillator.h **** #include "plaits/dsp/oscillator/oscillator.h"
  38:../eurorack/plaits/dsp/oscillator/wavetable_oscillator.h **** 
  39:../eurorack/plaits/dsp/oscillator/wavetable_oscillator.h **** namespace plaits {
  40:../eurorack/plaits/dsp/oscillator/wavetable_oscillator.h **** 
  41:../eurorack/plaits/dsp/oscillator/wavetable_oscillator.h **** class Differentiator {
  42:../eurorack/plaits/dsp/oscillator/wavetable_oscillator.h ****  public:
  43:../eurorack/plaits/dsp/oscillator/wavetable_oscillator.h ****   Differentiator() { }
  44:../eurorack/plaits/dsp/oscillator/wavetable_oscillator.h ****   ~Differentiator() { }
  45:../eurorack/plaits/dsp/oscillator/wavetable_oscillator.h **** 
  46:../eurorack/plaits/dsp/oscillator/wavetable_oscillator.h ****   void Init() {
  47:../eurorack/plaits/dsp/oscillator/wavetable_oscillator.h ****     previous_ = 0.0f;
  48:../eurorack/plaits/dsp/oscillator/wavetable_oscillator.h ****     lp_ = 0.0f;
  49:../eurorack/plaits/dsp/oscillator/wavetable_oscillator.h ****   }
  50:../eurorack/plaits/dsp/oscillator/wavetable_oscillator.h ****   
  51:../eurorack/plaits/dsp/oscillator/wavetable_oscillator.h ****   float Process(float coefficient, float s) {
ARM GAS  /var/folders/y7/g6pkzsp12sx54x3s3mvyn15r0000gn/T//ccpDeTAb.s 			page 28


  52:../eurorack/plaits/dsp/oscillator/wavetable_oscillator.h ****     ONE_POLE(lp_, s - previous_, coefficient);
  53:../eurorack/plaits/dsp/oscillator/wavetable_oscillator.h ****     previous_ = s;
  54:../eurorack/plaits/dsp/oscillator/wavetable_oscillator.h ****     return lp_;
  55:../eurorack/plaits/dsp/oscillator/wavetable_oscillator.h ****   }
  56:../eurorack/plaits/dsp/oscillator/wavetable_oscillator.h ****  private:
  57:../eurorack/plaits/dsp/oscillator/wavetable_oscillator.h ****   float lp_;
  58:../eurorack/plaits/dsp/oscillator/wavetable_oscillator.h ****   float previous_;
  59:../eurorack/plaits/dsp/oscillator/wavetable_oscillator.h **** 
  60:../eurorack/plaits/dsp/oscillator/wavetable_oscillator.h ****   DISALLOW_COPY_AND_ASSIGN(Differentiator);
  61:../eurorack/plaits/dsp/oscillator/wavetable_oscillator.h **** };
  62:../eurorack/plaits/dsp/oscillator/wavetable_oscillator.h **** 
  63:../eurorack/plaits/dsp/oscillator/wavetable_oscillator.h **** template<typename T>
  64:../eurorack/plaits/dsp/oscillator/wavetable_oscillator.h **** inline float InterpolateWave(
 766              		.loc 6 64 14 view .LVU259
 767              	.LBB113:
  65:../eurorack/plaits/dsp/oscillator/wavetable_oscillator.h ****     const T* table,
  66:../eurorack/plaits/dsp/oscillator/wavetable_oscillator.h ****     int32_t index_integral,
  67:../eurorack/plaits/dsp/oscillator/wavetable_oscillator.h ****     float index_fractional) {
  68:../eurorack/plaits/dsp/oscillator/wavetable_oscillator.h ****   float a = static_cast<float>(table[index_integral]);
 768              		.loc 6 68 9 is_stmt 0 view .LVU260
 769 0228 9956     		ldrsb	r1, [r3, r2]
 770 022a 00EE101A 		vmov	s0, r1	@ int
 771              	.LVL74:
  69:../eurorack/plaits/dsp/oscillator/wavetable_oscillator.h ****   float b = static_cast<float>(table[index_integral + 1]);
 772              		.loc 6 69 37 view .LVU261
 773 022e 511C     		adds	r1, r2, #1
 774              		.loc 6 69 9 view .LVU262
 775 0230 5856     		ldrsb	r0, [r3, r1]
 776              	.LVL75:
  68:../eurorack/plaits/dsp/oscillator/wavetable_oscillator.h ****   float b = static_cast<float>(table[index_integral + 1]);
 777              		.loc 6 68 9 view .LVU263
 778 0232 B8EEC00A 		vcvt.f32.s32	s0, s0
 779              	.LVL76:
  68:../eurorack/plaits/dsp/oscillator/wavetable_oscillator.h ****   float b = static_cast<float>(table[index_integral + 1]);
 780              		.loc 6 68 9 view .LVU264
 781              	.LBE113:
 782              	.LBE112:
  68:../eurorack/plaits/dsp/engine2/wave_terrain_engine.cc ****   xy[1] = InterpolateWave(terrain, x_integral, x_fractional);
 783              		.loc 1 68 11 view .LVU265
 784 0236 4033     		adds	r3, r3, #64
 785              	.LVL77:
 786              	.LBB118:
 787              	.LBB114:
 788              		.loc 6 69 9 view .LVU266
 789 0238 07EE900A 		vmov	s15, r0	@ int
 790              	.LVL78:
 791              		.loc 6 69 9 view .LVU267
 792              	.LBE114:
 793              	.LBE118:
 794              	.LBB119:
 795              	.LBB120:
  68:../eurorack/plaits/dsp/oscillator/wavetable_oscillator.h ****   float b = static_cast<float>(table[index_integral + 1]);
 796              		.loc 6 68 9 view .LVU268
 797 023c 9A56     		ldrsb	r2, [r3, r2]
 798              	.LVL79:
  68:../eurorack/plaits/dsp/oscillator/wavetable_oscillator.h ****   float b = static_cast<float>(table[index_integral + 1]);
 799              		.loc 6 68 9 view .LVU269
ARM GAS  /var/folders/y7/g6pkzsp12sx54x3s3mvyn15r0000gn/T//ccpDeTAb.s 			page 29


 800              	.LBE120:
 801              	.LBE119:
 802              	.LBB124:
 803              	.LBB115:
 804              		.loc 6 69 9 view .LVU270
 805 023e F8EEE77A 		vcvt.f32.s32	s15, s15
 806              	.LBE115:
 807              	.LBE124:
 808              	.LBB125:
 809              	.LBB121:
 810 0242 5B56     		ldrsb	r3, [r3, r1]
 811              	.LVL80:
 812              		.loc 6 69 9 view .LVU271
 813 0244 07EE103A 		vmov	s14, r3	@ int
 814              	.LBE121:
 815              	.LBE125:
 816              	.LBB126:
 817              	.LBB116:
  70:../eurorack/plaits/dsp/oscillator/wavetable_oscillator.h ****   float t = index_fractional;
  71:../eurorack/plaits/dsp/oscillator/wavetable_oscillator.h ****   return a + (b - a) * t;
 818              		.loc 6 71 17 view .LVU272
 819 0248 77EEC07A 		vsub.f32	s15, s15, s0
 820              	.LBE116:
 821              	.LBE126:
 822              	.LBB127:
 823              	.LBB122:
  69:../eurorack/plaits/dsp/oscillator/wavetable_oscillator.h ****   float t = index_fractional;
 824              		.loc 6 69 9 view .LVU273
 825 024c B8EEC77A 		vcvt.f32.s32	s14, s14
 826              	.LBE122:
 827              	.LBE127:
 828              	.LBB128:
 829              	.LBB117:
 830              		.loc 6 71 24 view .LVU274
 831 0250 A8EE270A 		vfma.f32	s0, s16, s15
 832              	.LVL81:
 833              		.loc 6 71 24 view .LVU275
 834              	.LBE117:
 835              	.LBE128:
  68:../eurorack/plaits/dsp/engine2/wave_terrain_engine.cc ****   xy[1] = InterpolateWave(terrain, x_integral, x_fractional);
 836              		.loc 1 68 3 is_stmt 1 view .LVU276
  69:../eurorack/plaits/dsp/engine2/wave_terrain_engine.cc ****   return (xy[0] + (xy[1] - xy[0]) * y_fractional) * value_scale;
 837              		.loc 1 69 3 view .LVU277
 838              	.LBB129:
 839              	.LBI119:
  64:../eurorack/plaits/dsp/oscillator/wavetable_oscillator.h ****     const T* table,
 840              		.loc 6 64 14 view .LVU278
 841              	.LBB123:
  68:../eurorack/plaits/dsp/oscillator/wavetable_oscillator.h ****   float b = static_cast<float>(table[index_integral + 1]);
 842              		.loc 6 68 9 is_stmt 0 view .LVU279
 843 0254 07EE902A 		vmov	s15, r2	@ int
 844 0258 F8EEE77A 		vcvt.f32.s32	s15, s15
 845              	.LVL82:
 846              		.loc 6 71 17 view .LVU280
 847 025c 37EE677A 		vsub.f32	s14, s14, s15
 848              		.loc 6 71 24 view .LVU281
 849 0260 E8EE077A 		vfma.f32	s15, s16, s14
ARM GAS  /var/folders/y7/g6pkzsp12sx54x3s3mvyn15r0000gn/T//ccpDeTAb.s 			page 30


 850              	.LVL83:
 851              		.loc 6 71 24 view .LVU282
 852              	.LBE123:
 853              	.LBE129:
  70:../eurorack/plaits/dsp/engine2/wave_terrain_engine.cc **** }
 854              		.loc 1 70 3 is_stmt 1 view .LVU283
  70:../eurorack/plaits/dsp/engine2/wave_terrain_engine.cc **** }
 855              		.loc 1 70 26 is_stmt 0 view .LVU284
 856 0264 77EEC07A 		vsub.f32	s15, s15, s0
 857              	.LVL84:
  70:../eurorack/plaits/dsp/engine2/wave_terrain_engine.cc **** }
 858              		.loc 1 70 17 view .LVU285
 859 0268 A9EE270A 		vfma.f32	s0, s18, s15
 860              	.LVL85:
  70:../eurorack/plaits/dsp/engine2/wave_terrain_engine.cc **** }
 861              		.loc 1 70 53 view .LVU286
 862 026c DFED117A 		vldr.32	s15, .L25+60
 863 0270 FDE6     		b	.L21
 864              	.LVL86:
 865              	.L20:
  70:../eurorack/plaits/dsp/engine2/wave_terrain_engine.cc **** }
 866              		.loc 1 70 53 view .LVU287
 867              	.LBE130:
 868              	.LBE139:
 869              	.LBE140:
 132:../eurorack/plaits/dsp/engine2/wave_terrain_engine.cc ****     case 0:
 870              		.loc 1 132 3 view .LVU288
 871 0272 9FED110A 		vldr.32	s0, .L25+64
 872              	.LVL87:
 132:../eurorack/plaits/dsp/engine2/wave_terrain_engine.cc ****     case 0:
 873              		.loc 1 132 3 view .LVU289
 874 0276 19E7     		b	.L10
 875              	.L26:
 876              		.align	2
 877              	.L25:
 878 0278 AAF1A23F 		.word	1067643306
 879 027c 8716C93F 		.word	1070143111
 880 0280 6F12233F 		.word	1059263087
 881 0284 85EB113F 		.word	1058139013
 882 0288 CDCC4C3E 		.word	1045220557
 883 028c E5D0223E 		.word	1042469093
 884 0290 9CC41840 		.word	1075365020
 885 0294 3333B33E 		.word	1051931443
 886 0298 46B6CB40 		.word	1087092294
 887 029c 5839F43E 		.word	1056192856
 888 02a0 7B142E3E 		.word	1043207291
 889 02a4 00000043 		.word	1124073472
 890 02a8 00007C42 		.word	1115422720
 891 02ac 00000000 		.word	_ZN6plaits20wav_integrated_wavesE
 892 02b0 0000803A 		.word	981467136
 893 02b4 0000003C 		.word	1006632960
 894 02b8 00000000 		.word	0
 895              	.LBE141:
 896              		.cfi_endproc
 897              	.LFE1333:
 899              		.section	.text._ZN6plaits17WaveTerrainEngine6RenderERKNS_16EngineParametersEPfS4_jPb,"ax",%progbit
 900              		.align	1
ARM GAS  /var/folders/y7/g6pkzsp12sx54x3s3mvyn15r0000gn/T//ccpDeTAb.s 			page 31


 901              		.global	_ZN6plaits17WaveTerrainEngine6RenderERKNS_16EngineParametersEPfS4_jPb
 902              		.syntax unified
 903              		.thumb
 904              		.thumb_func
 906              	_ZN6plaits17WaveTerrainEngine6RenderERKNS_16EngineParametersEPfS4_jPb:
 907              	.LVL88:
 908              	.LFB1334:
 179:../eurorack/plaits/dsp/engine2/wave_terrain_engine.cc **** 
 180:../eurorack/plaits/dsp/engine2/wave_terrain_engine.cc **** void WaveTerrainEngine::Render(
 181:../eurorack/plaits/dsp/engine2/wave_terrain_engine.cc ****     const EngineParameters& parameters,
 182:../eurorack/plaits/dsp/engine2/wave_terrain_engine.cc ****     float* out,
 183:../eurorack/plaits/dsp/engine2/wave_terrain_engine.cc ****     float* aux,
 184:../eurorack/plaits/dsp/engine2/wave_terrain_engine.cc ****     size_t size,
 185:../eurorack/plaits/dsp/engine2/wave_terrain_engine.cc ****     bool* already_enveloped) {
 909              		.loc 1 185 30 is_stmt 1 view -0
 910              		.cfi_startproc
 911              		@ args = 8, pretend = 0, frame = 8
 912              		@ frame_needed = 0, uses_anonymous_args = 0
 913              	.LBB194:
 914              	.LBB195:
 915              		.file 7 "../eurorack/plaits/dsp/engine/engine.h"
   1:../eurorack/plaits/dsp/engine/engine.h **** // Copyright 2016 Emilie Gillet.
   2:../eurorack/plaits/dsp/engine/engine.h **** //
   3:../eurorack/plaits/dsp/engine/engine.h **** // Author: Emilie Gillet (emilie.o.gillet@gmail.com)
   4:../eurorack/plaits/dsp/engine/engine.h **** //
   5:../eurorack/plaits/dsp/engine/engine.h **** // Permission is hereby granted, free of charge, to any person obtaining a copy
   6:../eurorack/plaits/dsp/engine/engine.h **** // of this software and associated documentation files (the "Software"), to deal
   7:../eurorack/plaits/dsp/engine/engine.h **** // in the Software without restriction, including without limitation the rights
   8:../eurorack/plaits/dsp/engine/engine.h **** // to use, copy, modify, merge, publish, distribute, sublicense, and/or sell
   9:../eurorack/plaits/dsp/engine/engine.h **** // copies of the Software, and to permit persons to whom the Software is
  10:../eurorack/plaits/dsp/engine/engine.h **** // furnished to do so, subject to the following conditions:
  11:../eurorack/plaits/dsp/engine/engine.h **** // 
  12:../eurorack/plaits/dsp/engine/engine.h **** // The above copyright notice and this permission notice shall be included in
  13:../eurorack/plaits/dsp/engine/engine.h **** // all copies or substantial portions of the Software.
  14:../eurorack/plaits/dsp/engine/engine.h **** // 
  15:../eurorack/plaits/dsp/engine/engine.h **** // THE SOFTWARE IS PROVIDED "AS IS", WITHOUT WARRANTY OF ANY KIND, EXPRESS OR
  16:../eurorack/plaits/dsp/engine/engine.h **** // IMPLIED, INCLUDING BUT NOT LIMITED TO THE WARRANTIES OF MERCHANTABILITY,
  17:../eurorack/plaits/dsp/engine/engine.h **** // FITNESS FOR A PARTICULAR PURPOSE AND NONINFRINGEMENT. IN NO EVENT SHALL THE
  18:../eurorack/plaits/dsp/engine/engine.h **** // AUTHORS OR COPYRIGHT HOLDERS BE LIABLE FOR ANY CLAIM, DAMAGES OR OTHER
  19:../eurorack/plaits/dsp/engine/engine.h **** // LIABILITY, WHETHER IN AN ACTION OF CONTRACT, TORT OR OTHERWISE, ARISING FROM,
  20:../eurorack/plaits/dsp/engine/engine.h **** // OUT OF OR IN CONNECTION WITH THE SOFTWARE OR THE USE OR OTHER DEALINGS IN
  21:../eurorack/plaits/dsp/engine/engine.h **** // THE SOFTWARE.
  22:../eurorack/plaits/dsp/engine/engine.h **** // 
  23:../eurorack/plaits/dsp/engine/engine.h **** // See http://creativecommons.org/licenses/MIT/ for more information.
  24:../eurorack/plaits/dsp/engine/engine.h **** //
  25:../eurorack/plaits/dsp/engine/engine.h **** // -----------------------------------------------------------------------------
  26:../eurorack/plaits/dsp/engine/engine.h **** //
  27:../eurorack/plaits/dsp/engine/engine.h **** // Base class for all engines.
  28:../eurorack/plaits/dsp/engine/engine.h **** 
  29:../eurorack/plaits/dsp/engine/engine.h **** #ifndef PLAITS_DSP_ENGINE_ENGINE_H_
  30:../eurorack/plaits/dsp/engine/engine.h **** #define PLAITS_DSP_ENGINE_ENGINE_H_
  31:../eurorack/plaits/dsp/engine/engine.h **** 
  32:../eurorack/plaits/dsp/engine/engine.h **** #include "plaits/dsp/dsp.h"
  33:../eurorack/plaits/dsp/engine/engine.h **** 
  34:../eurorack/plaits/dsp/engine/engine.h **** #include "stmlib/dsp/units.h"
  35:../eurorack/plaits/dsp/engine/engine.h **** #include "stmlib/utils/buffer_allocator.h"
  36:../eurorack/plaits/dsp/engine/engine.h **** 
ARM GAS  /var/folders/y7/g6pkzsp12sx54x3s3mvyn15r0000gn/T//ccpDeTAb.s 			page 32


  37:../eurorack/plaits/dsp/engine/engine.h **** namespace plaits {
  38:../eurorack/plaits/dsp/engine/engine.h **** 
  39:../eurorack/plaits/dsp/engine/engine.h **** inline float NoteToFrequency(float midi_note) {
  40:../eurorack/plaits/dsp/engine/engine.h ****   midi_note -= 9.0f;
 916              		.loc 7 40 13 is_stmt 0 view .LVU291
 917 0000 F2EE027A 		vmov.f32	s15, #9.0e+0
 918 0004 91ED017A 		vldr.32	s14, [r1, #4]
 919              	.LBE195:
 920              	.LBE194:
 921              		.loc 1 185 30 view .LVU292
 922 0008 2DE9F04F 		push	{r4, r5, r6, r7, r8, r9, r10, fp, lr}
 923              		.cfi_def_cfa_offset 36
 924              		.cfi_offset 4, -36
 925              		.cfi_offset 5, -32
 926              		.cfi_offset 6, -28
 927              		.cfi_offset 7, -24
 928              		.cfi_offset 8, -20
 929              		.cfi_offset 9, -16
 930              		.cfi_offset 10, -12
 931              		.cfi_offset 11, -8
 932              		.cfi_offset 14, -4
 933              	.LBB211:
 934              	.LBB204:
 935              		.loc 7 40 13 view .LVU293
 936 000c 37EE677A 		vsub.f32	s14, s14, s15
  41:../eurorack/plaits/dsp/engine/engine.h ****   CONSTRAIN(midi_note, -128.0f, 127.0f);
 937              		.loc 7 41 3 view .LVU294
 938 0010 DFEDB37A 		vldr.32	s15, .L43
 939              	.LBE204:
 940              	.LBE211:
 941              		.loc 1 185 30 view .LVU295
 942 0014 1E46     		mov	r6, r3
 186:../eurorack/plaits/dsp/engine2/wave_terrain_engine.cc ****   const size_t kOversampling = 2;
 187:../eurorack/plaits/dsp/engine2/wave_terrain_engine.cc ****   const float kScale = 1.0f / float(kOversampling);
 188:../eurorack/plaits/dsp/engine2/wave_terrain_engine.cc **** 
 189:../eurorack/plaits/dsp/engine2/wave_terrain_engine.cc ****   float* path_x = &temp_buffer_[0];
 943              		.loc 1 189 10 view .LVU296
 944 0016 856A     		ldr	r5, [r0, #40]
 185:../eurorack/plaits/dsp/engine2/wave_terrain_engine.cc ****   const size_t kOversampling = 2;
 945              		.loc 1 185 30 view .LVU297
 946 0018 0446     		mov	r4, r0
 947 001a 1746     		mov	r7, r2
 948              	.LBB212:
 949              	.LBB205:
 950              		.loc 7 41 3 view .LVU298
 951 001c B4EEE77A 		vcmpe.f32	s14, s15
 952              	.LBE205:
 953              	.LBE212:
 185:../eurorack/plaits/dsp/engine2/wave_terrain_engine.cc ****   const size_t kOversampling = 2;
 954              		.loc 1 185 30 view .LVU299
 955 0020 2DED0E8B 		vpush.64	{d8, d9, d10, d11, d12, d13, d14}
 956              		.cfi_def_cfa_offset 92
 957              		.cfi_offset 80, -92
 958              		.cfi_offset 81, -88
 959              		.cfi_offset 82, -84
 960              		.cfi_offset 83, -80
 961              		.cfi_offset 84, -76
ARM GAS  /var/folders/y7/g6pkzsp12sx54x3s3mvyn15r0000gn/T//ccpDeTAb.s 			page 33


 962              		.cfi_offset 85, -72
 963              		.cfi_offset 86, -68
 964              		.cfi_offset 87, -64
 965              		.cfi_offset 88, -60
 966              		.cfi_offset 89, -56
 967              		.cfi_offset 90, -52
 968              		.cfi_offset 91, -48
 969              		.cfi_offset 92, -44
 970              		.cfi_offset 93, -40
 971 0024 83B0     		sub	sp, sp, #12
 972              		.cfi_def_cfa_offset 104
 186:../eurorack/plaits/dsp/engine2/wave_terrain_engine.cc ****   const size_t kOversampling = 2;
 973              		.loc 1 186 3 is_stmt 1 view .LVU300
 974              	.LVL89:
 187:../eurorack/plaits/dsp/engine2/wave_terrain_engine.cc **** 
 975              		.loc 1 187 3 view .LVU301
 976              		.loc 1 189 3 view .LVU302
 190:../eurorack/plaits/dsp/engine2/wave_terrain_engine.cc ****   float* path_y = &temp_buffer_[kOversampling * size];
 977              		.loc 1 190 3 view .LVU303
 978              	.LBB213:
 979              	.LBB206:
 980              		.loc 7 41 3 is_stmt 0 view .LVU304
 981 0026 F1EE10FA 		vmrs	APSR_nzcv, FPSCR
 982              	.LBE206:
 983              	.LBE213:
 185:../eurorack/plaits/dsp/engine2/wave_terrain_engine.cc ****   const size_t kOversampling = 2;
 984              		.loc 1 185 30 view .LVU305
 985 002a 1A9B     		ldr	r3, [sp, #104]
 986              	.LVL90:
 987              		.loc 1 190 10 view .LVU306
 988 002c 05EBC308 		add	r8, r5, r3, lsl #3
 989              	.LVL91:
 191:../eurorack/plaits/dsp/engine2/wave_terrain_engine.cc ****   
 192:../eurorack/plaits/dsp/engine2/wave_terrain_engine.cc ****   const float f0 = NoteToFrequency(parameters.note);
 990              		.loc 1 192 3 is_stmt 1 view .LVU307
 991              	.LBB214:
 992              	.LBI194:
  39:../eurorack/plaits/dsp/engine/engine.h ****   midi_note -= 9.0f;
 993              		.loc 7 39 14 view .LVU308
 994              	.LBB207:
  40:../eurorack/plaits/dsp/engine/engine.h ****   CONSTRAIN(midi_note, -128.0f, 127.0f);
 995              		.loc 7 40 3 view .LVU309
 996              		.loc 7 41 3 view .LVU310
 997 0030 07D4     		bmi	.L28
 998              		.loc 7 41 3 discriminator 2 view .LVU311
 999 0032 DFEDAC7A 		vldr.32	s15, .L43+4
 1000 0036 B4EEE77A 		vcmpe.f32	s14, s15
 1001 003a F1EE10FA 		vmrs	APSR_nzcv, FPSCR
 1002 003e 77FE877A 		vselgt.f32	s15, s15, s14
 1003              	.L28:
 1004              	.LVL92:
 1005              		.loc 7 41 40 discriminator 6 view .LVU312
  42:../eurorack/plaits/dsp/engine/engine.h ****   return a0 * 0.25f * stmlib::SemitonesToRatio(midi_note);
 1006              		.loc 7 42 3 view .LVU313
 1007              	.LBB196:
 1008              	.LBI196:
 1009              		.file 8 "../eurorack/stmlib/dsp/units.h"
ARM GAS  /var/folders/y7/g6pkzsp12sx54x3s3mvyn15r0000gn/T//ccpDeTAb.s 			page 34


   1:../eurorack/stmlib/dsp/units.h **** // Copyright 2014 Emilie Gillet.
   2:../eurorack/stmlib/dsp/units.h **** //
   3:../eurorack/stmlib/dsp/units.h **** // Author: Emilie Gillet (emilie.o.gillet@gmail.com)
   4:../eurorack/stmlib/dsp/units.h **** //
   5:../eurorack/stmlib/dsp/units.h **** // Permission is hereby granted, free of charge, to any person obtaining a copy
   6:../eurorack/stmlib/dsp/units.h **** // of this software and associated documentation files (the "Software"), to deal
   7:../eurorack/stmlib/dsp/units.h **** // in the Software without restriction, including without limitation the rights
   8:../eurorack/stmlib/dsp/units.h **** // to use, copy, modify, merge, publish, distribute, sublicense, and/or sell
   9:../eurorack/stmlib/dsp/units.h **** // copies of the Software, and to permit persons to whom the Software is
  10:../eurorack/stmlib/dsp/units.h **** // furnished to do so, subject to the following conditions:
  11:../eurorack/stmlib/dsp/units.h **** // 
  12:../eurorack/stmlib/dsp/units.h **** // The above copyright notice and this permission notice shall be included in
  13:../eurorack/stmlib/dsp/units.h **** // all copies or substantial portions of the Software.
  14:../eurorack/stmlib/dsp/units.h **** // 
  15:../eurorack/stmlib/dsp/units.h **** // THE SOFTWARE IS PROVIDED "AS IS", WITHOUT WARRANTY OF ANY KIND, EXPRESS OR
  16:../eurorack/stmlib/dsp/units.h **** // IMPLIED, INCLUDING BUT NOT LIMITED TO THE WARRANTIES OF MERCHANTABILITY,
  17:../eurorack/stmlib/dsp/units.h **** // FITNESS FOR A PARTICULAR PURPOSE AND NONINFRINGEMENT. IN NO EVENT SHALL THE
  18:../eurorack/stmlib/dsp/units.h **** // AUTHORS OR COPYRIGHT HOLDERS BE LIABLE FOR ANY CLAIM, DAMAGES OR OTHER
  19:../eurorack/stmlib/dsp/units.h **** // LIABILITY, WHETHER IN AN ACTION OF CONTRACT, TORT OR OTHERWISE, ARISING FROM,
  20:../eurorack/stmlib/dsp/units.h **** // OUT OF OR IN CONNECTION WITH THE SOFTWARE OR THE USE OR OTHER DEALINGS IN
  21:../eurorack/stmlib/dsp/units.h **** // THE SOFTWARE.
  22:../eurorack/stmlib/dsp/units.h **** // 
  23:../eurorack/stmlib/dsp/units.h **** // See http://creativecommons.org/licenses/MIT/ for more information.
  24:../eurorack/stmlib/dsp/units.h **** //
  25:../eurorack/stmlib/dsp/units.h **** // -----------------------------------------------------------------------------
  26:../eurorack/stmlib/dsp/units.h **** //
  27:../eurorack/stmlib/dsp/units.h **** // Conversion from semitones to frequency ratio.
  28:../eurorack/stmlib/dsp/units.h **** 
  29:../eurorack/stmlib/dsp/units.h **** #ifndef STMLIB_DSP_UNITS_H_
  30:../eurorack/stmlib/dsp/units.h **** #define STMLIB_DSP_UNITS_H_
  31:../eurorack/stmlib/dsp/units.h **** 
  32:../eurorack/stmlib/dsp/units.h **** #include "stmlib/stmlib.h"
  33:../eurorack/stmlib/dsp/units.h **** #include "stmlib/dsp/dsp.h"
  34:../eurorack/stmlib/dsp/units.h **** 
  35:../eurorack/stmlib/dsp/units.h **** namespace stmlib {
  36:../eurorack/stmlib/dsp/units.h **** 
  37:../eurorack/stmlib/dsp/units.h **** extern const float lut_pitch_ratio_high[257];
  38:../eurorack/stmlib/dsp/units.h **** extern const float lut_pitch_ratio_low[257];
  39:../eurorack/stmlib/dsp/units.h **** 
  40:../eurorack/stmlib/dsp/units.h **** inline float SemitonesToRatio(float semitones) {
 1010              		.loc 8 40 14 view .LVU314
 1011              	.LBB197:
  41:../eurorack/stmlib/dsp/units.h ****   float pitch = semitones + 128.0f;
 1012              		.loc 8 41 3 view .LVU315
 1013              		.loc 8 41 9 is_stmt 0 view .LVU316
 1014 0042 9FEDA97A 		vldr.32	s14, .L43+8
 1015              	.LBE197:
 1016              	.LBE196:
 1017              	.LBE207:
 1018              	.LBE214:
 193:../eurorack/plaits/dsp/engine2/wave_terrain_engine.cc ****   const float attenuation = max(1.0f - 8.0f * f0, 0.0f);
 194:../eurorack/plaits/dsp/engine2/wave_terrain_engine.cc ****   const float radius = 0.1f + 0.9f * parameters.timbre * attenuation * \
 195:../eurorack/plaits/dsp/engine2/wave_terrain_engine.cc ****       (2.0f - attenuation);
 196:../eurorack/plaits/dsp/engine2/wave_terrain_engine.cc **** 
 197:../eurorack/plaits/dsp/engine2/wave_terrain_engine.cc ****   // Use the "magic sine" algorithm to generate sin and cos functions for the
 198:../eurorack/plaits/dsp/engine2/wave_terrain_engine.cc ****   // trajectory coordinates.
 199:../eurorack/plaits/dsp/engine2/wave_terrain_engine.cc ****   path_.RenderQuadrature(
ARM GAS  /var/folders/y7/g6pkzsp12sx54x3s3mvyn15r0000gn/T//ccpDeTAb.s 			page 35


 1019              		.loc 1 199 25 view .LVU317
 1020 0046 B6EE00AA 		vmov.f32	s20, #5.0e-1
 1021              	.LBB215:
 1022              	.LBB208:
 1023              	.LBB201:
 1024              	.LBB198:
  42:../eurorack/stmlib/dsp/units.h ****   MAKE_INTEGRAL_FRACTIONAL(pitch)
  43:../eurorack/stmlib/dsp/units.h **** 
  44:../eurorack/stmlib/dsp/units.h ****   return lut_pitch_ratio_high[pitch_integral] * \
  45:../eurorack/stmlib/dsp/units.h ****       lut_pitch_ratio_low[static_cast<int32_t>(pitch_fractional * 256.0f)];
 1025              		.loc 8 45 74 view .LVU318
 1026 004a A848     		ldr	r0, .L43+12
 1027              	.LVL93:
 1028              		.loc 8 45 74 view .LVU319
 1029              	.LBE198:
 1030              	.LBE201:
 1031              	.LBE208:
 1032              	.LBE215:
 1033              	.LBB216:
 1034              	.LBB217:
 1035              	.LBB218:
 168:../eurorack/plaits/dsp/oscillator/sine_oscillator.h ****   }
 169:../eurorack/plaits/dsp/oscillator/sine_oscillator.h ****   
 170:../eurorack/plaits/dsp/oscillator/sine_oscillator.h ****   enum Mode {
 171:../eurorack/plaits/dsp/oscillator/sine_oscillator.h ****     NORMAL,
 172:../eurorack/plaits/dsp/oscillator/sine_oscillator.h ****     ADDITIVE,
 173:../eurorack/plaits/dsp/oscillator/sine_oscillator.h ****     QUADRATURE
 174:../eurorack/plaits/dsp/oscillator/sine_oscillator.h ****   };
 175:../eurorack/plaits/dsp/oscillator/sine_oscillator.h ****   
 176:../eurorack/plaits/dsp/oscillator/sine_oscillator.h ****   static inline float Fast2Sin(float f) {
 177:../eurorack/plaits/dsp/oscillator/sine_oscillator.h ****     // In theory, epsilon = 2 sin(pi f)
 178:../eurorack/plaits/dsp/oscillator/sine_oscillator.h ****     // Here, to avoid the call to sinf, we use a 3rd order polynomial
 179:../eurorack/plaits/dsp/oscillator/sine_oscillator.h ****     // approximation, which looks like a Taylor expansion, but with a
 180:../eurorack/plaits/dsp/oscillator/sine_oscillator.h ****     // correction term to give a good trade-off between average error
 181:../eurorack/plaits/dsp/oscillator/sine_oscillator.h ****     // (1.13 cents) and maximum error (7.33 cents) when generating sinewaves
 182:../eurorack/plaits/dsp/oscillator/sine_oscillator.h ****     // in the 16 Hz to 16kHz range (with sr = 48kHz).
 183:../eurorack/plaits/dsp/oscillator/sine_oscillator.h ****     const float f_pi = f * float(M_PI);
 184:../eurorack/plaits/dsp/oscillator/sine_oscillator.h ****     return f_pi * (2.0f - (2.0f * 0.96f / 6.0f) * f_pi * f_pi);
 185:../eurorack/plaits/dsp/oscillator/sine_oscillator.h ****   }
 186:../eurorack/plaits/dsp/oscillator/sine_oscillator.h ****   
 187:../eurorack/plaits/dsp/oscillator/sine_oscillator.h ****   void Render(float frequency, float* out, size_t size) {
 188:../eurorack/plaits/dsp/oscillator/sine_oscillator.h ****     RenderInternal<NORMAL>(frequency, 1.0f, out, NULL, size);
 189:../eurorack/plaits/dsp/oscillator/sine_oscillator.h ****   }
 190:../eurorack/plaits/dsp/oscillator/sine_oscillator.h ****   
 191:../eurorack/plaits/dsp/oscillator/sine_oscillator.h ****   void Render(float frequency, float amplitude, float* out, size_t size) {
 192:../eurorack/plaits/dsp/oscillator/sine_oscillator.h ****     RenderInternal<ADDITIVE>(frequency, amplitude, out, NULL, size);
 193:../eurorack/plaits/dsp/oscillator/sine_oscillator.h ****   }
 194:../eurorack/plaits/dsp/oscillator/sine_oscillator.h **** 
 195:../eurorack/plaits/dsp/oscillator/sine_oscillator.h ****   void RenderQuadrature(
 196:../eurorack/plaits/dsp/oscillator/sine_oscillator.h ****       float frequency, float amplitude, float* x, float* y, size_t size) {
 197:../eurorack/plaits/dsp/oscillator/sine_oscillator.h ****     RenderInternal<QUADRATURE>(frequency, amplitude, x, y, size);
 198:../eurorack/plaits/dsp/oscillator/sine_oscillator.h ****   }
 199:../eurorack/plaits/dsp/oscillator/sine_oscillator.h ****   
 200:../eurorack/plaits/dsp/oscillator/sine_oscillator.h ****  private:
 201:../eurorack/plaits/dsp/oscillator/sine_oscillator.h ****   template<Mode mode>
 202:../eurorack/plaits/dsp/oscillator/sine_oscillator.h ****   void RenderInternal(
 203:../eurorack/plaits/dsp/oscillator/sine_oscillator.h ****       float frequency, float amplitude, float* out, float* out_2, size_t size) {
ARM GAS  /var/folders/y7/g6pkzsp12sx54x3s3mvyn15r0000gn/T//ccpDeTAb.s 			page 36


 204:../eurorack/plaits/dsp/oscillator/sine_oscillator.h ****     if (frequency >= 0.25f) {
 1036              		.loc 3 204 5 view .LVU320
 1037 004c F5EE00AA 		vmov.f32	s21, #2.5e-1
 1038              	.LBE218:
 1039              	.LBE217:
 1040              	.LBE216:
 1041              	.LBB290:
 1042              	.LBB209:
 1043              	.LBB202:
 1044              	.LBB199:
  41:../eurorack/stmlib/dsp/units.h ****   MAKE_INTEGRAL_FRACTIONAL(pitch)
 1045              		.loc 8 41 9 view .LVU321
 1046 0050 77EE877A 		vadd.f32	s15, s15, s14
 1047              	.LVL94:
  42:../eurorack/stmlib/dsp/units.h ****   MAKE_INTEGRAL_FRACTIONAL(pitch)
 1048              		.loc 8 42 3 is_stmt 1 view .LVU322
 1049              	.LBE199:
 1050              	.LBE202:
 1051              	.LBE209:
 1052              	.LBE290:
 1053              		.loc 1 199 25 is_stmt 0 view .LVU323
 1054 0054 4FEA4309 		lsl	r9, r3, #1
 1055 0058 F0EE004A 		vmov.f32	s9, #2.0e+0
 1056              	.LBB291:
 1057              	.LBB210:
 1058              	.LBB203:
 1059              	.LBB200:
  42:../eurorack/stmlib/dsp/units.h ****   MAKE_INTEGRAL_FRACTIONAL(pitch)
 1060              		.loc 8 42 3 view .LVU324
 1061 005c BDEEE77A 		vcvt.s32.f32	s14, s15
 1062              	.LVL95:
  42:../eurorack/stmlib/dsp/units.h ****   MAKE_INTEGRAL_FRACTIONAL(pitch)
 1063              		.loc 8 42 3 is_stmt 1 view .LVU325
  44:../eurorack/stmlib/dsp/units.h ****       lut_pitch_ratio_low[static_cast<int32_t>(pitch_fractional * 256.0f)];
 1064              		.loc 8 44 3 view .LVU326
  42:../eurorack/stmlib/dsp/units.h **** 
 1065              		.loc 8 42 3 is_stmt 0 view .LVU327
 1066 0060 F8EEC76A 		vcvt.f32.s32	s13, s14
  44:../eurorack/stmlib/dsp/units.h ****       lut_pitch_ratio_low[static_cast<int32_t>(pitch_fractional * 256.0f)];
 1067              		.loc 8 44 45 view .LVU328
 1068 0064 17EE10CA 		vmov	ip, s14	@ int
  42:../eurorack/stmlib/dsp/units.h **** 
 1069              		.loc 8 42 3 view .LVU329
 1070 0068 77EEE67A 		vsub.f32	s15, s15, s13
 1071              		.loc 8 45 27 view .LVU330
 1072 006c FEEECC7A 		vcvt.s32.f32	s15, s15, #8
 1073              		.loc 8 45 74 view .LVU331
 1074 0070 17EE902A 		vmov	r2, s15	@ int
 1075              	.LVL96:
 1076              		.loc 8 45 74 view .LVU332
 1077 0074 00EB8200 		add	r0, r0, r2, lsl #2
  44:../eurorack/stmlib/dsp/units.h ****       lut_pitch_ratio_low[static_cast<int32_t>(pitch_fractional * 256.0f)];
 1078              		.loc 8 44 45 view .LVU333
 1079 0078 9D4A     		ldr	r2, .L43+16
 1080 007a 02EB8C02 		add	r2, r2, ip, lsl #2
 1081              		.loc 8 45 74 view .LVU334
 1082 007e D0ED006A 		vldr.32	s13, [r0]
ARM GAS  /var/folders/y7/g6pkzsp12sx54x3s3mvyn15r0000gn/T//ccpDeTAb.s 			page 37


 1083 0082 D2ED007A 		vldr.32	s15, [r2]
 1084 0086 66EEA76A 		vmul.f32	s13, s13, s15
 1085              	.LBE200:
 1086              	.LBE203:
 1087              		.loc 7 42 57 discriminator 1 view .LVU335
 1088 008a DFED9A7A 		vldr.32	s15, .L43+20
 1089 008e 66EEA76A 		vmul.f32	s13, s13, s15
 1090              	.LVL97:
 1091              		.loc 7 42 57 discriminator 1 view .LVU336
 1092              	.LBE210:
 1093              	.LBE291:
 193:../eurorack/plaits/dsp/engine2/wave_terrain_engine.cc ****   const float radius = 0.1f + 0.9f * parameters.timbre * attenuation * \
 1094              		.loc 1 193 3 is_stmt 1 view .LVU337
 194:../eurorack/plaits/dsp/engine2/wave_terrain_engine.cc ****       (2.0f - attenuation);
 1095              		.loc 1 194 3 view .LVU338
 1096              		.loc 1 199 3 view .LVU339
 1097              		.loc 1 199 3 is_stmt 0 view .LVU340
 1098 0092 DFED997A 		vldr.32	s15, .L43+24
 1099              		.loc 1 199 25 view .LVU341
 1100 0096 26EE8A7A 		vmul.f32	s14, s13, s20
 1101              	.LVL98:
 1102              	.LBB292:
 1103              	.LBI216:
 195:../eurorack/plaits/dsp/oscillator/sine_oscillator.h ****       float frequency, float amplitude, float* x, float* y, size_t size) {
 1104              		.loc 3 195 8 is_stmt 1 view .LVU342
 197:../eurorack/plaits/dsp/oscillator/sine_oscillator.h ****   }
 1105              		.loc 3 197 5 view .LVU343
 1106              	.LBB283:
 1107              	.LBI217:
 202:../eurorack/plaits/dsp/oscillator/sine_oscillator.h ****       float frequency, float amplitude, float* out, float* out_2, size_t size) {
 1108              		.loc 3 202 8 view .LVU344
 1109              	.LBB276:
 1110              		.loc 3 204 5 is_stmt 0 view .LVU345
 1111 009a B4EEEA7A 		vcmpe.f32	s14, s21
 1112 009e F1EE10FA 		vmrs	APSR_nzcv, FPSCR
 1113 00a2 80F2B780 		bge	.L40
 1114              	.LBE276:
 1115              	.LBE283:
 1116              	.LBE292:
 193:../eurorack/plaits/dsp/engine2/wave_terrain_engine.cc ****   const float radius = 0.1f + 0.9f * parameters.timbre * attenuation * \
 1117              		.loc 1 193 38 view .LVU346
 1118 00a6 B7EE006A 		vmov.f32	s12, #1.0e+0
 1119 00aa B2EE005A 		vmov.f32	s10, #8.0e+0
 1120 00ae F0EE465A 		vmov.f32	s11, s12
 1121 00b2 E6EEC55A 		vfms.f32	s11, s13, s10
 194:../eurorack/plaits/dsp/engine2/wave_terrain_engine.cc ****       (2.0f - attenuation);
 1122              		.loc 1 194 49 view .LVU347
 1123 00b6 D1ED026A 		vldr.32	s13, [r1, #8]
 1124              	.LVL99:
 194:../eurorack/plaits/dsp/engine2/wave_terrain_engine.cc ****       (2.0f - attenuation);
 1125              		.loc 1 194 49 view .LVU348
 1126 00ba F4EEE75A 		vcmpe.f32	s11, s15
 1127 00be F1EE10FA 		vmrs	APSR_nzcv, FPSCR
 1128 00c2 58BF     		it	pl
 1129 00c4 F0EE657A 		vmovpl.f32	s15, s11
 1130              	.LBB293:
 1131              	.LBB284:
ARM GAS  /var/folders/y7/g6pkzsp12sx54x3s3mvyn15r0000gn/T//ccpDeTAb.s 			page 38


 1132              	.LBB277:
 205:../eurorack/plaits/dsp/oscillator/sine_oscillator.h ****       frequency = 0.25f;
 206:../eurorack/plaits/dsp/oscillator/sine_oscillator.h ****       amplitude = 0.0f;
 207:../eurorack/plaits/dsp/oscillator/sine_oscillator.h ****     } else {
 208:../eurorack/plaits/dsp/oscillator/sine_oscillator.h ****       amplitude *= 1.0f - frequency * 4.0f;
 1133              		.loc 3 208 25 view .LVU349
 1134 00c8 F1EE005A 		vmov.f32	s11, #4.0e+0
 1135 00cc A7EE656A 		vfms.f32	s12, s14, s11
 1136              	.LBE277:
 1137              	.LBE284:
 1138              	.LBE293:
 194:../eurorack/plaits/dsp/engine2/wave_terrain_engine.cc ****       (2.0f - attenuation);
 1139              		.loc 1 194 36 view .LVU350
 1140 00d0 DFED8A5A 		vldr.32	s11, .L43+28
 1141 00d4 66EEA56A 		vmul.f32	s13, s13, s11
 194:../eurorack/plaits/dsp/engine2/wave_terrain_engine.cc ****       (2.0f - attenuation);
 1142              		.loc 1 194 15 view .LVU351
 1143 00d8 DFED895A 		vldr.32	s11, .L43+32
 194:../eurorack/plaits/dsp/engine2/wave_terrain_engine.cc ****       (2.0f - attenuation);
 1144              		.loc 1 194 56 view .LVU352
 1145 00dc 66EEA76A 		vmul.f32	s13, s13, s15
 195:../eurorack/plaits/dsp/engine2/wave_terrain_engine.cc **** 
 1146              		.loc 1 195 13 view .LVU353
 1147 00e0 74EEE77A 		vsub.f32	s15, s9, s15
 194:../eurorack/plaits/dsp/engine2/wave_terrain_engine.cc ****       (2.0f - attenuation);
 1148              		.loc 1 194 15 view .LVU354
 1149 00e4 E6EEA75A 		vfma.f32	s11, s13, s15
 1150              	.LBB294:
 1151              	.LBB285:
 1152              	.LBB278:
 1153              		.loc 3 208 17 view .LVU355
 1154 00e8 65EE867A 		vmul.f32	s15, s11, s12
 1155              	.LVL100:
 1156              	.L29:
 1157              	.LBB219:
 1158              	.LBI219:
 176:../eurorack/plaits/dsp/oscillator/sine_oscillator.h ****     // In theory, epsilon = 2 sin(pi f)
 1159              		.loc 3 176 23 is_stmt 1 view .LVU356
 1160              	.LBB220:
 183:../eurorack/plaits/dsp/oscillator/sine_oscillator.h ****     return f_pi * (2.0f - (2.0f * 0.96f / 6.0f) * f_pi * f_pi);
 1161              		.loc 3 183 5 view .LVU357
 183:../eurorack/plaits/dsp/oscillator/sine_oscillator.h ****     return f_pi * (2.0f - (2.0f * 0.96f / 6.0f) * f_pi * f_pi);
 1162              		.loc 3 183 17 is_stmt 0 view .LVU358
 1163 00ec DFED856A 		vldr.32	s13, .L43+36
 184:../eurorack/plaits/dsp/oscillator/sine_oscillator.h ****   }
 1164              		.loc 3 184 25 view .LVU359
 1165 00f0 B0EE646A 		vmov.f32	s12, s9
 1166              	.LBE220:
 1167              	.LBE219:
 1168              	.LBB224:
 1169              	.LBB225:
 1170              	.LBB226:
 1171              		.file 9 "../eurorack/stmlib/dsp/parameter_interpolator.h"
   1:../eurorack/stmlib/dsp/parameter_interpolator.h **** // Copyright 2015 Emilie Gillet.
   2:../eurorack/stmlib/dsp/parameter_interpolator.h **** //
   3:../eurorack/stmlib/dsp/parameter_interpolator.h **** // Author: Emilie Gillet (emilie.o.gillet@gmail.com)
   4:../eurorack/stmlib/dsp/parameter_interpolator.h **** //
ARM GAS  /var/folders/y7/g6pkzsp12sx54x3s3mvyn15r0000gn/T//ccpDeTAb.s 			page 39


   5:../eurorack/stmlib/dsp/parameter_interpolator.h **** // Permission is hereby granted, free of charge, to any person obtaining a copy
   6:../eurorack/stmlib/dsp/parameter_interpolator.h **** // of this software and associated documentation files (the "Software"), to deal
   7:../eurorack/stmlib/dsp/parameter_interpolator.h **** // in the Software without restriction, including without limitation the rights
   8:../eurorack/stmlib/dsp/parameter_interpolator.h **** // to use, copy, modify, merge, publish, distribute, sublicense, and/or sell
   9:../eurorack/stmlib/dsp/parameter_interpolator.h **** // copies of the Software, and to permit persons to whom the Software is
  10:../eurorack/stmlib/dsp/parameter_interpolator.h **** // furnished to do so, subject to the following conditions:
  11:../eurorack/stmlib/dsp/parameter_interpolator.h **** // 
  12:../eurorack/stmlib/dsp/parameter_interpolator.h **** // The above copyright notice and this permission notice shall be included in
  13:../eurorack/stmlib/dsp/parameter_interpolator.h **** // all copies or substantial portions of the Software.
  14:../eurorack/stmlib/dsp/parameter_interpolator.h **** // 
  15:../eurorack/stmlib/dsp/parameter_interpolator.h **** // THE SOFTWARE IS PROVIDED "AS IS", WITHOUT WARRANTY OF ANY KIND, EXPRESS OR
  16:../eurorack/stmlib/dsp/parameter_interpolator.h **** // IMPLIED, INCLUDING BUT NOT LIMITED TO THE WARRANTIES OF MERCHANTABILITY,
  17:../eurorack/stmlib/dsp/parameter_interpolator.h **** // FITNESS FOR A PARTICULAR PURPOSE AND NONINFRINGEMENT. IN NO EVENT SHALL THE
  18:../eurorack/stmlib/dsp/parameter_interpolator.h **** // AUTHORS OR COPYRIGHT HOLDERS BE LIABLE FOR ANY CLAIM, DAMAGES OR OTHER
  19:../eurorack/stmlib/dsp/parameter_interpolator.h **** // LIABILITY, WHETHER IN AN ACTION OF CONTRACT, TORT OR OTHERWISE, ARISING FROM,
  20:../eurorack/stmlib/dsp/parameter_interpolator.h **** // OUT OF OR IN CONNECTION WITH THE SOFTWARE OR THE USE OR OTHER DEALINGS IN
  21:../eurorack/stmlib/dsp/parameter_interpolator.h **** // THE SOFTWARE.
  22:../eurorack/stmlib/dsp/parameter_interpolator.h **** // 
  23:../eurorack/stmlib/dsp/parameter_interpolator.h **** // See http://creativecommons.org/licenses/MIT/ for more information.
  24:../eurorack/stmlib/dsp/parameter_interpolator.h **** //
  25:../eurorack/stmlib/dsp/parameter_interpolator.h **** // -----------------------------------------------------------------------------
  26:../eurorack/stmlib/dsp/parameter_interpolator.h **** //
  27:../eurorack/stmlib/dsp/parameter_interpolator.h **** // Linear interpolation of parameters in rendering loops.
  28:../eurorack/stmlib/dsp/parameter_interpolator.h **** 
  29:../eurorack/stmlib/dsp/parameter_interpolator.h **** #ifndef STMLIB_DSP_PARAMETER_INTERPOLATOR_H_
  30:../eurorack/stmlib/dsp/parameter_interpolator.h **** #define STMLIB_DSP_PARAMETER_INTERPOLATOR_H_
  31:../eurorack/stmlib/dsp/parameter_interpolator.h **** 
  32:../eurorack/stmlib/dsp/parameter_interpolator.h **** #include "stmlib/stmlib.h"
  33:../eurorack/stmlib/dsp/parameter_interpolator.h **** 
  34:../eurorack/stmlib/dsp/parameter_interpolator.h **** namespace stmlib {
  35:../eurorack/stmlib/dsp/parameter_interpolator.h **** 
  36:../eurorack/stmlib/dsp/parameter_interpolator.h **** class ParameterInterpolator {
  37:../eurorack/stmlib/dsp/parameter_interpolator.h ****  public:
  38:../eurorack/stmlib/dsp/parameter_interpolator.h ****   ParameterInterpolator() { }
  39:../eurorack/stmlib/dsp/parameter_interpolator.h ****   ParameterInterpolator(float* state, float new_value, size_t size) {
  40:../eurorack/stmlib/dsp/parameter_interpolator.h ****     Init(state, new_value, size);
  41:../eurorack/stmlib/dsp/parameter_interpolator.h ****   }
  42:../eurorack/stmlib/dsp/parameter_interpolator.h **** 
  43:../eurorack/stmlib/dsp/parameter_interpolator.h ****   ParameterInterpolator(float* state, float new_value, float step) {
  44:../eurorack/stmlib/dsp/parameter_interpolator.h ****     state_ = state;
  45:../eurorack/stmlib/dsp/parameter_interpolator.h ****     value_ = *state;
  46:../eurorack/stmlib/dsp/parameter_interpolator.h ****     increment_ = (new_value - *state) * step;
  47:../eurorack/stmlib/dsp/parameter_interpolator.h ****   }
  48:../eurorack/stmlib/dsp/parameter_interpolator.h **** 
  49:../eurorack/stmlib/dsp/parameter_interpolator.h ****   ~ParameterInterpolator() {
  50:../eurorack/stmlib/dsp/parameter_interpolator.h ****     *state_ = value_;
  51:../eurorack/stmlib/dsp/parameter_interpolator.h ****   }
  52:../eurorack/stmlib/dsp/parameter_interpolator.h ****   
  53:../eurorack/stmlib/dsp/parameter_interpolator.h ****   inline void Init(float* state, float new_value, size_t size) {
  54:../eurorack/stmlib/dsp/parameter_interpolator.h ****     state_ = state;
  55:../eurorack/stmlib/dsp/parameter_interpolator.h ****     value_ = *state;
 1172              		.loc 9 55 14 view .LVU360
 1173 00f4 D4ED065A 		vldr.32	s11, [r4, #24]
 1174              	.LBE226:
 1175              	.LBE225:
 1176              	.LBE224:
 1177              	.LBB231:
ARM GAS  /var/folders/y7/g6pkzsp12sx54x3s3mvyn15r0000gn/T//ccpDeTAb.s 			page 40


 1178              	.LBB221:
 183:../eurorack/plaits/dsp/oscillator/sine_oscillator.h ****     return f_pi * (2.0f - (2.0f * 0.96f / 6.0f) * f_pi * f_pi);
 1179              		.loc 3 183 17 view .LVU361
 1180 00f8 27EE267A 		vmul.f32	s14, s14, s13
 1181              	.LVL101:
 184:../eurorack/plaits/dsp/oscillator/sine_oscillator.h ****   }
 1182              		.loc 3 184 5 is_stmt 1 view .LVU362
 184:../eurorack/plaits/dsp/oscillator/sine_oscillator.h ****   }
 1183              		.loc 3 184 49 is_stmt 0 view .LVU363
 1184 00fc DFED826A 		vldr.32	s13, .L43+40
 1185              	.LBE221:
 1186              	.LBE231:
 1187              	.LBB232:
 1188              	.LBB233:
 1189              	.LBB234:
 1190              		.loc 9 55 14 view .LVU364
 1191 0100 94ED075A 		vldr.32	s10, [r4, #28]
 1192              	.LBE234:
 1193              	.LBE233:
 1194              	.LBE232:
 1195              	.LBB241:
 1196              	.LBB222:
 184:../eurorack/plaits/dsp/oscillator/sine_oscillator.h ****   }
 1197              		.loc 3 184 49 view .LVU365
 1198 0104 67EE266A 		vmul.f32	s13, s14, s13
 1199              	.LBE222:
 1200              	.LBE241:
 1201              	.LBB242:
 1202              	.LBB238:
 1203              	.LBB235:
  56:../eurorack/stmlib/dsp/parameter_interpolator.h ****     increment_ = (new_value - *state) / static_cast<float>(size);
 1204              		.loc 9 56 29 view .LVU366
 1205 0108 77EEC57A 		vsub.f32	s15, s15, s10
 1206              	.LVL102:
 1207              		.loc 9 56 29 view .LVU367
 1208              	.LBE235:
 1209              	.LBE238:
 1210              	.LBE242:
 1211              	.LBB243:
 1212              	.LBB223:
 184:../eurorack/plaits/dsp/oscillator/sine_oscillator.h ****   }
 1213              		.loc 3 184 25 view .LVU368
 1214 010c A7EE666A 		vfms.f32	s12, s14, s13
 1215              	.LVL103:
 184:../eurorack/plaits/dsp/oscillator/sine_oscillator.h ****   }
 1216              		.loc 3 184 25 view .LVU369
 1217              	.LBE223:
 1218              	.LBE243:
 1219              	.LBB244:
 1220              	.LBI224:
  39:../eurorack/stmlib/dsp/parameter_interpolator.h ****     Init(state, new_value, size);
 1221              		.loc 9 39 3 is_stmt 1 view .LVU370
 1222              	.LBB229:
 1223              	.LBI225:
  53:../eurorack/stmlib/dsp/parameter_interpolator.h ****     state_ = state;
 1224              		.loc 9 53 15 view .LVU371
 1225              	.LBB227:
ARM GAS  /var/folders/y7/g6pkzsp12sx54x3s3mvyn15r0000gn/T//ccpDeTAb.s 			page 41


  54:../eurorack/stmlib/dsp/parameter_interpolator.h ****     value_ = *state;
 1226              		.loc 9 54 5 view .LVU372
  55:../eurorack/stmlib/dsp/parameter_interpolator.h ****     increment_ = (new_value - *state) / static_cast<float>(size);
 1227              		.loc 9 55 5 view .LVU373
 1228              		.loc 9 56 5 view .LVU374
 1229              		.loc 9 56 29 is_stmt 0 view .LVU375
 1230 0110 F0EE656A 		vmov.f32	s13, s11
 1231 0114 D7EE066A 		vfnms.f32	s13, s14, s12
 1232              		.loc 9 56 41 view .LVU376
 1233 0118 07EE109A 		vmov	s14, r9	@ int
 1234              	.LVL104:
 1235              		.loc 9 56 41 view .LVU377
 1236 011c B8EE477A 		vcvt.f32.u32	s14, s14
 1237              	.LBE227:
 1238              	.LBE229:
 1239              	.LBE244:
 1240              	.LBB245:
 1241              	.LBB239:
 1242              	.LBB236:
 1243              		.loc 9 56 39 view .LVU378
 1244 0120 C7EE873A 		vdiv.f32	s7, s15, s14
 1245              	.LBE236:
 1246              	.LBE239:
 1247              	.LBE245:
 1248              	.LBB246:
 1249              	.LBB230:
 1250              	.LBB228:
 1251 0124 86EE874A 		vdiv.f32	s8, s13, s14
 1252              	.LVL105:
 1253              		.loc 9 56 39 view .LVU379
 1254              	.LBE228:
 1255              	.LBE230:
 1256              	.LBE246:
 1257              	.LBB247:
 1258              	.LBI232:
  39:../eurorack/stmlib/dsp/parameter_interpolator.h ****     Init(state, new_value, size);
 1259              		.loc 9 39 3 is_stmt 1 view .LVU380
 1260              	.LBB240:
 1261              	.LBI233:
  53:../eurorack/stmlib/dsp/parameter_interpolator.h ****     state_ = state;
 1262              		.loc 9 53 15 view .LVU381
 1263              	.LBB237:
  54:../eurorack/stmlib/dsp/parameter_interpolator.h ****     value_ = *state;
 1264              		.loc 9 54 5 view .LVU382
  55:../eurorack/stmlib/dsp/parameter_interpolator.h ****     increment_ = (new_value - *state) / static_cast<float>(size);
 1265              		.loc 9 55 5 view .LVU383
 1266              		.loc 9 56 5 view .LVU384
 1267              		.loc 9 56 5 is_stmt 0 view .LVU385
 1268              	.LBE237:
 1269              	.LBE240:
 1270              	.LBE247:
 209:../eurorack/plaits/dsp/oscillator/sine_oscillator.h ****     }
 210:../eurorack/plaits/dsp/oscillator/sine_oscillator.h ****     
 211:../eurorack/plaits/dsp/oscillator/sine_oscillator.h ****     stmlib::ParameterInterpolator epsilon(&epsilon_, Fast2Sin(frequency), size);
 212:../eurorack/plaits/dsp/oscillator/sine_oscillator.h ****     stmlib::ParameterInterpolator am(&amplitude_, amplitude, size);
 213:../eurorack/plaits/dsp/oscillator/sine_oscillator.h ****     float x = x_;
 214:../eurorack/plaits/dsp/oscillator/sine_oscillator.h ****     float y = y_;
ARM GAS  /var/folders/y7/g6pkzsp12sx54x3s3mvyn15r0000gn/T//ccpDeTAb.s 			page 42


 1271              		.loc 3 214 11 view .LVU386
 1272 0128 94ED057A 		vldr.32	s14, [r4, #20]
 213:../eurorack/plaits/dsp/oscillator/sine_oscillator.h ****     float y = y_;
 1273              		.loc 3 213 11 view .LVU387
 1274 012c D4ED046A 		vldr.32	s13, [r4, #16]
 1275              	.LVL106:
 215:../eurorack/plaits/dsp/oscillator/sine_oscillator.h ****     
 216:../eurorack/plaits/dsp/oscillator/sine_oscillator.h ****     const float norm = x * x + y * y;
 1276              		.loc 3 216 34 view .LVU388
 1277 0130 67EE077A 		vmul.f32	s15, s14, s14
 1278              		.loc 3 216 17 view .LVU389
 1279 0134 E6EEA67A 		vfma.f32	s15, s13, s13
 1280              	.LVL107:
 1281              	.LBB248:
 217:../eurorack/plaits/dsp/oscillator/sine_oscillator.h ****     if (norm <= 0.5f || norm >= 2.0f) {
 1282              		.loc 3 217 5 view .LVU390
 1283 0138 F4EECA7A 		vcmpe.f32	s15, s20
 1284 013c F1EE10FA 		vmrs	APSR_nzcv, FPSCR
 1285 0140 04D9     		bls	.L30
 1286              		.loc 3 217 22 discriminator 1 view .LVU391
 1287 0142 F4EEE47A 		vcmpe.f32	s15, s9
 1288 0146 F1EE10FA 		vmrs	APSR_nzcv, FPSCR
 1289 014a 14DB     		blt	.L31
 1290              	.L30:
 1291              	.LVL108:
 1292              	.LBB249:
 1293              	.LBB250:
 1294              	.LBI250:
 1295              		.file 10 "../eurorack/stmlib/dsp/rsqrt.h"
   1:../eurorack/stmlib/dsp/rsqrt.h **** // Copyright 2014 Emilie Gillet.
   2:../eurorack/stmlib/dsp/rsqrt.h **** //
   3:../eurorack/stmlib/dsp/rsqrt.h **** // Author: Emilie Gillet (emilie.o.gillet@gmail.com)
   4:../eurorack/stmlib/dsp/rsqrt.h **** //
   5:../eurorack/stmlib/dsp/rsqrt.h **** // Permission is hereby granted, free of charge, to any person obtaining a copy
   6:../eurorack/stmlib/dsp/rsqrt.h **** // of this software and associated documentation files (the "Software"), to deal
   7:../eurorack/stmlib/dsp/rsqrt.h **** // in the Software without restriction, including without limitation the rights
   8:../eurorack/stmlib/dsp/rsqrt.h **** // to use, copy, modify, merge, publish, distribute, sublicense, and/or sell
   9:../eurorack/stmlib/dsp/rsqrt.h **** // copies of the Software, and to permit persons to whom the Software is
  10:../eurorack/stmlib/dsp/rsqrt.h **** // furnished to do so, subject to the following conditions:
  11:../eurorack/stmlib/dsp/rsqrt.h **** // 
  12:../eurorack/stmlib/dsp/rsqrt.h **** // The above copyright notice and this permission notice shall be included in
  13:../eurorack/stmlib/dsp/rsqrt.h **** // all copies or substantial portions of the Software.
  14:../eurorack/stmlib/dsp/rsqrt.h **** // 
  15:../eurorack/stmlib/dsp/rsqrt.h **** // THE SOFTWARE IS PROVIDED "AS IS", WITHOUT WARRANTY OF ANY KIND, EXPRESS OR
  16:../eurorack/stmlib/dsp/rsqrt.h **** // IMPLIED, INCLUDING BUT NOT LIMITED TO THE WARRANTIES OF MERCHANTABILITY,
  17:../eurorack/stmlib/dsp/rsqrt.h **** // FITNESS FOR A PARTICULAR PURPOSE AND NONINFRINGEMENT. IN NO EVENT SHALL THE
  18:../eurorack/stmlib/dsp/rsqrt.h **** // AUTHORS OR COPYRIGHT HOLDERS BE LIABLE FOR ANY CLAIM, DAMAGES OR OTHER
  19:../eurorack/stmlib/dsp/rsqrt.h **** // LIABILITY, WHETHER IN AN ACTION OF CONTRACT, TORT OR OTHERWISE, ARISING FROM,
  20:../eurorack/stmlib/dsp/rsqrt.h **** // OUT OF OR IN CONNECTION WITH THE SOFTWARE OR THE USE OR OTHER DEALINGS IN
  21:../eurorack/stmlib/dsp/rsqrt.h **** // THE SOFTWARE.
  22:../eurorack/stmlib/dsp/rsqrt.h **** // 
  23:../eurorack/stmlib/dsp/rsqrt.h **** // See http://creativecommons.org/licenses/MIT/ for more information.
  24:../eurorack/stmlib/dsp/rsqrt.h **** //
  25:../eurorack/stmlib/dsp/rsqrt.h **** // -----------------------------------------------------------------------------
  26:../eurorack/stmlib/dsp/rsqrt.h **** //
  27:../eurorack/stmlib/dsp/rsqrt.h **** // Fast reciprocal of square-root routines.
  28:../eurorack/stmlib/dsp/rsqrt.h **** 
ARM GAS  /var/folders/y7/g6pkzsp12sx54x3s3mvyn15r0000gn/T//ccpDeTAb.s 			page 43


  29:../eurorack/stmlib/dsp/rsqrt.h **** #ifndef STMLIB_DSP_RSQRT_H_
  30:../eurorack/stmlib/dsp/rsqrt.h **** #define STMLIB_DSP_RSQRT_H_
  31:../eurorack/stmlib/dsp/rsqrt.h **** 
  32:../eurorack/stmlib/dsp/rsqrt.h **** #include "stmlib/stmlib.h"
  33:../eurorack/stmlib/dsp/rsqrt.h **** 
  34:../eurorack/stmlib/dsp/rsqrt.h **** namespace stmlib {
  35:../eurorack/stmlib/dsp/rsqrt.h **** 
  36:../eurorack/stmlib/dsp/rsqrt.h **** template<typename To, typename From>
  37:../eurorack/stmlib/dsp/rsqrt.h **** struct unsafe_bit_cast_t {
  38:../eurorack/stmlib/dsp/rsqrt.h ****   union {
  39:../eurorack/stmlib/dsp/rsqrt.h ****     From from;
  40:../eurorack/stmlib/dsp/rsqrt.h ****     To to;
  41:../eurorack/stmlib/dsp/rsqrt.h ****   };
  42:../eurorack/stmlib/dsp/rsqrt.h **** };
  43:../eurorack/stmlib/dsp/rsqrt.h **** 
  44:../eurorack/stmlib/dsp/rsqrt.h **** template<typename To, typename From>
  45:../eurorack/stmlib/dsp/rsqrt.h **** To unsafe_bit_cast(From from) {
  46:../eurorack/stmlib/dsp/rsqrt.h ****     unsafe_bit_cast_t<To, From> u;
  47:../eurorack/stmlib/dsp/rsqrt.h ****     u.from = from;
  48:../eurorack/stmlib/dsp/rsqrt.h ****     return u.to;
  49:../eurorack/stmlib/dsp/rsqrt.h **** }
  50:../eurorack/stmlib/dsp/rsqrt.h **** 
  51:../eurorack/stmlib/dsp/rsqrt.h **** 
  52:../eurorack/stmlib/dsp/rsqrt.h **** static inline float fast_rsqrt_carmack(float x) {
 1296              		.loc 10 52 21 is_stmt 1 view .LVU392
 1297              	.LBB251:
  53:../eurorack/stmlib/dsp/rsqrt.h ****   uint32_t i;
 1298              		.loc 10 53 3 view .LVU393
  54:../eurorack/stmlib/dsp/rsqrt.h ****   float x2, y;
 1299              		.loc 10 54 3 view .LVU394
  55:../eurorack/stmlib/dsp/rsqrt.h ****   const float threehalfs = 1.5f;
 1300              		.loc 10 55 3 view .LVU395
  56:../eurorack/stmlib/dsp/rsqrt.h ****   y = x;
 1301              		.loc 10 56 3 view .LVU396
  57:../eurorack/stmlib/dsp/rsqrt.h ****   i = unsafe_bit_cast<uint32_t, float>(y);
 1302              		.loc 10 57 3 view .LVU397
 1303              	.LBB252:
 1304              	.LBI252:
  45:../eurorack/stmlib/dsp/rsqrt.h ****     unsafe_bit_cast_t<To, From> u;
 1305              		.loc 10 45 4 view .LVU398
  45:../eurorack/stmlib/dsp/rsqrt.h ****     unsafe_bit_cast_t<To, From> u;
 1306              		.loc 10 45 4 is_stmt 0 view .LVU399
 1307              	.LBE252:
  58:../eurorack/stmlib/dsp/rsqrt.h ****   i = 0x5f3759df - (i >> 1);
 1308              		.loc 10 58 3 is_stmt 1 view .LVU400
  59:../eurorack/stmlib/dsp/rsqrt.h ****   y = unsafe_bit_cast<float, uint32_t>(i);
 1309              		.loc 10 59 3 view .LVU401
 1310              	.LBB253:
 1311              	.LBI253:
  45:../eurorack/stmlib/dsp/rsqrt.h ****     unsafe_bit_cast_t<To, From> u;
 1312              		.loc 10 45 4 view .LVU402
 1313              	.LBB254:
  48:../eurorack/stmlib/dsp/rsqrt.h **** }
 1314              		.loc 10 48 14 is_stmt 0 view .LVU403
 1315 014c 17EE902A 		vmov	r2, s15	@ int
 1316              	.LVL109:
  48:../eurorack/stmlib/dsp/rsqrt.h **** }
ARM GAS  /var/folders/y7/g6pkzsp12sx54x3s3mvyn15r0000gn/T//ccpDeTAb.s 			page 44


 1317              		.loc 10 48 14 view .LVU404
 1318 0150 6E48     		ldr	r0, .L43+44
 1319              	.LVL110:
  48:../eurorack/stmlib/dsp/rsqrt.h **** }
 1320              		.loc 10 48 14 view .LVU405
 1321              	.LBE254:
 1322              	.LBE253:
  60:../eurorack/stmlib/dsp/rsqrt.h ****   x2 = x * 0.5f;
 1323              		.loc 10 60 6 view .LVU406
 1324 0152 67EE8A7A 		vmul.f32	s15, s15, s20
 1325              	.LVL111:
 1326              	.LBB257:
 1327              	.LBB255:
  48:../eurorack/stmlib/dsp/rsqrt.h **** }
 1328              		.loc 10 48 14 view .LVU407
 1329 0156 A0EB5202 		sub	r2, r0, r2, lsr #1
 1330              	.LVL112:
  48:../eurorack/stmlib/dsp/rsqrt.h **** }
 1331              		.loc 10 48 14 view .LVU408
 1332              	.LBE255:
 1333              	.LBE257:
  61:../eurorack/stmlib/dsp/rsqrt.h ****   y = y * (threehalfs - (x2 * y * y));
 1334              		.loc 10 61 23 view .LVU409
 1335 015a F7EE084A 		vmov.f32	s9, #1.5e+0
 1336              	.LBB258:
 1337              	.LBB256:
  48:../eurorack/stmlib/dsp/rsqrt.h **** }
 1338              		.loc 10 48 14 view .LVU410
 1339 015e 06EE102A 		vmov	s12, r2	@ int
 1340              	.LVL113:
  48:../eurorack/stmlib/dsp/rsqrt.h **** }
 1341              		.loc 10 48 14 view .LVU411
 1342              	.LBE256:
 1343              	.LBE258:
  60:../eurorack/stmlib/dsp/rsqrt.h ****   x2 = x * 0.5f;
 1344              		.loc 10 60 3 is_stmt 1 view .LVU412
 1345              		.loc 10 61 3 view .LVU413
 1346              		.loc 10 61 29 is_stmt 0 view .LVU414
 1347 0162 67EE867A 		vmul.f32	s15, s15, s12
 1348              		.loc 10 61 23 view .LVU415
 1349 0166 E6EE674A 		vfms.f32	s9, s12, s15
 1350              		.loc 10 61 5 view .LVU416
 1351 016a 26EE246A 		vmul.f32	s12, s12, s9
 1352              	.LVL114:
  62:../eurorack/stmlib/dsp/rsqrt.h **** 	return y;
 1353              		.loc 10 62 2 is_stmt 1 view .LVU417
 1354              		.loc 10 62 2 is_stmt 0 view .LVU418
 1355              	.LBE251:
 1356              	.LBE250:
 218:../eurorack/plaits/dsp/oscillator/sine_oscillator.h ****       const float scale = stmlib::fast_rsqrt_carmack(norm);
 219:../eurorack/plaits/dsp/oscillator/sine_oscillator.h ****       x *= scale;
 1357              		.loc 3 219 9 view .LVU419
 1358 016e 66EE866A 		vmul.f32	s13, s13, s12
 1359              	.LVL115:
 220:../eurorack/plaits/dsp/oscillator/sine_oscillator.h ****       y *= scale;
 1360              		.loc 3 220 9 view .LVU420
 1361 0172 27EE067A 		vmul.f32	s14, s14, s12
ARM GAS  /var/folders/y7/g6pkzsp12sx54x3s3mvyn15r0000gn/T//ccpDeTAb.s 			page 45


 1362              	.LVL116:
 1363              	.L31:
 1364              		.loc 3 220 9 view .LVU421
 1365              	.LBE249:
 1366              	.LBE248:
 205:../eurorack/plaits/dsp/oscillator/sine_oscillator.h ****       amplitude = 0.0f;
 1367              		.loc 3 205 17 view .LVU422
 1368 0176 4A46     		mov	r2, r9
 1369 0178 C446     		mov	ip, r8
 1370 017a 2846     		mov	r0, r5
 1371              	.LVL117:
 1372              	.L33:
 221:../eurorack/plaits/dsp/oscillator/sine_oscillator.h ****     }
 222:../eurorack/plaits/dsp/oscillator/sine_oscillator.h ****     
 223:../eurorack/plaits/dsp/oscillator/sine_oscillator.h ****     while (size--) {
 1373              		.loc 3 223 5 is_stmt 1 view .LVU423
 1374 017c 013A     		subs	r2, r2, #1
 1375              	.LVL118:
 1376              		.loc 3 223 5 is_stmt 0 view .LVU424
 1377 017e 4CD2     		bcs	.L34
 224:../eurorack/plaits/dsp/oscillator/sine_oscillator.h ****       const float e = epsilon.Next();
 225:../eurorack/plaits/dsp/oscillator/sine_oscillator.h ****       x += e * y;
 226:../eurorack/plaits/dsp/oscillator/sine_oscillator.h ****       y -= e * x;
 227:../eurorack/plaits/dsp/oscillator/sine_oscillator.h ****       if (mode == ADDITIVE) {
 228:../eurorack/plaits/dsp/oscillator/sine_oscillator.h ****         *out++ += am.Next() * x;
 229:../eurorack/plaits/dsp/oscillator/sine_oscillator.h ****       } else if (mode == NORMAL) {
 230:../eurorack/plaits/dsp/oscillator/sine_oscillator.h ****         *out++ = x;
 231:../eurorack/plaits/dsp/oscillator/sine_oscillator.h ****       } else if (mode == QUADRATURE) {
 232:../eurorack/plaits/dsp/oscillator/sine_oscillator.h ****         const float amplitude = am.Next();
 233:../eurorack/plaits/dsp/oscillator/sine_oscillator.h ****         *out++ = x * amplitude;
 234:../eurorack/plaits/dsp/oscillator/sine_oscillator.h ****         *out_2++ = y * amplitude;
 235:../eurorack/plaits/dsp/oscillator/sine_oscillator.h ****       }
 236:../eurorack/plaits/dsp/oscillator/sine_oscillator.h ****     }
 237:../eurorack/plaits/dsp/oscillator/sine_oscillator.h ****     x_ = x;
 238:../eurorack/plaits/dsp/oscillator/sine_oscillator.h ****     y_ = y;
 1378              		.loc 3 238 8 view .LVU425
 1379 0180 84ED057A 		vstr.32	s14, [r4, #20]
 1380              	.LVL119:
 1381              	.LBB259:
 1382              	.LBI259:
  49:../eurorack/stmlib/dsp/parameter_interpolator.h ****     *state_ = value_;
 1383              		.loc 9 49 3 is_stmt 1 view .LVU426
 1384              	.LBB260:
  50:../eurorack/stmlib/dsp/parameter_interpolator.h ****   }
 1385              		.loc 9 50 5 view .LVU427
 1386              	.LBE260:
 1387              	.LBE259:
 1388              	.LBE278:
 1389              	.LBE285:
 1390              	.LBE294:
 200:../eurorack/plaits/dsp/engine2/wave_terrain_engine.cc ****       f0 * kScale, radius, path_x, path_y, size * kOversampling);
 201:../eurorack/plaits/dsp/engine2/wave_terrain_engine.cc ****   
 202:../eurorack/plaits/dsp/engine2/wave_terrain_engine.cc ****   ParameterInterpolator offset(&offset_, 1.9f * parameters.morph - 1.0f, size);
 1391              		.loc 1 202 78 is_stmt 0 view .LVU428
 1392 0184 BFEE007A 		vmov.f32	s14, #-1.0e+0
 1393              	.LVL120:
 1394              		.loc 1 202 78 view .LVU429
ARM GAS  /var/folders/y7/g6pkzsp12sx54x3s3mvyn15r0000gn/T//ccpDeTAb.s 			page 46


 1395 0188 DFED617A 		vldr.32	s15, .L43+48
 1396              	.LBB295:
 1397              	.LBB296:
 1398              	.LBB297:
 1399              		.loc 9 56 29 view .LVU430
 1400 018c B7EE00CA 		vmov.f32	s24, #1.0e+0
 1401              	.LBE297:
 1402              	.LBE296:
 1403              	.LBE295:
 1404              	.LBB306:
 1405              	.LBB286:
 1406              	.LBB279:
 1407              	.LBB262:
 1408              	.LBB261:
  50:../eurorack/stmlib/dsp/parameter_interpolator.h ****   }
 1409              		.loc 9 50 13 view .LVU431
 1410 0190 84ED075A 		vstr.32	s10, [r4, #28]
 1411              	.LVL121:
  50:../eurorack/stmlib/dsp/parameter_interpolator.h ****   }
 1412              		.loc 9 50 13 view .LVU432
 1413              	.LBE261:
 1414              	.LBE262:
 1415              	.LBB263:
 1416              	.LBI263:
  49:../eurorack/stmlib/dsp/parameter_interpolator.h ****     *state_ = value_;
 1417              		.loc 9 49 3 is_stmt 1 view .LVU433
 1418              	.LBB264:
  50:../eurorack/stmlib/dsp/parameter_interpolator.h ****   }
 1419              		.loc 9 50 5 view .LVU434
 1420              	.LBE264:
 1421              	.LBE263:
 1422              	.LBE279:
 1423              	.LBE286:
 1424              	.LBE306:
 203:../eurorack/plaits/dsp/engine2/wave_terrain_engine.cc ****   int num_terrains = user_terrain_ ? 9 : 8;
 204:../eurorack/plaits/dsp/engine2/wave_terrain_engine.cc ****   ParameterInterpolator terrain(
 205:../eurorack/plaits/dsp/engine2/wave_terrain_engine.cc ****       &terrain_,
 206:../eurorack/plaits/dsp/engine2/wave_terrain_engine.cc ****       min(parameters.harmonics * 1.05f, 1.0f) * float(num_terrains - 1.0001f),
 207:../eurorack/plaits/dsp/engine2/wave_terrain_engine.cc ****       size);
 208:../eurorack/plaits/dsp/engine2/wave_terrain_engine.cc ****   
 209:../eurorack/plaits/dsp/engine2/wave_terrain_engine.cc ****   size_t ij = 0;
 1425              		.loc 1 209 10 is_stmt 0 view .LVU435
 1426 0194 4FF0000A 		mov	r10, #0
 1427              	.LBB307:
 1428              	.LBB287:
 1429              	.LBB280:
 1430              	.LBB266:
 1431              	.LBB265:
  50:../eurorack/stmlib/dsp/parameter_interpolator.h ****   }
 1432              		.loc 9 50 13 view .LVU436
 1433 0198 C4ED065A 		vstr.32	s11, [r4, #24]
 1434              	.LVL122:
  50:../eurorack/stmlib/dsp/parameter_interpolator.h ****   }
 1435              		.loc 9 50 13 view .LVU437
 1436              	.LBE265:
 1437              	.LBE266:
 1438              	.LBE280:
ARM GAS  /var/folders/y7/g6pkzsp12sx54x3s3mvyn15r0000gn/T//ccpDeTAb.s 			page 47


 1439              	.LBE287:
 1440              	.LBE307:
 202:../eurorack/plaits/dsp/engine2/wave_terrain_engine.cc ****   int num_terrains = user_terrain_ ? 9 : 8;
 1441              		.loc 1 202 3 is_stmt 1 view .LVU438
 1442              	.LBB308:
 1443              	.LBB288:
 1444              	.LBB281:
 237:../eurorack/plaits/dsp/oscillator/sine_oscillator.h ****     y_ = y;
 1445              		.loc 3 237 8 is_stmt 0 view .LVU439
 1446 019c C4ED046A 		vstr.32	s13, [r4, #16]
 1447              	.LBE281:
 1448              	.LBE288:
 1449              	.LBE308:
 202:../eurorack/plaits/dsp/engine2/wave_terrain_engine.cc ****   int num_terrains = user_terrain_ ? 9 : 8;
 1450              		.loc 1 202 78 view .LVU440
 1451 01a0 D1ED036A 		vldr.32	s13, [r1, #12]
 1452              	.LBB309:
 1453              	.LBB310:
 1454              	.LBB311:
  55:../eurorack/stmlib/dsp/parameter_interpolator.h ****     increment_ = (new_value - *state) / static_cast<float>(size);
 1455              		.loc 9 55 14 view .LVU441
 1456 01a4 D4ED088A 		vldr.32	s17, [r4, #32]
 1457              	.LBE311:
 1458              	.LBE310:
 1459              	.LBE309:
 202:../eurorack/plaits/dsp/engine2/wave_terrain_engine.cc ****   int num_terrains = user_terrain_ ? 9 : 8;
 1460              		.loc 1 202 78 view .LVU442
 1461 01a8 A6EEA77A 		vfma.f32	s14, s13, s15
 1462              	.LVL123:
 1463              	.LBB320:
 1464              	.LBI309:
  39:../eurorack/stmlib/dsp/parameter_interpolator.h ****     Init(state, new_value, size);
 1465              		.loc 9 39 3 is_stmt 1 view .LVU443
 1466              	.LBB316:
 1467              	.LBI310:
  53:../eurorack/stmlib/dsp/parameter_interpolator.h ****     state_ = state;
 1468              		.loc 9 53 15 view .LVU444
 1469              	.LBB312:
  54:../eurorack/stmlib/dsp/parameter_interpolator.h ****     value_ = *state;
 1470              		.loc 9 54 5 view .LVU445
  55:../eurorack/stmlib/dsp/parameter_interpolator.h ****     increment_ = (new_value - *state) / static_cast<float>(size);
 1471              		.loc 9 55 5 view .LVU446
 1472              		.loc 9 56 5 view .LVU447
 1473              		.loc 9 56 41 is_stmt 0 view .LVU448
 1474 01ac 07EE903A 		vmov	s15, r3	@ int
 1475              	.LBE312:
 1476              	.LBE316:
 1477              	.LBE320:
 203:../eurorack/plaits/dsp/engine2/wave_terrain_engine.cc ****   ParameterInterpolator terrain(
 1478              		.loc 1 203 36 view .LVU449
 1479 01b0 E36A     		ldr	r3, [r4, #44]
 1480              	.LVL124:
 1481              	.LBB321:
 1482              	.LBB317:
 1483              	.LBB313:
 1484              		.loc 9 56 41 view .LVU450
 1485 01b2 F8EE677A 		vcvt.f32.u32	s15, s15
ARM GAS  /var/folders/y7/g6pkzsp12sx54x3s3mvyn15r0000gn/T//ccpDeTAb.s 			page 48


 1486              	.LBE313:
 1487              	.LBE317:
 1488              	.LBE321:
 206:../eurorack/plaits/dsp/engine2/wave_terrain_engine.cc ****       size);
 1489              		.loc 1 206 32 view .LVU451
 1490 01b6 9FED576A 		vldr.32	s12, .L43+52
 203:../eurorack/plaits/dsp/engine2/wave_terrain_engine.cc ****   ParameterInterpolator terrain(
 1491              		.loc 1 203 36 discriminator 1 view .LVU452
 1492 01ba 002B     		cmp	r3, #0
 1493              	.LBB322:
 1494              	.LBB302:
 1495              	.LBB298:
  55:../eurorack/stmlib/dsp/parameter_interpolator.h ****     increment_ = (new_value - *state) / static_cast<float>(size);
 1496              		.loc 9 55 14 view .LVU453
 1497 01bc 94ED099A 		vldr.32	s18, [r4, #36]
 1498              	.LBE298:
 1499              	.LBE302:
 1500              	.LBE322:
 203:../eurorack/plaits/dsp/engine2/wave_terrain_engine.cc ****   ParameterInterpolator terrain(
 1501              		.loc 1 203 36 discriminator 1 view .LVU454
 1502 01c0 0CBF     		ite	eq
 1503 01c2 0823     		moveq	r3, #8
 1504 01c4 0923     		movne	r3, #9
 1505              	.LBB323:
 1506              	.LBB318:
 1507              	.LBB314:
 1508              		.loc 9 56 29 view .LVU455
 1509 01c6 37EE687A 		vsub.f32	s14, s14, s17
 1510              	.LVL125:
 1511              		.loc 9 56 29 view .LVU456
 1512              	.LBE314:
 1513              	.LBE318:
 1514              	.LBE323:
 203:../eurorack/plaits/dsp/engine2/wave_terrain_engine.cc ****   ParameterInterpolator terrain(
 1515              		.loc 1 203 36 discriminator 1 view .LVU457
 1516 01ca 06EE903A 		vmov	s13, r3	@ int
 1517              	.LVL126:
 1518              	.LBB324:
 1519              	.LBB319:
 1520              	.LBB315:
 1521              		.loc 9 56 39 view .LVU458
 1522 01ce C7EE27BA 		vdiv.f32	s23, s14, s15
 1523              	.LVL127:
 1524              		.loc 9 56 39 view .LVU459
 1525              	.LBE315:
 1526              	.LBE319:
 1527              	.LBE324:
 203:../eurorack/plaits/dsp/engine2/wave_terrain_engine.cc ****   ParameterInterpolator terrain(
 1528              		.loc 1 203 3 is_stmt 1 view .LVU460
 204:../eurorack/plaits/dsp/engine2/wave_terrain_engine.cc ****       &terrain_,
 1529              		.loc 1 204 3 view .LVU461
 206:../eurorack/plaits/dsp/engine2/wave_terrain_engine.cc ****       size);
 1530              		.loc 1 206 32 is_stmt 0 view .LVU462
 1531 01d2 91ED047A 		vldr.32	s14, [r1, #16]
 1532 01d6 27EE067A 		vmul.f32	s14, s14, s12
 1533              	.LVL128:
 1534              	.LBB325:
ARM GAS  /var/folders/y7/g6pkzsp12sx54x3s3mvyn15r0000gn/T//ccpDeTAb.s 			page 49


 1535              	.LBI295:
  39:../eurorack/stmlib/dsp/parameter_interpolator.h ****     Init(state, new_value, size);
 1536              		.loc 9 39 3 is_stmt 1 view .LVU463
 1537              	.LBB303:
 1538              	.LBI296:
  53:../eurorack/stmlib/dsp/parameter_interpolator.h ****     state_ = state;
 1539              		.loc 9 53 15 view .LVU464
 1540              	.LBB299:
  54:../eurorack/stmlib/dsp/parameter_interpolator.h ****     value_ = *state;
 1541              		.loc 9 54 5 view .LVU465
  55:../eurorack/stmlib/dsp/parameter_interpolator.h ****     increment_ = (new_value - *state) / static_cast<float>(size);
 1542              		.loc 9 55 5 view .LVU466
 1543              		.loc 9 56 5 view .LVU467
 1544              	.LBE299:
 1545              	.LBE303:
 1546              	.LBE325:
 206:../eurorack/plaits/dsp/engine2/wave_terrain_engine.cc ****       size);
 1547              		.loc 1 206 68 is_stmt 0 discriminator 1 view .LVU468
 1548 01da 9FED4F6A 		vldr.32	s12, .L43+56
 1549 01de F8EEE66A 		vcvt.f32.s32	s13, s13
 1550              	.LBB326:
 1551              	.LBB304:
 1552              	.LBB300:
 1553              		.loc 9 56 29 view .LVU469
 1554 01e2 B4EECC7A 		vcmpe.f32	s14, s24
 1555              	.LBE300:
 1556              	.LBE304:
 1557              	.LBE326:
 206:../eurorack/plaits/dsp/engine2/wave_terrain_engine.cc ****       size);
 1558              		.loc 1 206 68 discriminator 1 view .LVU470
 1559 01e6 76EEC66A 		vsub.f32	s13, s13, s12
 1560              	.LBB327:
 1561              	.LBB305:
 1562              	.LBB301:
 1563              		.loc 9 56 29 view .LVU471
 1564 01ea B0EE496A 		vmov.f32	s12, s18
 1565 01ee F1EE10FA 		vmrs	APSR_nzcv, FPSCR
 1566 01f2 3CFE077A 		vselgt.f32	s14, s24, s14
 1567              	.LVL129:
 1568              		.loc 9 56 29 view .LVU472
 1569 01f6 97EE266A 		vfnms.f32	s12, s14, s13
 1570              		.loc 9 56 39 view .LVU473
 1571 01fa 86EE27DA 		vdiv.f32	s26, s12, s15
 1572              	.LVL130:
 1573              		.loc 9 56 39 view .LVU474
 1574              	.LBE301:
 1575              	.LBE305:
 1576              	.LBE327:
 1577              		.loc 1 209 3 is_stmt 1 view .LVU475
 210:../eurorack/plaits/dsp/engine2/wave_terrain_engine.cc ****   for (size_t i = 0; i < size; ++i) {
 1578              		.loc 1 210 3 view .LVU476
 1579              	.L36:
 1580              	.LBB328:
 1581              		.loc 1 210 24 discriminator 1 view .LVU477
 1582 01fe D145     		cmp	r9, r10
 1583 0200 1CD1     		bne	.L38
 1584              	.LVL131:
ARM GAS  /var/folders/y7/g6pkzsp12sx54x3s3mvyn15r0000gn/T//ccpDeTAb.s 			page 50


 1585              		.loc 1 210 24 is_stmt 0 discriminator 1 view .LVU478
 1586              	.LBE328:
 1587              	.LBB342:
 1588              	.LBI342:
  49:../eurorack/stmlib/dsp/parameter_interpolator.h ****     *state_ = value_;
 1589              		.loc 9 49 3 is_stmt 1 view .LVU479
 1590              	.LBB343:
  50:../eurorack/stmlib/dsp/parameter_interpolator.h ****   }
 1591              		.loc 9 50 5 view .LVU480
  50:../eurorack/stmlib/dsp/parameter_interpolator.h ****   }
 1592              		.loc 9 50 13 is_stmt 0 view .LVU481
 1593 0202 84ED099A 		vstr.32	s18, [r4, #36]
 1594              	.LVL132:
  50:../eurorack/stmlib/dsp/parameter_interpolator.h ****   }
 1595              		.loc 9 50 13 view .LVU482
 1596              	.LBE343:
 1597              	.LBE342:
 1598              	.LBB344:
 1599              	.LBI344:
  49:../eurorack/stmlib/dsp/parameter_interpolator.h ****     *state_ = value_;
 1600              		.loc 9 49 3 is_stmt 1 view .LVU483
 1601              	.LBB345:
  50:../eurorack/stmlib/dsp/parameter_interpolator.h ****   }
 1602              		.loc 9 50 5 view .LVU484
  50:../eurorack/stmlib/dsp/parameter_interpolator.h ****   }
 1603              		.loc 9 50 13 is_stmt 0 view .LVU485
 1604 0206 C4ED088A 		vstr.32	s17, [r4, #32]
 1605              	.LVL133:
  50:../eurorack/stmlib/dsp/parameter_interpolator.h ****   }
 1606              		.loc 9 50 13 view .LVU486
 1607              	.LBE345:
 1608              	.LBE344:
 211:../eurorack/plaits/dsp/engine2/wave_terrain_engine.cc ****     const float x_offset = offset.Next();
 212:../eurorack/plaits/dsp/engine2/wave_terrain_engine.cc ****     
 213:../eurorack/plaits/dsp/engine2/wave_terrain_engine.cc ****     const float z = terrain.Next();
 214:../eurorack/plaits/dsp/engine2/wave_terrain_engine.cc ****     MAKE_INTEGRAL_FRACTIONAL(z);
 215:../eurorack/plaits/dsp/engine2/wave_terrain_engine.cc **** 
 216:../eurorack/plaits/dsp/engine2/wave_terrain_engine.cc ****     float out_s = 0.0f;
 217:../eurorack/plaits/dsp/engine2/wave_terrain_engine.cc ****     float aux_s = 0.0f;
 218:../eurorack/plaits/dsp/engine2/wave_terrain_engine.cc ****     
 219:../eurorack/plaits/dsp/engine2/wave_terrain_engine.cc ****     for (size_t j = 0; j < kOversampling; ++j) {
 220:../eurorack/plaits/dsp/engine2/wave_terrain_engine.cc ****       const float x = path_x[ij] * (1.0f - fabsf(x_offset)) + x_offset;
 221:../eurorack/plaits/dsp/engine2/wave_terrain_engine.cc ****       const float y = path_y[ij];
 222:../eurorack/plaits/dsp/engine2/wave_terrain_engine.cc ****       ++ij;
 223:../eurorack/plaits/dsp/engine2/wave_terrain_engine.cc ****       
 224:../eurorack/plaits/dsp/engine2/wave_terrain_engine.cc ****       const float z0 = Terrain(x, y, z_integral);
 225:../eurorack/plaits/dsp/engine2/wave_terrain_engine.cc ****       const float z1 = Terrain(x, y, z_integral + 1);
 226:../eurorack/plaits/dsp/engine2/wave_terrain_engine.cc ****       const float z = (z0 + (z1 - z0) * z_fractional);
 227:../eurorack/plaits/dsp/engine2/wave_terrain_engine.cc ****       out_s += z;
 228:../eurorack/plaits/dsp/engine2/wave_terrain_engine.cc ****       aux_s += y + z;
 229:../eurorack/plaits/dsp/engine2/wave_terrain_engine.cc ****     }
 230:../eurorack/plaits/dsp/engine2/wave_terrain_engine.cc ****     out[i] = kScale * out_s;
 231:../eurorack/plaits/dsp/engine2/wave_terrain_engine.cc ****     aux[i] = Sine(1.0f + 0.5f * kScale * aux_s);
 232:../eurorack/plaits/dsp/engine2/wave_terrain_engine.cc ****   }
 233:../eurorack/plaits/dsp/engine2/wave_terrain_engine.cc **** }
 1609              		.loc 1 233 1 view .LVU487
 1610 020a 03B0     		add	sp, sp, #12
ARM GAS  /var/folders/y7/g6pkzsp12sx54x3s3mvyn15r0000gn/T//ccpDeTAb.s 			page 51


 1611              		.cfi_remember_state
 1612              		.cfi_def_cfa_offset 92
 1613              		@ sp needed
 1614 020c BDEC0E8B 		vldm	sp!, {d8-d14}
 1615              		.cfi_restore 92
 1616              		.cfi_restore 93
 1617              		.cfi_restore 90
 1618              		.cfi_restore 91
 1619              		.cfi_restore 88
 1620              		.cfi_restore 89
 1621              		.cfi_restore 86
 1622              		.cfi_restore 87
 1623              		.cfi_restore 84
 1624              		.cfi_restore 85
 1625              		.cfi_restore 82
 1626              		.cfi_restore 83
 1627              		.cfi_restore 80
 1628              		.cfi_restore 81
 1629              		.cfi_def_cfa_offset 36
 1630              	.LVL134:
 1631              		.loc 1 233 1 view .LVU488
 1632 0210 BDE8F08F 		pop	{r4, r5, r6, r7, r8, r9, r10, fp, pc}
 1633              	.LVL135:
 1634              	.L40:
 1635              		.cfi_restore_state
 1636              	.LBB346:
 1637              	.LBB289:
 1638              	.LBB282:
 205:../eurorack/plaits/dsp/oscillator/sine_oscillator.h ****       amplitude = 0.0f;
 1639              		.loc 3 205 17 view .LVU489
 1640 0214 B0EE6A7A 		vmov.f32	s14, s21
 1641              	.LVL136:
 205:../eurorack/plaits/dsp/oscillator/sine_oscillator.h ****       amplitude = 0.0f;
 1642              		.loc 3 205 17 view .LVU490
 1643 0218 68E7     		b	.L29
 1644              	.LVL137:
 1645              	.L34:
 1646              	.LBB267:
 1647              	.LBB268:
 1648              	.LBI268:
  57:../eurorack/stmlib/dsp/parameter_interpolator.h ****   }
  58:../eurorack/stmlib/dsp/parameter_interpolator.h **** 
  59:../eurorack/stmlib/dsp/parameter_interpolator.h ****   inline float Next() {
 1649              		.loc 9 59 16 is_stmt 1 view .LVU491
 1650              	.LBB269:
  60:../eurorack/stmlib/dsp/parameter_interpolator.h ****     value_ += increment_;
 1651              		.loc 9 60 5 view .LVU492
 1652              		.loc 9 60 12 is_stmt 0 view .LVU493
 1653 021a 75EE845A 		vadd.f32	s11, s11, s8
 1654              	.LVL138:
  61:../eurorack/stmlib/dsp/parameter_interpolator.h ****     return value_;
 1655              		.loc 9 61 5 is_stmt 1 view .LVU494
 1656              		.loc 9 61 5 is_stmt 0 view .LVU495
 1657              	.LBE269:
 1658              	.LBE268:
 1659              	.LBB270:
 1660              	.LBB271:
ARM GAS  /var/folders/y7/g6pkzsp12sx54x3s3mvyn15r0000gn/T//ccpDeTAb.s 			page 52


 1661              	.LBB272:
  60:../eurorack/stmlib/dsp/parameter_interpolator.h ****     value_ += increment_;
 1662              		.loc 9 60 12 view .LVU496
 1663 021e 35EE235A 		vadd.f32	s10, s10, s7
 1664              	.LVL139:
  60:../eurorack/stmlib/dsp/parameter_interpolator.h ****     value_ += increment_;
 1665              		.loc 9 60 12 view .LVU497
 1666              	.LBE272:
 1667              	.LBE271:
 1668              	.LBE270:
 225:../eurorack/plaits/dsp/oscillator/sine_oscillator.h ****       y -= e * x;
 1669              		.loc 3 225 9 view .LVU498
 1670 0222 E5EE876A 		vfma.f32	s13, s11, s14
 1671              	.LVL140:
 226:../eurorack/plaits/dsp/oscillator/sine_oscillator.h ****       if (mode == ADDITIVE) {
 1672              		.loc 3 226 9 view .LVU499
 1673 0226 A5EEE67A 		vfms.f32	s14, s11, s13
 1674              	.LVL141:
 1675              	.LBB275:
 1676              	.LBB274:
 1677              	.LBI271:
  59:../eurorack/stmlib/dsp/parameter_interpolator.h ****     value_ += increment_;
 1678              		.loc 9 59 16 is_stmt 1 view .LVU500
 1679              	.LBB273:
  60:../eurorack/stmlib/dsp/parameter_interpolator.h ****     return value_;
 1680              		.loc 9 60 5 view .LVU501
 1681              		.loc 9 61 5 view .LVU502
 1682              		.loc 9 61 5 is_stmt 0 view .LVU503
 1683              	.LBE273:
 1684              	.LBE274:
 233:../eurorack/plaits/dsp/oscillator/sine_oscillator.h ****         *out_2++ = y * amplitude;
 1685              		.loc 3 233 20 view .LVU504
 1686 022a 66EE857A 		vmul.f32	s15, s13, s10
 233:../eurorack/plaits/dsp/oscillator/sine_oscillator.h ****         *out_2++ = y * amplitude;
 1687              		.loc 3 233 16 view .LVU505
 1688 022e E0EC017A 		vstmia.32	r0!, {s15}
 1689              	.LVL142:
 234:../eurorack/plaits/dsp/oscillator/sine_oscillator.h ****       }
 1690              		.loc 3 234 22 view .LVU506
 1691 0232 67EE057A 		vmul.f32	s15, s14, s10
 234:../eurorack/plaits/dsp/oscillator/sine_oscillator.h ****       }
 1692              		.loc 3 234 18 view .LVU507
 1693 0236 ECEC017A 		vstmia.32	ip!, {s15}
 1694              	.LVL143:
 234:../eurorack/plaits/dsp/oscillator/sine_oscillator.h ****       }
 1695              		.loc 3 234 18 view .LVU508
 1696 023a 9FE7     		b	.L33
 1697              	.LVL144:
 1698              	.L38:
 234:../eurorack/plaits/dsp/oscillator/sine_oscillator.h ****       }
 1699              		.loc 3 234 18 view .LVU509
 1700              	.LBE275:
 1701              	.LBE267:
 1702              	.LBE282:
 1703              	.LBE289:
 1704              	.LBE346:
 1705              	.LBB347:
ARM GAS  /var/folders/y7/g6pkzsp12sx54x3s3mvyn15r0000gn/T//ccpDeTAb.s 			page 53


 1706              	.LBB329:
 211:../eurorack/plaits/dsp/engine2/wave_terrain_engine.cc ****     
 1707              		.loc 1 211 5 is_stmt 1 view .LVU510
 1708              	.LBB330:
 1709              	.LBI330:
  59:../eurorack/stmlib/dsp/parameter_interpolator.h ****     value_ += increment_;
 1710              		.loc 9 59 16 view .LVU511
 1711              	.LBB331:
  60:../eurorack/stmlib/dsp/parameter_interpolator.h ****     return value_;
 1712              		.loc 9 60 5 view .LVU512
 1713              	.LBE331:
 1714              	.LBE330:
 1715              	.LBB333:
 1716              	.LBB334:
  60:../eurorack/stmlib/dsp/parameter_interpolator.h ****     return value_;
 1717              		.loc 9 60 12 is_stmt 0 view .LVU513
 1718 023c 39EE0D9A 		vadd.f32	s18, s18, s26
 1719              	.LVL145:
  60:../eurorack/stmlib/dsp/parameter_interpolator.h ****     return value_;
 1720              		.loc 9 60 12 view .LVU514
 1721              	.LBE334:
 1722              	.LBE333:
 217:../eurorack/plaits/dsp/engine2/wave_terrain_engine.cc ****     
 1723              		.loc 1 217 11 view .LVU515
 1724 0240 DFED2DCA 		vldr.32	s25, .L43+24
 1725              	.LBB336:
 1726              	.LBB332:
  60:../eurorack/stmlib/dsp/parameter_interpolator.h ****     return value_;
 1727              		.loc 9 60 12 view .LVU516
 1728 0244 78EEAB8A 		vadd.f32	s17, s17, s23
 1729              	.LVL146:
 1730              		.loc 9 61 5 is_stmt 1 view .LVU517
 1731              		.loc 9 61 5 is_stmt 0 view .LVU518
 1732              	.LBE332:
 1733              	.LBE336:
 213:../eurorack/plaits/dsp/engine2/wave_terrain_engine.cc ****     MAKE_INTEGRAL_FRACTIONAL(z);
 1734              		.loc 1 213 5 is_stmt 1 view .LVU519
 1735              	.LBB337:
 1736              	.LBI333:
  59:../eurorack/stmlib/dsp/parameter_interpolator.h ****     value_ += increment_;
 1737              		.loc 9 59 16 view .LVU520
 1738              	.LBB335:
  60:../eurorack/stmlib/dsp/parameter_interpolator.h ****     return value_;
 1739              		.loc 9 60 5 view .LVU521
 1740              		.loc 9 61 5 view .LVU522
 1741              		.loc 9 61 5 is_stmt 0 view .LVU523
 1742              	.LBE335:
 1743              	.LBE337:
 214:../eurorack/plaits/dsp/engine2/wave_terrain_engine.cc **** 
 1744              		.loc 1 214 5 is_stmt 1 view .LVU524
 1745 0248 08EB8A03 		add	r3, r8, r10, lsl #2
 216:../eurorack/plaits/dsp/engine2/wave_terrain_engine.cc ****     float aux_s = 0.0f;
 1746              		.loc 1 216 11 is_stmt 0 view .LVU525
 1747 024c F0EE6C9A 		vmov.f32	s19, s25
 214:../eurorack/plaits/dsp/engine2/wave_terrain_engine.cc **** 
 1748              		.loc 1 214 5 view .LVU526
 1749 0250 AB46     		mov	fp, r5
ARM GAS  /var/folders/y7/g6pkzsp12sx54x3s3mvyn15r0000gn/T//ccpDeTAb.s 			page 54


 1750 0252 BDEEC9EA 		vcvt.s32.f32	s28, s18
 1751              	.LVL147:
 214:../eurorack/plaits/dsp/engine2/wave_terrain_engine.cc **** 
 1752              		.loc 1 214 5 is_stmt 1 view .LVU527
 1753 0256 F8EECEDA 		vcvt.f32.s32	s27, s28
 1754 025a 79EE6DDA 		vsub.f32	s27, s18, s27
 1755              	.LVL148:
 214:../eurorack/plaits/dsp/engine2/wave_terrain_engine.cc **** 
 1756              		.loc 1 214 32 view .LVU528
 216:../eurorack/plaits/dsp/engine2/wave_terrain_engine.cc ****     float aux_s = 0.0f;
 1757              		.loc 1 216 5 view .LVU529
 217:../eurorack/plaits/dsp/engine2/wave_terrain_engine.cc ****     
 1758              		.loc 1 217 5 view .LVU530
 219:../eurorack/plaits/dsp/engine2/wave_terrain_engine.cc ****       const float x = path_x[ij] * (1.0f - fabsf(x_offset)) + x_offset;
 1759              		.loc 1 219 5 view .LVU531
 1760              	.LBB338:
 219:../eurorack/plaits/dsp/engine2/wave_terrain_engine.cc ****       const float x = path_x[ij] * (1.0f - fabsf(x_offset)) + x_offset;
 1761              		.loc 1 219 26 discriminator 1 view .LVU532
 1762              	.L37:
 1763              	.LBB339:
 220:../eurorack/plaits/dsp/engine2/wave_terrain_engine.cc ****       const float y = path_y[ij];
 1764              		.loc 1 220 7 view .LVU533
 220:../eurorack/plaits/dsp/engine2/wave_terrain_engine.cc ****       const float y = path_y[ij];
 1765              		.loc 1 220 49 is_stmt 0 view .LVU534
 1766 025e F0EEE87A 		vabs.f32	s15, s17
 220:../eurorack/plaits/dsp/engine2/wave_terrain_engine.cc ****       const float y = path_y[ij];
 1767              		.loc 1 220 32 view .LVU535
 1768 0262 BBEC017A 		vldmia.32	fp!, {s14}
 220:../eurorack/plaits/dsp/engine2/wave_terrain_engine.cc ****       const float y = path_y[ij];
 1769              		.loc 1 220 19 view .LVU536
 1770 0266 F0EE68EA 		vmov.f32	s29, s17
 221:../eurorack/plaits/dsp/engine2/wave_terrain_engine.cc ****       ++ij;
 1771              		.loc 1 221 19 view .LVU537
 1772 026a B3EC01BA 		vldmia.32	r3!, {s22}
 224:../eurorack/plaits/dsp/engine2/wave_terrain_engine.cc ****       const float z1 = Terrain(x, y, z_integral + 1);
 1773              		.loc 1 224 31 view .LVU538
 1774 026e 1EEE101A 		vmov	r1, s28	@ int
 1775 0272 2046     		mov	r0, r4
 220:../eurorack/plaits/dsp/engine2/wave_terrain_engine.cc ****       const float y = path_y[ij];
 1776              		.loc 1 220 42 view .LVU539
 1777 0274 7CEE677A 		vsub.f32	s15, s24, s15
 221:../eurorack/plaits/dsp/engine2/wave_terrain_engine.cc ****       ++ij;
 1778              		.loc 1 221 19 view .LVU540
 1779 0278 0193     		str	r3, [sp, #4]
 224:../eurorack/plaits/dsp/engine2/wave_terrain_engine.cc ****       const float z1 = Terrain(x, y, z_integral + 1);
 1780              		.loc 1 224 31 view .LVU541
 1781 027a F0EE4B0A 		vmov.f32	s1, s22
 220:../eurorack/plaits/dsp/engine2/wave_terrain_engine.cc ****       const float y = path_y[ij];
 1782              		.loc 1 220 19 view .LVU542
 1783 027e E7EE27EA 		vfma.f32	s29, s14, s15
 1784              	.LVL149:
 221:../eurorack/plaits/dsp/engine2/wave_terrain_engine.cc ****       ++ij;
 1785              		.loc 1 221 7 is_stmt 1 view .LVU543
 222:../eurorack/plaits/dsp/engine2/wave_terrain_engine.cc ****       
 1786              		.loc 1 222 7 view .LVU544
 224:../eurorack/plaits/dsp/engine2/wave_terrain_engine.cc ****       const float z1 = Terrain(x, y, z_integral + 1);
 1787              		.loc 1 224 7 view .LVU545
ARM GAS  /var/folders/y7/g6pkzsp12sx54x3s3mvyn15r0000gn/T//ccpDeTAb.s 			page 55


 224:../eurorack/plaits/dsp/engine2/wave_terrain_engine.cc ****       const float z1 = Terrain(x, y, z_integral + 1);
 1788              		.loc 1 224 31 is_stmt 0 view .LVU546
 1789 0282 B0EE6E0A 		vmov.f32	s0, s29
 1790 0286 FFF7FEFF 		bl	_ZN6plaits17WaveTerrainEngine7TerrainEffi
 1791              	.LVL150:
 225:../eurorack/plaits/dsp/engine2/wave_terrain_engine.cc ****       const float z = (z0 + (z1 - z0) * z_fractional);
 1792              		.loc 1 225 31 view .LVU547
 1793 028a 1EEE103A 		vmov	r3, s28	@ int
 224:../eurorack/plaits/dsp/engine2/wave_terrain_engine.cc ****       const float z1 = Terrain(x, y, z_integral + 1);
 1794              		.loc 1 224 31 view .LVU548
 1795 028e B0EE408A 		vmov.f32	s16, s0
 1796              	.LVL151:
 225:../eurorack/plaits/dsp/engine2/wave_terrain_engine.cc ****       const float z = (z0 + (z1 - z0) * z_fractional);
 1797              		.loc 1 225 7 is_stmt 1 view .LVU549
 225:../eurorack/plaits/dsp/engine2/wave_terrain_engine.cc ****       const float z = (z0 + (z1 - z0) * z_fractional);
 1798              		.loc 1 225 31 is_stmt 0 view .LVU550
 1799 0292 2046     		mov	r0, r4
 1800 0294 F0EE4B0A 		vmov.f32	s1, s22
 1801 0298 591C     		adds	r1, r3, #1
 1802 029a B0EE6E0A 		vmov.f32	s0, s29
 1803              	.LVL152:
 225:../eurorack/plaits/dsp/engine2/wave_terrain_engine.cc ****       const float z = (z0 + (z1 - z0) * z_fractional);
 1804              		.loc 1 225 31 view .LVU551
 1805 029e FFF7FEFF 		bl	_ZN6plaits17WaveTerrainEngine7TerrainEffi
 1806              	.LVL153:
 226:../eurorack/plaits/dsp/engine2/wave_terrain_engine.cc ****       out_s += z;
 1807              		.loc 1 226 7 is_stmt 1 view .LVU552
 226:../eurorack/plaits/dsp/engine2/wave_terrain_engine.cc ****       out_s += z;
 1808              		.loc 1 226 33 is_stmt 0 view .LVU553
 1809 02a2 30EE480A 		vsub.f32	s0, s0, s16
 1810              	.LVL154:
 226:../eurorack/plaits/dsp/engine2/wave_terrain_engine.cc ****       out_s += z;
 1811              		.loc 1 226 33 view .LVU554
 1812 02a6 05F10802 		add	r2, r5, #8
 1813              	.LBE339:
 219:../eurorack/plaits/dsp/engine2/wave_terrain_engine.cc ****       const float x = path_x[ij] * (1.0f - fabsf(x_offset)) + x_offset;
 1814              		.loc 1 219 26 discriminator 1 view .LVU555
 1815 02aa 019B     		ldr	r3, [sp, #4]
 1816              	.LBB340:
 226:../eurorack/plaits/dsp/engine2/wave_terrain_engine.cc ****       out_s += z;
 1817              		.loc 1 226 19 view .LVU556
 1818 02ac A0EE2D8A 		vfma.f32	s16, s0, s27
 1819              	.LVL155:
 227:../eurorack/plaits/dsp/engine2/wave_terrain_engine.cc ****       aux_s += y + z;
 1820              		.loc 1 227 7 is_stmt 1 view .LVU557
 1821              	.LBE340:
 219:../eurorack/plaits/dsp/engine2/wave_terrain_engine.cc ****       const float x = path_x[ij] * (1.0f - fabsf(x_offset)) + x_offset;
 1822              		.loc 1 219 26 is_stmt 0 discriminator 1 view .LVU558
 1823 02b0 5A45     		cmp	r2, fp
 1824              	.LBB341:
 228:../eurorack/plaits/dsp/engine2/wave_terrain_engine.cc ****     }
 1825              		.loc 1 228 18 view .LVU559
 1826 02b2 3BEE08BA 		vadd.f32	s22, s22, s16
 1827              	.LVL156:
 227:../eurorack/plaits/dsp/engine2/wave_terrain_engine.cc ****       aux_s += y + z;
 1828              		.loc 1 227 13 view .LVU560
 1829 02b6 79EE889A 		vadd.f32	s19, s19, s16
ARM GAS  /var/folders/y7/g6pkzsp12sx54x3s3mvyn15r0000gn/T//ccpDeTAb.s 			page 56


 1830              	.LVL157:
 228:../eurorack/plaits/dsp/engine2/wave_terrain_engine.cc ****     }
 1831              		.loc 1 228 7 is_stmt 1 view .LVU561
 228:../eurorack/plaits/dsp/engine2/wave_terrain_engine.cc ****     }
 1832              		.loc 1 228 13 is_stmt 0 view .LVU562
 1833 02ba 7CEE8BCA 		vadd.f32	s25, s25, s22
 1834              	.LVL158:
 228:../eurorack/plaits/dsp/engine2/wave_terrain_engine.cc ****     }
 1835              		.loc 1 228 13 view .LVU563
 1836              	.LBE341:
 219:../eurorack/plaits/dsp/engine2/wave_terrain_engine.cc ****       const float x = path_x[ij] * (1.0f - fabsf(x_offset)) + x_offset;
 1837              		.loc 1 219 5 is_stmt 1 discriminator 3 view .LVU564
 219:../eurorack/plaits/dsp/engine2/wave_terrain_engine.cc ****       const float x = path_x[ij] * (1.0f - fabsf(x_offset)) + x_offset;
 1838              		.loc 1 219 26 discriminator 1 view .LVU565
 1839 02be CED1     		bne	.L37
 1840              	.LBE338:
 230:../eurorack/plaits/dsp/engine2/wave_terrain_engine.cc ****     aux[i] = Sine(1.0f + 0.5f * kScale * aux_s);
 1841              		.loc 1 230 21 is_stmt 0 view .LVU566
 1842 02c0 69EE8A9A 		vmul.f32	s19, s19, s20
 1843              	.LVL159:
 230:../eurorack/plaits/dsp/engine2/wave_terrain_engine.cc ****     aux[i] = Sine(1.0f + 0.5f * kScale * aux_s);
 1844              		.loc 1 230 21 view .LVU567
 1845 02c4 0AF1020A 		add	r10, r10, #2
 230:../eurorack/plaits/dsp/engine2/wave_terrain_engine.cc ****     aux[i] = Sine(1.0f + 0.5f * kScale * aux_s);
 1846              		.loc 1 230 5 is_stmt 1 view .LVU568
 231:../eurorack/plaits/dsp/engine2/wave_terrain_engine.cc ****   }
 1847              		.loc 1 231 18 is_stmt 0 view .LVU569
 1848 02c8 B0EE4C0A 		vmov.f32	s0, s24
 231:../eurorack/plaits/dsp/engine2/wave_terrain_engine.cc ****   }
 1849              		.loc 1 231 12 discriminator 1 view .LVU570
 1850 02cc 5D46     		mov	r5, fp
 230:../eurorack/plaits/dsp/engine2/wave_terrain_engine.cc ****     aux[i] = Sine(1.0f + 0.5f * kScale * aux_s);
 1851              		.loc 1 230 12 view .LVU571
 1852 02ce E7EC019A 		vstmia.32	r7!, {s19}
 231:../eurorack/plaits/dsp/engine2/wave_terrain_engine.cc ****   }
 1853              		.loc 1 231 5 is_stmt 1 view .LVU572
 231:../eurorack/plaits/dsp/engine2/wave_terrain_engine.cc ****   }
 1854              		.loc 1 231 18 is_stmt 0 view .LVU573
 1855 02d2 ACEEAA0A 		vfma.f32	s0, s25, s21
 1856 02d6 FFF7FEFF 		bl	_ZN6plaits4SineEf
 1857              	.LVL160:
 231:../eurorack/plaits/dsp/engine2/wave_terrain_engine.cc ****   }
 1858              		.loc 1 231 12 discriminator 1 view .LVU574
 1859 02da A6EC010A 		vstmia.32	r6!, {s0}
 1860              	.LBE329:
 210:../eurorack/plaits/dsp/engine2/wave_terrain_engine.cc ****     const float x_offset = offset.Next();
 1861              		.loc 1 210 3 is_stmt 1 discriminator 2 view .LVU575
 1862 02de 8EE7     		b	.L36
 1863              	.L44:
 1864              		.align	2
 1865              	.L43:
 1866 02e0 000000C3 		.word	-1023410176
 1867 02e4 0000FE42 		.word	1123942400
 1868 02e8 00000043 		.word	1124073472
 1869 02ec 00000000 		.word	_ZN6stmlib19lut_pitch_ratio_lowE
 1870 02f0 00000000 		.word	_ZN6stmlib20lut_pitch_ratio_highE
 1871 02f4 51969639 		.word	966170193
ARM GAS  /var/folders/y7/g6pkzsp12sx54x3s3mvyn15r0000gn/T//ccpDeTAb.s 			page 57


 1872 02f8 00000000 		.word	0
 1873 02fc 6666663F 		.word	1063675494
 1874 0300 CDCCCC3D 		.word	1036831949
 1875 0304 DB0F4940 		.word	1078530011
 1876 0308 0AD7A33E 		.word	1050924810
 1877 030c DF59375F 		.word	1597463007
 1878 0310 3333F33F 		.word	1072902963
 1879 0314 6666863F 		.word	1065772646
 1880 0318 4703803F 		.word	1065354055
 1881              	.LBE347:
 1882              		.cfi_endproc
 1883              	.LFE1334:
 1885              		.global	_ZTVN6plaits17WaveTerrainEngineE
 1886              		.section	.rodata._ZTVN6plaits17WaveTerrainEngineE,"a"
 1887              		.align	2
 1890              	_ZTVN6plaits17WaveTerrainEngineE:
 1891 0000 00000000 		.word	0
 1892 0004 00000000 		.word	0
 1893 0008 00000000 		.word	_ZN6plaits17WaveTerrainEngine4InitEPN6stmlib15BufferAllocatorE
 1894 000c 00000000 		.word	_ZN6plaits17WaveTerrainEngine5ResetEv
 1895 0010 00000000 		.word	_ZN6plaits17WaveTerrainEngine12LoadUserDataEPKh
 1896 0014 00000000 		.word	_ZN6plaits17WaveTerrainEngine6RenderERKNS_16EngineParametersEPfS4_jPb
 1897              		.text
 1898              	.Letext0:
 1899              		.file 11 "/Applications/ArmGNUToolchain/14.2.rel1/arm-none-eabi/arm-none-eabi/include/machine/_def
 1900              		.file 12 "/Applications/ArmGNUToolchain/14.2.rel1/arm-none-eabi/arm-none-eabi/include/sys/_stdint.
 1901              		.file 13 "/Applications/ArmGNUToolchain/14.2.rel1/arm-none-eabi/lib/gcc/arm-none-eabi/14.2.1/inclu
 1902              		.file 14 "/Applications/ArmGNUToolchain/14.2.rel1/arm-none-eabi/arm-none-eabi/include/c++/14.2.1/c
 1903              		.file 15 "/Applications/ArmGNUToolchain/14.2.rel1/arm-none-eabi/arm-none-eabi/include/c++/14.2.1/b
 1904              		.file 16 "/Applications/ArmGNUToolchain/14.2.rel1/arm-none-eabi/arm-none-eabi/include/c++/14.2.1/t
 1905              		.file 17 "/Applications/ArmGNUToolchain/14.2.rel1/arm-none-eabi/arm-none-eabi/include/c++/14.2.1/d
 1906              		.file 18 "/Applications/ArmGNUToolchain/14.2.rel1/arm-none-eabi/arm-none-eabi/include/c++/14.2.1/c
 1907              		.file 19 "/Applications/ArmGNUToolchain/14.2.rel1/arm-none-eabi/arm-none-eabi/include/c++/14.2.1/b
 1908              		.file 20 "/Applications/ArmGNUToolchain/14.2.rel1/arm-none-eabi/arm-none-eabi/include/c++/14.2.1/b
 1909              		.file 21 "/Applications/ArmGNUToolchain/14.2.rel1/arm-none-eabi/arm-none-eabi/include/math.h"
 1910              		.file 22 "/Applications/ArmGNUToolchain/14.2.rel1/arm-none-eabi/arm-none-eabi/include/stdlib.h"
 1911              		.file 23 "/Applications/ArmGNUToolchain/14.2.rel1/arm-none-eabi/arm-none-eabi/include/c++/14.2.1/m
 1912              		.file 24 "../eurorack/stmlib/stmlib.h"
 1913              		.file 25 "/Applications/ArmGNUToolchain/14.2.rel1/arm-none-eabi/arm-none-eabi/include/c++/14.2.1/a
 1914              		.file 26 "/Applications/ArmGNUToolchain/14.2.rel1/arm-none-eabi/arm-none-eabi/include/c++/14.2.1/b
 1915              		.file 27 "../eurorack/plaits/dsp/dsp.h"
 1916              		.file 28 "../eurorack/plaits/resources.h"
 1917              		.file 29 "../eurorack/plaits/dsp/oscillator/oscillator.h"
ARM GAS  /var/folders/y7/g6pkzsp12sx54x3s3mvyn15r0000gn/T//ccpDeTAb.s 			page 58

