ARM GAS  /var/folders/y7/g6pkzsp12sx54x3s3mvyn15r0000gn/T//ccLO9Aj4.s 			page 1


   1              		.cpu cortex-m7
   2              		.arch armv7e-m
   3              		.fpu fpv5-d16
   4              		.eabi_attribute 28, 1
   5              		.eabi_attribute 20, 1
   6              		.eabi_attribute 21, 1
   7              		.eabi_attribute 23, 3
   8              		.eabi_attribute 24, 1
   9              		.eabi_attribute 25, 1
  10              		.eabi_attribute 26, 1
  11              		.eabi_attribute 30, 4
  12              		.eabi_attribute 34, 1
  13              		.eabi_attribute 18, 4
  14              		.file	"waveshaping_engine.cc"
  15              		.text
  16              	.Ltext0:
  17              		.cfi_sections	.debug_frame
  18              		.file 1 "../eurorack/plaits/dsp/engine/waveshaping_engine.cc"
  19              		.section	.text._ZN6plaits17WaveshapingEngine12LoadUserDataEPKh,"axG",%progbits,_ZN6plaits17Wavesha
  20              		.align	1
  21              		.weak	_ZN6plaits17WaveshapingEngine12LoadUserDataEPKh
  22              		.syntax unified
  23              		.thumb
  24              		.thumb_func
  26              	_ZN6plaits17WaveshapingEngine12LoadUserDataEPKh:
  27              	.LVL0:
  28              	.LFB641:
  29              		.file 2 "../eurorack/plaits/dsp/engine/waveshaping_engine.h"
   1:../eurorack/plaits/dsp/engine/waveshaping_engine.h **** // Copyright 2016 Emilie Gillet.
   2:../eurorack/plaits/dsp/engine/waveshaping_engine.h **** //
   3:../eurorack/plaits/dsp/engine/waveshaping_engine.h **** // Author: Emilie Gillet (emilie.o.gillet@gmail.com)
   4:../eurorack/plaits/dsp/engine/waveshaping_engine.h **** //
   5:../eurorack/plaits/dsp/engine/waveshaping_engine.h **** // Permission is hereby granted, free of charge, to any person obtaining a copy
   6:../eurorack/plaits/dsp/engine/waveshaping_engine.h **** // of this software and associated documentation files (the "Software"), to deal
   7:../eurorack/plaits/dsp/engine/waveshaping_engine.h **** // in the Software without restriction, including without limitation the rights
   8:../eurorack/plaits/dsp/engine/waveshaping_engine.h **** // to use, copy, modify, merge, publish, distribute, sublicense, and/or sell
   9:../eurorack/plaits/dsp/engine/waveshaping_engine.h **** // copies of the Software, and to permit persons to whom the Software is
  10:../eurorack/plaits/dsp/engine/waveshaping_engine.h **** // furnished to do so, subject to the following conditions:
  11:../eurorack/plaits/dsp/engine/waveshaping_engine.h **** // 
  12:../eurorack/plaits/dsp/engine/waveshaping_engine.h **** // The above copyright notice and this permission notice shall be included in
  13:../eurorack/plaits/dsp/engine/waveshaping_engine.h **** // all copies or substantial portions of the Software.
  14:../eurorack/plaits/dsp/engine/waveshaping_engine.h **** // 
  15:../eurorack/plaits/dsp/engine/waveshaping_engine.h **** // THE SOFTWARE IS PROVIDED "AS IS", WITHOUT WARRANTY OF ANY KIND, EXPRESS OR
  16:../eurorack/plaits/dsp/engine/waveshaping_engine.h **** // IMPLIED, INCLUDING BUT NOT LIMITED TO THE WARRANTIES OF MERCHANTABILITY,
  17:../eurorack/plaits/dsp/engine/waveshaping_engine.h **** // FITNESS FOR A PARTICULAR PURPOSE AND NONINFRINGEMENT. IN NO EVENT SHALL THE
  18:../eurorack/plaits/dsp/engine/waveshaping_engine.h **** // AUTHORS OR COPYRIGHT HOLDERS BE LIABLE FOR ANY CLAIM, DAMAGES OR OTHER
  19:../eurorack/plaits/dsp/engine/waveshaping_engine.h **** // LIABILITY, WHETHER IN AN ACTION OF CONTRACT, TORT OR OTHERWISE, ARISING FROM,
  20:../eurorack/plaits/dsp/engine/waveshaping_engine.h **** // OUT OF OR IN CONNECTION WITH THE SOFTWARE OR THE USE OR OTHER DEALINGS IN
  21:../eurorack/plaits/dsp/engine/waveshaping_engine.h **** // THE SOFTWARE.
  22:../eurorack/plaits/dsp/engine/waveshaping_engine.h **** // 
  23:../eurorack/plaits/dsp/engine/waveshaping_engine.h **** // See http://creativecommons.org/licenses/MIT/ for more information.
  24:../eurorack/plaits/dsp/engine/waveshaping_engine.h **** //
  25:../eurorack/plaits/dsp/engine/waveshaping_engine.h **** // -----------------------------------------------------------------------------
  26:../eurorack/plaits/dsp/engine/waveshaping_engine.h **** //
  27:../eurorack/plaits/dsp/engine/waveshaping_engine.h **** // Slope -> Waveshaper -> Wavefolder.
  28:../eurorack/plaits/dsp/engine/waveshaping_engine.h **** 
  29:../eurorack/plaits/dsp/engine/waveshaping_engine.h **** #ifndef PLAITS_DSP_ENGINE_WAVESHAPING_ENGINE_H_
ARM GAS  /var/folders/y7/g6pkzsp12sx54x3s3mvyn15r0000gn/T//ccLO9Aj4.s 			page 2


  30:../eurorack/plaits/dsp/engine/waveshaping_engine.h **** #define PLAITS_DSP_ENGINE_WAVESHAPING_ENGINE_H_
  31:../eurorack/plaits/dsp/engine/waveshaping_engine.h **** 
  32:../eurorack/plaits/dsp/engine/waveshaping_engine.h **** #include "plaits/dsp/engine/engine.h"
  33:../eurorack/plaits/dsp/engine/waveshaping_engine.h **** #include "plaits/dsp/oscillator/oscillator.h"
  34:../eurorack/plaits/dsp/engine/waveshaping_engine.h **** 
  35:../eurorack/plaits/dsp/engine/waveshaping_engine.h **** namespace plaits {
  36:../eurorack/plaits/dsp/engine/waveshaping_engine.h ****   
  37:../eurorack/plaits/dsp/engine/waveshaping_engine.h **** class WaveshapingEngine : public Engine {
  38:../eurorack/plaits/dsp/engine/waveshaping_engine.h ****  public:
  39:../eurorack/plaits/dsp/engine/waveshaping_engine.h ****   WaveshapingEngine() { }
  40:../eurorack/plaits/dsp/engine/waveshaping_engine.h ****   ~WaveshapingEngine() { }
  41:../eurorack/plaits/dsp/engine/waveshaping_engine.h ****   
  42:../eurorack/plaits/dsp/engine/waveshaping_engine.h ****   virtual void Init(stmlib::BufferAllocator* allocator);
  43:../eurorack/plaits/dsp/engine/waveshaping_engine.h ****   virtual void Reset();
  44:../eurorack/plaits/dsp/engine/waveshaping_engine.h ****   virtual void LoadUserData(const uint8_t* user_data) { }
  30              		.loc 2 44 16 view -0
  31              		.cfi_startproc
  32              		@ args = 0, pretend = 0, frame = 0
  33              		@ frame_needed = 0, uses_anonymous_args = 0
  34              		@ link register save eliminated.
  35              		.loc 2 44 57 is_stmt 0 view .LVU1
  36 0000 7047     		bx	lr
  37              		.cfi_endproc
  38              	.LFE641:
  40              		.section	.text._ZN6plaits17WaveshapingEngine5ResetEv,"ax",%progbits
  41              		.align	1
  42              		.global	_ZN6plaits17WaveshapingEngine5ResetEv
  43              		.syntax unified
  44              		.thumb
  45              		.thumb_func
  47              	_ZN6plaits17WaveshapingEngine5ResetEv:
  48              	.LVL1:
  49              	.LFB1327:
   1:../eurorack/plaits/dsp/engine/waveshaping_engine.cc **** // Copyright 2016 Emilie Gillet.
   2:../eurorack/plaits/dsp/engine/waveshaping_engine.cc **** //
   3:../eurorack/plaits/dsp/engine/waveshaping_engine.cc **** // Author: Emilie Gillet (emilie.o.gillet@gmail.com)
   4:../eurorack/plaits/dsp/engine/waveshaping_engine.cc **** //
   5:../eurorack/plaits/dsp/engine/waveshaping_engine.cc **** // Permission is hereby granted, free of charge, to any person obtaining a copy
   6:../eurorack/plaits/dsp/engine/waveshaping_engine.cc **** // of this software and associated documentation files (the "Software"), to deal
   7:../eurorack/plaits/dsp/engine/waveshaping_engine.cc **** // in the Software without restriction, including without limitation the rights
   8:../eurorack/plaits/dsp/engine/waveshaping_engine.cc **** // to use, copy, modify, merge, publish, distribute, sublicense, and/or sell
   9:../eurorack/plaits/dsp/engine/waveshaping_engine.cc **** // copies of the Software, and to permit persons to whom the Software is
  10:../eurorack/plaits/dsp/engine/waveshaping_engine.cc **** // furnished to do so, subject to the following conditions:
  11:../eurorack/plaits/dsp/engine/waveshaping_engine.cc **** // 
  12:../eurorack/plaits/dsp/engine/waveshaping_engine.cc **** // The above copyright notice and this permission notice shall be included in
  13:../eurorack/plaits/dsp/engine/waveshaping_engine.cc **** // all copies or substantial portions of the Software.
  14:../eurorack/plaits/dsp/engine/waveshaping_engine.cc **** // 
  15:../eurorack/plaits/dsp/engine/waveshaping_engine.cc **** // THE SOFTWARE IS PROVIDED "AS IS", WITHOUT WARRANTY OF ANY KIND, EXPRESS OR
  16:../eurorack/plaits/dsp/engine/waveshaping_engine.cc **** // IMPLIED, INCLUDING BUT NOT LIMITED TO THE WARRANTIES OF MERCHANTABILITY,
  17:../eurorack/plaits/dsp/engine/waveshaping_engine.cc **** // FITNESS FOR A PARTICULAR PURPOSE AND NONINFRINGEMENT. IN NO EVENT SHALL THE
  18:../eurorack/plaits/dsp/engine/waveshaping_engine.cc **** // AUTHORS OR COPYRIGHT HOLDERS BE LIABLE FOR ANY CLAIM, DAMAGES OR OTHER
  19:../eurorack/plaits/dsp/engine/waveshaping_engine.cc **** // LIABILITY, WHETHER IN AN ACTION OF CONTRACT, TORT OR OTHERWISE, ARISING FROM,
  20:../eurorack/plaits/dsp/engine/waveshaping_engine.cc **** // OUT OF OR IN CONNECTION WITH THE SOFTWARE OR THE USE OR OTHER DEALINGS IN
  21:../eurorack/plaits/dsp/engine/waveshaping_engine.cc **** // THE SOFTWARE.
  22:../eurorack/plaits/dsp/engine/waveshaping_engine.cc **** // 
  23:../eurorack/plaits/dsp/engine/waveshaping_engine.cc **** // See http://creativecommons.org/licenses/MIT/ for more information.
  24:../eurorack/plaits/dsp/engine/waveshaping_engine.cc **** //
ARM GAS  /var/folders/y7/g6pkzsp12sx54x3s3mvyn15r0000gn/T//ccLO9Aj4.s 			page 3


  25:../eurorack/plaits/dsp/engine/waveshaping_engine.cc **** // -----------------------------------------------------------------------------
  26:../eurorack/plaits/dsp/engine/waveshaping_engine.cc **** //
  27:../eurorack/plaits/dsp/engine/waveshaping_engine.cc **** // Slope -> Waveshaper -> Wavefolder.
  28:../eurorack/plaits/dsp/engine/waveshaping_engine.cc **** 
  29:../eurorack/plaits/dsp/engine/waveshaping_engine.cc **** #include "plaits/dsp/engine/waveshaping_engine.h"
  30:../eurorack/plaits/dsp/engine/waveshaping_engine.cc **** 
  31:../eurorack/plaits/dsp/engine/waveshaping_engine.cc **** #include <algorithm>
  32:../eurorack/plaits/dsp/engine/waveshaping_engine.cc **** 
  33:../eurorack/plaits/dsp/engine/waveshaping_engine.cc **** #include "stmlib/dsp/parameter_interpolator.h"
  34:../eurorack/plaits/dsp/engine/waveshaping_engine.cc **** #include "stmlib/utils/dsp.h"
  35:../eurorack/plaits/dsp/engine/waveshaping_engine.cc **** 
  36:../eurorack/plaits/dsp/engine/waveshaping_engine.cc **** #include "plaits/dsp/oscillator/sine_oscillator.h"
  37:../eurorack/plaits/dsp/engine/waveshaping_engine.cc **** #include "plaits/resources.h"
  38:../eurorack/plaits/dsp/engine/waveshaping_engine.cc **** 
  39:../eurorack/plaits/dsp/engine/waveshaping_engine.cc **** namespace plaits {
  40:../eurorack/plaits/dsp/engine/waveshaping_engine.cc **** 
  41:../eurorack/plaits/dsp/engine/waveshaping_engine.cc **** using namespace std;
  42:../eurorack/plaits/dsp/engine/waveshaping_engine.cc **** using namespace stmlib;
  43:../eurorack/plaits/dsp/engine/waveshaping_engine.cc **** 
  44:../eurorack/plaits/dsp/engine/waveshaping_engine.cc **** void WaveshapingEngine::Init(BufferAllocator* allocator) {
  45:../eurorack/plaits/dsp/engine/waveshaping_engine.cc ****   slope_.Init();
  46:../eurorack/plaits/dsp/engine/waveshaping_engine.cc ****   triangle_.Init();
  47:../eurorack/plaits/dsp/engine/waveshaping_engine.cc ****   previous_shape_ = 0.0f;
  48:../eurorack/plaits/dsp/engine/waveshaping_engine.cc ****   previous_wavefolder_gain_ = 0.0f;
  49:../eurorack/plaits/dsp/engine/waveshaping_engine.cc ****   previous_overtone_gain_ = 0.0f;
  50:../eurorack/plaits/dsp/engine/waveshaping_engine.cc **** }
  51:../eurorack/plaits/dsp/engine/waveshaping_engine.cc **** 
  52:../eurorack/plaits/dsp/engine/waveshaping_engine.cc **** void WaveshapingEngine::Reset() {
  50              		.loc 1 52 33 is_stmt 1 view -0
  51              		.cfi_startproc
  52              		@ args = 0, pretend = 0, frame = 0
  53              		@ frame_needed = 0, uses_anonymous_args = 0
  54              		@ link register save eliminated.
  53:../eurorack/plaits/dsp/engine/waveshaping_engine.cc ****   
  54:../eurorack/plaits/dsp/engine/waveshaping_engine.cc **** }
  55              		.loc 1 54 1 is_stmt 0 view .LVU3
  56 0000 7047     		bx	lr
  57              		.cfi_endproc
  58              	.LFE1327:
  60              		.section	.text._ZN6plaits17WaveshapingEngine4InitEPN6stmlib15BufferAllocatorE,"ax",%progbits
  61              		.align	1
  62              		.global	_ZN6plaits17WaveshapingEngine4InitEPN6stmlib15BufferAllocatorE
  63              		.syntax unified
  64              		.thumb
  65              		.thumb_func
  67              	_ZN6plaits17WaveshapingEngine4InitEPN6stmlib15BufferAllocatorE:
  68              	.LVL2:
  69              	.LFB1326:
  44:../eurorack/plaits/dsp/engine/waveshaping_engine.cc ****   slope_.Init();
  70              		.loc 1 44 58 is_stmt 1 view -0
  71              		.cfi_startproc
  72              		@ args = 0, pretend = 0, frame = 0
  73              		@ frame_needed = 0, uses_anonymous_args = 0
  45:../eurorack/plaits/dsp/engine/waveshaping_engine.cc ****   triangle_.Init();
  74              		.loc 1 45 3 view .LVU5
  75              	.LBB63:
  76              	.LBI63:
ARM GAS  /var/folders/y7/g6pkzsp12sx54x3s3mvyn15r0000gn/T//ccLO9Aj4.s 			page 4


  77              		.file 3 "../eurorack/plaits/dsp/oscillator/oscillator.h"
   1:../eurorack/plaits/dsp/oscillator/oscillator.h **** // Copyright 2016 Emilie Gillet.
   2:../eurorack/plaits/dsp/oscillator/oscillator.h **** //
   3:../eurorack/plaits/dsp/oscillator/oscillator.h **** // Author: Emilie Gillet (emilie.o.gillet@gmail.com)
   4:../eurorack/plaits/dsp/oscillator/oscillator.h **** //
   5:../eurorack/plaits/dsp/oscillator/oscillator.h **** // Permission is hereby granted, free of charge, to any person obtaining a copy
   6:../eurorack/plaits/dsp/oscillator/oscillator.h **** // of this software and associated documentation files (the "Software"), to deal
   7:../eurorack/plaits/dsp/oscillator/oscillator.h **** // in the Software without restriction, including without limitation the rights
   8:../eurorack/plaits/dsp/oscillator/oscillator.h **** // to use, copy, modify, merge, publish, distribute, sublicense, and/or sell
   9:../eurorack/plaits/dsp/oscillator/oscillator.h **** // copies of the Software, and to permit persons to whom the Software is
  10:../eurorack/plaits/dsp/oscillator/oscillator.h **** // furnished to do so, subject to the following conditions:
  11:../eurorack/plaits/dsp/oscillator/oscillator.h **** // 
  12:../eurorack/plaits/dsp/oscillator/oscillator.h **** // The above copyright notice and this permission notice shall be included in
  13:../eurorack/plaits/dsp/oscillator/oscillator.h **** // all copies or substantial portions of the Software.
  14:../eurorack/plaits/dsp/oscillator/oscillator.h **** // 
  15:../eurorack/plaits/dsp/oscillator/oscillator.h **** // THE SOFTWARE IS PROVIDED "AS IS", WITHOUT WARRANTY OF ANY KIND, EXPRESS OR
  16:../eurorack/plaits/dsp/oscillator/oscillator.h **** // IMPLIED, INCLUDING BUT NOT LIMITED TO THE WARRANTIES OF MERCHANTABILITY,
  17:../eurorack/plaits/dsp/oscillator/oscillator.h **** // FITNESS FOR A PARTICULAR PURPOSE AND NONINFRINGEMENT. IN NO EVENT SHALL THE
  18:../eurorack/plaits/dsp/oscillator/oscillator.h **** // AUTHORS OR COPYRIGHT HOLDERS BE LIABLE FOR ANY CLAIM, DAMAGES OR OTHER
  19:../eurorack/plaits/dsp/oscillator/oscillator.h **** // LIABILITY, WHETHER IN AN ACTION OF CONTRACT, TORT OR OTHERWISE, ARISING FROM,
  20:../eurorack/plaits/dsp/oscillator/oscillator.h **** // OUT OF OR IN CONNECTION WITH THE SOFTWARE OR THE USE OR OTHER DEALINGS IN
  21:../eurorack/plaits/dsp/oscillator/oscillator.h **** // THE SOFTWARE.
  22:../eurorack/plaits/dsp/oscillator/oscillator.h **** // 
  23:../eurorack/plaits/dsp/oscillator/oscillator.h **** // See http://creativecommons.org/licenses/MIT/ for more information.
  24:../eurorack/plaits/dsp/oscillator/oscillator.h **** //
  25:../eurorack/plaits/dsp/oscillator/oscillator.h **** // -----------------------------------------------------------------------------
  26:../eurorack/plaits/dsp/oscillator/oscillator.h **** //
  27:../eurorack/plaits/dsp/oscillator/oscillator.h **** // Single waveform oscillator. Can optionally do audio-rate linear FM, with
  28:../eurorack/plaits/dsp/oscillator/oscillator.h **** // through-zero capabilities (negative frequencies).
  29:../eurorack/plaits/dsp/oscillator/oscillator.h **** 
  30:../eurorack/plaits/dsp/oscillator/oscillator.h **** #ifndef PLAITS_DSP_OSCILLATOR_OSCILLATOR_H_
  31:../eurorack/plaits/dsp/oscillator/oscillator.h **** #define PLAITS_DSP_OSCILLATOR_OSCILLATOR_H_
  32:../eurorack/plaits/dsp/oscillator/oscillator.h **** 
  33:../eurorack/plaits/dsp/oscillator/oscillator.h **** #include "stmlib/dsp/dsp.h"
  34:../eurorack/plaits/dsp/oscillator/oscillator.h **** #include "stmlib/dsp/parameter_interpolator.h"
  35:../eurorack/plaits/dsp/oscillator/oscillator.h **** #include "stmlib/dsp/polyblep.h"
  36:../eurorack/plaits/dsp/oscillator/oscillator.h **** 
  37:../eurorack/plaits/dsp/oscillator/oscillator.h **** namespace plaits {
  38:../eurorack/plaits/dsp/oscillator/oscillator.h **** 
  39:../eurorack/plaits/dsp/oscillator/oscillator.h **** enum OscillatorShape {
  40:../eurorack/plaits/dsp/oscillator/oscillator.h ****   OSCILLATOR_SHAPE_IMPULSE_TRAIN,
  41:../eurorack/plaits/dsp/oscillator/oscillator.h ****   OSCILLATOR_SHAPE_SAW,
  42:../eurorack/plaits/dsp/oscillator/oscillator.h ****   OSCILLATOR_SHAPE_TRIANGLE,
  43:../eurorack/plaits/dsp/oscillator/oscillator.h ****   OSCILLATOR_SHAPE_SLOPE,
  44:../eurorack/plaits/dsp/oscillator/oscillator.h ****   OSCILLATOR_SHAPE_SQUARE,
  45:../eurorack/plaits/dsp/oscillator/oscillator.h ****   OSCILLATOR_SHAPE_SQUARE_BRIGHT,
  46:../eurorack/plaits/dsp/oscillator/oscillator.h ****   OSCILLATOR_SHAPE_SQUARE_DARK,
  47:../eurorack/plaits/dsp/oscillator/oscillator.h ****   OSCILLATOR_SHAPE_SQUARE_TRIANGLE
  48:../eurorack/plaits/dsp/oscillator/oscillator.h **** };
  49:../eurorack/plaits/dsp/oscillator/oscillator.h **** 
  50:../eurorack/plaits/dsp/oscillator/oscillator.h **** const float kMaxFrequency = 0.25f;
  51:../eurorack/plaits/dsp/oscillator/oscillator.h **** const float kMinFrequency = 0.000001f;
  52:../eurorack/plaits/dsp/oscillator/oscillator.h **** 
  53:../eurorack/plaits/dsp/oscillator/oscillator.h **** class Oscillator {
  54:../eurorack/plaits/dsp/oscillator/oscillator.h ****  public:
  55:../eurorack/plaits/dsp/oscillator/oscillator.h ****   Oscillator() { }
  56:../eurorack/plaits/dsp/oscillator/oscillator.h ****   ~Oscillator() { }
ARM GAS  /var/folders/y7/g6pkzsp12sx54x3s3mvyn15r0000gn/T//ccLO9Aj4.s 			page 5


  57:../eurorack/plaits/dsp/oscillator/oscillator.h ****   
  58:../eurorack/plaits/dsp/oscillator/oscillator.h ****   void Init() {
  78              		.loc 3 58 8 view .LVU6
  79              	.LBB64:
  59:../eurorack/plaits/dsp/oscillator/oscillator.h ****     phase_ = 0.5f;
  80              		.loc 3 59 5 view .LVU7
  81              	.LBE64:
  82              	.LBE63:
  44:../eurorack/plaits/dsp/engine/waveshaping_engine.cc ****   slope_.Init();
  83              		.loc 1 44 58 is_stmt 0 view .LVU8
  84 0000 30B5     		push	{r4, r5, lr}
  85              		.cfi_def_cfa_offset 12
  86              		.cfi_offset 4, -12
  87              		.cfi_offset 5, -8
  88              		.cfi_offset 14, -4
  89              	.LBB66:
  90              	.LBB65:
  60:../eurorack/plaits/dsp/oscillator/oscillator.h ****     next_sample_ = 0.0f;
  91              		.loc 3 60 18 view .LVU9
  92 0002 0023     		movs	r3, #0
  59:../eurorack/plaits/dsp/oscillator/oscillator.h ****     phase_ = 0.5f;
  93              		.loc 3 59 12 view .LVU10
  94 0004 4FF07C52 		mov	r2, #1056964608
  61:../eurorack/plaits/dsp/oscillator/oscillator.h ****     lp_state_ = 1.0f;
  95              		.loc 3 61 15 view .LVU11
  96 0008 4FF07E55 		mov	r5, #1065353216
  62:../eurorack/plaits/dsp/oscillator/oscillator.h ****     hp_state_ = 0.0f;
  63:../eurorack/plaits/dsp/oscillator/oscillator.h ****     high_ = true;
  97              		.loc 3 63 11 view .LVU12
  98 000c 0124     		movs	r4, #1
  64:../eurorack/plaits/dsp/oscillator/oscillator.h **** 
  65:../eurorack/plaits/dsp/oscillator/oscillator.h ****     frequency_ = 0.001f;
  99              		.loc 3 65 16 view .LVU13
 100 000e 0A49     		ldr	r1, .L4
 101              	.LVL3:
  59:../eurorack/plaits/dsp/oscillator/oscillator.h ****     next_sample_ = 0.0f;
 102              		.loc 3 59 12 view .LVU14
 103 0010 0261     		str	r2, [r0, #16]	@ float
  60:../eurorack/plaits/dsp/oscillator/oscillator.h ****     lp_state_ = 1.0f;
 104              		.loc 3 60 5 is_stmt 1 view .LVU15
  60:../eurorack/plaits/dsp/oscillator/oscillator.h ****     lp_state_ = 1.0f;
 105              		.loc 3 60 18 is_stmt 0 view .LVU16
 106 0012 4361     		str	r3, [r0, #20]	@ float
  61:../eurorack/plaits/dsp/oscillator/oscillator.h ****     hp_state_ = 0.0f;
 107              		.loc 3 61 5 is_stmt 1 view .LVU17
  61:../eurorack/plaits/dsp/oscillator/oscillator.h ****     hp_state_ = 0.0f;
 108              		.loc 3 61 15 is_stmt 0 view .LVU18
 109 0014 8561     		str	r5, [r0, #24]	@ float
  62:../eurorack/plaits/dsp/oscillator/oscillator.h ****     high_ = true;
 110              		.loc 3 62 5 is_stmt 1 view .LVU19
  62:../eurorack/plaits/dsp/oscillator/oscillator.h ****     high_ = true;
 111              		.loc 3 62 15 is_stmt 0 view .LVU20
 112 0016 C361     		str	r3, [r0, #28]	@ float
  63:../eurorack/plaits/dsp/oscillator/oscillator.h **** 
 113              		.loc 3 63 5 is_stmt 1 view .LVU21
  63:../eurorack/plaits/dsp/oscillator/oscillator.h **** 
 114              		.loc 3 63 11 is_stmt 0 view .LVU22
ARM GAS  /var/folders/y7/g6pkzsp12sx54x3s3mvyn15r0000gn/T//ccLO9Aj4.s 			page 6


 115 0018 80F82040 		strb	r4, [r0, #32]
 116              		.loc 3 65 5 is_stmt 1 view .LVU23
 117              		.loc 3 65 16 is_stmt 0 view .LVU24
 118 001c 4162     		str	r1, [r0, #36]	@ float
  66:../eurorack/plaits/dsp/oscillator/oscillator.h ****     pw_ = 0.5f;
 119              		.loc 3 66 5 is_stmt 1 view .LVU25
 120              		.loc 3 66 9 is_stmt 0 view .LVU26
 121 001e 8262     		str	r2, [r0, #40]	@ float
 122              	.LVL4:
 123              		.loc 3 66 9 view .LVU27
 124              	.LBE65:
 125              	.LBE66:
  46:../eurorack/plaits/dsp/engine/waveshaping_engine.cc ****   previous_shape_ = 0.0f;
 126              		.loc 1 46 3 is_stmt 1 view .LVU28
 127              	.LBB67:
 128              	.LBI67:
  58:../eurorack/plaits/dsp/oscillator/oscillator.h ****     phase_ = 0.5f;
 129              		.loc 3 58 8 view .LVU29
 130              	.LBB68:
  59:../eurorack/plaits/dsp/oscillator/oscillator.h ****     next_sample_ = 0.0f;
 131              		.loc 3 59 5 view .LVU30
  59:../eurorack/plaits/dsp/oscillator/oscillator.h ****     next_sample_ = 0.0f;
 132              		.loc 3 59 12 is_stmt 0 view .LVU31
 133 0020 C262     		str	r2, [r0, #44]	@ float
  60:../eurorack/plaits/dsp/oscillator/oscillator.h ****     lp_state_ = 1.0f;
 134              		.loc 3 60 5 is_stmt 1 view .LVU32
  60:../eurorack/plaits/dsp/oscillator/oscillator.h ****     lp_state_ = 1.0f;
 135              		.loc 3 60 18 is_stmt 0 view .LVU33
 136 0022 0363     		str	r3, [r0, #48]	@ float
  61:../eurorack/plaits/dsp/oscillator/oscillator.h ****     hp_state_ = 0.0f;
 137              		.loc 3 61 5 is_stmt 1 view .LVU34
  61:../eurorack/plaits/dsp/oscillator/oscillator.h ****     hp_state_ = 0.0f;
 138              		.loc 3 61 15 is_stmt 0 view .LVU35
 139 0024 4563     		str	r5, [r0, #52]	@ float
  62:../eurorack/plaits/dsp/oscillator/oscillator.h ****     high_ = true;
 140              		.loc 3 62 5 is_stmt 1 view .LVU36
  62:../eurorack/plaits/dsp/oscillator/oscillator.h ****     high_ = true;
 141              		.loc 3 62 15 is_stmt 0 view .LVU37
 142 0026 8363     		str	r3, [r0, #56]	@ float
  63:../eurorack/plaits/dsp/oscillator/oscillator.h **** 
 143              		.loc 3 63 5 is_stmt 1 view .LVU38
  63:../eurorack/plaits/dsp/oscillator/oscillator.h **** 
 144              		.loc 3 63 11 is_stmt 0 view .LVU39
 145 0028 80F83C40 		strb	r4, [r0, #60]
  65:../eurorack/plaits/dsp/oscillator/oscillator.h ****     pw_ = 0.5f;
 146              		.loc 3 65 5 is_stmt 1 view .LVU40
  65:../eurorack/plaits/dsp/oscillator/oscillator.h ****     pw_ = 0.5f;
 147              		.loc 3 65 16 is_stmt 0 view .LVU41
 148 002c 0164     		str	r1, [r0, #64]	@ float
 149              		.loc 3 66 5 is_stmt 1 view .LVU42
 150              		.loc 3 66 9 is_stmt 0 view .LVU43
 151 002e 4264     		str	r2, [r0, #68]	@ float
 152              	.LVL5:
 153              		.loc 3 66 9 view .LVU44
 154              	.LBE68:
 155              	.LBE67:
  47:../eurorack/plaits/dsp/engine/waveshaping_engine.cc ****   previous_wavefolder_gain_ = 0.0f;
ARM GAS  /var/folders/y7/g6pkzsp12sx54x3s3mvyn15r0000gn/T//ccLO9Aj4.s 			page 7


 156              		.loc 1 47 3 is_stmt 1 view .LVU45
  47:../eurorack/plaits/dsp/engine/waveshaping_engine.cc ****   previous_wavefolder_gain_ = 0.0f;
 157              		.loc 1 47 19 is_stmt 0 view .LVU46
 158 0030 8364     		str	r3, [r0, #72]	@ float
  48:../eurorack/plaits/dsp/engine/waveshaping_engine.cc ****   previous_overtone_gain_ = 0.0f;
 159              		.loc 1 48 3 is_stmt 1 view .LVU47
  48:../eurorack/plaits/dsp/engine/waveshaping_engine.cc ****   previous_overtone_gain_ = 0.0f;
 160              		.loc 1 48 29 is_stmt 0 view .LVU48
 161 0032 C364     		str	r3, [r0, #76]	@ float
  49:../eurorack/plaits/dsp/engine/waveshaping_engine.cc **** }
 162              		.loc 1 49 3 is_stmt 1 view .LVU49
  49:../eurorack/plaits/dsp/engine/waveshaping_engine.cc **** }
 163              		.loc 1 49 27 is_stmt 0 view .LVU50
 164 0034 0365     		str	r3, [r0, #80]	@ float
  50:../eurorack/plaits/dsp/engine/waveshaping_engine.cc **** 
 165              		.loc 1 50 1 view .LVU51
 166 0036 30BD     		pop	{r4, r5, pc}
 167              	.L5:
 168              		.align	2
 169              	.L4:
 170 0038 6F12833A 		.word	981668463
 171              		.cfi_endproc
 172              	.LFE1326:
 174              		.section	.text._ZN6stmlib18InterpolateHermiteEPKfff,"axG",%progbits,_ZN6stmlib18InterpolateHermite
 175              		.align	1
 176              		.weak	_ZN6stmlib18InterpolateHermiteEPKfff
 177              		.syntax unified
 178              		.thumb
 179              		.thumb_func
 181              	_ZN6stmlib18InterpolateHermiteEPKfff:
 182              	.LVL6:
 183              	.LFB566:
 184              		.file 4 "../eurorack/stmlib/dsp/dsp.h"
   1:../eurorack/stmlib/dsp/dsp.h **** // Copyright 2012 Emilie Gillet.
   2:../eurorack/stmlib/dsp/dsp.h **** //
   3:../eurorack/stmlib/dsp/dsp.h **** // Author: Emilie Gillet (emilie.o.gillet@gmail.com)
   4:../eurorack/stmlib/dsp/dsp.h **** //
   5:../eurorack/stmlib/dsp/dsp.h **** // Permission is hereby granted, free of charge, to any person obtaining a copy
   6:../eurorack/stmlib/dsp/dsp.h **** // of this software and associated documentation files (the "Software"), to deal
   7:../eurorack/stmlib/dsp/dsp.h **** // in the Software without restriction, including without limitation the rights
   8:../eurorack/stmlib/dsp/dsp.h **** // to use, copy, modify, merge, publish, distribute, sublicense, and/or sell
   9:../eurorack/stmlib/dsp/dsp.h **** // copies of the Software, and to permit persons to whom the Software is
  10:../eurorack/stmlib/dsp/dsp.h **** // furnished to do so, subject to the following conditions:
  11:../eurorack/stmlib/dsp/dsp.h **** // 
  12:../eurorack/stmlib/dsp/dsp.h **** // The above copyright notice and this permission notice shall be included in
  13:../eurorack/stmlib/dsp/dsp.h **** // all copies or substantial portions of the Software.
  14:../eurorack/stmlib/dsp/dsp.h **** // 
  15:../eurorack/stmlib/dsp/dsp.h **** // THE SOFTWARE IS PROVIDED "AS IS", WITHOUT WARRANTY OF ANY KIND, EXPRESS OR
  16:../eurorack/stmlib/dsp/dsp.h **** // IMPLIED, INCLUDING BUT NOT LIMITED TO THE WARRANTIES OF MERCHANTABILITY,
  17:../eurorack/stmlib/dsp/dsp.h **** // FITNESS FOR A PARTICULAR PURPOSE AND NONINFRINGEMENT. IN NO EVENT SHALL THE
  18:../eurorack/stmlib/dsp/dsp.h **** // AUTHORS OR COPYRIGHT HOLDERS BE LIABLE FOR ANY CLAIM, DAMAGES OR OTHER
  19:../eurorack/stmlib/dsp/dsp.h **** // LIABILITY, WHETHER IN AN ACTION OF CONTRACT, TORT OR OTHERWISE, ARISING FROM,
  20:../eurorack/stmlib/dsp/dsp.h **** // OUT OF OR IN CONNECTION WITH THE SOFTWARE OR THE USE OR OTHER DEALINGS IN
  21:../eurorack/stmlib/dsp/dsp.h **** // THE SOFTWARE.
  22:../eurorack/stmlib/dsp/dsp.h **** // 
  23:../eurorack/stmlib/dsp/dsp.h **** // See http://creativecommons.org/licenses/MIT/ for more information.
  24:../eurorack/stmlib/dsp/dsp.h **** //
ARM GAS  /var/folders/y7/g6pkzsp12sx54x3s3mvyn15r0000gn/T//ccLO9Aj4.s 			page 8


  25:../eurorack/stmlib/dsp/dsp.h **** // -----------------------------------------------------------------------------
  26:../eurorack/stmlib/dsp/dsp.h **** //
  27:../eurorack/stmlib/dsp/dsp.h **** // DSP utility routines.
  28:../eurorack/stmlib/dsp/dsp.h **** 
  29:../eurorack/stmlib/dsp/dsp.h **** #ifndef STMLIB_UTILS_DSP_DSP_H_
  30:../eurorack/stmlib/dsp/dsp.h **** #define STMLIB_UTILS_DSP_DSP_H_
  31:../eurorack/stmlib/dsp/dsp.h **** 
  32:../eurorack/stmlib/dsp/dsp.h **** #include "stmlib/stmlib.h"
  33:../eurorack/stmlib/dsp/dsp.h **** 
  34:../eurorack/stmlib/dsp/dsp.h **** #include <cmath>
  35:../eurorack/stmlib/dsp/dsp.h **** #include <math.h>
  36:../eurorack/stmlib/dsp/dsp.h **** 
  37:../eurorack/stmlib/dsp/dsp.h **** namespace stmlib {
  38:../eurorack/stmlib/dsp/dsp.h **** 
  39:../eurorack/stmlib/dsp/dsp.h **** #define MAKE_INTEGRAL_FRACTIONAL(x) \
  40:../eurorack/stmlib/dsp/dsp.h ****   int32_t x ## _integral = static_cast<int32_t>(x); \
  41:../eurorack/stmlib/dsp/dsp.h ****   float x ## _fractional = x - static_cast<float>(x ## _integral);
  42:../eurorack/stmlib/dsp/dsp.h **** 
  43:../eurorack/stmlib/dsp/dsp.h **** inline float Interpolate(const float* table, float index, float size) {
  44:../eurorack/stmlib/dsp/dsp.h ****   index *= size;
  45:../eurorack/stmlib/dsp/dsp.h ****   MAKE_INTEGRAL_FRACTIONAL(index)
  46:../eurorack/stmlib/dsp/dsp.h ****   float a = table[index_integral];
  47:../eurorack/stmlib/dsp/dsp.h ****   float b = table[index_integral + 1];
  48:../eurorack/stmlib/dsp/dsp.h ****   return a + (b - a) * index_fractional;
  49:../eurorack/stmlib/dsp/dsp.h **** }
  50:../eurorack/stmlib/dsp/dsp.h **** 
  51:../eurorack/stmlib/dsp/dsp.h **** 
  52:../eurorack/stmlib/dsp/dsp.h **** inline float InterpolateHermite(const float* table, float index, float size) {
 185              		.loc 4 52 78 is_stmt 1 view -0
 186              		.cfi_startproc
 187              		@ args = 0, pretend = 0, frame = 0
 188              		@ frame_needed = 0, uses_anonymous_args = 0
 189              		@ link register save eliminated.
  53:../eurorack/stmlib/dsp/dsp.h ****   index *= size;
 190              		.loc 4 53 3 view .LVU53
 191              		.loc 4 53 9 is_stmt 0 view .LVU54
 192 0000 60EE206A 		vmul.f32	s13, s0, s1
 193              	.LVL7:
  54:../eurorack/stmlib/dsp/dsp.h ****   MAKE_INTEGRAL_FRACTIONAL(index)
 194              		.loc 4 54 3 is_stmt 1 view .LVU55
  55:../eurorack/stmlib/dsp/dsp.h ****   const float xm1 = table[index_integral - 1];
  56:../eurorack/stmlib/dsp/dsp.h ****   const float x0 = table[index_integral + 0];
  57:../eurorack/stmlib/dsp/dsp.h ****   const float x1 = table[index_integral + 1];
  58:../eurorack/stmlib/dsp/dsp.h ****   const float x2 = table[index_integral + 2];
  59:../eurorack/stmlib/dsp/dsp.h ****   const float c = (x1 - xm1) * 0.5f;
  60:../eurorack/stmlib/dsp/dsp.h ****   const float v = x0 - x1;
  61:../eurorack/stmlib/dsp/dsp.h ****   const float w = c + v;
 195              		.loc 4 61 15 is_stmt 0 view .LVU56
 196 0004 F6EE005A 		vmov.f32	s11, #5.0e-1
  54:../eurorack/stmlib/dsp/dsp.h ****   MAKE_INTEGRAL_FRACTIONAL(index)
 197              		.loc 4 54 3 view .LVU57
 198 0008 FDEEE67A 		vcvt.s32.f32	s15, s13
 199              	.LVL8:
  54:../eurorack/stmlib/dsp/dsp.h ****   MAKE_INTEGRAL_FRACTIONAL(index)
 200              		.loc 4 54 3 is_stmt 1 view .LVU58
  55:../eurorack/stmlib/dsp/dsp.h ****   const float xm1 = table[index_integral - 1];
 201              		.loc 4 55 45 is_stmt 0 view .LVU59
ARM GAS  /var/folders/y7/g6pkzsp12sx54x3s3mvyn15r0000gn/T//ccLO9Aj4.s 			page 9


 202 000c 17EE903A 		vmov	r3, s15	@ int
  54:../eurorack/stmlib/dsp/dsp.h ****   MAKE_INTEGRAL_FRACTIONAL(index)
 203              		.loc 4 54 3 view .LVU60
 204 0010 B8EEE77A 		vcvt.f32.s32	s14, s15
  55:../eurorack/stmlib/dsp/dsp.h ****   const float xm1 = table[index_integral - 1];
 205              		.loc 4 55 45 view .LVU61
 206 0014 03F18043 		add	r3, r3, #1073741824
  54:../eurorack/stmlib/dsp/dsp.h ****   MAKE_INTEGRAL_FRACTIONAL(index)
 207              		.loc 4 54 3 view .LVU62
 208 0018 76EEC76A 		vsub.f32	s13, s13, s14
 209              	.LVL9:
  55:../eurorack/stmlib/dsp/dsp.h ****   const float xm1 = table[index_integral - 1];
 210              		.loc 4 55 3 is_stmt 1 view .LVU63
  55:../eurorack/stmlib/dsp/dsp.h ****   const float xm1 = table[index_integral - 1];
 211              		.loc 4 55 45 is_stmt 0 view .LVU64
 212 001c 013B     		subs	r3, r3, #1
 213              	.LVL10:
  56:../eurorack/stmlib/dsp/dsp.h ****   const float x1 = table[index_integral + 1];
 214              		.loc 4 56 3 is_stmt 1 view .LVU65
  56:../eurorack/stmlib/dsp/dsp.h ****   const float x1 = table[index_integral + 1];
 215              		.loc 4 56 15 is_stmt 0 view .LVU66
 216 001e 00EB8300 		add	r0, r0, r3, lsl #2
 217              	.LVL11:
  56:../eurorack/stmlib/dsp/dsp.h ****   const float x1 = table[index_integral + 1];
 218              		.loc 4 56 15 view .LVU67
 219 0022 90ED010A 		vldr.32	s0, [r0, #4]
 220              	.LVL12:
  57:../eurorack/stmlib/dsp/dsp.h ****   const float x2 = table[index_integral + 2];
 221              		.loc 4 57 3 is_stmt 1 view .LVU68
  57:../eurorack/stmlib/dsp/dsp.h ****   const float x2 = table[index_integral + 2];
 222              		.loc 4 57 15 is_stmt 0 view .LVU69
 223 0026 90ED027A 		vldr.32	s14, [r0, #8]
 224              	.LVL13:
  58:../eurorack/stmlib/dsp/dsp.h ****   const float c = (x1 - xm1) * 0.5f;
 225              		.loc 4 58 3 is_stmt 1 view .LVU70
  59:../eurorack/stmlib/dsp/dsp.h ****   const float v = x0 - x1;
 226              		.loc 4 59 23 is_stmt 0 view .LVU71
 227 002a 90ED006A 		vldr.32	s12, [r0]
  58:../eurorack/stmlib/dsp/dsp.h ****   const float c = (x1 - xm1) * 0.5f;
 228              		.loc 4 58 15 view .LVU72
 229 002e 90ED035A 		vldr.32	s10, [r0, #12]
 230              	.LVL14:
  59:../eurorack/stmlib/dsp/dsp.h ****   const float v = x0 - x1;
 231              		.loc 4 59 3 is_stmt 1 view .LVU73
  59:../eurorack/stmlib/dsp/dsp.h ****   const float v = x0 - x1;
 232              		.loc 4 59 23 is_stmt 0 view .LVU74
 233 0032 37EE466A 		vsub.f32	s12, s14, s12
 234              	.LVL15:
  60:../eurorack/stmlib/dsp/dsp.h ****   const float w = c + v;
 235              		.loc 4 60 3 is_stmt 1 view .LVU75
  60:../eurorack/stmlib/dsp/dsp.h ****   const float w = c + v;
 236              		.loc 4 60 15 is_stmt 0 view .LVU76
 237 0036 30EE477A 		vsub.f32	s14, s0, s14
 238              	.LVL16:
 239              		.loc 4 61 3 is_stmt 1 view .LVU77
  62:../eurorack/stmlib/dsp/dsp.h ****   const float a = w + v + (x2 - x0) * 0.5f;
 240              		.loc 4 62 31 is_stmt 0 view .LVU78
ARM GAS  /var/folders/y7/g6pkzsp12sx54x3s3mvyn15r0000gn/T//ccLO9Aj4.s 			page 10


 241 003a 35EE405A 		vsub.f32	s10, s10, s0
 242              	.LVL17:
  61:../eurorack/stmlib/dsp/dsp.h ****   const float a = w + v + (x2 - x0) * 0.5f;
 243              		.loc 4 61 15 view .LVU79
 244 003e F0EE477A 		vmov.f32	s15, s14
 245              	.LVL18:
  61:../eurorack/stmlib/dsp/dsp.h ****   const float a = w + v + (x2 - x0) * 0.5f;
 246              		.loc 4 61 15 view .LVU80
 247 0042 E6EE257A 		vfma.f32	s15, s12, s11
 248              	.LVL19:
 249              		.loc 4 62 3 is_stmt 1 view .LVU81
 250              		.loc 4 62 21 is_stmt 0 view .LVU82
 251 0046 37EE277A 		vadd.f32	s14, s14, s15
 252              	.LVL20:
 253              		.loc 4 62 15 view .LVU83
 254 004a A5EE257A 		vfma.f32	s14, s10, s11
 255              	.LVL21:
  63:../eurorack/stmlib/dsp/dsp.h ****   const float b_neg = w + a;
 256              		.loc 4 63 3 is_stmt 1 view .LVU84
  64:../eurorack/stmlib/dsp/dsp.h ****   const float f = index_fractional;
 257              		.loc 4 64 3 view .LVU85
  65:../eurorack/stmlib/dsp/dsp.h ****   return (((a * f) - b_neg) * f + c) * f + x0;
 258              		.loc 4 65 3 view .LVU86
  63:../eurorack/stmlib/dsp/dsp.h ****   const float b_neg = w + a;
 259              		.loc 4 63 15 is_stmt 0 view .LVU87
 260 004e 77EE877A 		vadd.f32	s15, s15, s14
 261              	.LVL22:
 262              		.loc 4 65 20 view .LVU88
 263 0052 D6EE877A 		vfnms.f32	s15, s13, s14
 264              	.LVL23:
 265              		.loc 4 65 29 view .LVU89
 266 0056 67EEA67A 		vmul.f32	s15, s15, s13
 267              		.loc 4 65 33 view .LVU90
 268 005a E6EE257A 		vfma.f32	s15, s12, s11
  66:../eurorack/stmlib/dsp/dsp.h **** }
 269              		.loc 4 66 1 view .LVU91
 270 005e A7EEA60A 		vfma.f32	s0, s15, s13
 271              	.LVL24:
 272              		.loc 4 66 1 view .LVU92
 273 0062 7047     		bx	lr
 274              		.cfi_endproc
 275              	.LFE566:
 277              		.section	.text._ZN6stmlib24NextIntegratedBlepSampleEf,"axG",%progbits,_ZN6stmlib24NextIntegratedBl
 278              		.align	1
 279              		.weak	_ZN6stmlib24NextIntegratedBlepSampleEf
 280              		.syntax unified
 281              		.thumb
 282              		.thumb_func
 284              	_ZN6stmlib24NextIntegratedBlepSampleEf:
 285              	.LVL25:
 286              	.LFB623:
 287              		.file 5 "../eurorack/stmlib/dsp/polyblep.h"
   1:../eurorack/stmlib/dsp/polyblep.h **** // Copyright 2017 Emilie Gillet.
   2:../eurorack/stmlib/dsp/polyblep.h **** //
   3:../eurorack/stmlib/dsp/polyblep.h **** // Author: Emilie Gillet (emilie.o.gillet@gmail.com)
   4:../eurorack/stmlib/dsp/polyblep.h **** //
   5:../eurorack/stmlib/dsp/polyblep.h **** // Permission is hereby granted, free of charge, to any person obtaining a copy
ARM GAS  /var/folders/y7/g6pkzsp12sx54x3s3mvyn15r0000gn/T//ccLO9Aj4.s 			page 11


   6:../eurorack/stmlib/dsp/polyblep.h **** // of this software and associated documentation files (the "Software"), to deal
   7:../eurorack/stmlib/dsp/polyblep.h **** // in the Software without restriction, including without limitation the rights
   8:../eurorack/stmlib/dsp/polyblep.h **** // to use, copy, modify, merge, publish, distribute, sublicense, and/or sell
   9:../eurorack/stmlib/dsp/polyblep.h **** // copies of the Software, and to permit persons to whom the Software is
  10:../eurorack/stmlib/dsp/polyblep.h **** // furnished to do so, subject to the following conditions:
  11:../eurorack/stmlib/dsp/polyblep.h **** // 
  12:../eurorack/stmlib/dsp/polyblep.h **** // The above copyright notice and this permission notice shall be included in
  13:../eurorack/stmlib/dsp/polyblep.h **** // all copies or substantial portions of the Software.
  14:../eurorack/stmlib/dsp/polyblep.h **** // 
  15:../eurorack/stmlib/dsp/polyblep.h **** // THE SOFTWARE IS PROVIDED "AS IS", WITHOUT WARRANTY OF ANY KIND, EXPRESS OR
  16:../eurorack/stmlib/dsp/polyblep.h **** // IMPLIED, INCLUDING BUT NOT LIMITED TO THE WARRANTIES OF MERCHANTABILITY,
  17:../eurorack/stmlib/dsp/polyblep.h **** // FITNESS FOR A PARTICULAR PURPOSE AND NONINFRINGEMENT. IN NO EVENT SHALL THE
  18:../eurorack/stmlib/dsp/polyblep.h **** // AUTHORS OR COPYRIGHT HOLDERS BE LIABLE FOR ANY CLAIM, DAMAGES OR OTHER
  19:../eurorack/stmlib/dsp/polyblep.h **** // LIABILITY, WHETHER IN AN ACTION OF CONTRACT, TORT OR OTHERWISE, ARISING FROM,
  20:../eurorack/stmlib/dsp/polyblep.h **** // OUT OF OR IN CONNECTION WITH THE SOFTWARE OR THE USE OR OTHER DEALINGS IN
  21:../eurorack/stmlib/dsp/polyblep.h **** // THE SOFTWARE.
  22:../eurorack/stmlib/dsp/polyblep.h **** // 
  23:../eurorack/stmlib/dsp/polyblep.h **** // See http://creativecommons.org/licenses/MIT/ for more information.
  24:../eurorack/stmlib/dsp/polyblep.h **** //
  25:../eurorack/stmlib/dsp/polyblep.h **** // -----------------------------------------------------------------------------
  26:../eurorack/stmlib/dsp/polyblep.h **** //
  27:../eurorack/stmlib/dsp/polyblep.h **** // Polynomial approximation of band-limited step for band-limited waveform
  28:../eurorack/stmlib/dsp/polyblep.h **** // synthesis.
  29:../eurorack/stmlib/dsp/polyblep.h **** 
  30:../eurorack/stmlib/dsp/polyblep.h **** #ifndef STMLIB_DSP_POLYBLEP_H_
  31:../eurorack/stmlib/dsp/polyblep.h **** #define STMLIB_DSP_POLYBLEP_H_
  32:../eurorack/stmlib/dsp/polyblep.h **** 
  33:../eurorack/stmlib/dsp/polyblep.h **** #include "stmlib/stmlib.h"
  34:../eurorack/stmlib/dsp/polyblep.h **** 
  35:../eurorack/stmlib/dsp/polyblep.h **** namespace stmlib {
  36:../eurorack/stmlib/dsp/polyblep.h **** 
  37:../eurorack/stmlib/dsp/polyblep.h **** inline float ThisBlepSample(float t) {
  38:../eurorack/stmlib/dsp/polyblep.h ****   return 0.5f * t * t;
  39:../eurorack/stmlib/dsp/polyblep.h **** }
  40:../eurorack/stmlib/dsp/polyblep.h **** 
  41:../eurorack/stmlib/dsp/polyblep.h **** inline float NextBlepSample(float t) {
  42:../eurorack/stmlib/dsp/polyblep.h ****   t = 1.0f - t;
  43:../eurorack/stmlib/dsp/polyblep.h ****   return -0.5f * t * t;
  44:../eurorack/stmlib/dsp/polyblep.h **** }
  45:../eurorack/stmlib/dsp/polyblep.h **** 
  46:../eurorack/stmlib/dsp/polyblep.h **** inline float NextIntegratedBlepSample(float t) {
 288              		.loc 5 46 48 is_stmt 1 view -0
 289              		.cfi_startproc
 290              		@ args = 0, pretend = 0, frame = 0
 291              		@ frame_needed = 0, uses_anonymous_args = 0
 292              		@ link register save eliminated.
  47:../eurorack/stmlib/dsp/polyblep.h ****   const float t1 = 0.5f * t;
 293              		.loc 5 47 3 view .LVU94
 294              		.loc 5 47 15 is_stmt 0 view .LVU95
 295 0000 F6EE007A 		vmov.f32	s15, #5.0e-1
 296 0004 60EE277A 		vmul.f32	s15, s0, s15
 297              	.LVL26:
  48:../eurorack/stmlib/dsp/polyblep.h ****   const float t2 = t1 * t1;
 298              		.loc 5 48 3 is_stmt 1 view .LVU96
  49:../eurorack/stmlib/dsp/polyblep.h ****   const float t4 = t2 * t2;
  50:../eurorack/stmlib/dsp/polyblep.h ****   return 0.1875f - t1 + 1.5f * t2 - t4;
 299              		.loc 5 50 18 is_stmt 0 view .LVU97
ARM GAS  /var/folders/y7/g6pkzsp12sx54x3s3mvyn15r0000gn/T//ccLO9Aj4.s 			page 12


 300 0008 B4EE080A 		vmov.f32	s0, #1.875e-1
 301              	.LVL27:
  48:../eurorack/stmlib/dsp/polyblep.h ****   const float t2 = t1 * t1;
 302              		.loc 5 48 15 view .LVU98
 303 000c 27EEA77A 		vmul.f32	s14, s15, s15
 304              	.LVL28:
  49:../eurorack/stmlib/dsp/polyblep.h ****   const float t4 = t2 * t2;
 305              		.loc 5 49 3 is_stmt 1 view .LVU99
 306              		.loc 5 50 3 view .LVU100
 307              		.loc 5 50 18 is_stmt 0 view .LVU101
 308 0010 30EE670A 		vsub.f32	s0, s0, s15
 309              		.loc 5 50 23 view .LVU102
 310 0014 F7EE087A 		vmov.f32	s15, #1.5e+0
 311              	.LVL29:
 312              		.loc 5 50 23 view .LVU103
 313 0018 A7EE270A 		vfma.f32	s0, s14, s15
  51:../eurorack/stmlib/dsp/polyblep.h **** }
 314              		.loc 5 51 1 view .LVU104
 315 001c A7EE470A 		vfms.f32	s0, s14, s14
 316 0020 7047     		bx	lr
 317              		.cfi_endproc
 318              	.LFE623:
 320              		.section	.text._ZN6plaits10Oscillator6RenderILNS_15OscillatorShapeE3ELb0ELb0EEEvffPKfPfj.isra.0,"a
 321              		.align	1
 322              		.syntax unified
 323              		.thumb
 324              		.thumb_func
 326              	_ZN6plaits10Oscillator6RenderILNS_15OscillatorShapeE3ELb0ELb0EEEvffPKfPfj.isra.0:
 327              	.LVL30:
 328              	.LFB1339:
  67:../eurorack/plaits/dsp/oscillator/oscillator.h ****   }
  68:../eurorack/plaits/dsp/oscillator/oscillator.h **** 
  69:../eurorack/plaits/dsp/oscillator/oscillator.h ****   template<OscillatorShape shape>
  70:../eurorack/plaits/dsp/oscillator/oscillator.h ****   void Render(float frequency, float pw, float* out, size_t size) {
  71:../eurorack/plaits/dsp/oscillator/oscillator.h ****     Render<shape, false, false>(frequency, pw, NULL, out, size);
  72:../eurorack/plaits/dsp/oscillator/oscillator.h ****   }
  73:../eurorack/plaits/dsp/oscillator/oscillator.h ****   
  74:../eurorack/plaits/dsp/oscillator/oscillator.h ****   template<OscillatorShape shape>
  75:../eurorack/plaits/dsp/oscillator/oscillator.h ****   void Render(
  76:../eurorack/plaits/dsp/oscillator/oscillator.h ****       float frequency,
  77:../eurorack/plaits/dsp/oscillator/oscillator.h ****       float pw,
  78:../eurorack/plaits/dsp/oscillator/oscillator.h ****       const float* fm,
  79:../eurorack/plaits/dsp/oscillator/oscillator.h ****       float* out,
  80:../eurorack/plaits/dsp/oscillator/oscillator.h ****       size_t size) {
  81:../eurorack/plaits/dsp/oscillator/oscillator.h ****     if (!fm) {
  82:../eurorack/plaits/dsp/oscillator/oscillator.h ****       Render<shape, false, false>(frequency, pw, NULL, out, size);
  83:../eurorack/plaits/dsp/oscillator/oscillator.h ****     } else {
  84:../eurorack/plaits/dsp/oscillator/oscillator.h ****       Render<shape, true, true>(frequency, pw, fm, out, size);
  85:../eurorack/plaits/dsp/oscillator/oscillator.h ****     }
  86:../eurorack/plaits/dsp/oscillator/oscillator.h ****   }
  87:../eurorack/plaits/dsp/oscillator/oscillator.h **** 
  88:../eurorack/plaits/dsp/oscillator/oscillator.h ****   template<OscillatorShape shape, bool has_external_fm, bool through_zero_fm>
  89:../eurorack/plaits/dsp/oscillator/oscillator.h ****   void Render(
 329              		.loc 3 89 8 is_stmt 1 view -0
 330              		.cfi_startproc
 331              		@ args = 0, pretend = 0, frame = 0
 332              		@ frame_needed = 0, uses_anonymous_args = 0
ARM GAS  /var/folders/y7/g6pkzsp12sx54x3s3mvyn15r0000gn/T//ccLO9Aj4.s 			page 13


 333              		.loc 3 89 8 is_stmt 0 view .LVU106
 334 0000 B0EE407A 		vmov.f32	s14, s0
  90:../eurorack/plaits/dsp/oscillator/oscillator.h ****       float frequency,
  91:../eurorack/plaits/dsp/oscillator/oscillator.h ****       float pw,
  92:../eurorack/plaits/dsp/oscillator/oscillator.h ****       const float* external_fm,
  93:../eurorack/plaits/dsp/oscillator/oscillator.h ****       float* out,
  94:../eurorack/plaits/dsp/oscillator/oscillator.h ****       size_t size) {
  95:../eurorack/plaits/dsp/oscillator/oscillator.h ****     
  96:../eurorack/plaits/dsp/oscillator/oscillator.h ****     if (!has_external_fm) {
  97:../eurorack/plaits/dsp/oscillator/oscillator.h ****       if (!through_zero_fm) {
  98:../eurorack/plaits/dsp/oscillator/oscillator.h ****         CONSTRAIN(frequency, kMinFrequency, kMaxFrequency);
 335              		.loc 3 98 9 view .LVU107
 336 0004 9FED550A 		vldr.32	s0, .L23
 337              	.LVL31:
  89:../eurorack/plaits/dsp/oscillator/oscillator.h ****       float frequency,
 338              		.loc 3 89 8 view .LVU108
 339 0008 F8B5     		push	{r3, r4, r5, r6, r7, lr}
 340              		.cfi_def_cfa_offset 24
 341              		.cfi_offset 3, -24
 342              		.cfi_offset 4, -20
 343              		.cfi_offset 5, -16
 344              		.cfi_offset 6, -12
 345              		.cfi_offset 7, -8
 346              		.cfi_offset 14, -4
 347              		.loc 3 98 9 view .LVU109
 348 000a B4EEC07A 		vcmpe.f32	s14, s0
  89:../eurorack/plaits/dsp/oscillator/oscillator.h ****       float frequency,
 349              		.loc 3 89 8 view .LVU110
 350 000e 0446     		mov	r4, r0
 351 0010 0E46     		mov	r6, r1
 352 0012 1546     		mov	r5, r2
 353              		.loc 3 98 9 view .LVU111
 354 0014 F1EE10FA 		vmrs	APSR_nzcv, FPSCR
  89:../eurorack/plaits/dsp/oscillator/oscillator.h ****       float frequency,
 355              		.loc 3 89 8 view .LVU112
 356 0018 2DED0E8B 		vpush.64	{d8, d9, d10, d11, d12, d13, d14}
 357              		.cfi_def_cfa_offset 80
 358              		.cfi_offset 80, -80
 359              		.cfi_offset 81, -76
 360              		.cfi_offset 82, -72
 361              		.cfi_offset 83, -68
 362              		.cfi_offset 84, -64
 363              		.cfi_offset 85, -60
 364              		.cfi_offset 86, -56
 365              		.cfi_offset 87, -52
 366              		.cfi_offset 88, -48
 367              		.cfi_offset 89, -44
 368              		.cfi_offset 90, -40
 369              		.cfi_offset 91, -36
 370              		.cfi_offset 92, -32
 371              		.cfi_offset 93, -28
 372              		.loc 3 98 9 view .LVU113
 373 001c 07D4     		bmi	.L9
 374 001e F5EE007A 		vmov.f32	s15, #2.5e-1
 375 0022 B4EEE77A 		vcmpe.f32	s14, s15
 376 0026 F1EE10FA 		vmrs	APSR_nzcv, FPSCR
 377 002a 37FE870A 		vselgt.f32	s0, s15, s14
ARM GAS  /var/folders/y7/g6pkzsp12sx54x3s3mvyn15r0000gn/T//ccLO9Aj4.s 			page 14


 378              	.L9:
 379              	.LVL32:
  99:../eurorack/plaits/dsp/oscillator/oscillator.h ****       } else {
 100:../eurorack/plaits/dsp/oscillator/oscillator.h ****         CONSTRAIN(frequency, -kMaxFrequency, kMaxFrequency);
 101:../eurorack/plaits/dsp/oscillator/oscillator.h ****       }
 102:../eurorack/plaits/dsp/oscillator/oscillator.h ****       CONSTRAIN(pw, fabsf(frequency) * 2.0f, 1.0f - 2.0f * fabsf(frequency))
 380              		.loc 3 102 7 view .LVU114
 381 002e F0EEC07A 		vabs.f32	s15, s0
 382 0032 77EEA77A 		vadd.f32	s15, s15, s15
 383 0036 F4EEE07A 		vcmpe.f32	s15, s1
 384 003a F1EE10FA 		vmrs	APSR_nzcv, FPSCR
 385 003e 09DC     		bgt	.L10
 386              		.loc 3 102 7 discriminator 2 view .LVU115
 387 0040 B7EE007A 		vmov.f32	s14, #1.0e+0
 388 0044 77EE677A 		vsub.f32	s15, s14, s15
 389 0048 F4EEE70A 		vcmpe.f32	s1, s15
 390 004c F1EE10FA 		vmrs	APSR_nzcv, FPSCR
 391 0050 77FEA07A 		vselgt.f32	s15, s15, s1
 392              	.L10:
 393              	.LVL33:
 394              	.LBB115:
 395              	.LBI115:
 396              		.file 6 "../eurorack/stmlib/dsp/parameter_interpolator.h"
   1:../eurorack/stmlib/dsp/parameter_interpolator.h **** // Copyright 2015 Emilie Gillet.
   2:../eurorack/stmlib/dsp/parameter_interpolator.h **** //
   3:../eurorack/stmlib/dsp/parameter_interpolator.h **** // Author: Emilie Gillet (emilie.o.gillet@gmail.com)
   4:../eurorack/stmlib/dsp/parameter_interpolator.h **** //
   5:../eurorack/stmlib/dsp/parameter_interpolator.h **** // Permission is hereby granted, free of charge, to any person obtaining a copy
   6:../eurorack/stmlib/dsp/parameter_interpolator.h **** // of this software and associated documentation files (the "Software"), to deal
   7:../eurorack/stmlib/dsp/parameter_interpolator.h **** // in the Software without restriction, including without limitation the rights
   8:../eurorack/stmlib/dsp/parameter_interpolator.h **** // to use, copy, modify, merge, publish, distribute, sublicense, and/or sell
   9:../eurorack/stmlib/dsp/parameter_interpolator.h **** // copies of the Software, and to permit persons to whom the Software is
  10:../eurorack/stmlib/dsp/parameter_interpolator.h **** // furnished to do so, subject to the following conditions:
  11:../eurorack/stmlib/dsp/parameter_interpolator.h **** // 
  12:../eurorack/stmlib/dsp/parameter_interpolator.h **** // The above copyright notice and this permission notice shall be included in
  13:../eurorack/stmlib/dsp/parameter_interpolator.h **** // all copies or substantial portions of the Software.
  14:../eurorack/stmlib/dsp/parameter_interpolator.h **** // 
  15:../eurorack/stmlib/dsp/parameter_interpolator.h **** // THE SOFTWARE IS PROVIDED "AS IS", WITHOUT WARRANTY OF ANY KIND, EXPRESS OR
  16:../eurorack/stmlib/dsp/parameter_interpolator.h **** // IMPLIED, INCLUDING BUT NOT LIMITED TO THE WARRANTIES OF MERCHANTABILITY,
  17:../eurorack/stmlib/dsp/parameter_interpolator.h **** // FITNESS FOR A PARTICULAR PURPOSE AND NONINFRINGEMENT. IN NO EVENT SHALL THE
  18:../eurorack/stmlib/dsp/parameter_interpolator.h **** // AUTHORS OR COPYRIGHT HOLDERS BE LIABLE FOR ANY CLAIM, DAMAGES OR OTHER
  19:../eurorack/stmlib/dsp/parameter_interpolator.h **** // LIABILITY, WHETHER IN AN ACTION OF CONTRACT, TORT OR OTHERWISE, ARISING FROM,
  20:../eurorack/stmlib/dsp/parameter_interpolator.h **** // OUT OF OR IN CONNECTION WITH THE SOFTWARE OR THE USE OR OTHER DEALINGS IN
  21:../eurorack/stmlib/dsp/parameter_interpolator.h **** // THE SOFTWARE.
  22:../eurorack/stmlib/dsp/parameter_interpolator.h **** // 
  23:../eurorack/stmlib/dsp/parameter_interpolator.h **** // See http://creativecommons.org/licenses/MIT/ for more information.
  24:../eurorack/stmlib/dsp/parameter_interpolator.h **** //
  25:../eurorack/stmlib/dsp/parameter_interpolator.h **** // -----------------------------------------------------------------------------
  26:../eurorack/stmlib/dsp/parameter_interpolator.h **** //
  27:../eurorack/stmlib/dsp/parameter_interpolator.h **** // Linear interpolation of parameters in rendering loops.
  28:../eurorack/stmlib/dsp/parameter_interpolator.h **** 
  29:../eurorack/stmlib/dsp/parameter_interpolator.h **** #ifndef STMLIB_DSP_PARAMETER_INTERPOLATOR_H_
  30:../eurorack/stmlib/dsp/parameter_interpolator.h **** #define STMLIB_DSP_PARAMETER_INTERPOLATOR_H_
  31:../eurorack/stmlib/dsp/parameter_interpolator.h **** 
  32:../eurorack/stmlib/dsp/parameter_interpolator.h **** #include "stmlib/stmlib.h"
  33:../eurorack/stmlib/dsp/parameter_interpolator.h **** 
  34:../eurorack/stmlib/dsp/parameter_interpolator.h **** namespace stmlib {
ARM GAS  /var/folders/y7/g6pkzsp12sx54x3s3mvyn15r0000gn/T//ccLO9Aj4.s 			page 15


  35:../eurorack/stmlib/dsp/parameter_interpolator.h **** 
  36:../eurorack/stmlib/dsp/parameter_interpolator.h **** class ParameterInterpolator {
  37:../eurorack/stmlib/dsp/parameter_interpolator.h ****  public:
  38:../eurorack/stmlib/dsp/parameter_interpolator.h ****   ParameterInterpolator() { }
  39:../eurorack/stmlib/dsp/parameter_interpolator.h ****   ParameterInterpolator(float* state, float new_value, size_t size) {
 397              		.loc 6 39 3 is_stmt 1 view .LVU116
 398              	.LBB116:
 399              	.LBI116:
  40:../eurorack/stmlib/dsp/parameter_interpolator.h ****     Init(state, new_value, size);
  41:../eurorack/stmlib/dsp/parameter_interpolator.h ****   }
  42:../eurorack/stmlib/dsp/parameter_interpolator.h **** 
  43:../eurorack/stmlib/dsp/parameter_interpolator.h ****   ParameterInterpolator(float* state, float new_value, float step) {
  44:../eurorack/stmlib/dsp/parameter_interpolator.h ****     state_ = state;
  45:../eurorack/stmlib/dsp/parameter_interpolator.h ****     value_ = *state;
  46:../eurorack/stmlib/dsp/parameter_interpolator.h ****     increment_ = (new_value - *state) * step;
  47:../eurorack/stmlib/dsp/parameter_interpolator.h ****   }
  48:../eurorack/stmlib/dsp/parameter_interpolator.h **** 
  49:../eurorack/stmlib/dsp/parameter_interpolator.h ****   ~ParameterInterpolator() {
  50:../eurorack/stmlib/dsp/parameter_interpolator.h ****     *state_ = value_;
  51:../eurorack/stmlib/dsp/parameter_interpolator.h ****   }
  52:../eurorack/stmlib/dsp/parameter_interpolator.h ****   
  53:../eurorack/stmlib/dsp/parameter_interpolator.h ****   inline void Init(float* state, float new_value, size_t size) {
 400              		.loc 6 53 15 view .LVU117
 401              	.LBB117:
  54:../eurorack/stmlib/dsp/parameter_interpolator.h ****     state_ = state;
 402              		.loc 6 54 5 view .LVU118
  55:../eurorack/stmlib/dsp/parameter_interpolator.h ****     value_ = *state;
 403              		.loc 6 55 5 view .LVU119
 404              		.loc 6 55 14 is_stmt 0 view .LVU120
 405 0054 94ED059A 		vldr.32	s18, [r4, #20]
 406              	.LVL34:
  56:../eurorack/stmlib/dsp/parameter_interpolator.h ****     increment_ = (new_value - *state) / static_cast<float>(size);
 407              		.loc 6 56 5 is_stmt 1 view .LVU121
 408              		.loc 6 56 39 is_stmt 0 view .LVU122
 409 0058 07EE105A 		vmov	s14, r5	@ int
 410              	.LBE117:
 411              	.LBE116:
 412              	.LBE115:
 413              	.LBB124:
 414              	.LBB125:
 415              	.LBB126:
  55:../eurorack/stmlib/dsp/parameter_interpolator.h ****     value_ = *state;
 416              		.loc 6 55 14 view .LVU123
 417 005c D4ED069A 		vldr.32	s19, [r4, #24]
 418              	.LBE126:
 419              	.LBE125:
 420              	.LBE124:
 421              	.LBB131:
 422              	.LBB121:
 423              	.LBB118:
 424              		.loc 6 56 39 view .LVU124
 425 0060 B8EE477A 		vcvt.f32.u32	s14, s14
 426              	.LBE118:
 427              	.LBE121:
 428              	.LBE131:
 103:../eurorack/plaits/dsp/oscillator/oscillator.h ****     }
 104:../eurorack/plaits/dsp/oscillator/oscillator.h ****     
ARM GAS  /var/folders/y7/g6pkzsp12sx54x3s3mvyn15r0000gn/T//ccLO9Aj4.s 			page 16


 105:../eurorack/plaits/dsp/oscillator/oscillator.h ****     stmlib::ParameterInterpolator fm(&frequency_, frequency, size);
 106:../eurorack/plaits/dsp/oscillator/oscillator.h ****     stmlib::ParameterInterpolator pwm(&pw_, pw, size);
 107:../eurorack/plaits/dsp/oscillator/oscillator.h ****   
 108:../eurorack/plaits/dsp/oscillator/oscillator.h ****     float next_sample = next_sample_;
 429              		.loc 3 108 11 view .LVU125
 430 0064 D4ED01AA 		vldr.32	s21, [r4, #4]
 431              	.LBB132:
 432              	.LBB122:
 433              	.LBB119:
 434              		.loc 6 56 29 view .LVU126
 435 0068 30EE490A 		vsub.f32	s0, s0, s18
 436              	.LVL35:
 437              		.loc 6 56 29 view .LVU127
 438              	.LBE119:
 439              	.LBE122:
 440              	.LBE132:
 441              	.LBB133:
 442              	.LBB129:
 443              	.LBB127:
 444 006c 77EEE97A 		vsub.f32	s15, s15, s19
 445              	.LVL36:
 446              		.loc 6 56 29 view .LVU128
 447              	.LBE127:
 448              	.LBE129:
 449              	.LBE133:
 450              	.LBB134:
 451              	.LBB123:
 452              	.LBB120:
 453              		.loc 6 56 39 view .LVU129
 454 0070 C0EE07BA 		vdiv.f32	s23, s0, s14
 455              	.LVL37:
 456              		.loc 6 56 39 view .LVU130
 457              	.LBE120:
 458              	.LBE123:
 459              	.LBE134:
 460              	.LBB135:
 461              	.LBI124:
  39:../eurorack/stmlib/dsp/parameter_interpolator.h ****     Init(state, new_value, size);
 462              		.loc 6 39 3 is_stmt 1 view .LVU131
 463              	.LBB130:
 464              	.LBI125:
  53:../eurorack/stmlib/dsp/parameter_interpolator.h ****     state_ = state;
 465              		.loc 6 53 15 view .LVU132
 466              	.LBB128:
  54:../eurorack/stmlib/dsp/parameter_interpolator.h ****     value_ = *state;
 467              		.loc 6 54 5 view .LVU133
  55:../eurorack/stmlib/dsp/parameter_interpolator.h ****     increment_ = (new_value - *state) / static_cast<float>(size);
 468              		.loc 6 55 5 view .LVU134
 469              		.loc 6 56 5 view .LVU135
 470              		.loc 6 56 39 is_stmt 0 view .LVU136
 471 0074 87EE87CA 		vdiv.f32	s24, s15, s14
 472              	.LVL38:
 473              	.L11:
 474              		.loc 6 56 39 view .LVU137
 475              	.LBE128:
 476              	.LBE130:
 477              	.LBE135:
ARM GAS  /var/folders/y7/g6pkzsp12sx54x3s3mvyn15r0000gn/T//ccLO9Aj4.s 			page 17


 109:../eurorack/plaits/dsp/oscillator/oscillator.h ****   
 110:../eurorack/plaits/dsp/oscillator/oscillator.h ****     while (size--) {
 478              		.loc 3 110 5 is_stmt 1 view .LVU138
 479 0078 013D     		subs	r5, r5, #1
 480              	.LVL39:
 481              		.loc 3 110 5 is_stmt 0 view .LVU139
 482 007a 08D2     		bcs	.L18
 111:../eurorack/plaits/dsp/oscillator/oscillator.h ****       float this_sample = next_sample;
 112:../eurorack/plaits/dsp/oscillator/oscillator.h ****       next_sample = 0.0f;
 113:../eurorack/plaits/dsp/oscillator/oscillator.h **** 
 114:../eurorack/plaits/dsp/oscillator/oscillator.h ****       float frequency = fm.Next();
 115:../eurorack/plaits/dsp/oscillator/oscillator.h ****       if (has_external_fm) {
 116:../eurorack/plaits/dsp/oscillator/oscillator.h ****         frequency *= (1.0f + *external_fm++);
 117:../eurorack/plaits/dsp/oscillator/oscillator.h ****         if (!through_zero_fm) {
 118:../eurorack/plaits/dsp/oscillator/oscillator.h ****           CONSTRAIN(frequency, kMinFrequency, kMaxFrequency);
 119:../eurorack/plaits/dsp/oscillator/oscillator.h ****         } else {
 120:../eurorack/plaits/dsp/oscillator/oscillator.h ****           CONSTRAIN(frequency, -kMaxFrequency, kMaxFrequency);
 121:../eurorack/plaits/dsp/oscillator/oscillator.h ****         }
 122:../eurorack/plaits/dsp/oscillator/oscillator.h ****       }
 123:../eurorack/plaits/dsp/oscillator/oscillator.h ****       float pw = (shape == OSCILLATOR_SHAPE_SQUARE_TRIANGLE ||
 124:../eurorack/plaits/dsp/oscillator/oscillator.h ****                   shape == OSCILLATOR_SHAPE_TRIANGLE) ? 0.5f : pwm.Next();
 125:../eurorack/plaits/dsp/oscillator/oscillator.h ****       if (has_external_fm) {
 126:../eurorack/plaits/dsp/oscillator/oscillator.h ****         CONSTRAIN(pw, fabsf(frequency) * 2.0f, 1.0f - 2.0f * fabsf(frequency))
 127:../eurorack/plaits/dsp/oscillator/oscillator.h ****       }
 128:../eurorack/plaits/dsp/oscillator/oscillator.h ****       phase_ += frequency;
 129:../eurorack/plaits/dsp/oscillator/oscillator.h ****       
 130:../eurorack/plaits/dsp/oscillator/oscillator.h ****       if (shape <= OSCILLATOR_SHAPE_SAW) {
 131:../eurorack/plaits/dsp/oscillator/oscillator.h ****         if (phase_ >= 1.0f) {
 132:../eurorack/plaits/dsp/oscillator/oscillator.h ****           phase_ -= 1.0f;
 133:../eurorack/plaits/dsp/oscillator/oscillator.h ****           float t = phase_ / frequency;
 134:../eurorack/plaits/dsp/oscillator/oscillator.h ****           this_sample -= stmlib::ThisBlepSample(t);
 135:../eurorack/plaits/dsp/oscillator/oscillator.h ****           next_sample -= stmlib::NextBlepSample(t);
 136:../eurorack/plaits/dsp/oscillator/oscillator.h ****         } else if (through_zero_fm && phase_ < 0.0f) {
 137:../eurorack/plaits/dsp/oscillator/oscillator.h ****           float t = phase_ / frequency;
 138:../eurorack/plaits/dsp/oscillator/oscillator.h ****           phase_ += 1.0f;
 139:../eurorack/plaits/dsp/oscillator/oscillator.h ****           this_sample += stmlib::ThisBlepSample(t);
 140:../eurorack/plaits/dsp/oscillator/oscillator.h ****           next_sample += stmlib::NextBlepSample(t);
 141:../eurorack/plaits/dsp/oscillator/oscillator.h ****         }
 142:../eurorack/plaits/dsp/oscillator/oscillator.h ****         next_sample += phase_;
 143:../eurorack/plaits/dsp/oscillator/oscillator.h **** 
 144:../eurorack/plaits/dsp/oscillator/oscillator.h ****         if (shape == OSCILLATOR_SHAPE_SAW) {
 145:../eurorack/plaits/dsp/oscillator/oscillator.h ****           *out++ = 2.0f * this_sample - 1.0f;
 146:../eurorack/plaits/dsp/oscillator/oscillator.h ****         } else {
 147:../eurorack/plaits/dsp/oscillator/oscillator.h ****           lp_state_ += 0.25f * ((hp_state_ - this_sample) - lp_state_);
 148:../eurorack/plaits/dsp/oscillator/oscillator.h ****           *out++ = 4.0f * lp_state_;
 149:../eurorack/plaits/dsp/oscillator/oscillator.h ****           hp_state_ = this_sample;
 150:../eurorack/plaits/dsp/oscillator/oscillator.h ****         }
 151:../eurorack/plaits/dsp/oscillator/oscillator.h ****       } else if (shape <= OSCILLATOR_SHAPE_SLOPE) {
 152:../eurorack/plaits/dsp/oscillator/oscillator.h ****         float slope_up = 2.0f;
 153:../eurorack/plaits/dsp/oscillator/oscillator.h ****         float slope_down = 2.0f;
 154:../eurorack/plaits/dsp/oscillator/oscillator.h ****         if (shape == OSCILLATOR_SHAPE_SLOPE) {
 155:../eurorack/plaits/dsp/oscillator/oscillator.h ****           slope_up = 1.0f / (pw);
 156:../eurorack/plaits/dsp/oscillator/oscillator.h ****           slope_down = 1.0f / (1.0f - pw);
 157:../eurorack/plaits/dsp/oscillator/oscillator.h ****         }
 158:../eurorack/plaits/dsp/oscillator/oscillator.h ****         if (high_ ^ (phase_ < pw)) {
 159:../eurorack/plaits/dsp/oscillator/oscillator.h ****           float t = (phase_ - pw) / frequency;
 160:../eurorack/plaits/dsp/oscillator/oscillator.h ****           float discontinuity = (slope_up + slope_down) * frequency;
ARM GAS  /var/folders/y7/g6pkzsp12sx54x3s3mvyn15r0000gn/T//ccLO9Aj4.s 			page 18


 161:../eurorack/plaits/dsp/oscillator/oscillator.h ****           if (through_zero_fm && frequency < 0.0f) {
 162:../eurorack/plaits/dsp/oscillator/oscillator.h ****             discontinuity = -discontinuity;
 163:../eurorack/plaits/dsp/oscillator/oscillator.h ****           }
 164:../eurorack/plaits/dsp/oscillator/oscillator.h ****           this_sample -= stmlib::ThisIntegratedBlepSample(t) * discontinuity;
 165:../eurorack/plaits/dsp/oscillator/oscillator.h ****           next_sample -= stmlib::NextIntegratedBlepSample(t) * discontinuity;
 166:../eurorack/plaits/dsp/oscillator/oscillator.h ****           high_ = phase_ < pw;
 167:../eurorack/plaits/dsp/oscillator/oscillator.h ****         }
 168:../eurorack/plaits/dsp/oscillator/oscillator.h ****         if (phase_ >= 1.0f) {
 169:../eurorack/plaits/dsp/oscillator/oscillator.h ****           phase_ -= 1.0f;
 170:../eurorack/plaits/dsp/oscillator/oscillator.h ****           float t = phase_ / frequency;
 171:../eurorack/plaits/dsp/oscillator/oscillator.h ****           float discontinuity = (slope_up + slope_down) * frequency;
 172:../eurorack/plaits/dsp/oscillator/oscillator.h ****           this_sample += stmlib::ThisIntegratedBlepSample(t) * discontinuity;
 173:../eurorack/plaits/dsp/oscillator/oscillator.h ****           next_sample += stmlib::NextIntegratedBlepSample(t) * discontinuity;
 174:../eurorack/plaits/dsp/oscillator/oscillator.h ****           high_ = true;
 175:../eurorack/plaits/dsp/oscillator/oscillator.h ****         } else if (through_zero_fm && phase_ < 0.0f) {
 176:../eurorack/plaits/dsp/oscillator/oscillator.h ****           float t = phase_ / frequency;
 177:../eurorack/plaits/dsp/oscillator/oscillator.h ****           phase_ += 1.0f;
 178:../eurorack/plaits/dsp/oscillator/oscillator.h ****           float discontinuity = (slope_up + slope_down) * frequency;
 179:../eurorack/plaits/dsp/oscillator/oscillator.h ****           this_sample -= stmlib::ThisIntegratedBlepSample(t) * discontinuity;
 180:../eurorack/plaits/dsp/oscillator/oscillator.h ****           next_sample -= stmlib::NextIntegratedBlepSample(t) * discontinuity;
 181:../eurorack/plaits/dsp/oscillator/oscillator.h ****           high_ = false;
 182:../eurorack/plaits/dsp/oscillator/oscillator.h ****         }
 183:../eurorack/plaits/dsp/oscillator/oscillator.h ****         next_sample += high_
 184:../eurorack/plaits/dsp/oscillator/oscillator.h ****           ? phase_ * slope_up
 185:../eurorack/plaits/dsp/oscillator/oscillator.h ****           : 1.0f - (phase_ - pw) * slope_down;
 186:../eurorack/plaits/dsp/oscillator/oscillator.h ****         *out++ = 2.0f * this_sample - 1.0f;
 187:../eurorack/plaits/dsp/oscillator/oscillator.h ****       } else {
 188:../eurorack/plaits/dsp/oscillator/oscillator.h ****         if (high_ ^ (phase_ >= pw)) {
 189:../eurorack/plaits/dsp/oscillator/oscillator.h ****           float t = (phase_ - pw) / frequency;
 190:../eurorack/plaits/dsp/oscillator/oscillator.h ****           float discontinuity = 1.0f;
 191:../eurorack/plaits/dsp/oscillator/oscillator.h ****           if (through_zero_fm && frequency < 0.0f) {
 192:../eurorack/plaits/dsp/oscillator/oscillator.h ****             discontinuity = -discontinuity;
 193:../eurorack/plaits/dsp/oscillator/oscillator.h ****           }
 194:../eurorack/plaits/dsp/oscillator/oscillator.h ****           this_sample += stmlib::ThisBlepSample(t) * discontinuity;
 195:../eurorack/plaits/dsp/oscillator/oscillator.h ****           next_sample += stmlib::NextBlepSample(t) * discontinuity;
 196:../eurorack/plaits/dsp/oscillator/oscillator.h ****           high_ = phase_ >= pw;
 197:../eurorack/plaits/dsp/oscillator/oscillator.h ****         }
 198:../eurorack/plaits/dsp/oscillator/oscillator.h ****         if (phase_ >= 1.0f) {
 199:../eurorack/plaits/dsp/oscillator/oscillator.h ****           phase_ -= 1.0f;
 200:../eurorack/plaits/dsp/oscillator/oscillator.h ****           float t = phase_ / frequency;
 201:../eurorack/plaits/dsp/oscillator/oscillator.h ****           this_sample -= stmlib::ThisBlepSample(t);
 202:../eurorack/plaits/dsp/oscillator/oscillator.h ****           next_sample -= stmlib::NextBlepSample(t);
 203:../eurorack/plaits/dsp/oscillator/oscillator.h ****           high_ = false;
 204:../eurorack/plaits/dsp/oscillator/oscillator.h ****         } else if (through_zero_fm && phase_ < 0.0f) {
 205:../eurorack/plaits/dsp/oscillator/oscillator.h ****           float t = phase_ / frequency;
 206:../eurorack/plaits/dsp/oscillator/oscillator.h ****           phase_ += 1.0f;
 207:../eurorack/plaits/dsp/oscillator/oscillator.h ****           this_sample += stmlib::ThisBlepSample(t);
 208:../eurorack/plaits/dsp/oscillator/oscillator.h ****           next_sample += stmlib::NextBlepSample(t);
 209:../eurorack/plaits/dsp/oscillator/oscillator.h ****           high_ = true;
 210:../eurorack/plaits/dsp/oscillator/oscillator.h ****         }
 211:../eurorack/plaits/dsp/oscillator/oscillator.h ****         next_sample += phase_ < pw ? 0.0f : 1.0f;
 212:../eurorack/plaits/dsp/oscillator/oscillator.h ****         
 213:../eurorack/plaits/dsp/oscillator/oscillator.h ****         if (shape == OSCILLATOR_SHAPE_SQUARE_TRIANGLE) {
 214:../eurorack/plaits/dsp/oscillator/oscillator.h ****           const float integrator_coefficient = frequency * 0.0625f;
 215:../eurorack/plaits/dsp/oscillator/oscillator.h ****           this_sample = 128.0f * (this_sample - 0.5f);
 216:../eurorack/plaits/dsp/oscillator/oscillator.h ****           lp_state_ += integrator_coefficient * (this_sample - lp_state_);
 217:../eurorack/plaits/dsp/oscillator/oscillator.h ****           *out++ = lp_state_;
ARM GAS  /var/folders/y7/g6pkzsp12sx54x3s3mvyn15r0000gn/T//ccLO9Aj4.s 			page 19


 218:../eurorack/plaits/dsp/oscillator/oscillator.h ****         } else if (shape == OSCILLATOR_SHAPE_SQUARE_DARK) {
 219:../eurorack/plaits/dsp/oscillator/oscillator.h ****           const float integrator_coefficient = frequency * 2.0f;
 220:../eurorack/plaits/dsp/oscillator/oscillator.h ****           this_sample = 4.0f * (this_sample - 0.5f);
 221:../eurorack/plaits/dsp/oscillator/oscillator.h ****           lp_state_ += integrator_coefficient * (this_sample - lp_state_);
 222:../eurorack/plaits/dsp/oscillator/oscillator.h ****           *out++ = lp_state_;
 223:../eurorack/plaits/dsp/oscillator/oscillator.h ****         } else if (shape == OSCILLATOR_SHAPE_SQUARE_BRIGHT) {
 224:../eurorack/plaits/dsp/oscillator/oscillator.h ****           const float integrator_coefficient = frequency * 2.0f;
 225:../eurorack/plaits/dsp/oscillator/oscillator.h ****           this_sample = 2.0f * this_sample - 1.0f;
 226:../eurorack/plaits/dsp/oscillator/oscillator.h ****           lp_state_ += integrator_coefficient * (this_sample - lp_state_);
 227:../eurorack/plaits/dsp/oscillator/oscillator.h ****           *out++ = (this_sample - lp_state_) * 0.5f;
 228:../eurorack/plaits/dsp/oscillator/oscillator.h ****         } else {
 229:../eurorack/plaits/dsp/oscillator/oscillator.h ****           this_sample = 2.0f * this_sample - 1.0f;
 230:../eurorack/plaits/dsp/oscillator/oscillator.h ****           *out++ = this_sample;
 231:../eurorack/plaits/dsp/oscillator/oscillator.h ****         }
 232:../eurorack/plaits/dsp/oscillator/oscillator.h ****       }
 233:../eurorack/plaits/dsp/oscillator/oscillator.h ****     }
 234:../eurorack/plaits/dsp/oscillator/oscillator.h ****     next_sample_ = next_sample;
 483              		.loc 3 234 18 view .LVU140
 484 007c C4ED01AA 		vstr.32	s21, [r4, #4]
 485              	.LVL40:
 486              	.LBB136:
 487              	.LBI136:
  49:../eurorack/stmlib/dsp/parameter_interpolator.h ****     *state_ = value_;
 488              		.loc 6 49 3 is_stmt 1 view .LVU141
 489              	.LBB137:
  50:../eurorack/stmlib/dsp/parameter_interpolator.h ****   }
 490              		.loc 6 50 5 view .LVU142
  50:../eurorack/stmlib/dsp/parameter_interpolator.h ****   }
 491              		.loc 6 50 13 is_stmt 0 view .LVU143
 492 0080 C4ED069A 		vstr.32	s19, [r4, #24]
 493              	.LVL41:
  50:../eurorack/stmlib/dsp/parameter_interpolator.h ****   }
 494              		.loc 6 50 13 view .LVU144
 495              	.LBE137:
 496              	.LBE136:
 497              	.LBB138:
 498              	.LBI138:
  49:../eurorack/stmlib/dsp/parameter_interpolator.h ****     *state_ = value_;
 499              		.loc 6 49 3 is_stmt 1 view .LVU145
 500              	.LBB139:
  50:../eurorack/stmlib/dsp/parameter_interpolator.h ****   }
 501              		.loc 6 50 5 view .LVU146
  50:../eurorack/stmlib/dsp/parameter_interpolator.h ****   }
 502              		.loc 6 50 13 is_stmt 0 view .LVU147
 503 0084 84ED059A 		vstr.32	s18, [r4, #20]
 504              	.LVL42:
  50:../eurorack/stmlib/dsp/parameter_interpolator.h ****   }
 505              		.loc 6 50 13 view .LVU148
 506              	.LBE139:
 507              	.LBE138:
 235:../eurorack/plaits/dsp/oscillator/oscillator.h ****   }
 508              		.loc 3 235 3 view .LVU149
 509 0088 BDEC0E8B 		vldm	sp!, {d8-d14}
 510              		.cfi_remember_state
 511              		.cfi_restore 92
 512              		.cfi_restore 93
 513              		.cfi_restore 90
ARM GAS  /var/folders/y7/g6pkzsp12sx54x3s3mvyn15r0000gn/T//ccLO9Aj4.s 			page 20


 514              		.cfi_restore 91
 515              		.cfi_restore 88
 516              		.cfi_restore 89
 517              		.cfi_restore 86
 518              		.cfi_restore 87
 519              		.cfi_restore 84
 520              		.cfi_restore 85
 521              		.cfi_restore 82
 522              		.cfi_restore 83
 523              		.cfi_restore 80
 524              		.cfi_restore 81
 525              		.cfi_def_cfa_offset 24
 526              	.LVL43:
 527              		.loc 3 235 3 view .LVU150
 528 008c F8BD     		pop	{r3, r4, r5, r6, r7, pc}
 529              	.LVL44:
 530              	.L18:
 531              		.cfi_restore_state
 532              	.LBB140:
 533              	.LBB141:
 534              	.LBI141:
  57:../eurorack/stmlib/dsp/parameter_interpolator.h ****   }
  58:../eurorack/stmlib/dsp/parameter_interpolator.h **** 
  59:../eurorack/stmlib/dsp/parameter_interpolator.h ****   inline float Next() {
 535              		.loc 6 59 16 is_stmt 1 view .LVU151
 536              	.LBB142:
  60:../eurorack/stmlib/dsp/parameter_interpolator.h ****     value_ += increment_;
 537              		.loc 6 60 5 view .LVU152
 538              		.loc 6 60 12 is_stmt 0 view .LVU153
 539 008e 39EE2B9A 		vadd.f32	s18, s18, s23
 540              	.LVL45:
  61:../eurorack/stmlib/dsp/parameter_interpolator.h ****     return value_;
 541              		.loc 6 61 5 is_stmt 1 view .LVU154
 542              		.loc 6 61 5 is_stmt 0 view .LVU155
 543              	.LBE142:
 544              	.LBE141:
 545              	.LBB143:
 546              	.LBI143:
  59:../eurorack/stmlib/dsp/parameter_interpolator.h ****     value_ += increment_;
 547              		.loc 6 59 16 is_stmt 1 view .LVU156
 548              	.LBB144:
  60:../eurorack/stmlib/dsp/parameter_interpolator.h ****     value_ += increment_;
 549              		.loc 6 60 5 view .LVU157
 550              	.LBE144:
 551              	.LBE143:
 128:../eurorack/plaits/dsp/oscillator/oscillator.h ****       
 552              		.loc 3 128 14 is_stmt 0 view .LVU158
 553 0092 94ED008A 		vldr.32	s16, [r4]
 554              	.LBB146:
 555              	.LBB145:
  60:../eurorack/stmlib/dsp/parameter_interpolator.h ****     return value_;
 556              		.loc 6 60 12 view .LVU159
 557 0096 79EE8C9A 		vadd.f32	s19, s19, s24
 558              	.LVL46:
 559              		.loc 6 61 5 is_stmt 1 view .LVU160
 560              		.loc 6 61 5 is_stmt 0 view .LVU161
 561              	.LBE145:
ARM GAS  /var/folders/y7/g6pkzsp12sx54x3s3mvyn15r0000gn/T//ccLO9Aj4.s 			page 21


 562              	.LBE146:
 563              	.LBB147:
 564              	.LBB148:
 565              	.LBB149:
 158:../eurorack/plaits/dsp/oscillator/oscillator.h ****           float t = (phase_ - pw) / frequency;
 566              		.loc 3 158 9 view .LVU162
 567 009a 237C     		ldrb	r3, [r4, #16]	@ zero_extendqisi2
 568              	.LBE149:
 155:../eurorack/plaits/dsp/oscillator/oscillator.h ****           slope_down = 1.0f / (1.0f - pw);
 569              		.loc 3 155 20 view .LVU163
 570 009c F7EE008A 		vmov.f32	s17, #1.0e+0
 571 00a0 9FED2FBA 		vldr.32	s22, .L23+4
 572              	.LBE148:
 573              	.LBE147:
 128:../eurorack/plaits/dsp/oscillator/oscillator.h ****       
 574              		.loc 3 128 14 view .LVU164
 575 00a4 39EE088A 		vadd.f32	s16, s18, s16
 576              	.LBB165:
 577              	.LBB162:
 156:../eurorack/plaits/dsp/oscillator/oscillator.h ****         }
 578              		.loc 3 156 37 view .LVU165
 579 00a8 78EEE97A 		vsub.f32	s15, s17, s19
 580              	.LBB155:
 158:../eurorack/plaits/dsp/oscillator/oscillator.h ****           float t = (phase_ - pw) / frequency;
 581              		.loc 3 158 29 view .LVU166
 582 00ac F4EEC89A 		vcmpe.f32	s19, s16
 583              	.LBE155:
 584              	.LBE162:
 585              	.LBE165:
 128:../eurorack/plaits/dsp/oscillator/oscillator.h ****       
 586              		.loc 3 128 14 view .LVU167
 587 00b0 84ED008A 		vstr.32	s16, [r4]
 588              	.LVL47:
 589              	.LBB166:
 590              	.LBB163:
 155:../eurorack/plaits/dsp/oscillator/oscillator.h ****           slope_down = 1.0f / (1.0f - pw);
 591              		.loc 3 155 20 view .LVU168
 592 00b4 88EEA9DA 		vdiv.f32	s26, s17, s19
 593              	.LVL48:
 594              	.LBB156:
 158:../eurorack/plaits/dsp/oscillator/oscillator.h ****           float t = (phase_ - pw) / frequency;
 595              		.loc 3 158 29 view .LVU169
 596 00b8 F1EE10FA 		vmrs	APSR_nzcv, FPSCR
 597              	.LBE156:
 156:../eurorack/plaits/dsp/oscillator/oscillator.h ****         }
 598              		.loc 3 156 22 view .LVU170
 599 00bc 88EEA7AA 		vdiv.f32	s20, s17, s15
 600              	.LVL49:
 601              	.LBB157:
 158:../eurorack/plaits/dsp/oscillator/oscillator.h ****           float t = (phase_ - pw) / frequency;
 602              		.loc 3 158 29 view .LVU171
 603 00c0 CCBF     		ite	gt
 604 00c2 0127     		movgt	r7, #1
 605 00c4 0027     		movle	r7, #0
 158:../eurorack/plaits/dsp/oscillator/oscillator.h ****           float t = (phase_ - pw) / frequency;
 606              		.loc 3 158 9 view .LVU172
 607 00c6 BB42     		cmp	r3, r7
ARM GAS  /var/folders/y7/g6pkzsp12sx54x3s3mvyn15r0000gn/T//ccLO9Aj4.s 			page 22


 608 00c8 16D0     		beq	.L12
 609              	.LBB150:
 159:../eurorack/plaits/dsp/oscillator/oscillator.h ****           float discontinuity = (slope_up + slope_down) * frequency;
 610              		.loc 3 159 29 view .LVU173
 611 00ca 78EE697A 		vsub.f32	s15, s16, s19
 160:../eurorack/plaits/dsp/oscillator/oscillator.h ****           if (through_zero_fm && frequency < 0.0f) {
 612              		.loc 3 160 43 view .LVU174
 613 00ce 7DEE0ACA 		vadd.f32	s25, s26, s20
 159:../eurorack/plaits/dsp/oscillator/oscillator.h ****           float discontinuity = (slope_up + slope_down) * frequency;
 614              		.loc 3 159 17 view .LVU175
 615 00d2 C7EE89DA 		vdiv.f32	s27, s15, s18
 616              	.LVL50:
 160:../eurorack/plaits/dsp/oscillator/oscillator.h ****           if (through_zero_fm && frequency < 0.0f) {
 617              		.loc 3 160 17 view .LVU176
 618 00d6 6CEE89CA 		vmul.f32	s25, s25, s18
 619              	.LVL51:
 620              	.LBB151:
 621              	.LBI151:
  52:../eurorack/stmlib/dsp/polyblep.h **** 
  53:../eurorack/stmlib/dsp/polyblep.h **** inline float ThisIntegratedBlepSample(float t) {
 622              		.loc 5 53 14 is_stmt 1 view .LVU177
 623              	.LBB152:
  54:../eurorack/stmlib/dsp/polyblep.h ****   return NextIntegratedBlepSample(1.0f - t);
 624              		.loc 5 54 3 view .LVU178
 625              	.LBE152:
 626              	.LBE151:
 164:../eurorack/plaits/dsp/oscillator/oscillator.h ****           next_sample -= stmlib::NextIntegratedBlepSample(t) * discontinuity;
 627              		.loc 3 164 23 is_stmt 0 discriminator 1 view .LVU179
 628 00da B1EE6CEA 		vneg.f32	s28, s25
 629              	.LBB154:
 630              	.LBB153:
 631              		.loc 5 54 34 view .LVU180
 632 00de 38EEED0A 		vsub.f32	s0, s17, s27
 633 00e2 FFF7FEFF 		bl	_ZN6stmlib24NextIntegratedBlepSampleEf
 634              	.LVL52:
 635              		.loc 5 54 34 view .LVU181
 636              	.LBE153:
 637              	.LBE154:
 164:../eurorack/plaits/dsp/oscillator/oscillator.h ****           next_sample -= stmlib::NextIntegratedBlepSample(t) * discontinuity;
 638              		.loc 3 164 23 discriminator 1 view .LVU182
 639 00e6 ECEEC0AA 		vfms.f32	s21, s25, s0
 640              	.LVL53:
 165:../eurorack/plaits/dsp/oscillator/oscillator.h ****           high_ = phase_ < pw;
 641              		.loc 3 165 58 view .LVU183
 642 00ea B0EE6D0A 		vmov.f32	s0, s27
 643 00ee FFF7FEFF 		bl	_ZN6stmlib24NextIntegratedBlepSampleEf
 644              	.LVL54:
 165:../eurorack/plaits/dsp/oscillator/oscillator.h ****           high_ = phase_ < pw;
 645              		.loc 3 165 23 discriminator 1 view .LVU184
 646 00f2 A0EE0EBA 		vfma.f32	s22, s0, s28
 647              	.LVL55:
 166:../eurorack/plaits/dsp/oscillator/oscillator.h ****         }
 648              		.loc 3 166 17 view .LVU185
 649 00f6 2774     		strb	r7, [r4, #16]
 650              	.LVL56:
 651              	.L12:
 166:../eurorack/plaits/dsp/oscillator/oscillator.h ****         }
ARM GAS  /var/folders/y7/g6pkzsp12sx54x3s3mvyn15r0000gn/T//ccLO9Aj4.s 			page 23


 652              		.loc 3 166 17 view .LVU186
 653              	.LBE150:
 654              	.LBE157:
 655              	.LBB158:
 168:../eurorack/plaits/dsp/oscillator/oscillator.h ****           phase_ -= 1.0f;
 656              		.loc 3 168 9 view .LVU187
 657 00f8 B4EEE88A 		vcmpe.f32	s16, s17
 658 00fc F1EE10FA 		vmrs	APSR_nzcv, FPSCR
 659 0100 24DB     		blt	.L22
 660              	.LBB159:
 169:../eurorack/plaits/dsp/oscillator/oscillator.h ****           float t = phase_ / frequency;
 661              		.loc 3 169 18 view .LVU188
 662 0102 38EE688A 		vsub.f32	s16, s16, s17
 171:../eurorack/plaits/dsp/oscillator/oscillator.h ****           this_sample += stmlib::ThisIntegratedBlepSample(t) * discontinuity;
 663              		.loc 3 171 43 view .LVU189
 664 0106 3DEE0AAA 		vadd.f32	s20, s26, s20
 665              	.LVL57:
 170:../eurorack/plaits/dsp/oscillator/oscillator.h ****           float discontinuity = (slope_up + slope_down) * frequency;
 666              		.loc 3 170 17 view .LVU190
 667 010a C8EE09CA 		vdiv.f32	s25, s16, s18
 668              	.LVL58:
 169:../eurorack/plaits/dsp/oscillator/oscillator.h ****           float t = phase_ / frequency;
 669              		.loc 3 169 18 view .LVU191
 670 010e 84ED008A 		vstr.32	s16, [r4]
 171:../eurorack/plaits/dsp/oscillator/oscillator.h ****           this_sample += stmlib::ThisIntegratedBlepSample(t) * discontinuity;
 671              		.loc 3 171 17 view .LVU192
 672 0112 2AEE09AA 		vmul.f32	s20, s20, s18
 673              	.LVL59:
 674              	.LBB160:
 675              	.LBI160:
  53:../eurorack/stmlib/dsp/polyblep.h ****   return NextIntegratedBlepSample(1.0f - t);
 676              		.loc 5 53 14 is_stmt 1 view .LVU193
 677              	.LBB161:
 678              		.loc 5 54 3 view .LVU194
 679              		.loc 5 54 34 is_stmt 0 view .LVU195
 680 0116 38EEEC0A 		vsub.f32	s0, s17, s25
 681 011a FFF7FEFF 		bl	_ZN6stmlib24NextIntegratedBlepSampleEf
 682              	.LVL60:
 683              		.loc 5 54 34 view .LVU196
 684              	.LBE161:
 685              	.LBE160:
 172:../eurorack/plaits/dsp/oscillator/oscillator.h ****           next_sample += stmlib::NextIntegratedBlepSample(t) * discontinuity;
 686              		.loc 3 172 23 discriminator 1 view .LVU197
 687 011e EAEE00AA 		vfma.f32	s21, s20, s0
 688              	.LVL61:
 173:../eurorack/plaits/dsp/oscillator/oscillator.h ****           high_ = true;
 689              		.loc 3 173 58 view .LVU198
 690 0122 B0EE6C0A 		vmov.f32	s0, s25
 691 0126 FFF7FEFF 		bl	_ZN6stmlib24NextIntegratedBlepSampleEf
 692              	.LVL62:
 173:../eurorack/plaits/dsp/oscillator/oscillator.h ****           high_ = true;
 693              		.loc 3 173 23 discriminator 1 view .LVU199
 694 012a AAEE00BA 		vfma.f32	s22, s20, s0
 695              	.LVL63:
 174:../eurorack/plaits/dsp/oscillator/oscillator.h ****         } else if (through_zero_fm && phase_ < 0.0f) {
 696              		.loc 3 174 17 view .LVU200
 697 012e 0123     		movs	r3, #1
ARM GAS  /var/folders/y7/g6pkzsp12sx54x3s3mvyn15r0000gn/T//ccLO9Aj4.s 			page 24


 698 0130 2374     		strb	r3, [r4, #16]
 699              	.LVL64:
 700              	.L15:
 174:../eurorack/plaits/dsp/oscillator/oscillator.h ****         } else if (through_zero_fm && phase_ < 0.0f) {
 701              		.loc 3 174 17 view .LVU201
 702              	.LBE159:
 703              	.LBE158:
 184:../eurorack/plaits/dsp/oscillator/oscillator.h ****           : 1.0f - (phase_ - pw) * slope_down;
 704              		.loc 3 184 11 discriminator 1 view .LVU202
 705 0132 6DEE088A 		vmul.f32	s17, s26, s16
 706              	.LVL65:
 707              	.L17:
 186:../eurorack/plaits/dsp/oscillator/oscillator.h ****       } else {
 708              		.loc 3 186 37 view .LVU203
 709 0136 B0EE007A 		vmov.f32	s14, #2.0e+0
 710 013a FFEE007A 		vmov.f32	s15, #-1.0e+0
 711 013e EAEE877A 		vfma.f32	s15, s21, s14
 183:../eurorack/plaits/dsp/oscillator/oscillator.h ****           ? phase_ * slope_up
 712              		.loc 3 183 21 view .LVU204
 713 0142 7BEE28AA 		vadd.f32	s21, s22, s17
 714              	.LVL66:
 186:../eurorack/plaits/dsp/oscillator/oscillator.h ****       } else {
 715              		.loc 3 186 16 view .LVU205
 716 0146 E6EC017A 		vstmia.32	r6!, {s15}
 717              	.LVL67:
 186:../eurorack/plaits/dsp/oscillator/oscillator.h ****       } else {
 718              		.loc 3 186 16 view .LVU206
 719              	.LBE163:
 720 014a 95E7     		b	.L11
 721              	.LVL68:
 722              	.L22:
 723              	.LBB164:
 184:../eurorack/plaits/dsp/oscillator/oscillator.h ****           : 1.0f - (phase_ - pw) * slope_down;
 724              		.loc 3 184 11 view .LVU207
 725 014c 237C     		ldrb	r3, [r4, #16]	@ zero_extendqisi2
 726 014e 002B     		cmp	r3, #0
 727 0150 EFD1     		bne	.L15
 185:../eurorack/plaits/dsp/oscillator/oscillator.h ****         *out++ = 2.0f * this_sample - 1.0f;
 728              		.loc 3 185 28 view .LVU208
 729 0152 38EE698A 		vsub.f32	s16, s16, s19
 184:../eurorack/plaits/dsp/oscillator/oscillator.h ****           : 1.0f - (phase_ - pw) * slope_down;
 730              		.loc 3 184 11 discriminator 2 view .LVU209
 731 0156 EAEE488A 		vfms.f32	s17, s20, s16
 732 015a ECE7     		b	.L17
 733              	.L24:
 734              		.align	2
 735              	.L23:
 736 015c BD378635 		.word	897988541
 737 0160 00000000 		.word	0
 738              	.LBE164:
 739              	.LBE166:
 740              	.LBE140:
 741              		.cfi_endproc
 742              	.LFE1339:
 744              		.section	.text._ZN6plaits4TameEfff,"ax",%progbits
 745              		.align	1
 746              		.global	_ZN6plaits4TameEfff
ARM GAS  /var/folders/y7/g6pkzsp12sx54x3s3mvyn15r0000gn/T//ccLO9Aj4.s 			page 25


 747              		.syntax unified
 748              		.thumb
 749              		.thumb_func
 751              	_ZN6plaits4TameEfff:
 752              	.LVL69:
 753              	.LFB1328:
  55:../eurorack/plaits/dsp/engine/waveshaping_engine.cc **** 
  56:../eurorack/plaits/dsp/engine/waveshaping_engine.cc **** float Tame(float f0, float harmonics, float order) {
 754              		.loc 1 56 52 is_stmt 1 view -0
 755              		.cfi_startproc
 756              		@ args = 0, pretend = 0, frame = 0
 757              		@ frame_needed = 0, uses_anonymous_args = 0
 758              		@ link register save eliminated.
  57:../eurorack/plaits/dsp/engine/waveshaping_engine.cc ****   f0 *= harmonics;
 759              		.loc 1 57 3 view .LVU211
  58:../eurorack/plaits/dsp/engine/waveshaping_engine.cc ****   float max_f = 0.5f / order;
 760              		.loc 1 58 3 view .LVU212
 761              		.loc 1 58 9 is_stmt 0 view .LVU213
 762 0000 F6EE007A 		vmov.f32	s15, #5.0e-1
 763 0004 87EE817A 		vdiv.f32	s14, s15, s2
 764              	.LVL70:
  59:../eurorack/plaits/dsp/engine/waveshaping_engine.cc ****   float max_amount = 1.0f - (f0 - max_f) / (0.5f - max_f);
 765              		.loc 1 59 3 is_stmt 1 view .LVU214
 766              		.loc 1 59 33 is_stmt 0 view .LVU215
 767 0008 F0EE476A 		vmov.f32	s13, s14
 768              		.loc 1 59 50 view .LVU216
 769 000c 77EEC77A 		vsub.f32	s15, s15, s14
 770              		.loc 1 59 33 view .LVU217
 771 0010 D0EE206A 		vfnms.f32	s13, s0, s1
 772              		.loc 1 59 42 view .LVU218
 773 0014 86EEA77A 		vdiv.f32	s14, s13, s15
 774              	.LVL71:
 775              		.loc 1 59 9 view .LVU219
 776 0018 F7EE007A 		vmov.f32	s15, #1.0e+0
 777 001c 37EEC77A 		vsub.f32	s14, s15, s14
 778              	.LVL72:
  60:../eurorack/plaits/dsp/engine/waveshaping_engine.cc ****   CONSTRAIN(max_amount, 0.0f, 1.0f);
 779              		.loc 1 60 3 is_stmt 1 view .LVU220
 780 0020 B5EEC07A 		vcmpe.f32	s14, #0
 781 0024 F1EE10FA 		vmrs	APSR_nzcv, FPSCR
 782 0028 0AD4     		bmi	.L27
 783              		.loc 1 60 3 discriminator 2 view .LVU221
 784 002a B4EEE77A 		vcmpe.f32	s14, s15
 785 002e F1EE10FA 		vmrs	APSR_nzcv, FPSCR
 786 0032 77FE877A 		vselgt.f32	s15, s15, s14
 787              	.L26:
 788              	.LVL73:
 789              		.loc 1 60 36 discriminator 6 view .LVU222
  61:../eurorack/plaits/dsp/engine/waveshaping_engine.cc ****   return max_amount * max_amount * max_amount;
 790              		.loc 1 61 3 view .LVU223
 791              		.loc 1 61 21 is_stmt 0 view .LVU224
 792 0036 27EEA70A 		vmul.f32	s0, s15, s15
 793              	.LVL74:
  62:../eurorack/plaits/dsp/engine/waveshaping_engine.cc **** }
 794              		.loc 1 62 1 view .LVU225
 795 003a 20EE270A 		vmul.f32	s0, s0, s15
 796 003e 7047     		bx	lr
ARM GAS  /var/folders/y7/g6pkzsp12sx54x3s3mvyn15r0000gn/T//ccLO9Aj4.s 			page 26


 797              	.LVL75:
 798              	.L27:
  60:../eurorack/plaits/dsp/engine/waveshaping_engine.cc ****   CONSTRAIN(max_amount, 0.0f, 1.0f);
 799              		.loc 1 60 3 discriminator 1 view .LVU226
 800 0040 DFED017A 		vldr.32	s15, .L28
 801 0044 F7E7     		b	.L26
 802              	.L29:
 803 0046 00BF     		.align	2
 804              	.L28:
 805 0048 00000000 		.word	0
 806              		.cfi_endproc
 807              	.LFE1328:
 809              		.section	.text._ZN6plaits17WaveshapingEngine6RenderERKNS_16EngineParametersEPfS4_jPb,"ax",%progbit
 810              		.align	1
 811              		.global	_ZN6plaits17WaveshapingEngine6RenderERKNS_16EngineParametersEPfS4_jPb
 812              		.syntax unified
 813              		.thumb
 814              		.thumb_func
 816              	_ZN6plaits17WaveshapingEngine6RenderERKNS_16EngineParametersEPfS4_jPb:
 817              	.LVL76:
 818              	.LFB1329:
  63:../eurorack/plaits/dsp/engine/waveshaping_engine.cc **** 
  64:../eurorack/plaits/dsp/engine/waveshaping_engine.cc **** void WaveshapingEngine::Render(
  65:../eurorack/plaits/dsp/engine/waveshaping_engine.cc ****     const EngineParameters& parameters,
  66:../eurorack/plaits/dsp/engine/waveshaping_engine.cc ****     float* out,
  67:../eurorack/plaits/dsp/engine/waveshaping_engine.cc ****     float* aux,
  68:../eurorack/plaits/dsp/engine/waveshaping_engine.cc ****     size_t size,
  69:../eurorack/plaits/dsp/engine/waveshaping_engine.cc ****     bool* already_enveloped) {
 819              		.loc 1 69 30 is_stmt 1 view -0
 820              		.cfi_startproc
 821              		@ args = 8, pretend = 0, frame = 8
 822              		@ frame_needed = 0, uses_anonymous_args = 0
  70:../eurorack/plaits/dsp/engine/waveshaping_engine.cc ****   const float root = parameters.note;
 823              		.loc 1 70 3 view .LVU228
  71:../eurorack/plaits/dsp/engine/waveshaping_engine.cc ****   
  72:../eurorack/plaits/dsp/engine/waveshaping_engine.cc ****   const float f0 = NoteToFrequency(root);
 824              		.loc 1 72 3 view .LVU229
 825              	.LBB202:
 826              	.LBI202:
 827              		.file 7 "../eurorack/plaits/dsp/engine/engine.h"
   1:../eurorack/plaits/dsp/engine/engine.h **** // Copyright 2016 Emilie Gillet.
   2:../eurorack/plaits/dsp/engine/engine.h **** //
   3:../eurorack/plaits/dsp/engine/engine.h **** // Author: Emilie Gillet (emilie.o.gillet@gmail.com)
   4:../eurorack/plaits/dsp/engine/engine.h **** //
   5:../eurorack/plaits/dsp/engine/engine.h **** // Permission is hereby granted, free of charge, to any person obtaining a copy
   6:../eurorack/plaits/dsp/engine/engine.h **** // of this software and associated documentation files (the "Software"), to deal
   7:../eurorack/plaits/dsp/engine/engine.h **** // in the Software without restriction, including without limitation the rights
   8:../eurorack/plaits/dsp/engine/engine.h **** // to use, copy, modify, merge, publish, distribute, sublicense, and/or sell
   9:../eurorack/plaits/dsp/engine/engine.h **** // copies of the Software, and to permit persons to whom the Software is
  10:../eurorack/plaits/dsp/engine/engine.h **** // furnished to do so, subject to the following conditions:
  11:../eurorack/plaits/dsp/engine/engine.h **** // 
  12:../eurorack/plaits/dsp/engine/engine.h **** // The above copyright notice and this permission notice shall be included in
  13:../eurorack/plaits/dsp/engine/engine.h **** // all copies or substantial portions of the Software.
  14:../eurorack/plaits/dsp/engine/engine.h **** // 
  15:../eurorack/plaits/dsp/engine/engine.h **** // THE SOFTWARE IS PROVIDED "AS IS", WITHOUT WARRANTY OF ANY KIND, EXPRESS OR
  16:../eurorack/plaits/dsp/engine/engine.h **** // IMPLIED, INCLUDING BUT NOT LIMITED TO THE WARRANTIES OF MERCHANTABILITY,
  17:../eurorack/plaits/dsp/engine/engine.h **** // FITNESS FOR A PARTICULAR PURPOSE AND NONINFRINGEMENT. IN NO EVENT SHALL THE
ARM GAS  /var/folders/y7/g6pkzsp12sx54x3s3mvyn15r0000gn/T//ccLO9Aj4.s 			page 27


  18:../eurorack/plaits/dsp/engine/engine.h **** // AUTHORS OR COPYRIGHT HOLDERS BE LIABLE FOR ANY CLAIM, DAMAGES OR OTHER
  19:../eurorack/plaits/dsp/engine/engine.h **** // LIABILITY, WHETHER IN AN ACTION OF CONTRACT, TORT OR OTHERWISE, ARISING FROM,
  20:../eurorack/plaits/dsp/engine/engine.h **** // OUT OF OR IN CONNECTION WITH THE SOFTWARE OR THE USE OR OTHER DEALINGS IN
  21:../eurorack/plaits/dsp/engine/engine.h **** // THE SOFTWARE.
  22:../eurorack/plaits/dsp/engine/engine.h **** // 
  23:../eurorack/plaits/dsp/engine/engine.h **** // See http://creativecommons.org/licenses/MIT/ for more information.
  24:../eurorack/plaits/dsp/engine/engine.h **** //
  25:../eurorack/plaits/dsp/engine/engine.h **** // -----------------------------------------------------------------------------
  26:../eurorack/plaits/dsp/engine/engine.h **** //
  27:../eurorack/plaits/dsp/engine/engine.h **** // Base class for all engines.
  28:../eurorack/plaits/dsp/engine/engine.h **** 
  29:../eurorack/plaits/dsp/engine/engine.h **** #ifndef PLAITS_DSP_ENGINE_ENGINE_H_
  30:../eurorack/plaits/dsp/engine/engine.h **** #define PLAITS_DSP_ENGINE_ENGINE_H_
  31:../eurorack/plaits/dsp/engine/engine.h **** 
  32:../eurorack/plaits/dsp/engine/engine.h **** #include "plaits/dsp/dsp.h"
  33:../eurorack/plaits/dsp/engine/engine.h **** 
  34:../eurorack/plaits/dsp/engine/engine.h **** #include "stmlib/dsp/units.h"
  35:../eurorack/plaits/dsp/engine/engine.h **** #include "stmlib/utils/buffer_allocator.h"
  36:../eurorack/plaits/dsp/engine/engine.h **** 
  37:../eurorack/plaits/dsp/engine/engine.h **** namespace plaits {
  38:../eurorack/plaits/dsp/engine/engine.h **** 
  39:../eurorack/plaits/dsp/engine/engine.h **** inline float NoteToFrequency(float midi_note) {
 828              		.loc 7 39 14 view .LVU230
 829              	.LBB203:
  40:../eurorack/plaits/dsp/engine/engine.h ****   midi_note -= 9.0f;
 830              		.loc 7 40 3 view .LVU231
 831              		.loc 7 40 13 is_stmt 0 view .LVU232
 832 0000 F2EE027A 		vmov.f32	s15, #9.0e+0
 833 0004 91ED017A 		vldr.32	s14, [r1, #4]
 834              	.LBE203:
 835              	.LBE202:
  69:../eurorack/plaits/dsp/engine/waveshaping_engine.cc ****   const float root = parameters.note;
 836              		.loc 1 69 30 view .LVU233
 837 0008 2DE9F041 		push	{r4, r5, r6, r7, r8, lr}
 838              		.cfi_def_cfa_offset 24
 839              		.cfi_offset 4, -24
 840              		.cfi_offset 5, -20
 841              		.cfi_offset 6, -16
 842              		.cfi_offset 7, -12
 843              		.cfi_offset 8, -8
 844              		.cfi_offset 14, -4
 845              	.LBB225:
 846              	.LBB216:
 847              		.loc 7 40 13 view .LVU234
 848 000c 37EE677A 		vsub.f32	s14, s14, s15
 849              	.LVL77:
  41:../eurorack/plaits/dsp/engine/engine.h ****   CONSTRAIN(midi_note, -128.0f, 127.0f);
 850              		.loc 7 41 3 is_stmt 1 view .LVU235
 851 0010 DFEDAB7A 		vldr.32	s15, .L35
 852              	.LBE216:
 853              	.LBE225:
  69:../eurorack/plaits/dsp/engine/waveshaping_engine.cc ****   const float root = parameters.note;
 854              		.loc 1 69 30 is_stmt 0 view .LVU236
 855 0014 0446     		mov	r4, r0
 856 0016 8846     		mov	r8, r1
 857 0018 1546     		mov	r5, r2
 858 001a 1E46     		mov	r6, r3
ARM GAS  /var/folders/y7/g6pkzsp12sx54x3s3mvyn15r0000gn/T//ccLO9Aj4.s 			page 28


 859              	.LBB226:
 860              	.LBB217:
 861              		.loc 7 41 3 view .LVU237
 862 001c B4EEE77A 		vcmpe.f32	s14, s15
 863              	.LBE217:
 864              	.LBE226:
  69:../eurorack/plaits/dsp/engine/waveshaping_engine.cc ****   const float root = parameters.note;
 865              		.loc 1 69 30 view .LVU238
 866 0020 2DED0C8B 		vpush.64	{d8, d9, d10, d11, d12, d13}
 867              		.cfi_def_cfa_offset 72
 868              		.cfi_offset 80, -72
 869              		.cfi_offset 81, -68
 870              		.cfi_offset 82, -64
 871              		.cfi_offset 83, -60
 872              		.cfi_offset 84, -56
 873              		.cfi_offset 85, -52
 874              		.cfi_offset 86, -48
 875              		.cfi_offset 87, -44
 876              		.cfi_offset 88, -40
 877              		.cfi_offset 89, -36
 878              		.cfi_offset 90, -32
 879              		.cfi_offset 91, -28
 880              	.LBB227:
 881              	.LBB218:
 882              		.loc 7 41 3 view .LVU239
 883 0024 F1EE10FA 		vmrs	APSR_nzcv, FPSCR
 884              	.LBE218:
 885              	.LBE227:
  69:../eurorack/plaits/dsp/engine/waveshaping_engine.cc ****   const float root = parameters.note;
 886              		.loc 1 69 30 view .LVU240
 887 0028 82B0     		sub	sp, sp, #8
 888              		.cfi_def_cfa_offset 80
  69:../eurorack/plaits/dsp/engine/waveshaping_engine.cc ****   const float root = parameters.note;
 889              		.loc 1 69 30 view .LVU241
 890 002a 149F     		ldr	r7, [sp, #80]
 891              	.LBB228:
 892              	.LBB219:
 893              		.loc 7 41 3 view .LVU242
 894 002c 07D4     		bmi	.L31
 895              		.loc 7 41 3 is_stmt 1 discriminator 2 view .LVU243
 896 002e DFEDA57A 		vldr.32	s15, .L35+4
 897 0032 B4EEE77A 		vcmpe.f32	s14, s15
 898 0036 F1EE10FA 		vmrs	APSR_nzcv, FPSCR
 899 003a 77FE877A 		vselgt.f32	s15, s15, s14
 900              	.L31:
 901              	.LVL78:
 902              		.loc 7 41 40 discriminator 6 view .LVU244
  42:../eurorack/plaits/dsp/engine/engine.h ****   return a0 * 0.25f * stmlib::SemitonesToRatio(midi_note);
 903              		.loc 7 42 3 view .LVU245
 904              	.LBB204:
 905              	.LBI204:
 906              		.file 8 "../eurorack/stmlib/dsp/units.h"
   1:../eurorack/stmlib/dsp/units.h **** // Copyright 2014 Emilie Gillet.
   2:../eurorack/stmlib/dsp/units.h **** //
   3:../eurorack/stmlib/dsp/units.h **** // Author: Emilie Gillet (emilie.o.gillet@gmail.com)
   4:../eurorack/stmlib/dsp/units.h **** //
   5:../eurorack/stmlib/dsp/units.h **** // Permission is hereby granted, free of charge, to any person obtaining a copy
ARM GAS  /var/folders/y7/g6pkzsp12sx54x3s3mvyn15r0000gn/T//ccLO9Aj4.s 			page 29


   6:../eurorack/stmlib/dsp/units.h **** // of this software and associated documentation files (the "Software"), to deal
   7:../eurorack/stmlib/dsp/units.h **** // in the Software without restriction, including without limitation the rights
   8:../eurorack/stmlib/dsp/units.h **** // to use, copy, modify, merge, publish, distribute, sublicense, and/or sell
   9:../eurorack/stmlib/dsp/units.h **** // copies of the Software, and to permit persons to whom the Software is
  10:../eurorack/stmlib/dsp/units.h **** // furnished to do so, subject to the following conditions:
  11:../eurorack/stmlib/dsp/units.h **** // 
  12:../eurorack/stmlib/dsp/units.h **** // The above copyright notice and this permission notice shall be included in
  13:../eurorack/stmlib/dsp/units.h **** // all copies or substantial portions of the Software.
  14:../eurorack/stmlib/dsp/units.h **** // 
  15:../eurorack/stmlib/dsp/units.h **** // THE SOFTWARE IS PROVIDED "AS IS", WITHOUT WARRANTY OF ANY KIND, EXPRESS OR
  16:../eurorack/stmlib/dsp/units.h **** // IMPLIED, INCLUDING BUT NOT LIMITED TO THE WARRANTIES OF MERCHANTABILITY,
  17:../eurorack/stmlib/dsp/units.h **** // FITNESS FOR A PARTICULAR PURPOSE AND NONINFRINGEMENT. IN NO EVENT SHALL THE
  18:../eurorack/stmlib/dsp/units.h **** // AUTHORS OR COPYRIGHT HOLDERS BE LIABLE FOR ANY CLAIM, DAMAGES OR OTHER
  19:../eurorack/stmlib/dsp/units.h **** // LIABILITY, WHETHER IN AN ACTION OF CONTRACT, TORT OR OTHERWISE, ARISING FROM,
  20:../eurorack/stmlib/dsp/units.h **** // OUT OF OR IN CONNECTION WITH THE SOFTWARE OR THE USE OR OTHER DEALINGS IN
  21:../eurorack/stmlib/dsp/units.h **** // THE SOFTWARE.
  22:../eurorack/stmlib/dsp/units.h **** // 
  23:../eurorack/stmlib/dsp/units.h **** // See http://creativecommons.org/licenses/MIT/ for more information.
  24:../eurorack/stmlib/dsp/units.h **** //
  25:../eurorack/stmlib/dsp/units.h **** // -----------------------------------------------------------------------------
  26:../eurorack/stmlib/dsp/units.h **** //
  27:../eurorack/stmlib/dsp/units.h **** // Conversion from semitones to frequency ratio.
  28:../eurorack/stmlib/dsp/units.h **** 
  29:../eurorack/stmlib/dsp/units.h **** #ifndef STMLIB_DSP_UNITS_H_
  30:../eurorack/stmlib/dsp/units.h **** #define STMLIB_DSP_UNITS_H_
  31:../eurorack/stmlib/dsp/units.h **** 
  32:../eurorack/stmlib/dsp/units.h **** #include "stmlib/stmlib.h"
  33:../eurorack/stmlib/dsp/units.h **** #include "stmlib/dsp/dsp.h"
  34:../eurorack/stmlib/dsp/units.h **** 
  35:../eurorack/stmlib/dsp/units.h **** namespace stmlib {
  36:../eurorack/stmlib/dsp/units.h **** 
  37:../eurorack/stmlib/dsp/units.h **** extern const float lut_pitch_ratio_high[257];
  38:../eurorack/stmlib/dsp/units.h **** extern const float lut_pitch_ratio_low[257];
  39:../eurorack/stmlib/dsp/units.h **** 
  40:../eurorack/stmlib/dsp/units.h **** inline float SemitonesToRatio(float semitones) {
 907              		.loc 8 40 14 view .LVU246
 908              	.LBB205:
  41:../eurorack/stmlib/dsp/units.h ****   float pitch = semitones + 128.0f;
 909              		.loc 8 41 3 view .LVU247
 910              		.loc 8 41 9 is_stmt 0 view .LVU248
 911 003e 9FEDA28A 		vldr.32	s16, .L35+8
 912              	.LBE205:
 913              	.LBE204:
 914              	.LBE219:
 915              	.LBE228:
  73:../eurorack/plaits/dsp/engine/waveshaping_engine.cc ****   const float pw = parameters.morph * 0.45f + 0.5f;
 916              		.loc 1 73 15 view .LVU249
 917 0042 F6EE008A 		vmov.f32	s17, #5.0e-1
 918              	.LBB229:
 919              	.LBB220:
 920              	.LBB211:
 921              	.LBB206:
  42:../eurorack/stmlib/dsp/units.h ****   MAKE_INTEGRAL_FRACTIONAL(pitch)
  43:../eurorack/stmlib/dsp/units.h **** 
  44:../eurorack/stmlib/dsp/units.h ****   return lut_pitch_ratio_high[pitch_integral] * \
  45:../eurorack/stmlib/dsp/units.h ****       lut_pitch_ratio_low[static_cast<int32_t>(pitch_fractional * 256.0f)];
 922              		.loc 8 45 74 view .LVU250
ARM GAS  /var/folders/y7/g6pkzsp12sx54x3s3mvyn15r0000gn/T//ccLO9Aj4.s 			page 30


 923 0046 A14A     		ldr	r2, .L35+12
 924              	.LVL79:
 925              		.loc 8 45 74 view .LVU251
 926              	.LBE206:
 927              	.LBE211:
 928              	.LBE220:
 929              	.LBE229:
 930              	.LBB230:
 931              	.LBB231:
  71:../eurorack/plaits/dsp/oscillator/oscillator.h ****   }
 932              		.loc 3 71 32 view .LVU252
 933 0048 04F11000 		add	r0, r4, #16
 934              	.LVL80:
  71:../eurorack/plaits/dsp/oscillator/oscillator.h ****   }
 935              		.loc 3 71 32 view .LVU253
 936              	.LBE231:
 937              	.LBE230:
 938              	.LBB235:
 939              	.LBB221:
 940              	.LBB212:
 941              	.LBB207:
  41:../eurorack/stmlib/dsp/units.h ****   MAKE_INTEGRAL_FRACTIONAL(pitch)
 942              		.loc 8 41 9 view .LVU254
 943 004c 77EE887A 		vadd.f32	s15, s15, s16
 944              	.LVL81:
  42:../eurorack/stmlib/dsp/units.h ****   MAKE_INTEGRAL_FRACTIONAL(pitch)
 945              		.loc 8 42 3 is_stmt 1 view .LVU255
 946              	.LBE207:
 947              	.LBE212:
 948              	.LBE221:
 949              	.LBE235:
 950              	.LBB236:
 951              	.LBB232:
  71:../eurorack/plaits/dsp/oscillator/oscillator.h ****   }
 952              		.loc 3 71 32 is_stmt 0 view .LVU256
 953 0050 F0EE680A 		vmov.f32	s1, s17
 954              	.LBE232:
 955              	.LBE236:
 956              	.LBB237:
 957              	.LBB222:
 958              	.LBB213:
 959              	.LBB208:
  42:../eurorack/stmlib/dsp/units.h ****   MAKE_INTEGRAL_FRACTIONAL(pitch)
 960              		.loc 8 42 3 view .LVU257
 961 0054 BDEEE77A 		vcvt.s32.f32	s14, s15
 962              	.LVL82:
  42:../eurorack/stmlib/dsp/units.h ****   MAKE_INTEGRAL_FRACTIONAL(pitch)
 963              		.loc 8 42 3 is_stmt 1 view .LVU258
  44:../eurorack/stmlib/dsp/units.h ****       lut_pitch_ratio_low[static_cast<int32_t>(pitch_fractional * 256.0f)];
 964              		.loc 8 44 3 view .LVU259
  42:../eurorack/stmlib/dsp/units.h **** 
 965              		.loc 8 42 3 is_stmt 0 view .LVU260
 966 0058 F8EEC76A 		vcvt.f32.s32	s13, s14
  44:../eurorack/stmlib/dsp/units.h ****       lut_pitch_ratio_low[static_cast<int32_t>(pitch_fractional * 256.0f)];
 967              		.loc 8 44 45 view .LVU261
 968 005c 17EE101A 		vmov	r1, s14	@ int
 969              	.LVL83:
ARM GAS  /var/folders/y7/g6pkzsp12sx54x3s3mvyn15r0000gn/T//ccLO9Aj4.s 			page 31


  44:../eurorack/stmlib/dsp/units.h ****       lut_pitch_ratio_low[static_cast<int32_t>(pitch_fractional * 256.0f)];
 970              		.loc 8 44 45 view .LVU262
 971              	.LBE208:
 972              	.LBE213:
 973              	.LBE222:
 974              	.LBE237:
 975              		.loc 1 73 15 view .LVU263
 976 0060 98ED037A 		vldr.32	s14, [r8, #12]
 977              	.LBB238:
 978              	.LBB223:
 979              	.LBB214:
 980              	.LBB209:
  42:../eurorack/stmlib/dsp/units.h **** 
 981              		.loc 8 42 3 view .LVU264
 982 0064 77EEE67A 		vsub.f32	s15, s15, s13
 983              		.loc 8 45 27 view .LVU265
 984 0068 FEEECC7A 		vcvt.s32.f32	s15, s15, #8
 985              		.loc 8 45 74 view .LVU266
 986 006c 17EE903A 		vmov	r3, s15	@ int
 987              	.LVL84:
 988              		.loc 8 45 74 view .LVU267
 989 0070 02EB8302 		add	r2, r2, r3, lsl #2
  44:../eurorack/stmlib/dsp/units.h ****       lut_pitch_ratio_low[static_cast<int32_t>(pitch_fractional * 256.0f)];
 990              		.loc 8 44 45 view .LVU268
 991 0074 964B     		ldr	r3, .L35+16
 992 0076 03EB8103 		add	r3, r3, r1, lsl #2
 993              		.loc 8 45 74 view .LVU269
 994 007a 92ED009A 		vldr.32	s18, [r2]
 995              	.LBE209:
 996              	.LBE214:
 997              	.LBE223:
 998              	.LBE238:
 999              	.LBB239:
 1000              	.LBB233:
  71:../eurorack/plaits/dsp/oscillator/oscillator.h ****   }
 1001              		.loc 3 71 32 view .LVU270
 1002 007e 2946     		mov	r1, r5
 1003 0080 3A46     		mov	r2, r7
 1004              	.LBE233:
 1005              	.LBE239:
 1006              	.LBB240:
 1007              	.LBB224:
 1008              	.LBB215:
 1009              	.LBB210:
 1010              		.loc 8 45 74 view .LVU271
 1011 0082 D3ED007A 		vldr.32	s15, [r3]
 1012 0086 29EE279A 		vmul.f32	s18, s18, s15
 1013              	.LBE210:
 1014              	.LBE215:
 1015              		.loc 7 42 57 discriminator 1 view .LVU272
 1016 008a DFED927A 		vldr.32	s15, .L35+20
 1017 008e 29EE279A 		vmul.f32	s18, s18, s15
 1018              	.LVL85:
 1019              		.loc 7 42 57 discriminator 1 view .LVU273
 1020              	.LBE224:
 1021              	.LBE240:
 1022              		.loc 1 73 3 is_stmt 1 view .LVU274
ARM GAS  /var/folders/y7/g6pkzsp12sx54x3s3mvyn15r0000gn/T//ccLO9Aj4.s 			page 32


  74:../eurorack/plaits/dsp/engine/waveshaping_engine.cc ****   
  75:../eurorack/plaits/dsp/engine/waveshaping_engine.cc ****   // Start from bandlimited slope signal.
  76:../eurorack/plaits/dsp/engine/waveshaping_engine.cc ****   slope_.Render<OSCILLATOR_SHAPE_SLOPE>(f0, pw, out, size);
 1023              		.loc 1 76 3 view .LVU275
 1024              	.LBB241:
 1025              	.LBI230:
  70:../eurorack/plaits/dsp/oscillator/oscillator.h ****     Render<shape, false, false>(frequency, pw, NULL, out, size);
 1026              		.loc 3 70 8 view .LVU276
 1027              	.LBB234:
  71:../eurorack/plaits/dsp/oscillator/oscillator.h ****   }
 1028              		.loc 3 71 32 is_stmt 0 view .LVU277
 1029 0092 DFED917A 		vldr.32	s15, .L35+24
 1030 0096 E7EE270A 		vfma.f32	s1, s14, s15
 1031              	.LVL86:
  71:../eurorack/plaits/dsp/oscillator/oscillator.h ****   }
 1032              		.loc 3 71 32 view .LVU278
 1033 009a B0EE490A 		vmov.f32	s0, s18
 1034 009e FFF7FEFF 		bl	_ZN6plaits10Oscillator6RenderILNS_15OscillatorShapeE3ELb0ELb0EEEvffPKfPfj.isra.0
 1035              	.LVL87:
  71:../eurorack/plaits/dsp/oscillator/oscillator.h ****   }
 1036              		.loc 3 71 32 view .LVU279
 1037              	.LBE234:
 1038              	.LBE241:
  77:../eurorack/plaits/dsp/engine/waveshaping_engine.cc ****   triangle_.Render<OSCILLATOR_SHAPE_SLOPE>(f0, 0.5f, aux, size);
 1039              		.loc 1 77 3 is_stmt 1 view .LVU280
 1040              	.LBB242:
 1041              	.LBI242:
  70:../eurorack/plaits/dsp/oscillator/oscillator.h ****     Render<shape, false, false>(frequency, pw, NULL, out, size);
 1042              		.loc 3 70 8 view .LVU281
 1043              	.LBB243:
  71:../eurorack/plaits/dsp/oscillator/oscillator.h ****   }
 1044              		.loc 3 71 32 is_stmt 0 view .LVU282
 1045 00a2 B0EE490A 		vmov.f32	s0, s18
 1046 00a6 F0EE680A 		vmov.f32	s1, s17
 1047 00aa 3A46     		mov	r2, r7
 1048 00ac 3146     		mov	r1, r6
 1049 00ae 04F12C00 		add	r0, r4, #44
 1050              	.LVL88:
  71:../eurorack/plaits/dsp/oscillator/oscillator.h ****   }
 1051              		.loc 3 71 32 view .LVU283
 1052 00b2 FFF7FEFF 		bl	_ZN6plaits10Oscillator6RenderILNS_15OscillatorShapeE3ELb0ELb0EEEvffPKfPfj.isra.0
 1053              	.LVL89:
  71:../eurorack/plaits/dsp/oscillator/oscillator.h ****   }
 1054              		.loc 3 71 32 view .LVU284
 1055              	.LBE243:
 1056              	.LBE242:
  78:../eurorack/plaits/dsp/engine/waveshaping_engine.cc **** 
  79:../eurorack/plaits/dsp/engine/waveshaping_engine.cc ****   // Try to estimate how rich the spectrum is, and reduce the range of the
  80:../eurorack/plaits/dsp/engine/waveshaping_engine.cc ****   // waveshaping control accordingly.
  81:../eurorack/plaits/dsp/engine/waveshaping_engine.cc ****   const float slope = 3.0f + fabsf(parameters.morph - 0.5f) * 5.0f;
 1057              		.loc 1 81 3 is_stmt 1 view .LVU285
 1058              		.loc 1 81 53 is_stmt 0 view .LVU286
 1059 00b6 D8ED037A 		vldr.32	s15, [r8, #12]
 1060              		.loc 1 81 15 view .LVU287
 1061 00ba F0EE084A 		vmov.f32	s9, #3.0e+0
  82:../eurorack/plaits/dsp/engine/waveshaping_engine.cc ****   const float shape_amount = fabsf(parameters.harmonics - 0.5f) * 2.0f;
 1062              		.loc 1 82 57 view .LVU288
ARM GAS  /var/folders/y7/g6pkzsp12sx54x3s3mvyn15r0000gn/T//ccLO9Aj4.s 			page 33


 1063 00be 98ED045A 		vldr.32	s10, [r8, #16]
  81:../eurorack/plaits/dsp/engine/waveshaping_engine.cc ****   const float shape_amount = fabsf(parameters.harmonics - 0.5f) * 2.0f;
 1064              		.loc 1 81 53 view .LVU289
 1065 00c2 77EEE87A 		vsub.f32	s15, s15, s17
  81:../eurorack/plaits/dsp/engine/waveshaping_engine.cc ****   const float shape_amount = fabsf(parameters.harmonics - 0.5f) * 2.0f;
 1066              		.loc 1 81 15 view .LVU290
 1067 00c6 F1EE043A 		vmov.f32	s7, #5.0e+0
 1068 00ca F0EE640A 		vmov.f32	s1, s9
  81:../eurorack/plaits/dsp/engine/waveshaping_engine.cc ****   const float shape_amount = fabsf(parameters.harmonics - 0.5f) * 2.0f;
 1069              		.loc 1 81 35 view .LVU291
 1070 00ce F0EEE77A 		vabs.f32	s15, s15
 1071              		.loc 1 82 57 view .LVU292
 1072 00d2 35EE685A 		vsub.f32	s10, s10, s17
  83:../eurorack/plaits/dsp/engine/waveshaping_engine.cc ****   const float shape_amount_attenuation = Tame(f0, slope, 16.0f);
 1073              		.loc 1 83 46 view .LVU293
 1074 00d6 B3EE001A 		vmov.f32	s2, #1.6e+1
  81:../eurorack/plaits/dsp/engine/waveshaping_engine.cc ****   const float shape_amount = fabsf(parameters.harmonics - 0.5f) * 2.0f;
 1075              		.loc 1 81 15 view .LVU294
 1076 00da E7EEA30A 		vfma.f32	s1, s15, s7
 1077              	.LVL90:
  82:../eurorack/plaits/dsp/engine/waveshaping_engine.cc ****   const float shape_amount = fabsf(parameters.harmonics - 0.5f) * 2.0f;
 1078              		.loc 1 82 3 is_stmt 1 view .LVU295
  82:../eurorack/plaits/dsp/engine/waveshaping_engine.cc ****   const float shape_amount = fabsf(parameters.harmonics - 0.5f) * 2.0f;
 1079              		.loc 1 82 35 is_stmt 0 view .LVU296
 1080 00de F0EEC57A 		vabs.f32	s15, s10
 1081              		.loc 1 83 46 view .LVU297
 1082 00e2 B0EE490A 		vmov.f32	s0, s18
  82:../eurorack/plaits/dsp/engine/waveshaping_engine.cc ****   const float shape_amount = fabsf(parameters.harmonics - 0.5f) * 2.0f;
 1083              		.loc 1 82 15 view .LVU298
 1084 00e6 37EEA76A 		vadd.f32	s12, s15, s15
 1085              	.LVL91:
 1086              		.loc 1 83 3 is_stmt 1 view .LVU299
 1087              		.loc 1 83 46 is_stmt 0 view .LVU300
 1088 00ea FFF7FEFF 		bl	_ZN6plaits4TameEfff
 1089              	.LVL92:
  84:../eurorack/plaits/dsp/engine/waveshaping_engine.cc ****   const float wavefolder_gain = parameters.timbre;
  85:../eurorack/plaits/dsp/engine/waveshaping_engine.cc ****   const float wavefolder_gain_attenuation = Tame(
 1090              		.loc 1 85 49 view .LVU301
 1091 00ee B2EE081A 		vmov.f32	s2, #1.2e+1
  84:../eurorack/plaits/dsp/engine/waveshaping_engine.cc ****   const float wavefolder_gain = parameters.timbre;
 1092              		.loc 1 84 15 view .LVU302
 1093 00f2 98ED024A 		vldr.32	s8, [r8, #8]
  83:../eurorack/plaits/dsp/engine/waveshaping_engine.cc ****   const float shape_amount_attenuation = Tame(f0, slope, 16.0f);
 1094              		.loc 1 83 46 view .LVU303
 1095 00f6 F0EE405A 		vmov.f32	s11, s0
 1096              	.LVL93:
  84:../eurorack/plaits/dsp/engine/waveshaping_engine.cc ****   const float wavefolder_gain = parameters.timbre;
 1097              		.loc 1 84 3 is_stmt 1 view .LVU304
 1098              		.loc 1 85 3 view .LVU305
  86:../eurorack/plaits/dsp/engine/waveshaping_engine.cc ****       f0,
  87:../eurorack/plaits/dsp/engine/waveshaping_engine.cc ****       slope * (3.0f + shape_amount * shape_amount_attenuation * 5.0f),
 1099              		.loc 1 87 36 is_stmt 0 view .LVU306
 1100 00fa 66EE007A 		vmul.f32	s15, s12, s0
  85:../eurorack/plaits/dsp/engine/waveshaping_engine.cc ****       f0,
 1101              		.loc 1 85 49 view .LVU307
 1102 00fe B0EE490A 		vmov.f32	s0, s18
 1103              	.LVL94:
ARM GAS  /var/folders/y7/g6pkzsp12sx54x3s3mvyn15r0000gn/T//ccLO9Aj4.s 			page 34


 1104              		.loc 1 87 21 view .LVU308
 1105 0102 E7EEA34A 		vfma.f32	s9, s15, s7
  85:../eurorack/plaits/dsp/engine/waveshaping_engine.cc ****       f0,
 1106              		.loc 1 85 49 view .LVU309
 1107 0106 64EEA00A 		vmul.f32	s1, s9, s1
 1108              	.LVL95:
  85:../eurorack/plaits/dsp/engine/waveshaping_engine.cc ****       f0,
 1109              		.loc 1 85 49 view .LVU310
 1110 010a FFF7FEFF 		bl	_ZN6plaits4TameEfff
 1111              	.LVL96:
  88:../eurorack/plaits/dsp/engine/waveshaping_engine.cc ****       12.0f);
  89:../eurorack/plaits/dsp/engine/waveshaping_engine.cc ****   
  90:../eurorack/plaits/dsp/engine/waveshaping_engine.cc ****   // Apply waveshaper / wavefolder.
  91:../eurorack/plaits/dsp/engine/waveshaping_engine.cc ****   ParameterInterpolator shape_modulation(
 1112              		.loc 1 91 3 is_stmt 1 view .LVU311
  92:../eurorack/plaits/dsp/engine/waveshaping_engine.cc ****       &previous_shape_,
  93:../eurorack/plaits/dsp/engine/waveshaping_engine.cc ****       0.5f + (parameters.harmonics - 0.5f) * shape_amount_attenuation,
  94:../eurorack/plaits/dsp/engine/waveshaping_engine.cc ****       size);
 1113              		.loc 1 94 11 is_stmt 0 view .LVU312
 1114 010e F0EE687A 		vmov.f32	s15, s17
 1115              	.LBB244:
 1116              	.LBB245:
 1117              	.LBB246:
  56:../eurorack/stmlib/dsp/parameter_interpolator.h ****   }
 1118              		.loc 6 56 41 view .LVU313
 1119 0112 07EE107A 		vmov	s14, r7	@ int
  55:../eurorack/stmlib/dsp/parameter_interpolator.h ****     increment_ = (new_value - *state) / static_cast<float>(size);
 1120              		.loc 6 55 14 view .LVU314
 1121 0116 94ED129A 		vldr.32	s18, [r4, #72]
 1122              	.LVL97:
  55:../eurorack/stmlib/dsp/parameter_interpolator.h ****     increment_ = (new_value - *state) / static_cast<float>(size);
 1123              		.loc 6 55 14 view .LVU315
 1124              	.LBE246:
 1125              	.LBE245:
 1126              	.LBE244:
 1127              	.LBB253:
 1128              	.LBB254:
 1129              	.LBB255:
 1130 011a D4ED139A 		vldr.32	s19, [r4, #76]
 1131 011e 05EB8707 		add	r7, r5, r7, lsl #2
 1132              	.LBE255:
 1133              	.LBE254:
 1134              	.LBE253:
 1135              		.loc 1 94 11 view .LVU316
 1136 0122 E5EE257A 		vfma.f32	s15, s10, s11
 1137              	.LVL98:
 1138              	.LBB260:
 1139              	.LBI244:
  39:../eurorack/stmlib/dsp/parameter_interpolator.h ****     Init(state, new_value, size);
 1140              		.loc 6 39 3 is_stmt 1 view .LVU317
 1141              	.LBB250:
 1142              	.LBI245:
  53:../eurorack/stmlib/dsp/parameter_interpolator.h ****     state_ = state;
 1143              		.loc 6 53 15 view .LVU318
 1144              	.LBB247:
  54:../eurorack/stmlib/dsp/parameter_interpolator.h ****     value_ = *state;
 1145              		.loc 6 54 5 view .LVU319
ARM GAS  /var/folders/y7/g6pkzsp12sx54x3s3mvyn15r0000gn/T//ccLO9Aj4.s 			page 35


  55:../eurorack/stmlib/dsp/parameter_interpolator.h ****     increment_ = (new_value - *state) / static_cast<float>(size);
 1146              		.loc 6 55 5 view .LVU320
  56:../eurorack/stmlib/dsp/parameter_interpolator.h ****   }
 1147              		.loc 6 56 5 view .LVU321
 1148              	.LBE247:
 1149              	.LBE250:
 1150              	.LBE260:
 1151              	.LBB261:
 1152              	.LBB262:
 1153              	.LBB263:
  55:../eurorack/stmlib/dsp/parameter_interpolator.h ****     increment_ = (new_value - *state) / static_cast<float>(size);
 1154              		.loc 6 55 14 is_stmt 0 view .LVU322
 1155 0126 94ED14AA 		vldr.32	s20, [r4, #80]
 1156              	.LBE263:
 1157              	.LBE262:
 1158              	.LBE261:
 1159              	.LBB270:
 1160              	.LBB251:
 1161              	.LBB248:
  56:../eurorack/stmlib/dsp/parameter_interpolator.h ****   }
 1162              		.loc 6 56 41 view .LVU323
 1163 012a F8EE476A 		vcvt.f32.u32	s13, s14
 1164              	.LBE248:
 1165              	.LBE251:
 1166              	.LBE270:
  95:../eurorack/plaits/dsp/engine/waveshaping_engine.cc ****   ParameterInterpolator wf_gain_modulation(
  96:../eurorack/plaits/dsp/engine/waveshaping_engine.cc ****       &previous_wavefolder_gain_,
  97:../eurorack/plaits/dsp/engine/waveshaping_engine.cc ****       0.03f + 0.46f * wavefolder_gain * wavefolder_gain_attenuation,
 1167              		.loc 1 97 21 view .LVU324
 1168 012e 9FED6B7A 		vldr.32	s14, .L35+28
 1169              	.LBB271:
 1170              	.LBB267:
 1171              	.LBB264:
  56:../eurorack/stmlib/dsp/parameter_interpolator.h ****   }
 1172              		.loc 6 56 29 view .LVU325
 1173 0132 B0EE4A6A 		vmov.f32	s12, s20
 1174              	.LVL99:
  56:../eurorack/stmlib/dsp/parameter_interpolator.h ****   }
 1175              		.loc 6 56 29 view .LVU326
 1176              	.LBE264:
 1177              	.LBE267:
 1178              	.LBE271:
 1179              		.loc 1 97 21 view .LVU327
 1180 0136 24EE077A 		vmul.f32	s14, s8, s14
 1181              	.LBB272:
 1182              	.LBB252:
 1183              	.LBB249:
  56:../eurorack/stmlib/dsp/parameter_interpolator.h ****   }
 1184              		.loc 6 56 29 view .LVU328
 1185 013a 77EEC97A 		vsub.f32	s15, s15, s18
 1186              	.LVL100:
  56:../eurorack/stmlib/dsp/parameter_interpolator.h ****   }
 1187              		.loc 6 56 39 view .LVU329
 1188 013e C7EEA6BA 		vdiv.f32	s23, s15, s13
 1189              	.LVL101:
  56:../eurorack/stmlib/dsp/parameter_interpolator.h ****   }
 1190              		.loc 6 56 39 view .LVU330
ARM GAS  /var/folders/y7/g6pkzsp12sx54x3s3mvyn15r0000gn/T//ccLO9Aj4.s 			page 36


 1191              	.LBE249:
 1192              	.LBE252:
 1193              	.LBE272:
  95:../eurorack/plaits/dsp/engine/waveshaping_engine.cc ****   ParameterInterpolator wf_gain_modulation(
 1194              		.loc 1 95 3 is_stmt 1 view .LVU331
  98:../eurorack/plaits/dsp/engine/waveshaping_engine.cc ****       size);
 1195              		.loc 1 98 11 is_stmt 0 view .LVU332
 1196 0142 DFED677A 		vldr.32	s15, .L35+32
 1197 0146 E7EE007A 		vfma.f32	s15, s14, s0
 1198              	.LVL102:
 1199              	.LBB273:
 1200              	.LBI253:
  39:../eurorack/stmlib/dsp/parameter_interpolator.h ****     Init(state, new_value, size);
 1201              		.loc 6 39 3 is_stmt 1 view .LVU333
 1202              	.LBB258:
 1203              	.LBI254:
  53:../eurorack/stmlib/dsp/parameter_interpolator.h ****     state_ = state;
 1204              		.loc 6 53 15 view .LVU334
 1205              	.LBB256:
  54:../eurorack/stmlib/dsp/parameter_interpolator.h ****     value_ = *state;
 1206              		.loc 6 54 5 view .LVU335
  55:../eurorack/stmlib/dsp/parameter_interpolator.h ****     increment_ = (new_value - *state) / static_cast<float>(size);
 1207              		.loc 6 55 5 view .LVU336
  56:../eurorack/stmlib/dsp/parameter_interpolator.h ****   }
 1208              		.loc 6 56 5 view .LVU337
 1209              	.LBE256:
 1210              	.LBE258:
 1211              	.LBE273:
  99:../eurorack/plaits/dsp/engine/waveshaping_engine.cc ****   const float overtone_gain = parameters.timbre * (2.0f - parameters.timbre);
 1212              		.loc 1 99 57 is_stmt 0 view .LVU338
 1213 014a B0EE007A 		vmov.f32	s14, #2.0e+0
 1214              	.LBB274:
 1215              	.LBB259:
 1216              	.LBB257:
  56:../eurorack/stmlib/dsp/parameter_interpolator.h ****   }
 1217              		.loc 6 56 29 view .LVU339
 1218 014e 77EEE97A 		vsub.f32	s15, s15, s19
 1219              	.LVL103:
  56:../eurorack/stmlib/dsp/parameter_interpolator.h ****   }
 1220              		.loc 6 56 39 view .LVU340
 1221 0152 87EEA6BA 		vdiv.f32	s22, s15, s13
 1222              	.LVL104:
  56:../eurorack/stmlib/dsp/parameter_interpolator.h ****   }
 1223              		.loc 6 56 39 view .LVU341
 1224              	.LBE257:
 1225              	.LBE259:
 1226              	.LBE274:
 1227              		.loc 1 99 3 is_stmt 1 view .LVU342
 1228              		.loc 1 99 57 is_stmt 0 view .LVU343
 1229 0156 77EE447A 		vsub.f32	s15, s14, s8
 1230              		.loc 1 99 15 view .LVU344
 1231 015a 67EE847A 		vmul.f32	s15, s15, s8
 1232              	.LVL105:
 100:../eurorack/plaits/dsp/engine/waveshaping_engine.cc ****   ParameterInterpolator overtone_gain_modulation(
 1233              		.loc 1 100 3 is_stmt 1 view .LVU345
 1234              	.LBB275:
 1235              	.LBI261:
ARM GAS  /var/folders/y7/g6pkzsp12sx54x3s3mvyn15r0000gn/T//ccLO9Aj4.s 			page 37


  39:../eurorack/stmlib/dsp/parameter_interpolator.h ****     Init(state, new_value, size);
 1236              		.loc 6 39 3 view .LVU346
 1237              	.LBB268:
 1238              	.LBI262:
  53:../eurorack/stmlib/dsp/parameter_interpolator.h ****     state_ = state;
 1239              		.loc 6 53 15 view .LVU347
 1240              	.LBB265:
  54:../eurorack/stmlib/dsp/parameter_interpolator.h ****     value_ = *state;
 1241              		.loc 6 54 5 view .LVU348
  55:../eurorack/stmlib/dsp/parameter_interpolator.h ****     increment_ = (new_value - *state) / static_cast<float>(size);
 1242              		.loc 6 55 5 view .LVU349
  56:../eurorack/stmlib/dsp/parameter_interpolator.h ****   }
 1243              		.loc 6 56 5 view .LVU350
 1244              	.LBE265:
 1245              	.LBE268:
 1246              	.LBE275:
 101:../eurorack/plaits/dsp/engine/waveshaping_engine.cc ****       &previous_overtone_gain_,
 102:../eurorack/plaits/dsp/engine/waveshaping_engine.cc ****       overtone_gain * (2.0f - overtone_gain),
 1247              		.loc 1 102 29 is_stmt 0 view .LVU351
 1248 015e 37EE677A 		vsub.f32	s14, s14, s15
 1249              	.LBB276:
 1250              	.LBB269:
 1251              	.LBB266:
  56:../eurorack/stmlib/dsp/parameter_interpolator.h ****   }
 1252              		.loc 6 56 29 view .LVU352
 1253 0162 97EE276A 		vfnms.f32	s12, s14, s15
 1254              	.LVL106:
  56:../eurorack/stmlib/dsp/parameter_interpolator.h ****   }
 1255              		.loc 6 56 39 view .LVU353
 1256 0166 C6EE26AA 		vdiv.f32	s21, s12, s13
 1257              	.LVL107:
  56:../eurorack/stmlib/dsp/parameter_interpolator.h ****   }
 1258              		.loc 6 56 39 view .LVU354
 1259              	.LBE266:
 1260              	.LBE269:
 1261              	.LBE276:
 103:../eurorack/plaits/dsp/engine/waveshaping_engine.cc ****       size);
 104:../eurorack/plaits/dsp/engine/waveshaping_engine.cc ****   
 105:../eurorack/plaits/dsp/engine/waveshaping_engine.cc ****   for (size_t i = 0; i < size; ++i) {
 1262              		.loc 1 105 3 is_stmt 1 view .LVU355
 1263              	.L32:
 1264              	.LBB277:
 1265              		.loc 1 105 24 discriminator 1 view .LVU356
 1266 016a AF42     		cmp	r7, r5
 1267 016c 0AD1     		bne	.L33
 1268              	.LVL108:
 1269              		.loc 1 105 24 is_stmt 0 discriminator 1 view .LVU357
 1270              	.LBE277:
 1271              	.LBB301:
 1272              	.LBI301:
  49:../eurorack/stmlib/dsp/parameter_interpolator.h ****     *state_ = value_;
 1273              		.loc 6 49 3 is_stmt 1 view .LVU358
 1274              	.LBB302:
  50:../eurorack/stmlib/dsp/parameter_interpolator.h ****   }
 1275              		.loc 6 50 5 view .LVU359
  50:../eurorack/stmlib/dsp/parameter_interpolator.h ****   }
 1276              		.loc 6 50 13 is_stmt 0 view .LVU360
ARM GAS  /var/folders/y7/g6pkzsp12sx54x3s3mvyn15r0000gn/T//ccLO9Aj4.s 			page 38


 1277 016e 84ED14AA 		vstr.32	s20, [r4, #80]
 1278              	.LVL109:
  50:../eurorack/stmlib/dsp/parameter_interpolator.h ****   }
 1279              		.loc 6 50 13 view .LVU361
 1280              	.LBE302:
 1281              	.LBE301:
 1282              	.LBB303:
 1283              	.LBI303:
  49:../eurorack/stmlib/dsp/parameter_interpolator.h ****     *state_ = value_;
 1284              		.loc 6 49 3 is_stmt 1 view .LVU362
 1285              	.LBB304:
  50:../eurorack/stmlib/dsp/parameter_interpolator.h ****   }
 1286              		.loc 6 50 5 view .LVU363
  50:../eurorack/stmlib/dsp/parameter_interpolator.h ****   }
 1287              		.loc 6 50 13 is_stmt 0 view .LVU364
 1288 0172 C4ED139A 		vstr.32	s19, [r4, #76]
 1289              	.LVL110:
  50:../eurorack/stmlib/dsp/parameter_interpolator.h ****   }
 1290              		.loc 6 50 13 view .LVU365
 1291              	.LBE304:
 1292              	.LBE303:
 1293              	.LBB305:
 1294              	.LBI305:
  49:../eurorack/stmlib/dsp/parameter_interpolator.h ****     *state_ = value_;
 1295              		.loc 6 49 3 is_stmt 1 view .LVU366
 1296              	.LBB306:
  50:../eurorack/stmlib/dsp/parameter_interpolator.h ****   }
 1297              		.loc 6 50 5 view .LVU367
  50:../eurorack/stmlib/dsp/parameter_interpolator.h ****   }
 1298              		.loc 6 50 13 is_stmt 0 view .LVU368
 1299 0176 84ED129A 		vstr.32	s18, [r4, #72]
 1300              	.LVL111:
  50:../eurorack/stmlib/dsp/parameter_interpolator.h ****   }
 1301              		.loc 6 50 13 view .LVU369
 1302              	.LBE306:
 1303              	.LBE305:
 106:../eurorack/plaits/dsp/engine/waveshaping_engine.cc ****     float shape = shape_modulation.Next() * 3.9999f;
 107:../eurorack/plaits/dsp/engine/waveshaping_engine.cc ****     MAKE_INTEGRAL_FRACTIONAL(shape);
 108:../eurorack/plaits/dsp/engine/waveshaping_engine.cc ****     
 109:../eurorack/plaits/dsp/engine/waveshaping_engine.cc ****     const int16_t* shape_1 = lookup_table_i16_table[shape_integral];
 110:../eurorack/plaits/dsp/engine/waveshaping_engine.cc ****     const int16_t* shape_2 = lookup_table_i16_table[shape_integral + 1];
 111:../eurorack/plaits/dsp/engine/waveshaping_engine.cc ****     
 112:../eurorack/plaits/dsp/engine/waveshaping_engine.cc ****     float ws_index = 127.0f * out[i] + 128.0f;
 113:../eurorack/plaits/dsp/engine/waveshaping_engine.cc ****     MAKE_INTEGRAL_FRACTIONAL(ws_index)
 114:../eurorack/plaits/dsp/engine/waveshaping_engine.cc ****     ws_index_integral &= 255;
 115:../eurorack/plaits/dsp/engine/waveshaping_engine.cc ****     
 116:../eurorack/plaits/dsp/engine/waveshaping_engine.cc ****     float x0 = static_cast<float>(shape_1[ws_index_integral]) / 32768.0f;
 117:../eurorack/plaits/dsp/engine/waveshaping_engine.cc ****     float x1 = static_cast<float>(shape_1[ws_index_integral + 1]) / 32768.0f;
 118:../eurorack/plaits/dsp/engine/waveshaping_engine.cc ****     float x = x0 + (x1 - x0) * ws_index_fractional;
 119:../eurorack/plaits/dsp/engine/waveshaping_engine.cc **** 
 120:../eurorack/plaits/dsp/engine/waveshaping_engine.cc ****     float y0 = static_cast<float>(shape_2[ws_index_integral]) / 32768.0f;
 121:../eurorack/plaits/dsp/engine/waveshaping_engine.cc ****     float y1 = static_cast<float>(shape_2[ws_index_integral + 1]) / 32768.0f;
 122:../eurorack/plaits/dsp/engine/waveshaping_engine.cc ****     float y = y0 + (y1 - y0) * ws_index_fractional;
 123:../eurorack/plaits/dsp/engine/waveshaping_engine.cc ****     
 124:../eurorack/plaits/dsp/engine/waveshaping_engine.cc ****     float mix = x + (y - x) * shape_fractional;
 125:../eurorack/plaits/dsp/engine/waveshaping_engine.cc ****     float index = mix * wf_gain_modulation.Next() + 0.5f;
 126:../eurorack/plaits/dsp/engine/waveshaping_engine.cc ****     float fold = InterpolateHermite(
ARM GAS  /var/folders/y7/g6pkzsp12sx54x3s3mvyn15r0000gn/T//ccLO9Aj4.s 			page 39


 127:../eurorack/plaits/dsp/engine/waveshaping_engine.cc ****         lut_fold + 1, index, 512.0f);
 128:../eurorack/plaits/dsp/engine/waveshaping_engine.cc ****     float fold_2 = -InterpolateHermite(
 129:../eurorack/plaits/dsp/engine/waveshaping_engine.cc ****         lut_fold_2 + 1, index, 512.0f);
 130:../eurorack/plaits/dsp/engine/waveshaping_engine.cc ****     
 131:../eurorack/plaits/dsp/engine/waveshaping_engine.cc ****     float sine = Sine(aux[i] * 0.25f + 0.5f);
 132:../eurorack/plaits/dsp/engine/waveshaping_engine.cc ****     out[i] = fold;
 133:../eurorack/plaits/dsp/engine/waveshaping_engine.cc ****     aux[i] = sine + (fold_2 - sine) * overtone_gain_modulation.Next();
 134:../eurorack/plaits/dsp/engine/waveshaping_engine.cc ****   }
 135:../eurorack/plaits/dsp/engine/waveshaping_engine.cc **** }
 1304              		.loc 1 135 1 view .LVU370
 1305 017a 02B0     		add	sp, sp, #8
 1306              		.cfi_remember_state
 1307              		.cfi_def_cfa_offset 72
 1308              		@ sp needed
 1309 017c BDEC0C8B 		vldm	sp!, {d8-d13}
 1310              		.cfi_restore 90
 1311              		.cfi_restore 91
 1312              		.cfi_restore 88
 1313              		.cfi_restore 89
 1314              		.cfi_restore 86
 1315              		.cfi_restore 87
 1316              		.cfi_restore 84
 1317              		.cfi_restore 85
 1318              		.cfi_restore 82
 1319              		.cfi_restore 83
 1320              		.cfi_restore 80
 1321              		.cfi_restore 81
 1322              		.cfi_def_cfa_offset 24
 1323              	.LVL112:
 1324              		.loc 1 135 1 view .LVU371
 1325 0180 BDE8F081 		pop	{r4, r5, r6, r7, r8, pc}
 1326              	.LVL113:
 1327              	.L33:
 1328              		.cfi_restore_state
 1329              	.LBB307:
 1330              	.LBB278:
 106:../eurorack/plaits/dsp/engine/waveshaping_engine.cc ****     float shape = shape_modulation.Next() * 3.9999f;
 1331              		.loc 1 106 5 is_stmt 1 view .LVU372
 1332              	.LBB279:
 1333              	.LBI279:
  59:../eurorack/stmlib/dsp/parameter_interpolator.h ****     value_ += increment_;
 1334              		.loc 6 59 16 view .LVU373
 1335              	.LBB280:
  60:../eurorack/stmlib/dsp/parameter_interpolator.h ****     return value_;
 1336              		.loc 6 60 5 view .LVU374
  60:../eurorack/stmlib/dsp/parameter_interpolator.h ****     return value_;
 1337              		.loc 6 60 12 is_stmt 0 view .LVU375
 1338 0184 39EE2B9A 		vadd.f32	s18, s18, s23
 1339              	.LVL114:
 1340              		.loc 6 61 5 is_stmt 1 view .LVU376
 1341              		.loc 6 61 5 is_stmt 0 view .LVU377
 1342              	.LBE280:
 1343              	.LBE279:
 106:../eurorack/plaits/dsp/engine/waveshaping_engine.cc ****     float shape = shape_modulation.Next() * 3.9999f;
 1344              		.loc 1 106 45 discriminator 1 view .LVU378
 1345 0188 DFED567A 		vldr.32	s15, .L35+36
 112:../eurorack/plaits/dsp/engine/waveshaping_engine.cc ****     MAKE_INTEGRAL_FRACTIONAL(ws_index)
ARM GAS  /var/folders/y7/g6pkzsp12sx54x3s3mvyn15r0000gn/T//ccLO9Aj4.s 			page 40


 1346              		.loc 1 112 11 view .LVU379
 1347 018c B0EE486A 		vmov.f32	s12, s16
 109:../eurorack/plaits/dsp/engine/waveshaping_engine.cc ****     const int16_t* shape_2 = lookup_table_i16_table[shape_integral + 1];
 1348              		.loc 1 109 20 view .LVU380
 1349 0190 554A     		ldr	r2, .L35+40
 117:../eurorack/plaits/dsp/engine/waveshaping_engine.cc ****     float x = x0 + (x1 - x0) * ws_index_fractional;
 1350              		.loc 1 117 11 view .LVU381
 1351 0192 DFED566A 		vldr.32	s13, .L35+44
 1352              	.LBB281:
 1353              	.LBB282:
  60:../eurorack/stmlib/dsp/parameter_interpolator.h ****     return value_;
 1354              		.loc 6 60 12 view .LVU382
 1355 0196 79EE8B9A 		vadd.f32	s19, s19, s22
 1356              	.LVL115:
  60:../eurorack/stmlib/dsp/parameter_interpolator.h ****     return value_;
 1357              		.loc 6 60 12 view .LVU383
 1358              	.LBE282:
 1359              	.LBE281:
 106:../eurorack/plaits/dsp/engine/waveshaping_engine.cc ****     MAKE_INTEGRAL_FRACTIONAL(shape);
 1360              		.loc 1 106 45 discriminator 1 view .LVU384
 1361 019a 69EE277A 		vmul.f32	s15, s18, s15
 1362              	.LVL116:
 107:../eurorack/plaits/dsp/engine/waveshaping_engine.cc ****     
 1363              		.loc 1 107 5 is_stmt 1 view .LVU385
 126:../eurorack/plaits/dsp/engine/waveshaping_engine.cc ****         lut_fold + 1, index, 512.0f);
 1364              		.loc 1 126 36 is_stmt 0 view .LVU386
 1365 019e DFED54CA 		vldr.32	s25, .L35+48
 125:../eurorack/plaits/dsp/engine/waveshaping_engine.cc ****     float fold = InterpolateHermite(
 1366              		.loc 1 125 53 discriminator 1 view .LVU387
 1367 01a2 B0EE68DA 		vmov.f32	s26, s17
 126:../eurorack/plaits/dsp/engine/waveshaping_engine.cc ****         lut_fold + 1, index, 512.0f);
 1368              		.loc 1 126 36 view .LVU388
 1369 01a6 F0EE6C0A 		vmov.f32	s1, s25
 107:../eurorack/plaits/dsp/engine/waveshaping_engine.cc ****     
 1370              		.loc 1 107 5 view .LVU389
 1371 01aa BDEEE77A 		vcvt.s32.f32	s14, s15
 1372              	.LBB284:
 1373              	.LBB285:
  60:../eurorack/stmlib/dsp/parameter_interpolator.h ****     return value_;
 1374              		.loc 6 60 12 view .LVU390
 1375 01ae 3AEE2AAA 		vadd.f32	s20, s20, s21
 1376              	.LVL117:
  60:../eurorack/stmlib/dsp/parameter_interpolator.h ****     return value_;
 1377              		.loc 6 60 12 view .LVU391
 1378              	.LBE285:
 1379              	.LBE284:
 107:../eurorack/plaits/dsp/engine/waveshaping_engine.cc ****     
 1380              		.loc 1 107 5 view .LVU392
 1381 01b2 17EE103A 		vmov	r3, s14	@ int
 1382              	.LVL118:
 107:../eurorack/plaits/dsp/engine/waveshaping_engine.cc ****     
 1383              		.loc 1 107 5 is_stmt 1 view .LVU393
 1384 01b6 B8EEC77A 		vcvt.f32.s32	s14, s14
 109:../eurorack/plaits/dsp/engine/waveshaping_engine.cc ****     const int16_t* shape_2 = lookup_table_i16_table[shape_integral + 1];
 1385              		.loc 1 109 20 is_stmt 0 view .LVU394
 1386 01ba 52F82300 		ldr	r0, [r2, r3, lsl #2]
 110:../eurorack/plaits/dsp/engine/waveshaping_engine.cc ****     
ARM GAS  /var/folders/y7/g6pkzsp12sx54x3s3mvyn15r0000gn/T//ccLO9Aj4.s 			page 41


 1387              		.loc 1 110 20 view .LVU395
 1388 01be 0133     		adds	r3, r3, #1
 1389              	.LVL119:
 107:../eurorack/plaits/dsp/engine/waveshaping_engine.cc ****     
 1390              		.loc 1 107 5 view .LVU396
 1391 01c0 37EEC75A 		vsub.f32	s10, s15, s14
 1392              	.LVL120:
 107:../eurorack/plaits/dsp/engine/waveshaping_engine.cc ****     
 1393              		.loc 1 107 36 is_stmt 1 view .LVU397
 109:../eurorack/plaits/dsp/engine/waveshaping_engine.cc ****     const int16_t* shape_2 = lookup_table_i16_table[shape_integral + 1];
 1394              		.loc 1 109 5 view .LVU398
 110:../eurorack/plaits/dsp/engine/waveshaping_engine.cc ****     
 1395              		.loc 1 110 5 view .LVU399
 112:../eurorack/plaits/dsp/engine/waveshaping_engine.cc ****     MAKE_INTEGRAL_FRACTIONAL(ws_index)
 1396              		.loc 1 112 36 is_stmt 0 view .LVU400
 1397 01c4 95ED007A 		vldr.32	s14, [r5]
 112:../eurorack/plaits/dsp/engine/waveshaping_engine.cc ****     MAKE_INTEGRAL_FRACTIONAL(ws_index)
 1398              		.loc 1 112 11 view .LVU401
 1399 01c8 DFED3E7A 		vldr.32	s15, .L35+4
 1400              	.LVL121:
 110:../eurorack/plaits/dsp/engine/waveshaping_engine.cc ****     
 1401              		.loc 1 110 20 view .LVU402
 1402 01cc 52F82310 		ldr	r1, [r2, r3, lsl #2]
 1403              	.LVL122:
 112:../eurorack/plaits/dsp/engine/waveshaping_engine.cc ****     MAKE_INTEGRAL_FRACTIONAL(ws_index)
 1404              		.loc 1 112 5 is_stmt 1 view .LVU403
 112:../eurorack/plaits/dsp/engine/waveshaping_engine.cc ****     MAKE_INTEGRAL_FRACTIONAL(ws_index)
 1405              		.loc 1 112 11 is_stmt 0 view .LVU404
 1406 01d0 A7EE276A 		vfma.f32	s12, s14, s15
 1407              	.LVL123:
 113:../eurorack/plaits/dsp/engine/waveshaping_engine.cc ****     ws_index_integral &= 255;
 1408              		.loc 1 113 5 is_stmt 1 view .LVU405
 1409 01d4 FDEEC67A 		vcvt.s32.f32	s15, s12
 1410 01d8 CDED017A 		vstr.32	s15, [sp, #4]	@ int
 1411              	.LVL124:
 113:../eurorack/plaits/dsp/engine/waveshaping_engine.cc ****     ws_index_integral &= 255;
 1412              		.loc 1 113 5 view .LVU406
 1413 01dc F8EEE77A 		vcvt.f32.s32	s15, s15
 1414              	.LVL125:
 114:../eurorack/plaits/dsp/engine/waveshaping_engine.cc ****     
 1415              		.loc 1 114 23 is_stmt 0 view .LVU407
 1416 01e0 9DF80430 		ldrb	r3, [sp, #4]	@ zero_extendqisi2
 1417              	.LVL126:
 116:../eurorack/plaits/dsp/engine/waveshaping_engine.cc ****     float x1 = static_cast<float>(shape_1[ws_index_integral + 1]) / 32768.0f;
 1418              		.loc 1 116 60 view .LVU408
 1419 01e4 5A00     		lsls	r2, r3, #1
 116:../eurorack/plaits/dsp/engine/waveshaping_engine.cc ****     float x1 = static_cast<float>(shape_1[ws_index_integral + 1]) / 32768.0f;
 1420              		.loc 1 116 16 view .LVU409
 1421 01e6 30F913C0 		ldrsh	ip, [r0, r3, lsl #1]
 113:../eurorack/plaits/dsp/engine/waveshaping_engine.cc ****     ws_index_integral &= 255;
 1422              		.loc 1 113 5 view .LVU410
 1423 01ea 36EE676A 		vsub.f32	s12, s12, s15
 1424              	.LVL127:
 114:../eurorack/plaits/dsp/engine/waveshaping_engine.cc ****     
 1425              		.loc 1 114 5 is_stmt 1 view .LVU411
 116:../eurorack/plaits/dsp/engine/waveshaping_engine.cc ****     float x1 = static_cast<float>(shape_1[ws_index_integral + 1]) / 32768.0f;
 1426              		.loc 1 116 5 view .LVU412
ARM GAS  /var/folders/y7/g6pkzsp12sx54x3s3mvyn15r0000gn/T//ccLO9Aj4.s 			page 42


 120:../eurorack/plaits/dsp/engine/waveshaping_engine.cc ****     float y1 = static_cast<float>(shape_2[ws_index_integral + 1]) / 32768.0f;
 1427              		.loc 1 120 16 is_stmt 0 view .LVU413
 1428 01ee 31F91330 		ldrsh	r3, [r1, r3, lsl #1]
 117:../eurorack/plaits/dsp/engine/waveshaping_engine.cc ****     float x = x0 + (x1 - x0) * ws_index_fractional;
 1429              		.loc 1 117 64 view .LVU414
 1430 01f2 0232     		adds	r2, r2, #2
 116:../eurorack/plaits/dsp/engine/waveshaping_engine.cc ****     float x1 = static_cast<float>(shape_1[ws_index_integral + 1]) / 32768.0f;
 1431              		.loc 1 116 16 view .LVU415
 1432 01f4 07EE10CA 		vmov	s14, ip	@ int
 1433              	.LVL128:
 120:../eurorack/plaits/dsp/engine/waveshaping_engine.cc ****     float y1 = static_cast<float>(shape_2[ws_index_integral + 1]) / 32768.0f;
 1434              		.loc 1 120 16 view .LVU416
 1435 01f8 05EE903A 		vmov	s11, r3	@ int
 117:../eurorack/plaits/dsp/engine/waveshaping_engine.cc ****     float x = x0 + (x1 - x0) * ws_index_fractional;
 1436              		.loc 1 117 16 view .LVU417
 1437 01fc 805E     		ldrsh	r0, [r0, r2]
 1438              	.LVL129:
 116:../eurorack/plaits/dsp/engine/waveshaping_engine.cc ****     float x1 = static_cast<float>(shape_1[ws_index_integral + 1]) / 32768.0f;
 1439              		.loc 1 116 16 view .LVU418
 1440 01fe B8EEC77A 		vcvt.f32.s32	s14, s14
 1441              	.LVL130:
 117:../eurorack/plaits/dsp/engine/waveshaping_engine.cc ****     float x = x0 + (x1 - x0) * ws_index_fractional;
 1442              		.loc 1 117 5 is_stmt 1 view .LVU419
 118:../eurorack/plaits/dsp/engine/waveshaping_engine.cc **** 
 1443              		.loc 1 118 5 view .LVU420
 121:../eurorack/plaits/dsp/engine/waveshaping_engine.cc ****     float y = y0 + (y1 - y0) * ws_index_fractional;
 1444              		.loc 1 121 16 is_stmt 0 view .LVU421
 1445 0202 8B5E     		ldrsh	r3, [r1, r2]
 120:../eurorack/plaits/dsp/engine/waveshaping_engine.cc ****     float y1 = static_cast<float>(shape_2[ws_index_integral + 1]) / 32768.0f;
 1446              		.loc 1 120 16 view .LVU422
 1447 0204 F8EEE55A 		vcvt.f32.s32	s11, s11
 117:../eurorack/plaits/dsp/engine/waveshaping_engine.cc ****     float x = x0 + (x1 - x0) * ws_index_fractional;
 1448              		.loc 1 117 16 view .LVU423
 1449 0208 07EE900A 		vmov	s15, r0	@ int
 126:../eurorack/plaits/dsp/engine/waveshaping_engine.cc ****         lut_fold + 1, index, 512.0f);
 1450              		.loc 1 126 36 view .LVU424
 1451 020c 3948     		ldr	r0, .L35+52
 117:../eurorack/plaits/dsp/engine/waveshaping_engine.cc ****     float x = x0 + (x1 - x0) * ws_index_fractional;
 1452              		.loc 1 117 16 view .LVU425
 1453 020e F8EEE77A 		vcvt.f32.s32	s15, s15
 117:../eurorack/plaits/dsp/engine/waveshaping_engine.cc ****     float x = x0 + (x1 - x0) * ws_index_fractional;
 1454              		.loc 1 117 11 view .LVU426
 1455 0212 67EEA67A 		vmul.f32	s15, s15, s13
 118:../eurorack/plaits/dsp/engine/waveshaping_engine.cc **** 
 1456              		.loc 1 118 24 view .LVU427
 1457 0216 E7EE667A 		vfms.f32	s15, s14, s13
 118:../eurorack/plaits/dsp/engine/waveshaping_engine.cc **** 
 1458              		.loc 1 118 30 view .LVU428
 1459 021a 67EE867A 		vmul.f32	s15, s15, s12
 118:../eurorack/plaits/dsp/engine/waveshaping_engine.cc **** 
 1460              		.loc 1 118 11 view .LVU429
 1461 021e E7EE267A 		vfma.f32	s15, s14, s13
 1462              	.LVL131:
 120:../eurorack/plaits/dsp/engine/waveshaping_engine.cc ****     float y1 = static_cast<float>(shape_2[ws_index_integral + 1]) / 32768.0f;
 1463              		.loc 1 120 5 is_stmt 1 view .LVU430
 121:../eurorack/plaits/dsp/engine/waveshaping_engine.cc ****     float y = y0 + (y1 - y0) * ws_index_fractional;
 1464              		.loc 1 121 5 view .LVU431
ARM GAS  /var/folders/y7/g6pkzsp12sx54x3s3mvyn15r0000gn/T//ccLO9Aj4.s 			page 43


 122:../eurorack/plaits/dsp/engine/waveshaping_engine.cc ****     
 1465              		.loc 1 122 5 view .LVU432
 121:../eurorack/plaits/dsp/engine/waveshaping_engine.cc ****     float y = y0 + (y1 - y0) * ws_index_fractional;
 1466              		.loc 1 121 16 is_stmt 0 view .LVU433
 1467 0222 07EE103A 		vmov	s14, r3	@ int
 1468              	.LVL132:
 121:../eurorack/plaits/dsp/engine/waveshaping_engine.cc ****     float y = y0 + (y1 - y0) * ws_index_fractional;
 1469              		.loc 1 121 16 view .LVU434
 1470 0226 B8EEC77A 		vcvt.f32.s32	s14, s14
 121:../eurorack/plaits/dsp/engine/waveshaping_engine.cc ****     float y = y0 + (y1 - y0) * ws_index_fractional;
 1471              		.loc 1 121 11 view .LVU435
 1472 022a 27EE267A 		vmul.f32	s14, s14, s13
 122:../eurorack/plaits/dsp/engine/waveshaping_engine.cc ****     
 1473              		.loc 1 122 24 view .LVU436
 1474 022e A5EEE67A 		vfms.f32	s14, s11, s13
 122:../eurorack/plaits/dsp/engine/waveshaping_engine.cc ****     
 1475              		.loc 1 122 30 view .LVU437
 1476 0232 27EE067A 		vmul.f32	s14, s14, s12
 122:../eurorack/plaits/dsp/engine/waveshaping_engine.cc ****     
 1477              		.loc 1 122 11 view .LVU438
 1478 0236 A5EEA67A 		vfma.f32	s14, s11, s13
 1479              	.LVL133:
 124:../eurorack/plaits/dsp/engine/waveshaping_engine.cc ****     float index = mix * wf_gain_modulation.Next() + 0.5f;
 1480              		.loc 1 124 5 is_stmt 1 view .LVU439
 124:../eurorack/plaits/dsp/engine/waveshaping_engine.cc ****     float index = mix * wf_gain_modulation.Next() + 0.5f;
 1481              		.loc 1 124 24 is_stmt 0 view .LVU440
 1482 023a 37EE677A 		vsub.f32	s14, s14, s15
 1483              	.LVL134:
 124:../eurorack/plaits/dsp/engine/waveshaping_engine.cc ****     float index = mix * wf_gain_modulation.Next() + 0.5f;
 1484              		.loc 1 124 11 view .LVU441
 1485 023e E7EE057A 		vfma.f32	s15, s14, s10
 1486              	.LVL135:
 125:../eurorack/plaits/dsp/engine/waveshaping_engine.cc ****     float fold = InterpolateHermite(
 1487              		.loc 1 125 5 is_stmt 1 view .LVU442
 1488              	.LBB287:
 1489              	.LBI281:
  59:../eurorack/stmlib/dsp/parameter_interpolator.h ****     value_ += increment_;
 1490              		.loc 6 59 16 view .LVU443
 1491              	.LBB283:
  60:../eurorack/stmlib/dsp/parameter_interpolator.h ****     return value_;
 1492              		.loc 6 60 5 view .LVU444
 1493              		.loc 6 61 5 view .LVU445
 1494              		.loc 6 61 5 is_stmt 0 view .LVU446
 1495              	.LBE283:
 1496              	.LBE287:
 125:../eurorack/plaits/dsp/engine/waveshaping_engine.cc ****     float fold = InterpolateHermite(
 1497              		.loc 1 125 53 discriminator 1 view .LVU447
 1498 0242 A7EEA9DA 		vfma.f32	s26, s15, s19
 1499              	.LVL136:
 126:../eurorack/plaits/dsp/engine/waveshaping_engine.cc ****         lut_fold + 1, index, 512.0f);
 1500              		.loc 1 126 5 is_stmt 1 view .LVU448
 126:../eurorack/plaits/dsp/engine/waveshaping_engine.cc ****         lut_fold + 1, index, 512.0f);
 1501              		.loc 1 126 36 is_stmt 0 view .LVU449
 1502 0246 B0EE4D0A 		vmov.f32	s0, s26
 1503 024a FFF7FEFF 		bl	_ZN6stmlib18InterpolateHermiteEPKfff
 1504              	.LVL137:
 128:../eurorack/plaits/dsp/engine/waveshaping_engine.cc ****         lut_fold_2 + 1, index, 512.0f);
ARM GAS  /var/folders/y7/g6pkzsp12sx54x3s3mvyn15r0000gn/T//ccLO9Aj4.s 			page 44


 1505              		.loc 1 128 39 view .LVU450
 1506 024e F0EE6C0A 		vmov.f32	s1, s25
 126:../eurorack/plaits/dsp/engine/waveshaping_engine.cc ****         lut_fold + 1, index, 512.0f);
 1507              		.loc 1 126 36 view .LVU451
 1508 0252 B0EE40CA 		vmov.f32	s24, s0
 1509              	.LVL138:
 128:../eurorack/plaits/dsp/engine/waveshaping_engine.cc ****         lut_fold_2 + 1, index, 512.0f);
 1510              		.loc 1 128 5 is_stmt 1 view .LVU452
 128:../eurorack/plaits/dsp/engine/waveshaping_engine.cc ****         lut_fold_2 + 1, index, 512.0f);
 1511              		.loc 1 128 39 is_stmt 0 view .LVU453
 1512 0256 2848     		ldr	r0, .L35+56
 1513 0258 B0EE4D0A 		vmov.f32	s0, s26
 1514              	.LVL139:
 128:../eurorack/plaits/dsp/engine/waveshaping_engine.cc ****         lut_fold_2 + 1, index, 512.0f);
 1515              		.loc 1 128 39 view .LVU454
 1516 025c FFF7FEFF 		bl	_ZN6stmlib18InterpolateHermiteEPKfff
 1517              	.LVL140:
 131:../eurorack/plaits/dsp/engine/waveshaping_engine.cc ****     out[i] = fold;
 1518              		.loc 1 131 5 is_stmt 1 view .LVU455
 131:../eurorack/plaits/dsp/engine/waveshaping_engine.cc ****     out[i] = fold;
 1519              		.loc 1 131 22 is_stmt 0 view .LVU456
 1520 0260 B5EE007A 		vmov.f32	s14, #2.5e-1
 1521 0264 F0EE687A 		vmov.f32	s15, s17
 131:../eurorack/plaits/dsp/engine/waveshaping_engine.cc ****     out[i] = fold;
 1522              		.loc 1 131 28 view .LVU457
 1523 0268 D6ED006A 		vldr.32	s13, [r6]
 1524              	.LBB288:
 1525              	.LBB289:
 1526              	.LBB290:
 1527              	.LBB291:
  67:../eurorack/stmlib/dsp/dsp.h **** 
  68:../eurorack/stmlib/dsp/dsp.h **** inline float InterpolateWrap(const float* table, float index, float size) {
  69:../eurorack/stmlib/dsp/dsp.h ****   index -= static_cast<float>(static_cast<int32_t>(index));
  70:../eurorack/stmlib/dsp/dsp.h ****   index *= size;
  71:../eurorack/stmlib/dsp/dsp.h ****   MAKE_INTEGRAL_FRACTIONAL(index)
  72:../eurorack/stmlib/dsp/dsp.h ****   float a = table[index_integral];
 1528              		.loc 4 72 9 view .LVU458
 1529 026c 234B     		ldr	r3, .L35+60
 1530              	.LBE291:
 1531              	.LBE290:
 1532              	.LBE289:
 1533              	.LBE288:
 129:../eurorack/plaits/dsp/engine/waveshaping_engine.cc ****     
 1534              		.loc 1 129 38 view .LVU459
 1535 026e B1EE400A 		vneg.f32	s0, s0
 1536              	.LVL141:
 131:../eurorack/plaits/dsp/engine/waveshaping_engine.cc ****     out[i] = fold;
 1537              		.loc 1 131 22 view .LVU460
 1538 0272 E6EE877A 		vfma.f32	s15, s13, s14
 1539              	.LVL142:
 1540              	.LBB298:
 1541              	.LBI288:
 1542              		.file 9 "../eurorack/plaits/dsp/oscillator/sine_oscillator.h"
   1:../eurorack/plaits/dsp/oscillator/sine_oscillator.h **** // Copyright 2016 Emilie Gillet.
   2:../eurorack/plaits/dsp/oscillator/sine_oscillator.h **** //
   3:../eurorack/plaits/dsp/oscillator/sine_oscillator.h **** // Author: Emilie Gillet (emilie.o.gillet@gmail.com)
   4:../eurorack/plaits/dsp/oscillator/sine_oscillator.h **** //
ARM GAS  /var/folders/y7/g6pkzsp12sx54x3s3mvyn15r0000gn/T//ccLO9Aj4.s 			page 45


   5:../eurorack/plaits/dsp/oscillator/sine_oscillator.h **** // Permission is hereby granted, free of charge, to any person obtaining a copy
   6:../eurorack/plaits/dsp/oscillator/sine_oscillator.h **** // of this software and associated documentation files (the "Software"), to deal
   7:../eurorack/plaits/dsp/oscillator/sine_oscillator.h **** // in the Software without restriction, including without limitation the rights
   8:../eurorack/plaits/dsp/oscillator/sine_oscillator.h **** // to use, copy, modify, merge, publish, distribute, sublicense, and/or sell
   9:../eurorack/plaits/dsp/oscillator/sine_oscillator.h **** // copies of the Software, and to permit persons to whom the Software is
  10:../eurorack/plaits/dsp/oscillator/sine_oscillator.h **** // furnished to do so, subject to the following conditions:
  11:../eurorack/plaits/dsp/oscillator/sine_oscillator.h **** // 
  12:../eurorack/plaits/dsp/oscillator/sine_oscillator.h **** // The above copyright notice and this permission notice shall be included in
  13:../eurorack/plaits/dsp/oscillator/sine_oscillator.h **** // all copies or substantial portions of the Software.
  14:../eurorack/plaits/dsp/oscillator/sine_oscillator.h **** // 
  15:../eurorack/plaits/dsp/oscillator/sine_oscillator.h **** // THE SOFTWARE IS PROVIDED "AS IS", WITHOUT WARRANTY OF ANY KIND, EXPRESS OR
  16:../eurorack/plaits/dsp/oscillator/sine_oscillator.h **** // IMPLIED, INCLUDING BUT NOT LIMITED TO THE WARRANTIES OF MERCHANTABILITY,
  17:../eurorack/plaits/dsp/oscillator/sine_oscillator.h **** // FITNESS FOR A PARTICULAR PURPOSE AND NONINFRINGEMENT. IN NO EVENT SHALL THE
  18:../eurorack/plaits/dsp/oscillator/sine_oscillator.h **** // AUTHORS OR COPYRIGHT HOLDERS BE LIABLE FOR ANY CLAIM, DAMAGES OR OTHER
  19:../eurorack/plaits/dsp/oscillator/sine_oscillator.h **** // LIABILITY, WHETHER IN AN ACTION OF CONTRACT, TORT OR OTHERWISE, ARISING FROM,
  20:../eurorack/plaits/dsp/oscillator/sine_oscillator.h **** // OUT OF OR IN CONNECTION WITH THE SOFTWARE OR THE USE OR OTHER DEALINGS IN
  21:../eurorack/plaits/dsp/oscillator/sine_oscillator.h **** // THE SOFTWARE.
  22:../eurorack/plaits/dsp/oscillator/sine_oscillator.h **** // 
  23:../eurorack/plaits/dsp/oscillator/sine_oscillator.h **** // See http://creativecommons.org/licenses/MIT/ for more information.
  24:../eurorack/plaits/dsp/oscillator/sine_oscillator.h **** //
  25:../eurorack/plaits/dsp/oscillator/sine_oscillator.h **** // -----------------------------------------------------------------------------
  26:../eurorack/plaits/dsp/oscillator/sine_oscillator.h **** //
  27:../eurorack/plaits/dsp/oscillator/sine_oscillator.h **** // Simple sine oscillator (wavetable) + fast sine oscillator (magic circle).
  28:../eurorack/plaits/dsp/oscillator/sine_oscillator.h **** //
  29:../eurorack/plaits/dsp/oscillator/sine_oscillator.h **** // The fast implementation might glitch a bit under heavy modulations of the
  30:../eurorack/plaits/dsp/oscillator/sine_oscillator.h **** // frequency.
  31:../eurorack/plaits/dsp/oscillator/sine_oscillator.h **** 
  32:../eurorack/plaits/dsp/oscillator/sine_oscillator.h **** #ifndef PLAITS_DSP_OSCILLATOR_SINE_OSCILLATOR_H_
  33:../eurorack/plaits/dsp/oscillator/sine_oscillator.h **** #define PLAITS_DSP_OSCILLATOR_SINE_OSCILLATOR_H_
  34:../eurorack/plaits/dsp/oscillator/sine_oscillator.h **** 
  35:../eurorack/plaits/dsp/oscillator/sine_oscillator.h **** #include "stmlib/dsp/dsp.h"
  36:../eurorack/plaits/dsp/oscillator/sine_oscillator.h **** #include "stmlib/dsp/parameter_interpolator.h"
  37:../eurorack/plaits/dsp/oscillator/sine_oscillator.h **** #include "stmlib/dsp/rsqrt.h"
  38:../eurorack/plaits/dsp/oscillator/sine_oscillator.h **** 
  39:../eurorack/plaits/dsp/oscillator/sine_oscillator.h **** #include "plaits/resources.h"
  40:../eurorack/plaits/dsp/oscillator/sine_oscillator.h **** 
  41:../eurorack/plaits/dsp/oscillator/sine_oscillator.h **** namespace plaits {
  42:../eurorack/plaits/dsp/oscillator/sine_oscillator.h ****   
  43:../eurorack/plaits/dsp/oscillator/sine_oscillator.h **** const float kSineLUTSize = 512.0f;
  44:../eurorack/plaits/dsp/oscillator/sine_oscillator.h **** const size_t kSineLUTQuadrature = 128;
  45:../eurorack/plaits/dsp/oscillator/sine_oscillator.h **** const size_t kSineLUTBits = 9;
  46:../eurorack/plaits/dsp/oscillator/sine_oscillator.h **** 
  47:../eurorack/plaits/dsp/oscillator/sine_oscillator.h **** // Safe for phase >= 0.0f, will wrap.
  48:../eurorack/plaits/dsp/oscillator/sine_oscillator.h **** inline float Sine(float phase) {
 1543              		.loc 9 48 14 is_stmt 1 view .LVU461
 1544              	.LBB296:
  49:../eurorack/plaits/dsp/oscillator/sine_oscillator.h ****   return stmlib::InterpolateWrap(lut_sine, phase, kSineLUTSize);
 1545              		.loc 9 49 3 view .LVU462
 1546              	.LBB294:
 1547              	.LBI290:
  68:../eurorack/stmlib/dsp/dsp.h ****   index -= static_cast<float>(static_cast<int32_t>(index));
 1548              		.loc 4 68 14 view .LVU463
 1549              	.LBB292:
  69:../eurorack/stmlib/dsp/dsp.h ****   index *= size;
 1550              		.loc 4 69 3 view .LVU464
  69:../eurorack/stmlib/dsp/dsp.h ****   index *= size;
 1551              		.loc 4 69 31 is_stmt 0 view .LVU465
ARM GAS  /var/folders/y7/g6pkzsp12sx54x3s3mvyn15r0000gn/T//ccLO9Aj4.s 			page 46


 1552 0276 BDEEE77A 		vcvt.s32.f32	s14, s15
  69:../eurorack/stmlib/dsp/dsp.h ****   index *= size;
 1553              		.loc 4 69 12 view .LVU466
 1554 027a B8EEC77A 		vcvt.f32.s32	s14, s14
  69:../eurorack/stmlib/dsp/dsp.h ****   index *= size;
 1555              		.loc 4 69 9 view .LVU467
 1556 027e 77EEC77A 		vsub.f32	s15, s15, s14
 1557              	.LVL143:
  70:../eurorack/stmlib/dsp/dsp.h ****   MAKE_INTEGRAL_FRACTIONAL(index)
 1558              		.loc 4 70 3 is_stmt 1 view .LVU468
  70:../eurorack/stmlib/dsp/dsp.h ****   MAKE_INTEGRAL_FRACTIONAL(index)
 1559              		.loc 4 70 9 is_stmt 0 view .LVU469
 1560 0282 67EEAC7A 		vmul.f32	s15, s15, s25
 1561              	.LVL144:
  71:../eurorack/stmlib/dsp/dsp.h ****   float a = table[index_integral];
 1562              		.loc 4 71 3 is_stmt 1 view .LVU470
 1563 0286 BDEEE77A 		vcvt.s32.f32	s14, s15
 1564 028a 17EE102A 		vmov	r2, s14	@ int
 1565              	.LVL145:
  71:../eurorack/stmlib/dsp/dsp.h ****   float a = table[index_integral];
 1566              		.loc 4 71 3 view .LVU471
 1567              		.loc 4 72 3 view .LVU472
  71:../eurorack/stmlib/dsp/dsp.h ****   float a = table[index_integral];
 1568              		.loc 4 71 3 is_stmt 0 view .LVU473
 1569 028e 06EE902A 		vmov	s13, r2	@ int
 1570              	.LVL146:
 1571              		.loc 4 72 9 view .LVU474
 1572 0292 03EB8201 		add	r1, r3, r2, lsl #2
  71:../eurorack/stmlib/dsp/dsp.h ****   float a = table[index_integral];
 1573              		.loc 4 71 3 view .LVU475
 1574 0296 F8EEE66A 		vcvt.f32.s32	s13, s13
 1575              		.loc 4 72 9 view .LVU476
 1576 029a 91ED007A 		vldr.32	s14, [r1]
 1577              	.LVL147:
  73:../eurorack/stmlib/dsp/dsp.h ****   float b = table[index_integral + 1];
 1578              		.loc 4 73 3 is_stmt 1 view .LVU477
  74:../eurorack/stmlib/dsp/dsp.h ****   return a + (b - a) * index_fractional;
 1579              		.loc 4 74 3 view .LVU478
  71:../eurorack/stmlib/dsp/dsp.h ****   float a = table[index_integral];
 1580              		.loc 4 71 3 is_stmt 0 view .LVU479
 1581 029e 77EEE67A 		vsub.f32	s15, s15, s13
 1582              	.LVL148:
 1583              		.loc 4 74 17 view .LVU480
 1584 02a2 D1ED016A 		vldr.32	s13, [r1, #4]
 1585              	.LBE292:
 1586              	.LBE294:
 1587              	.LBE296:
 1588              	.LBE298:
 132:../eurorack/plaits/dsp/engine/waveshaping_engine.cc ****     aux[i] = sine + (fold_2 - sine) * overtone_gain_modulation.Next();
 1589              		.loc 1 132 12 view .LVU481
 1590 02a6 A5EC01CA 		vstmia.32	r5!, {s24}
 1591              	.LVL149:
 1592              	.LBB299:
 1593              	.LBB297:
 1594              	.LBB295:
 1595              	.LBB293:
 1596              		.loc 4 74 17 view .LVU482
ARM GAS  /var/folders/y7/g6pkzsp12sx54x3s3mvyn15r0000gn/T//ccLO9Aj4.s 			page 47


 1597 02aa 76EEC76A 		vsub.f32	s13, s13, s14
 1598              		.loc 4 74 24 view .LVU483
 1599 02ae A7EEA67A 		vfma.f32	s14, s15, s13
 1600              	.LVL150:
 1601              		.loc 4 74 24 view .LVU484
 1602              	.LBE293:
 1603              	.LBE295:
 1604              	.LBE297:
 1605              	.LBE299:
 132:../eurorack/plaits/dsp/engine/waveshaping_engine.cc ****     aux[i] = sine + (fold_2 - sine) * overtone_gain_modulation.Next();
 1606              		.loc 1 132 5 is_stmt 1 view .LVU485
 133:../eurorack/plaits/dsp/engine/waveshaping_engine.cc ****   }
 1607              		.loc 1 133 5 view .LVU486
 1608              	.LBB300:
 1609              	.LBI284:
  59:../eurorack/stmlib/dsp/parameter_interpolator.h ****     value_ += increment_;
 1610              		.loc 6 59 16 view .LVU487
 1611              	.LBB286:
  60:../eurorack/stmlib/dsp/parameter_interpolator.h ****     return value_;
 1612              		.loc 6 60 5 view .LVU488
 1613              		.loc 6 61 5 view .LVU489
 1614              		.loc 6 61 5 is_stmt 0 view .LVU490
 1615              	.LBE286:
 1616              	.LBE300:
 133:../eurorack/plaits/dsp/engine/waveshaping_engine.cc ****   }
 1617              		.loc 1 133 29 view .LVU491
 1618 02b2 30EE470A 		vsub.f32	s0, s0, s14
 1619              	.LVL151:
 133:../eurorack/plaits/dsp/engine/waveshaping_engine.cc ****   }
 1620              		.loc 1 133 19 discriminator 1 view .LVU492
 1621 02b6 A0EE0A7A 		vfma.f32	s14, s0, s20
 1622              	.LVL152:
 133:../eurorack/plaits/dsp/engine/waveshaping_engine.cc ****   }
 1623              		.loc 1 133 12 discriminator 1 view .LVU493
 1624 02ba A6EC017A 		vstmia.32	r6!, {s14}
 1625              	.LBE278:
 105:../eurorack/plaits/dsp/engine/waveshaping_engine.cc ****     float shape = shape_modulation.Next() * 3.9999f;
 1626              		.loc 1 105 3 is_stmt 1 discriminator 3 view .LVU494
 1627 02be 54E7     		b	.L32
 1628              	.L36:
 1629              		.align	2
 1630              	.L35:
 1631 02c0 000000C3 		.word	-1023410176
 1632 02c4 0000FE42 		.word	1123942400
 1633 02c8 00000043 		.word	1124073472
 1634 02cc 00000000 		.word	_ZN6stmlib19lut_pitch_ratio_lowE
 1635 02d0 00000000 		.word	_ZN6stmlib20lut_pitch_ratio_highE
 1636 02d4 51969639 		.word	966170193
 1637 02d8 6666E63E 		.word	1055286886
 1638 02dc 1F85EB3E 		.word	1055622431
 1639 02e0 8FC2F53C 		.word	1022739087
 1640 02e4 5DFE7F40 		.word	1082130013
 1641 02e8 00000000 		.word	_ZN6plaits22lookup_table_i16_tableE
 1642 02ec 00000038 		.word	939524096
 1643 02f0 00000044 		.word	1140850688
 1644 02f4 04000000 		.word	_ZN6plaits8lut_foldE+4
 1645 02f8 04000000 		.word	_ZN6plaits10lut_fold_2E+4
ARM GAS  /var/folders/y7/g6pkzsp12sx54x3s3mvyn15r0000gn/T//ccLO9Aj4.s 			page 48


 1646 02fc 00000000 		.word	_ZN6plaits8lut_sineE
 1647              	.LBE307:
 1648              		.cfi_endproc
 1649              	.LFE1329:
 1651              		.global	_ZTVN6plaits17WaveshapingEngineE
 1652              		.section	.rodata._ZTVN6plaits17WaveshapingEngineE,"a"
 1653              		.align	2
 1656              	_ZTVN6plaits17WaveshapingEngineE:
 1657 0000 00000000 		.word	0
 1658 0004 00000000 		.word	0
 1659 0008 00000000 		.word	_ZN6plaits17WaveshapingEngine4InitEPN6stmlib15BufferAllocatorE
 1660 000c 00000000 		.word	_ZN6plaits17WaveshapingEngine5ResetEv
 1661 0010 00000000 		.word	_ZN6plaits17WaveshapingEngine12LoadUserDataEPKh
 1662 0014 00000000 		.word	_ZN6plaits17WaveshapingEngine6RenderERKNS_16EngineParametersEPfS4_jPb
 1663              		.text
 1664              	.Letext0:
 1665              		.file 10 "/Applications/ArmGNUToolchain/14.2.rel1/arm-none-eabi/arm-none-eabi/include/machine/_def
 1666              		.file 11 "/Applications/ArmGNUToolchain/14.2.rel1/arm-none-eabi/arm-none-eabi/include/sys/_stdint.
 1667              		.file 12 "/Applications/ArmGNUToolchain/14.2.rel1/arm-none-eabi/lib/gcc/arm-none-eabi/14.2.1/inclu
 1668              		.file 13 "/Applications/ArmGNUToolchain/14.2.rel1/arm-none-eabi/arm-none-eabi/include/c++/14.2.1/c
 1669              		.file 14 "/Applications/ArmGNUToolchain/14.2.rel1/arm-none-eabi/arm-none-eabi/include/c++/14.2.1/b
 1670              		.file 15 "/Applications/ArmGNUToolchain/14.2.rel1/arm-none-eabi/arm-none-eabi/include/c++/14.2.1/t
 1671              		.file 16 "/Applications/ArmGNUToolchain/14.2.rel1/arm-none-eabi/arm-none-eabi/include/c++/14.2.1/d
 1672              		.file 17 "/Applications/ArmGNUToolchain/14.2.rel1/arm-none-eabi/arm-none-eabi/include/c++/14.2.1/c
 1673              		.file 18 "/Applications/ArmGNUToolchain/14.2.rel1/arm-none-eabi/arm-none-eabi/include/c++/14.2.1/b
 1674              		.file 19 "/Applications/ArmGNUToolchain/14.2.rel1/arm-none-eabi/arm-none-eabi/include/math.h"
 1675              		.file 20 "/Applications/ArmGNUToolchain/14.2.rel1/arm-none-eabi/arm-none-eabi/include/stdlib.h"
 1676              		.file 21 "/Applications/ArmGNUToolchain/14.2.rel1/arm-none-eabi/arm-none-eabi/include/c++/14.2.1/m
 1677              		.file 22 "../eurorack/stmlib/stmlib.h"
 1678              		.file 23 "/Applications/ArmGNUToolchain/14.2.rel1/arm-none-eabi/arm-none-eabi/include/c++/14.2.1/a
 1679              		.file 24 "/Applications/ArmGNUToolchain/14.2.rel1/arm-none-eabi/arm-none-eabi/include/c++/14.2.1/b
 1680              		.file 25 "../eurorack/stmlib/utils/buffer_allocator.h"
 1681              		.file 26 "../eurorack/plaits/dsp/dsp.h"
 1682              		.file 27 "../eurorack/plaits/resources.h"
ARM GAS  /var/folders/y7/g6pkzsp12sx54x3s3mvyn15r0000gn/T//ccLO9Aj4.s 			page 49


DEFINED SYMBOLS
                            *ABS*:00000000 waveshaping_engine.cc
/var/folders/y7/g6pkzsp12sx54x3s3mvyn15r0000gn/T//ccLO9Aj4.s:20     .text._ZN6plaits17WaveshapingEngine12LoadUserDataEPKh:00000000 $t
/var/folders/y7/g6pkzsp12sx54x3s3mvyn15r0000gn/T//ccLO9Aj4.s:26     .text._ZN6plaits17WaveshapingEngine12LoadUserDataEPKh:00000000 _ZN6plaits17WaveshapingEngine12LoadUserDataEPKh
/var/folders/y7/g6pkzsp12sx54x3s3mvyn15r0000gn/T//ccLO9Aj4.s:41     .text._ZN6plaits17WaveshapingEngine5ResetEv:00000000 $t
/var/folders/y7/g6pkzsp12sx54x3s3mvyn15r0000gn/T//ccLO9Aj4.s:47     .text._ZN6plaits17WaveshapingEngine5ResetEv:00000000 _ZN6plaits17WaveshapingEngine5ResetEv
/var/folders/y7/g6pkzsp12sx54x3s3mvyn15r0000gn/T//ccLO9Aj4.s:61     .text._ZN6plaits17WaveshapingEngine4InitEPN6stmlib15BufferAllocatorE:00000000 $t
/var/folders/y7/g6pkzsp12sx54x3s3mvyn15r0000gn/T//ccLO9Aj4.s:67     .text._ZN6plaits17WaveshapingEngine4InitEPN6stmlib15BufferAllocatorE:00000000 _ZN6plaits17WaveshapingEngine4InitEPN6stmlib15BufferAllocatorE
/var/folders/y7/g6pkzsp12sx54x3s3mvyn15r0000gn/T//ccLO9Aj4.s:170    .text._ZN6plaits17WaveshapingEngine4InitEPN6stmlib15BufferAllocatorE:00000038 $d
/var/folders/y7/g6pkzsp12sx54x3s3mvyn15r0000gn/T//ccLO9Aj4.s:175    .text._ZN6stmlib18InterpolateHermiteEPKfff:00000000 $t
/var/folders/y7/g6pkzsp12sx54x3s3mvyn15r0000gn/T//ccLO9Aj4.s:181    .text._ZN6stmlib18InterpolateHermiteEPKfff:00000000 _ZN6stmlib18InterpolateHermiteEPKfff
/var/folders/y7/g6pkzsp12sx54x3s3mvyn15r0000gn/T//ccLO9Aj4.s:278    .text._ZN6stmlib24NextIntegratedBlepSampleEf:00000000 $t
/var/folders/y7/g6pkzsp12sx54x3s3mvyn15r0000gn/T//ccLO9Aj4.s:284    .text._ZN6stmlib24NextIntegratedBlepSampleEf:00000000 _ZN6stmlib24NextIntegratedBlepSampleEf
/var/folders/y7/g6pkzsp12sx54x3s3mvyn15r0000gn/T//ccLO9Aj4.s:321    .text._ZN6plaits10Oscillator6RenderILNS_15OscillatorShapeE3ELb0ELb0EEEvffPKfPfj.isra.0:00000000 $t
/var/folders/y7/g6pkzsp12sx54x3s3mvyn15r0000gn/T//ccLO9Aj4.s:326    .text._ZN6plaits10Oscillator6RenderILNS_15OscillatorShapeE3ELb0ELb0EEEvffPKfPfj.isra.0:00000000 _ZN6plaits10Oscillator6RenderILNS_15OscillatorShapeE3ELb0ELb0EEEvffPKfPfj.isra.0
/var/folders/y7/g6pkzsp12sx54x3s3mvyn15r0000gn/T//ccLO9Aj4.s:736    .text._ZN6plaits10Oscillator6RenderILNS_15OscillatorShapeE3ELb0ELb0EEEvffPKfPfj.isra.0:0000015c $d
/var/folders/y7/g6pkzsp12sx54x3s3mvyn15r0000gn/T//ccLO9Aj4.s:745    .text._ZN6plaits4TameEfff:00000000 $t
/var/folders/y7/g6pkzsp12sx54x3s3mvyn15r0000gn/T//ccLO9Aj4.s:751    .text._ZN6plaits4TameEfff:00000000 _ZN6plaits4TameEfff
/var/folders/y7/g6pkzsp12sx54x3s3mvyn15r0000gn/T//ccLO9Aj4.s:805    .text._ZN6plaits4TameEfff:00000048 $d
/var/folders/y7/g6pkzsp12sx54x3s3mvyn15r0000gn/T//ccLO9Aj4.s:810    .text._ZN6plaits17WaveshapingEngine6RenderERKNS_16EngineParametersEPfS4_jPb:00000000 $t
/var/folders/y7/g6pkzsp12sx54x3s3mvyn15r0000gn/T//ccLO9Aj4.s:816    .text._ZN6plaits17WaveshapingEngine6RenderERKNS_16EngineParametersEPfS4_jPb:00000000 _ZN6plaits17WaveshapingEngine6RenderERKNS_16EngineParametersEPfS4_jPb
/var/folders/y7/g6pkzsp12sx54x3s3mvyn15r0000gn/T//ccLO9Aj4.s:1631   .text._ZN6plaits17WaveshapingEngine6RenderERKNS_16EngineParametersEPfS4_jPb:000002c0 $d
/var/folders/y7/g6pkzsp12sx54x3s3mvyn15r0000gn/T//ccLO9Aj4.s:1656   .rodata._ZTVN6plaits17WaveshapingEngineE:00000000 _ZTVN6plaits17WaveshapingEngineE
/var/folders/y7/g6pkzsp12sx54x3s3mvyn15r0000gn/T//ccLO9Aj4.s:1653   .rodata._ZTVN6plaits17WaveshapingEngineE:00000000 $d

UNDEFINED SYMBOLS
_ZN6stmlib19lut_pitch_ratio_lowE
_ZN6stmlib20lut_pitch_ratio_highE
_ZN6plaits22lookup_table_i16_tableE
_ZN6plaits8lut_foldE
_ZN6plaits10lut_fold_2E
_ZN6plaits8lut_sineE
